ARM GAS  /tmp/ccTm3qY6.s 			page 1


   1              		.cpu cortex-m3
   2              		.eabi_attribute 20, 1
   3              		.eabi_attribute 21, 1
   4              		.eabi_attribute 23, 3
   5              		.eabi_attribute 24, 1
   6              		.eabi_attribute 25, 1
   7              		.eabi_attribute 26, 1
   8              		.eabi_attribute 30, 4
   9              		.eabi_attribute 34, 1
  10              		.eabi_attribute 18, 4
  11              		.file	"adc-stm32f103.c"
  12              		.text
  13              	.Ltext0:
  14              		.cfi_sections	.debug_frame
  15              		.section	.text.adc_init,"ax",%progbits
  16              		.align	1
  17              		.global	adc_init
  18              		.syntax unified
  19              		.thumb
  20              		.thumb_func
  21              		.fpu softvfp
  22              		.type	adc_init, %function
  23              	adc_init:
  24              	.LFB0:
  25              		.file 1 "../chopstx/contrib/adc-stm32f103.c"
  26              		.loc 1 108 0
  27              		.cfi_startproc
  28              		@ args = 0, pretend = 0, frame = 0
  29              		@ frame_needed = 0, uses_anonymous_args = 0
  30              		.loc 1 109 0
  31 0000 1A4A     		ldr	r2, .L10
  32              		.loc 1 108 0
  33 0002 10B5     		push	{r4, lr}
  34              		.cfi_def_cfa_offset 8
  35              		.cfi_offset 4, -8
  36              		.cfi_offset 14, -4
  37              		.loc 1 109 0
  38 0004 9369     		ldr	r3, [r2, #24]
  39              		.loc 1 111 0
  40 0006 0021     		movs	r1, #0
  41              		.loc 1 109 0
  42 0008 43F4C063 		orr	r3, r3, #1536
  43 000c 9361     		str	r3, [r2, #24]
  44              		.loc 1 110 0
  45 000e 4FF4C063 		mov	r3, #1536
  46 0012 D360     		str	r3, [r2, #12]
  47              		.loc 1 113 0
  48 0014 164B     		ldr	r3, .L10+4
  49              		.loc 1 111 0
  50 0016 D160     		str	r1, [r2, #12]
  51              		.loc 1 113 0
  52 0018 5960     		str	r1, [r3, #4]
  53              		.loc 1 114 0
  54 001a 0121     		movs	r1, #1
  55 001c 9960     		str	r1, [r3, #8]
  56              		.loc 1 115 0
  57 001e 0921     		movs	r1, #9
ARM GAS  /tmp/ccTm3qY6.s 			page 2


  58 0020 9960     		str	r1, [r3, #8]
  59 0022 1146     		mov	r1, r2
  60              	.L2:
  61              		.loc 1 116 0 discriminator 1
  62 0024 9A68     		ldr	r2, [r3, #8]
  63 0026 1007     		lsls	r0, r2, #28
  64 0028 FCD4     		bmi	.L2
  65              		.loc 1 118 0
  66 002a 0522     		movs	r2, #5
  67 002c 9A60     		str	r2, [r3, #8]
  68              	.L3:
  69              		.loc 1 119 0 discriminator 1
  70 002e 9A68     		ldr	r2, [r3, #8]
  71 0030 12F00402 		ands	r2, r2, #4
  72 0034 FBD1     		bne	.L3
  73              		.loc 1 121 0
  74 0036 9A60     		str	r2, [r3, #8]
  75              		.loc 1 123 0
  76 0038 0E4B     		ldr	r3, .L10+8
  77 003a 5A60     		str	r2, [r3, #4]
  78              		.loc 1 124 0
  79 003c 0122     		movs	r2, #1
  80 003e 9A60     		str	r2, [r3, #8]
  81              		.loc 1 125 0
  82 0040 0922     		movs	r2, #9
  83 0042 9A60     		str	r2, [r3, #8]
  84              	.L4:
  85              		.loc 1 126 0 discriminator 1
  86 0044 9A68     		ldr	r2, [r3, #8]
  87 0046 1207     		lsls	r2, r2, #28
  88 0048 FCD4     		bmi	.L4
  89              		.loc 1 128 0
  90 004a 0522     		movs	r2, #5
  91 004c 9A60     		str	r2, [r3, #8]
  92              	.L5:
  93              		.loc 1 129 0 discriminator 1
  94 004e 9C68     		ldr	r4, [r3, #8]
  95 0050 14F00404 		ands	r4, r4, #4
  96 0054 FBD1     		bne	.L5
  97              		.loc 1 131 0
  98 0056 9C60     		str	r4, [r3, #8]
  99              		.loc 1 132 0
 100 0058 8B69     		ldr	r3, [r1, #24]
 101              		.loc 1 134 0
 102 005a 0748     		ldr	r0, .L10+12
 103              		.loc 1 132 0
 104 005c 23F4C063 		bic	r3, r3, #1536
 105 0060 8B61     		str	r3, [r1, #24]
 106              		.loc 1 134 0
 107 0062 0B21     		movs	r1, #11
 108 0064 FFF7FEFF 		bl	chopstx_claim_irq
 109              	.LVL0:
 110              		.loc 1 136 0
 111 0068 2046     		mov	r0, r4
 112 006a 10BD     		pop	{r4, pc}
 113              	.L11:
 114              		.align	2
ARM GAS  /tmp/ccTm3qY6.s 			page 3


 115              	.L10:
 116 006c 00100240 		.word	1073876992
 117 0070 00240140 		.word	1073816576
 118 0074 00280140 		.word	1073817600
 119 0078 00000000 		.word	.LANCHOR0
 120              		.cfi_endproc
 121              	.LFE0:
 122              		.size	adc_init, .-adc_init
 123              		.section	.text.adc_start,"ax",%progbits
 124              		.align	1
 125              		.global	adc_start
 126              		.syntax unified
 127              		.thumb
 128              		.thumb_func
 129              		.fpu softvfp
 130              		.type	adc_start, %function
 131              	adc_start:
 132              	.LFB14:
 133              		.loc 1 193 0
 134              		.cfi_startproc
 135              		@ args = 0, pretend = 0, frame = 0
 136              		@ frame_needed = 0, uses_anonymous_args = 0
 137              	.LVL1:
 138              	.LBB4:
 139              	.LBB5:
 140              		.loc 1 145 0
 141 0000 224B     		ldr	r3, .L19
 142 0002 234A     		ldr	r2, .L19+4
 143 0004 1B68     		ldr	r3, [r3]
 144              	.LBE5:
 145              	.LBE4:
 146              		.loc 1 193 0
 147 0006 10B5     		push	{r4, lr}
 148              		.cfi_def_cfa_offset 8
 149              		.cfi_offset 4, -8
 150              		.cfi_offset 14, -4
 151              	.LBB8:
 152              	.LBB6:
 153              		.loc 1 145 0
 154 0008 9342     		cmp	r3, r2
 155 000a 3BD0     		beq	.L18
 156 000c 04D8     		bhi	.L15
 157 000e 214A     		ldr	r2, .L19+8
 158 0010 9342     		cmp	r3, r2
 159 0012 35D0     		beq	.L16
 160              	.L13:
 161              	.LVL2:
 162              		.loc 1 184 0
 163 0014 2020     		movs	r0, #32
 164 0016 07E0     		b	.L14
 165              	.LVL3:
 166              	.L15:
 167              		.loc 1 145 0
 168 0018 1F4A     		ldr	r2, .L19+12
 169 001a 9342     		cmp	r3, r2
 170 001c 02D0     		beq	.L17
 171 001e 1F4A     		ldr	r2, .L19+16
ARM GAS  /tmp/ccTm3qY6.s 			page 4


 172 0020 9342     		cmp	r3, r2
 173 0022 F7D1     		bne	.L13
 174              	.L17:
 175              		.loc 1 160 0
 176 0024 4FF4B570 		mov	r0, #362
 177              	.L14:
 178              	.LVL4:
 179              	.LBE6:
 180              	.LBE8:
 181              		.loc 1 199 0
 182 0028 1D4A     		ldr	r2, .L19+20
 183              		.loc 1 201 0
 184 002a 4FF0FF34 		mov	r4, #-1
 185              		.loc 1 199 0
 186 002e 5369     		ldr	r3, [r2, #20]
 187              		.loc 1 200 0
 188 0030 1C49     		ldr	r1, .L19+24
 189              		.loc 1 199 0
 190 0032 43F00103 		orr	r3, r3, #1
 191 0036 5361     		str	r3, [r2, #20]
 192              		.loc 1 200 0
 193 0038 0023     		movs	r3, #0
 194 003a 0B60     		str	r3, [r1]
 195              		.loc 1 201 0
 196 003c 41F8044C 		str	r4, [r1, #-4]
 197              		.loc 1 203 0
 198 0040 9169     		ldr	r1, [r2, #24]
 199              		.loc 1 205 0
 200 0042 194C     		ldr	r4, .L19+28
 201              		.loc 1 203 0
 202 0044 41F4C061 		orr	r1, r1, #1536
 203 0048 9161     		str	r1, [r2, #24]
 204              		.loc 1 207 0
 205 004a 1849     		ldr	r1, .L19+32
 206              		.loc 1 205 0
 207 004c A2F56C42 		sub	r2, r2, #60416
 208 0050 5460     		str	r4, [r2, #4]
 209              		.loc 1 207 0
 210 0052 9160     		str	r1, [r2, #8]
 211              		.loc 1 211 0
 212 0054 4FF44011 		mov	r1, #3145728
 213              		.loc 1 209 0
 214 0058 D360     		str	r3, [r2, #12]
 215              		.loc 1 210 0
 216 005a 1361     		str	r3, [r2, #16]
 217              		.loc 1 211 0
 218 005c D162     		str	r1, [r2, #44]
 219              		.loc 1 213 0
 220 005e 1449     		ldr	r1, .L19+36
 221              		.loc 1 212 0
 222 0060 1363     		str	r3, [r2, #48]
 223              		.loc 1 213 0
 224 0062 5163     		str	r1, [r2, #52]
 225              		.loc 1 215 0
 226 0064 1349     		ldr	r1, .L19+40
 227 0066 4C60     		str	r4, [r1, #4]
 228              		.loc 1 217 0
ARM GAS  /tmp/ccTm3qY6.s 			page 5


 229 0068 134C     		ldr	r4, .L19+44
 230 006a 8C60     		str	r4, [r1, #8]
 231              		.loc 1 220 0
 232 006c 4FF48014 		mov	r4, #1048576
 233              		.loc 1 218 0
 234 0070 CB60     		str	r3, [r1, #12]
 235              		.loc 1 219 0
 236 0072 0B61     		str	r3, [r1, #16]
 237              		.loc 1 220 0
 238 0074 CC62     		str	r4, [r1, #44]
 239              		.loc 1 221 0
 240 0076 0B63     		str	r3, [r1, #48]
 241              		.loc 1 222 0
 242 0078 4863     		str	r0, [r1, #52]
 243              		.loc 1 231 0
 244 007a 8B60     		str	r3, [r1, #8]
 245              		.loc 1 232 0
 246 007c 9360     		str	r3, [r2, #8]
 247              		.loc 1 239 0
 248 007e 10BD     		pop	{r4, pc}
 249              	.LVL5:
 250              	.L16:
 251              	.LBB9:
 252              	.LBB7:
 253              		.loc 1 168 0
 254 0080 4120     		movs	r0, #65
 255 0082 D1E7     		b	.L14
 256              	.LVL6:
 257              	.L18:
 258              		.loc 1 151 0
 259 0084 4FF49070 		mov	r0, #288
 260 0088 CEE7     		b	.L14
 261              	.L20:
 262 008a 00BF     		.align	2
 263              	.L19:
 264 008c 00000000 		.word	sys_board_id
 265 0090 AF866869 		.word	1768457903
 266 0094 6119341F 		.word	523508065
 267 0098 E8375C94 		.word	-1805895704
 268 009c 94B52BF9 		.word	-114575980
 269 00a0 00100240 		.word	1073876992
 270 00a4 08000240 		.word	1073872904
 271 00a8 00010700 		.word	459008
 272 00ac 0301DE00 		.word	14549251
 273 00b0 11C20800 		.word	573969
 274 00b4 00280140 		.word	1073817600
 275 00b8 03001000 		.word	1048579
 276              	.LBE7:
 277              	.LBE9:
 278              		.cfi_endproc
 279              	.LFE14:
 280              		.size	adc_start, .-adc_start
 281              		.section	.text.adc_start_conversion,"ax",%progbits
 282              		.align	1
 283              		.global	adc_start_conversion
 284              		.syntax unified
 285              		.thumb
ARM GAS  /tmp/ccTm3qY6.s 			page 6


 286              		.thumb_func
 287              		.fpu softvfp
 288              		.type	adc_start_conversion, %function
 289              	adc_start_conversion:
 290              	.LFB15:
 291              		.loc 1 245 0
 292              		.cfi_startproc
 293              		@ args = 0, pretend = 0, frame = 0
 294              		@ frame_needed = 0, uses_anonymous_args = 0
 295              		@ link register save eliminated.
 296              	.LVL7:
 297              		.loc 1 246 0
 298 0000 094B     		ldr	r3, .L22
 299 0002 0A4A     		ldr	r2, .L22+4
 300 0004 9A60     		str	r2, [r3, #8]
 301              		.loc 1 247 0
 302 0006 0A4A     		ldr	r2, .L22+8
 303 0008 02EB8000 		add	r0, r2, r0, lsl #2
 304              	.LVL8:
 305              		.loc 1 249 0
 306 000c 42F68B22 		movw	r2, #10891
 307              		.loc 1 247 0
 308 0010 D860     		str	r0, [r3, #12]
 309              		.loc 1 248 0
 310 0012 5960     		str	r1, [r3, #4]
 311              		.loc 1 253 0
 312 0014 0748     		ldr	r0, .L22+12
 313              		.loc 1 249 0
 314 0016 1A60     		str	r2, [r3]
 315              		.loc 1 253 0
 316 0018 0749     		ldr	r1, .L22+16
 317              	.LVL9:
 318              		.loc 1 254 0
 319 001a 084B     		ldr	r3, .L22+20
 320 001c 084A     		ldr	r2, .L22+24
 321              		.loc 1 253 0
 322 001e 8860     		str	r0, [r1, #8]
 323              		.loc 1 254 0
 324 0020 9A60     		str	r2, [r3, #8]
 325              		.loc 1 260 0
 326 0022 8860     		str	r0, [r1, #8]
 327              		.loc 1 261 0
 328 0024 9A60     		str	r2, [r3, #8]
 329              		.loc 1 264 0
 330 0026 7047     		bx	lr
 331              	.L23:
 332              		.align	2
 333              	.L22:
 334 0028 08000240 		.word	1073872904
 335 002c 4C240140 		.word	1073816652
 336 0030 00000000 		.word	.LANCHOR1
 337 0034 03001000 		.word	1048579
 338 0038 00280140 		.word	1073817600
 339 003c 00240140 		.word	1073816576
 340 0040 0301DE00 		.word	14549251
 341              		.cfi_endproc
 342              	.LFE15:
ARM GAS  /tmp/ccTm3qY6.s 			page 7


 343              		.size	adc_start_conversion, .-adc_start_conversion
 344              		.section	.text.adc_stop,"ax",%progbits
 345              		.align	1
 346              		.global	adc_stop
 347              		.syntax unified
 348              		.thumb
 349              		.thumb_func
 350              		.fpu softvfp
 351              		.type	adc_stop, %function
 352              	adc_stop:
 353              	.LFB17:
 354              		.loc 1 279 0
 355              		.cfi_startproc
 356              		@ args = 0, pretend = 0, frame = 0
 357              		@ frame_needed = 0, uses_anonymous_args = 0
 358              		@ link register save eliminated.
 359              		.loc 1 280 0
 360 0000 0023     		movs	r3, #0
 361 0002 0A4A     		ldr	r2, .L25
 362 0004 5360     		str	r3, [r2, #4]
 363              		.loc 1 281 0
 364 0006 9360     		str	r3, [r2, #8]
 365              		.loc 1 283 0
 366 0008 C2F80434 		str	r3, [r2, #1028]
 367              		.loc 1 284 0
 368 000c C2F80834 		str	r3, [r2, #1032]
 369              		.loc 1 286 0
 370 0010 03F18043 		add	r3, r3, #1073741824
 371 0014 03F50433 		add	r3, r3, #135168
 372 0018 5A69     		ldr	r2, [r3, #20]
 373 001a 22F00102 		bic	r2, r2, #1
 374 001e 5A61     		str	r2, [r3, #20]
 375              		.loc 1 287 0
 376 0020 9A69     		ldr	r2, [r3, #24]
 377 0022 22F4C062 		bic	r2, r2, #1536
 378 0026 9A61     		str	r2, [r3, #24]
 379              		.loc 1 288 0
 380 0028 7047     		bx	lr
 381              	.L26:
 382 002a 00BF     		.align	2
 383              	.L25:
 384 002c 00240140 		.word	1073816576
 385              		.cfi_endproc
 386              	.LFE17:
 387              		.size	adc_stop, .-adc_stop
 388              		.section	.text.adc_wait_completion,"ax",%progbits
 389              		.align	1
 390              		.global	adc_wait_completion
 391              		.syntax unified
 392              		.thumb
 393              		.thumb_func
 394              		.fpu softvfp
 395              		.type	adc_wait_completion, %function
 396              	adc_wait_completion:
 397              	.LFB18:
 398              		.loc 1 299 0
 399              		.cfi_startproc
ARM GAS  /tmp/ccTm3qY6.s 			page 8


 400              		@ args = 0, pretend = 0, frame = 8
 401              		@ frame_needed = 0, uses_anonymous_args = 0
 402 0000 37B5     		push	{r0, r1, r2, r4, r5, lr}
 403              		.cfi_def_cfa_offset 24
 404              		.cfi_offset 4, -12
 405              		.cfi_offset 5, -8
 406              		.cfi_offset 14, -4
 407              		.loc 1 301 0
 408 0002 184B     		ldr	r3, .L33
 409 0004 02AC     		add	r4, sp, #8
 410              		.loc 1 306 0
 411 0006 184D     		ldr	r5, .L33+4
 412              		.loc 1 301 0
 413 0008 44F8043D 		str	r3, [r4, #-4]!
 414              	.L30:
 415              		.loc 1 305 0
 416 000c 2246     		mov	r2, r4
 417 000e 0121     		movs	r1, #1
 418 0010 0020     		movs	r0, #0
 419 0012 FFF7FEFF 		bl	chopstx_poll
 420              	.LVL10:
 421              		.loc 1 306 0
 422 0016 2B68     		ldr	r3, [r5]
 423              	.LVL11:
 424              		.loc 1 313 0
 425 0018 03F00E02 		and	r2, r3, #14
 426              		.loc 1 315 0
 427 001c 13F00800 		ands	r0, r3, #8
 428              		.loc 1 313 0
 429 0020 6A60     		str	r2, [r5, #4]
 430              		.loc 1 315 0
 431 0022 11D0     		beq	.L28
 432              		.loc 1 319 0
 433 0024 114A     		ldr	r2, .L33+8
 434              		.loc 1 321 0
 435 0026 0120     		movs	r0, #1
 436              		.loc 1 319 0
 437 0028 1368     		ldr	r3, [r2]
 438              	.LVL12:
 439 002a 0133     		adds	r3, r3, #1
 440 002c 1360     		str	r3, [r2]
 441              	.LBB14:
 442              	.LBB15:
 443              		.loc 1 269 0
 444 002e 104A     		ldr	r2, .L33+12
 445 0030 1368     		ldr	r3, [r2]
 446 0032 23F00103 		bic	r3, r3, #1
 447 0036 1360     		str	r3, [r2]
 448              		.loc 1 272 0
 449 0038 0023     		movs	r3, #0
 450 003a 0E4A     		ldr	r2, .L33+16
 451 003c 9360     		str	r3, [r2, #8]
 452              		.loc 1 273 0
 453 003e A2F58062 		sub	r2, r2, #1024
 454 0042 9360     		str	r3, [r2, #8]
 455              	.L27:
 456              	.LBE15:
ARM GAS  /tmp/ccTm3qY6.s 			page 9


 457              	.LBE14:
 458              		.loc 1 329 0
 459 0044 03B0     		add	sp, sp, #12
 460              		.cfi_remember_state
 461              		.cfi_def_cfa_offset 12
 462              		@ sp needed
 463 0046 30BD     		pop	{r4, r5, pc}
 464              	.LVL13:
 465              	.L28:
 466              		.cfi_restore_state
 467              		.loc 1 323 0
 468 0048 9B07     		lsls	r3, r3, #30
 469              	.LVL14:
 470 004a DFD5     		bpl	.L30
 471              	.LBB16:
 472              	.LBB17:
 473              		.loc 1 269 0
 474 004c 084A     		ldr	r2, .L33+12
 475 004e 1368     		ldr	r3, [r2]
 476 0050 23F00103 		bic	r3, r3, #1
 477 0054 1360     		str	r3, [r2]
 478              		.loc 1 272 0
 479 0056 074B     		ldr	r3, .L33+16
 480 0058 9860     		str	r0, [r3, #8]
 481              		.loc 1 273 0
 482 005a A3F58063 		sub	r3, r3, #1024
 483 005e 9860     		str	r0, [r3, #8]
 484 0060 F0E7     		b	.L27
 485              	.L34:
 486 0062 00BF     		.align	2
 487              	.L33:
 488 0064 00000000 		.word	.LANCHOR0
 489 0068 00000240 		.word	1073872896
 490 006c 00000000 		.word	.LANCHOR2
 491 0070 08000240 		.word	1073872904
 492 0074 00280140 		.word	1073817600
 493              	.LBE17:
 494              	.LBE16:
 495              		.cfi_endproc
 496              	.LFE18:
 497              		.size	adc_wait_completion, .-adc_wait_completion
 498              		.global	adc_buf
 499              		.section	.bss.adc_buf,"aw",%nobits
 500              		.align	2
 501              		.set	.LANCHOR1,. + 0
 502              		.type	adc_buf, %object
 503              		.size	adc_buf, 256
 504              	adc_buf:
 505 0000 00000000 		.space	256
 505      00000000 
 505      00000000 
 505      00000000 
 505      00000000 
 506              		.section	.bss.adc_err,"aw",%nobits
 507              		.align	2
 508              		.set	.LANCHOR2,. + 0
 509              		.type	adc_err, %object
ARM GAS  /tmp/ccTm3qY6.s 			page 10


 510              		.size	adc_err, 4
 511              	adc_err:
 512 0000 00000000 		.space	4
 513              		.section	.bss.adc_intr,"aw",%nobits
 514              		.align	1
 515              		.set	.LANCHOR0,. + 0
 516              		.type	adc_intr, %object
 517              		.size	adc_intr, 6
 518              	adc_intr:
 519 0000 00000000 		.space	6
 519      0000
 520              		.text
 521              	.Letext0:
 522              		.file 2 "/usr/arm-none-eabi/include/machine/_default_types.h"
 523              		.file 3 "/usr/arm-none-eabi/include/sys/_stdint.h"
 524              		.file 4 "/usr/arm-none-eabi/include/sys/lock.h"
 525              		.file 5 "/usr/arm-none-eabi/include/sys/_types.h"
 526              		.file 6 "/usr/lib/gcc/arm-none-eabi/7.3.1/include/stddef.h"
 527              		.file 7 "/usr/arm-none-eabi/include/sys/reent.h"
 528              		.file 8 "/usr/arm-none-eabi/include/stdlib.h"
 529              		.file 9 "../chopstx/chopstx.h"
 530              		.file 10 "../chopstx/mcu/stm32f103.h"
 531              		.file 11 "../chopstx/adc.h"
 532              		.file 12 "../chopstx/mcu/sys-stm32f103.h"