ARM GAS  /tmp/ccFquxZA.s 			page 1


   1              		.cpu cortex-m3
   2              		.eabi_attribute 20, 1
   3              		.eabi_attribute 21, 1
   4              		.eabi_attribute 23, 3
   5              		.eabi_attribute 24, 1
   6              		.eabi_attribute 25, 1
   7              		.eabi_attribute 26, 1
   8              		.eabi_attribute 30, 4
   9              		.eabi_attribute 34, 1
  10              		.eabi_attribute 18, 4
  11              		.file	"bn.c"
  12              		.text
  13              	.Ltext0:
  14              		.cfi_sections	.debug_frame
  15              		.section	.text.bn256_add,"ax",%progbits
  16              		.align	1
  17              		.global	bn256_add
  18              		.syntax unified
  19              		.thumb
  20              		.thumb_func
  21              		.fpu softvfp
  22              		.type	bn256_add, %function
  23              	bn256_add:
  24              	.LFB0:
  25              		.file 1 "bn.c"
  26              		.loc 1 33 0
  27              		.cfi_startproc
  28              		@ args = 0, pretend = 0, frame = 0
  29              		@ frame_needed = 0, uses_anonymous_args = 0
  30              	.LVL0:
  31 0000 F0B5     		push	{r4, r5, r6, r7, lr}
  32              		.cfi_def_cfa_offset 20
  33              		.cfi_offset 4, -20
  34              		.cfi_offset 5, -16
  35              		.cfi_offset 6, -12
  36              		.cfi_offset 7, -8
  37              		.cfi_offset 14, -4
  38              		.loc 1 33 0
  39 0002 0746     		mov	r7, r0
  40              	.LVL1:
  41              		.loc 1 36 0
  42 0004 0020     		movs	r0, #0
  43              	.LVL2:
  44              		.loc 1 44 0
  45 0006 0446     		mov	r4, r0
  46              	.LVL3:
  47              	.L6:
  48 0008 51F82430 		ldr	r3, [r1, r4, lsl #2]
  49              		.loc 1 46 0 discriminator 3
  50 000c 52F82450 		ldr	r5, [r2, r4, lsl #2]
  51              	.LVL4:
  52 0010 1B18     		adds	r3, r3, r0
  53 0012 4FF00006 		mov	r6, #0
  54 0016 28BF     		it	cs
  55 0018 0126     		movcs	r6, #1
  56              	.LVL5:
  57 001a 5B19     		adds	r3, r3, r5
ARM GAS  /tmp/ccFquxZA.s 			page 2


  58              		.loc 1 49 0 discriminator 3
  59 001c 47F82430 		str	r3, [r7, r4, lsl #2]
  60              		.loc 1 50 0 discriminator 3
  61 0020 2CBF     		ite	cs
  62 0022 0123     		movcs	r3, #1
  63 0024 0023     		movcc	r3, #0
  64              		.loc 1 44 0 discriminator 3
  65 0026 0134     		adds	r4, r4, #1
  66              	.LVL6:
  67 0028 082C     		cmp	r4, #8
  68              		.loc 1 50 0 discriminator 3
  69 002a 03EB0600 		add	r0, r3, r6
  70              	.LVL7:
  71              		.loc 1 44 0 discriminator 3
  72 002e EBD1     		bne	.L6
  73              		.loc 1 57 0
  74 0030 F0BD     		pop	{r4, r5, r6, r7, pc}
  75              		.cfi_endproc
  76              	.LFE0:
  77              		.size	bn256_add, .-bn256_add
  78              		.section	.text.bn256_sub,"ax",%progbits
  79              		.align	1
  80              		.global	bn256_sub
  81              		.syntax unified
  82              		.thumb
  83              		.thumb_func
  84              		.fpu softvfp
  85              		.type	bn256_sub, %function
  86              	bn256_sub:
  87              	.LFB1:
  88              		.loc 1 61 0
  89              		.cfi_startproc
  90              		@ args = 0, pretend = 0, frame = 0
  91              		@ frame_needed = 0, uses_anonymous_args = 0
  92              	.LVL8:
  93 0000 F0B5     		push	{r4, r5, r6, r7, lr}
  94              		.cfi_def_cfa_offset 20
  95              		.cfi_offset 4, -20
  96              		.cfi_offset 5, -16
  97              		.cfi_offset 6, -12
  98              		.cfi_offset 7, -8
  99              		.cfi_offset 14, -4
 100              		.loc 1 61 0
 101 0002 0746     		mov	r7, r0
 102              	.LVL9:
 103              		.loc 1 64 0
 104 0004 0020     		movs	r0, #0
 105              	.LVL10:
 106              		.loc 1 72 0
 107 0006 0346     		mov	r3, r0
 108              	.LVL11:
 109              	.L9:
 110              	.LBB2:
 111              		.loc 1 74 0 discriminator 3
 112 0008 51F82360 		ldr	r6, [r1, r3, lsl #2]
 113              	.LVL12:
 114              		.loc 1 76 0 discriminator 3
ARM GAS  /tmp/ccFquxZA.s 			page 3


 115 000c 52F82350 		ldr	r5, [r2, r3, lsl #2]
 116              	.LVL13:
 117              		.loc 1 77 0 discriminator 3
 118 0010 341A     		subs	r4, r6, r0
 119              		.loc 1 78 0 discriminator 3
 120 0012 AC42     		cmp	r4, r5
 121 0014 2CBF     		ite	cs
 122 0016 4FF0000C 		movcs	ip, #0
 123 001a 4FF0010C 		movcc	ip, #1
 124              		.loc 1 79 0 discriminator 3
 125 001e 641B     		subs	r4, r4, r5
 126 0020 47F82340 		str	r4, [r7, r3, lsl #2]
 127              	.LBE2:
 128              		.loc 1 72 0 discriminator 3
 129 0024 0133     		adds	r3, r3, #1
 130              	.LVL14:
 131              	.LBB3:
 132              		.loc 1 78 0 discriminator 3
 133 0026 8642     		cmp	r6, r0
 134 0028 2CBF     		ite	cs
 135 002a 6046     		movcs	r0, ip
 136 002c 0CF10100 		addcc	r0, ip, #1
 137              	.LVL15:
 138              	.LBE3:
 139              		.loc 1 72 0 discriminator 3
 140 0030 082B     		cmp	r3, #8
 141 0032 E9D1     		bne	.L9
 142              		.loc 1 86 0
 143 0034 F0BD     		pop	{r4, r5, r6, r7, pc}
 144              		.cfi_endproc
 145              	.LFE1:
 146              		.size	bn256_sub, .-bn256_sub
 147              		.section	.text.bn256_add_uint,"ax",%progbits
 148              		.align	1
 149              		.global	bn256_add_uint
 150              		.syntax unified
 151              		.thumb
 152              		.thumb_func
 153              		.fpu softvfp
 154              		.type	bn256_add_uint, %function
 155              	bn256_add_uint:
 156              	.LFB2:
 157              		.loc 1 90 0
 158              		.cfi_startproc
 159              		@ args = 0, pretend = 0, frame = 0
 160              		@ frame_needed = 0, uses_anonymous_args = 0
 161              	.LVL16:
 162 0000 70B5     		push	{r4, r5, r6, lr}
 163              		.cfi_def_cfa_offset 16
 164              		.cfi_offset 4, -16
 165              		.cfi_offset 5, -12
 166              		.cfi_offset 6, -8
 167              		.cfi_offset 14, -4
 168              		.loc 1 96 0
 169 0002 0546     		mov	r5, r0
 170              	.LVL17:
 171 0004 0439     		subs	r1, r1, #4
ARM GAS  /tmp/ccFquxZA.s 			page 4


 172              	.LVL18:
 173 0006 00F12006 		add	r6, r0, #32
 174              	.LVL19:
 175              	.L14:
 176 000a 51F8044F 		ldr	r4, [r1, #4]!
 177              	.LVL20:
 178 000e 0023     		movs	r3, #0
 179 0010 A418     		adds	r4, r4, r2
 180 0012 28BF     		it	cs
 181 0014 0123     		movcs	r3, #1
 182              		.loc 1 101 0 discriminator 3
 183 0016 45F8044B 		str	r4, [r5], #4
 184              	.LVL21:
 185              		.loc 1 99 0 discriminator 3
 186 001a B542     		cmp	r5, r6
 187              		.loc 1 102 0 discriminator 3
 188 001c 1846     		mov	r0, r3
 189 001e 1A46     		mov	r2, r3
 190              	.LVL22:
 191              		.loc 1 99 0 discriminator 3
 192 0020 F3D1     		bne	.L14
 193              		.loc 1 108 0
 194 0022 70BD     		pop	{r4, r5, r6, pc}
 195              		.cfi_endproc
 196              	.LFE2:
 197              		.size	bn256_add_uint, .-bn256_add_uint
 198              		.section	.text.bn256_sub_uint,"ax",%progbits
 199              		.align	1
 200              		.global	bn256_sub_uint
 201              		.syntax unified
 202              		.thumb
 203              		.thumb_func
 204              		.fpu softvfp
 205              		.type	bn256_sub_uint, %function
 206              	bn256_sub_uint:
 207              	.LFB3:
 208              		.loc 1 112 0
 209              		.cfi_startproc
 210              		@ args = 0, pretend = 0, frame = 0
 211              		@ frame_needed = 0, uses_anonymous_args = 0
 212              	.LVL23:
 213 0000 30B5     		push	{r4, r5, lr}
 214              		.cfi_def_cfa_offset 12
 215              		.cfi_offset 4, -12
 216              		.cfi_offset 5, -8
 217              		.cfi_offset 14, -4
 218 0002 0439     		subs	r1, r1, #4
 219              	.LVL24:
 220 0004 00F12004 		add	r4, r0, #32
 221              	.LVL25:
 222              	.L17:
 223              	.LBB4:
 224              		.loc 1 123 0 discriminator 3
 225 0008 51F8043F 		ldr	r3, [r1, #4]!
 226              	.LVL26:
 227              		.loc 1 125 0 discriminator 3
 228 000c 9D1A     		subs	r5, r3, r2
ARM GAS  /tmp/ccFquxZA.s 			page 5


 229              		.loc 1 123 0 discriminator 3
 230 000e 9342     		cmp	r3, r2
 231              		.loc 1 125 0 discriminator 3
 232 0010 40F8045B 		str	r5, [r0], #4
 233              	.LVL27:
 234              		.loc 1 123 0 discriminator 3
 235 0014 2CBF     		ite	cs
 236 0016 0022     		movcs	r2, #0
 237              	.LVL28:
 238 0018 0122     		movcc	r2, #1
 239              	.LBE4:
 240              		.loc 1 121 0 discriminator 3
 241 001a A042     		cmp	r0, r4
 242 001c F4D1     		bne	.L17
 243              		.loc 1 132 0
 244 001e 1046     		mov	r0, r2
 245              	.LVL29:
 246 0020 30BD     		pop	{r4, r5, pc}
 247              		.cfi_endproc
 248              	.LFE3:
 249              		.size	bn256_sub_uint, .-bn256_sub_uint
 250              		.section	.text.bn256_mul,"ax",%progbits
 251              		.align	1
 252              		.global	bn256_mul
 253              		.syntax unified
 254              		.thumb
 255              		.thumb_func
 256              		.fpu softvfp
 257              		.type	bn256_mul, %function
 258              	bn256_mul:
 259              	.LFB4:
 260              		.loc 1 144 0
 261              		.cfi_startproc
 262              		@ args = 0, pretend = 0, frame = 8
 263              		@ frame_needed = 0, uses_anonymous_args = 0
 264              	.LVL30:
 265 0000 2DE9F74F 		push	{r0, r1, r2, r4, r5, r6, r7, r8, r9, r10, fp, lr}
 266              		.cfi_def_cfa_offset 48
 267              		.cfi_offset 4, -36
 268              		.cfi_offset 5, -32
 269              		.cfi_offset 6, -28
 270              		.cfi_offset 7, -24
 271              		.cfi_offset 8, -20
 272              		.cfi_offset 9, -16
 273              		.cfi_offset 10, -12
 274              		.cfi_offset 11, -8
 275              		.cfi_offset 14, -4
 276              		.loc 1 144 0
 277 0004 8B46     		mov	fp, r1
 278 0006 0192     		str	r2, [sp, #4]
 279              		.loc 1 152 0
 280 0008 0021     		movs	r1, #0
 281              	.LVL31:
 282 000a 4022     		movs	r2, #64
 283              	.LVL32:
 284              		.loc 1 144 0
 285 000c 0090     		str	r0, [sp]
ARM GAS  /tmp/ccFquxZA.s 			page 6


 286              		.loc 1 152 0
 287 000e FFF7FEFF 		bl	memset
 288              	.LVL33:
 289              		.loc 1 154 0
 290 0012 DDE90023 		ldrd	r2, r3, [sp]
 291 0016 1868     		ldr	r0, [r3]
 292 0018 5946     		mov	r1, fp
 293 001a 8446     		mov	ip, r0
 294              		.syntax unified
 295              	@ 154 "bn.c" 1
 296 001c B1E80007 		ldmia  r1!, { r8, r9, r10 } 
 297 0020 92E8E000 		ldmia  r2, { r5, r6, r7 }   
 298 0024 ACFB0848 		umull  r4, r8, ip, r8       
 299 0028 2D19     		adds   r5, r5, r4             
 300 002a 56EB0806 		adcs   r6, r6, r8             
 301 002e ACFB0948 		umull  r4, r8, ip, r9       
 302 0032 48F10000 		adc    r0, r8, #0           
 303 0036 3619     		adds   r6, r6, r4             
 304 0038 4741     		adcs   r7, r7, r0           
 305 003a ACFB0A48 		umull  r4, r8, ip, r10      
 306 003e 48F10000 		adc    r0, r8, #0           
 307 0042 3F19     		adds   r7, r7, r4             
 308 0044 E0C2     		stmia  r2!, { r5, r6, r7 }  
 309 0046 B1E80007 		ldmia  r1!, { r8, r9, r10 } 
 310 004a 92E8E000 		ldmia  r2, { r5, r6, r7 }   
 311 004e 4541     		adcs   r5, r5, r0           
 312 0050 ACFB0848 		umull  r4, r8, ip, r8       
 313 0054 48F10000 		adc    r0, r8, #0           
 314 0058 2D19     		adds   r5, r5, r4             
 315 005a 4641     		adcs   r6, r6, r0           
 316 005c ACFB0948 		umull  r4, r8, ip, r9       
 317 0060 48F10000 		adc    r0, r8, #0           
 318 0064 3619     		adds   r6, r6, r4             
 319 0066 4741     		adcs   r7, r7, r0           
 320 0068 ACFB0A48 		umull  r4, r8, ip, r10      
 321 006c 48F10000 		adc    r0, r8, #0           
 322 0070 3F19     		adds   r7, r7, r4             
 323 0072 E0C2     		stmia  r2!, { r5, r6, r7 }  
 324 0074 B1E80003 		ldmia  r1!, { r8, r9 }      
 325 0078 92E86000 		ldmia  r2, { r5, r6 }       
 326 007c 4541     		adcs   r5, r5, r0           
 327 007e ACFB0848 		umull  r4, r8, ip, r8       
 328 0082 48F10000 		adc    r0, r8, #0           
 329 0086 2D19     		adds   r5, r5, r4             
 330 0088 4641     		adcs   r6, r6, r0           
 331 008a ACFB0948 		umull  r4, r8, ip, r9       
 332 008e 48F10000 		adc    r0, r8, #0           
 333 0092 3619     		adds   r6, r6, r4             
 334 0094 40F10000 		adc    r0, r0, #0         
 335 0098 60C2     		stmia  r2!, { r5, r6 }
 336              	@ 0 "" 2
 337              	.LVL34:
 338              		.thumb
 339              		.syntax unified
 340 009a 1060     		str	r0, [r2]
 341              	.LVL35:
 342              		.loc 1 155 0
ARM GAS  /tmp/ccFquxZA.s 			page 7


 343 009c 5968     		ldr	r1, [r3, #4]
 344 009e 009A     		ldr	r2, [sp]
 345              	.LVL36:
 346 00a0 5846     		mov	r0, fp
 347              	.LVL37:
 348 00a2 8C46     		mov	ip, r1
 349              	.LVL38:
 350 00a4 0432     		adds	r2, r2, #4
 351              	.LVL39:
 352              		.syntax unified
 353              	@ 155 "bn.c" 1
 354 00a6 B0E80007 		ldmia  r0!, { r8, r9, r10 } 
 355 00aa 92E8E000 		ldmia  r2, { r5, r6, r7 }   
 356 00ae ACFB0848 		umull  r4, r8, ip, r8       
 357 00b2 2D19     		adds   r5, r5, r4             
 358 00b4 56EB0806 		adcs   r6, r6, r8             
 359 00b8 ACFB0948 		umull  r4, r8, ip, r9       
 360 00bc 48F10001 		adc    r1, r8, #0           
 361 00c0 3619     		adds   r6, r6, r4             
 362 00c2 4F41     		adcs   r7, r7, r1           
 363 00c4 ACFB0A48 		umull  r4, r8, ip, r10      
 364 00c8 48F10001 		adc    r1, r8, #0           
 365 00cc 3F19     		adds   r7, r7, r4             
 366 00ce E0C2     		stmia  r2!, { r5, r6, r7 }  
 367 00d0 B0E80007 		ldmia  r0!, { r8, r9, r10 } 
 368 00d4 92E8E000 		ldmia  r2, { r5, r6, r7 }   
 369 00d8 4D41     		adcs   r5, r5, r1           
 370 00da ACFB0848 		umull  r4, r8, ip, r8       
 371 00de 48F10001 		adc    r1, r8, #0           
 372 00e2 2D19     		adds   r5, r5, r4             
 373 00e4 4E41     		adcs   r6, r6, r1           
 374 00e6 ACFB0948 		umull  r4, r8, ip, r9       
 375 00ea 48F10001 		adc    r1, r8, #0           
 376 00ee 3619     		adds   r6, r6, r4             
 377 00f0 4F41     		adcs   r7, r7, r1           
 378 00f2 ACFB0A48 		umull  r4, r8, ip, r10      
 379 00f6 48F10001 		adc    r1, r8, #0           
 380 00fa 3F19     		adds   r7, r7, r4             
 381 00fc E0C2     		stmia  r2!, { r5, r6, r7 }  
 382 00fe B0E80003 		ldmia  r0!, { r8, r9 }      
 383 0102 92E86000 		ldmia  r2, { r5, r6 }       
 384 0106 4D41     		adcs   r5, r5, r1           
 385 0108 ACFB0848 		umull  r4, r8, ip, r8       
 386 010c 48F10001 		adc    r1, r8, #0           
 387 0110 2D19     		adds   r5, r5, r4             
 388 0112 4E41     		adcs   r6, r6, r1           
 389 0114 ACFB0948 		umull  r4, r8, ip, r9       
 390 0118 48F10001 		adc    r1, r8, #0           
 391 011c 3619     		adds   r6, r6, r4             
 392 011e 41F10001 		adc    r1, r1, #0         
 393 0122 60C2     		stmia  r2!, { r5, r6 }
 394              	@ 0 "" 2
 395              	.LVL40:
 396              		.thumb
 397              		.syntax unified
 398 0124 1160     		str	r1, [r2]
 399              	.LVL41:
ARM GAS  /tmp/ccFquxZA.s 			page 8


 400              		.loc 1 156 0
 401 0126 9968     		ldr	r1, [r3, #8]
 402              	.LVL42:
 403 0128 009A     		ldr	r2, [sp]
 404              	.LVL43:
 405 012a 5846     		mov	r0, fp
 406 012c 8C46     		mov	ip, r1
 407              	.LVL44:
 408 012e 0832     		adds	r2, r2, #8
 409              	.LVL45:
 410              		.syntax unified
 411              	@ 156 "bn.c" 1
 412 0130 B0E80007 		ldmia  r0!, { r8, r9, r10 } 
 413 0134 92E8E000 		ldmia  r2, { r5, r6, r7 }   
 414 0138 ACFB0848 		umull  r4, r8, ip, r8       
 415 013c 2D19     		adds   r5, r5, r4             
 416 013e 56EB0806 		adcs   r6, r6, r8             
 417 0142 ACFB0948 		umull  r4, r8, ip, r9       
 418 0146 48F10001 		adc    r1, r8, #0           
 419 014a 3619     		adds   r6, r6, r4             
 420 014c 4F41     		adcs   r7, r7, r1           
 421 014e ACFB0A48 		umull  r4, r8, ip, r10      
 422 0152 48F10001 		adc    r1, r8, #0           
 423 0156 3F19     		adds   r7, r7, r4             
 424 0158 E0C2     		stmia  r2!, { r5, r6, r7 }  
 425 015a B0E80007 		ldmia  r0!, { r8, r9, r10 } 
 426 015e 92E8E000 		ldmia  r2, { r5, r6, r7 }   
 427 0162 4D41     		adcs   r5, r5, r1           
 428 0164 ACFB0848 		umull  r4, r8, ip, r8       
 429 0168 48F10001 		adc    r1, r8, #0           
 430 016c 2D19     		adds   r5, r5, r4             
 431 016e 4E41     		adcs   r6, r6, r1           
 432 0170 ACFB0948 		umull  r4, r8, ip, r9       
 433 0174 48F10001 		adc    r1, r8, #0           
 434 0178 3619     		adds   r6, r6, r4             
 435 017a 4F41     		adcs   r7, r7, r1           
 436 017c ACFB0A48 		umull  r4, r8, ip, r10      
 437 0180 48F10001 		adc    r1, r8, #0           
 438 0184 3F19     		adds   r7, r7, r4             
 439 0186 E0C2     		stmia  r2!, { r5, r6, r7 }  
 440 0188 B0E80003 		ldmia  r0!, { r8, r9 }      
 441 018c 92E86000 		ldmia  r2, { r5, r6 }       
 442 0190 4D41     		adcs   r5, r5, r1           
 443 0192 ACFB0848 		umull  r4, r8, ip, r8       
 444 0196 48F10001 		adc    r1, r8, #0           
 445 019a 2D19     		adds   r5, r5, r4             
 446 019c 4E41     		adcs   r6, r6, r1           
 447 019e ACFB0948 		umull  r4, r8, ip, r9       
 448 01a2 48F10001 		adc    r1, r8, #0           
 449 01a6 3619     		adds   r6, r6, r4             
 450 01a8 41F10001 		adc    r1, r1, #0         
 451 01ac 60C2     		stmia  r2!, { r5, r6 }
 452              	@ 0 "" 2
 453              	.LVL46:
 454              		.thumb
 455              		.syntax unified
 456 01ae 1160     		str	r1, [r2]
ARM GAS  /tmp/ccFquxZA.s 			page 9


 457              	.LVL47:
 458              		.loc 1 157 0
 459 01b0 D968     		ldr	r1, [r3, #12]
 460              	.LVL48:
 461 01b2 009A     		ldr	r2, [sp]
 462              	.LVL49:
 463 01b4 5846     		mov	r0, fp
 464 01b6 8C46     		mov	ip, r1
 465              	.LVL50:
 466 01b8 0C32     		adds	r2, r2, #12
 467              	.LVL51:
 468              		.syntax unified
 469              	@ 157 "bn.c" 1
 470 01ba B0E80007 		ldmia  r0!, { r8, r9, r10 } 
 471 01be 92E8E000 		ldmia  r2, { r5, r6, r7 }   
 472 01c2 ACFB0848 		umull  r4, r8, ip, r8       
 473 01c6 2D19     		adds   r5, r5, r4             
 474 01c8 56EB0806 		adcs   r6, r6, r8             
 475 01cc ACFB0948 		umull  r4, r8, ip, r9       
 476 01d0 48F10001 		adc    r1, r8, #0           
 477 01d4 3619     		adds   r6, r6, r4             
 478 01d6 4F41     		adcs   r7, r7, r1           
 479 01d8 ACFB0A48 		umull  r4, r8, ip, r10      
 480 01dc 48F10001 		adc    r1, r8, #0           
 481 01e0 3F19     		adds   r7, r7, r4             
 482 01e2 E0C2     		stmia  r2!, { r5, r6, r7 }  
 483 01e4 B0E80007 		ldmia  r0!, { r8, r9, r10 } 
 484 01e8 92E8E000 		ldmia  r2, { r5, r6, r7 }   
 485 01ec 4D41     		adcs   r5, r5, r1           
 486 01ee ACFB0848 		umull  r4, r8, ip, r8       
 487 01f2 48F10001 		adc    r1, r8, #0           
 488 01f6 2D19     		adds   r5, r5, r4             
 489 01f8 4E41     		adcs   r6, r6, r1           
 490 01fa ACFB0948 		umull  r4, r8, ip, r9       
 491 01fe 48F10001 		adc    r1, r8, #0           
 492 0202 3619     		adds   r6, r6, r4             
 493 0204 4F41     		adcs   r7, r7, r1           
 494 0206 ACFB0A48 		umull  r4, r8, ip, r10      
 495 020a 48F10001 		adc    r1, r8, #0           
 496 020e 3F19     		adds   r7, r7, r4             
 497 0210 E0C2     		stmia  r2!, { r5, r6, r7 }  
 498 0212 B0E80003 		ldmia  r0!, { r8, r9 }      
 499 0216 92E86000 		ldmia  r2, { r5, r6 }       
 500 021a 4D41     		adcs   r5, r5, r1           
 501 021c ACFB0848 		umull  r4, r8, ip, r8       
 502 0220 48F10001 		adc    r1, r8, #0           
 503 0224 2D19     		adds   r5, r5, r4             
 504 0226 4E41     		adcs   r6, r6, r1           
 505 0228 ACFB0948 		umull  r4, r8, ip, r9       
 506 022c 48F10001 		adc    r1, r8, #0           
 507 0230 3619     		adds   r6, r6, r4             
 508 0232 41F10001 		adc    r1, r1, #0         
 509 0236 60C2     		stmia  r2!, { r5, r6 }
 510              	@ 0 "" 2
 511              	.LVL52:
 512              		.thumb
 513              		.syntax unified
ARM GAS  /tmp/ccFquxZA.s 			page 10


 514 0238 1160     		str	r1, [r2]
 515              	.LVL53:
 516              		.loc 1 158 0
 517 023a 1969     		ldr	r1, [r3, #16]
 518              	.LVL54:
 519 023c 009A     		ldr	r2, [sp]
 520              	.LVL55:
 521 023e 5846     		mov	r0, fp
 522 0240 8C46     		mov	ip, r1
 523              	.LVL56:
 524 0242 1032     		adds	r2, r2, #16
 525              	.LVL57:
 526              		.syntax unified
 527              	@ 158 "bn.c" 1
 528 0244 B0E80007 		ldmia  r0!, { r8, r9, r10 } 
 529 0248 92E8E000 		ldmia  r2, { r5, r6, r7 }   
 530 024c ACFB0848 		umull  r4, r8, ip, r8       
 531 0250 2D19     		adds   r5, r5, r4             
 532 0252 56EB0806 		adcs   r6, r6, r8             
 533 0256 ACFB0948 		umull  r4, r8, ip, r9       
 534 025a 48F10001 		adc    r1, r8, #0           
 535 025e 3619     		adds   r6, r6, r4             
 536 0260 4F41     		adcs   r7, r7, r1           
 537 0262 ACFB0A48 		umull  r4, r8, ip, r10      
 538 0266 48F10001 		adc    r1, r8, #0           
 539 026a 3F19     		adds   r7, r7, r4             
 540 026c E0C2     		stmia  r2!, { r5, r6, r7 }  
 541 026e B0E80007 		ldmia  r0!, { r8, r9, r10 } 
 542 0272 92E8E000 		ldmia  r2, { r5, r6, r7 }   
 543 0276 4D41     		adcs   r5, r5, r1           
 544 0278 ACFB0848 		umull  r4, r8, ip, r8       
 545 027c 48F10001 		adc    r1, r8, #0           
 546 0280 2D19     		adds   r5, r5, r4             
 547 0282 4E41     		adcs   r6, r6, r1           
 548 0284 ACFB0948 		umull  r4, r8, ip, r9       
 549 0288 48F10001 		adc    r1, r8, #0           
 550 028c 3619     		adds   r6, r6, r4             
 551 028e 4F41     		adcs   r7, r7, r1           
 552 0290 ACFB0A48 		umull  r4, r8, ip, r10      
 553 0294 48F10001 		adc    r1, r8, #0           
 554 0298 3F19     		adds   r7, r7, r4             
 555 029a E0C2     		stmia  r2!, { r5, r6, r7 }  
 556 029c B0E80003 		ldmia  r0!, { r8, r9 }      
 557 02a0 92E86000 		ldmia  r2, { r5, r6 }       
 558 02a4 4D41     		adcs   r5, r5, r1           
 559 02a6 ACFB0848 		umull  r4, r8, ip, r8       
 560 02aa 48F10001 		adc    r1, r8, #0           
 561 02ae 2D19     		adds   r5, r5, r4             
 562 02b0 4E41     		adcs   r6, r6, r1           
 563 02b2 ACFB0948 		umull  r4, r8, ip, r9       
 564 02b6 48F10001 		adc    r1, r8, #0           
 565 02ba 3619     		adds   r6, r6, r4             
 566 02bc 41F10001 		adc    r1, r1, #0         
 567 02c0 60C2     		stmia  r2!, { r5, r6 }
 568              	@ 0 "" 2
 569              	.LVL58:
 570              		.thumb
ARM GAS  /tmp/ccFquxZA.s 			page 11


 571              		.syntax unified
 572 02c2 1160     		str	r1, [r2]
 573              	.LVL59:
 574              		.loc 1 159 0
 575 02c4 5969     		ldr	r1, [r3, #20]
 576              	.LVL60:
 577 02c6 009A     		ldr	r2, [sp]
 578              	.LVL61:
 579 02c8 5846     		mov	r0, fp
 580 02ca 8C46     		mov	ip, r1
 581              	.LVL62:
 582 02cc 1432     		adds	r2, r2, #20
 583              	.LVL63:
 584              		.syntax unified
 585              	@ 159 "bn.c" 1
 586 02ce B0E80007 		ldmia  r0!, { r8, r9, r10 } 
 587 02d2 92E8E000 		ldmia  r2, { r5, r6, r7 }   
 588 02d6 ACFB0848 		umull  r4, r8, ip, r8       
 589 02da 2D19     		adds   r5, r5, r4             
 590 02dc 56EB0806 		adcs   r6, r6, r8             
 591 02e0 ACFB0948 		umull  r4, r8, ip, r9       
 592 02e4 48F10001 		adc    r1, r8, #0           
 593 02e8 3619     		adds   r6, r6, r4             
 594 02ea 4F41     		adcs   r7, r7, r1           
 595 02ec ACFB0A48 		umull  r4, r8, ip, r10      
 596 02f0 48F10001 		adc    r1, r8, #0           
 597 02f4 3F19     		adds   r7, r7, r4             
 598 02f6 E0C2     		stmia  r2!, { r5, r6, r7 }  
 599 02f8 B0E80007 		ldmia  r0!, { r8, r9, r10 } 
 600 02fc 92E8E000 		ldmia  r2, { r5, r6, r7 }   
 601 0300 4D41     		adcs   r5, r5, r1           
 602 0302 ACFB0848 		umull  r4, r8, ip, r8       
 603 0306 48F10001 		adc    r1, r8, #0           
 604 030a 2D19     		adds   r5, r5, r4             
 605 030c 4E41     		adcs   r6, r6, r1           
 606 030e ACFB0948 		umull  r4, r8, ip, r9       
 607 0312 48F10001 		adc    r1, r8, #0           
 608 0316 3619     		adds   r6, r6, r4             
 609 0318 4F41     		adcs   r7, r7, r1           
 610 031a ACFB0A48 		umull  r4, r8, ip, r10      
 611 031e 48F10001 		adc    r1, r8, #0           
 612 0322 3F19     		adds   r7, r7, r4             
 613 0324 E0C2     		stmia  r2!, { r5, r6, r7 }  
 614 0326 B0E80003 		ldmia  r0!, { r8, r9 }      
 615 032a 92E86000 		ldmia  r2, { r5, r6 }       
 616 032e 4D41     		adcs   r5, r5, r1           
 617 0330 ACFB0848 		umull  r4, r8, ip, r8       
 618 0334 48F10001 		adc    r1, r8, #0           
 619 0338 2D19     		adds   r5, r5, r4             
 620 033a 4E41     		adcs   r6, r6, r1           
 621 033c ACFB0948 		umull  r4, r8, ip, r9       
 622 0340 48F10001 		adc    r1, r8, #0           
 623 0344 3619     		adds   r6, r6, r4             
 624 0346 41F10001 		adc    r1, r1, #0         
 625 034a 60C2     		stmia  r2!, { r5, r6 }
 626              	@ 0 "" 2
 627              	.LVL64:
ARM GAS  /tmp/ccFquxZA.s 			page 12


 628              		.thumb
 629              		.syntax unified
 630 034c 1160     		str	r1, [r2]
 631              	.LVL65:
 632              		.loc 1 160 0
 633 034e 9969     		ldr	r1, [r3, #24]
 634              	.LVL66:
 635 0350 009A     		ldr	r2, [sp]
 636              	.LVL67:
 637 0352 8C46     		mov	ip, r1
 638              	.LVL68:
 639 0354 5846     		mov	r0, fp
 640 0356 1832     		adds	r2, r2, #24
 641              	.LVL69:
 642              		.syntax unified
 643              	@ 160 "bn.c" 1
 644 0358 B0E80007 		ldmia  r0!, { r8, r9, r10 } 
 645 035c 92E8E000 		ldmia  r2, { r5, r6, r7 }   
 646 0360 ACFB0848 		umull  r4, r8, ip, r8       
 647 0364 2D19     		adds   r5, r5, r4             
 648 0366 56EB0806 		adcs   r6, r6, r8             
 649 036a ACFB0948 		umull  r4, r8, ip, r9       
 650 036e 48F10001 		adc    r1, r8, #0           
 651 0372 3619     		adds   r6, r6, r4             
 652 0374 4F41     		adcs   r7, r7, r1           
 653 0376 ACFB0A48 		umull  r4, r8, ip, r10      
 654 037a 48F10001 		adc    r1, r8, #0           
 655 037e 3F19     		adds   r7, r7, r4             
 656 0380 E0C2     		stmia  r2!, { r5, r6, r7 }  
 657 0382 B0E80007 		ldmia  r0!, { r8, r9, r10 } 
 658 0386 92E8E000 		ldmia  r2, { r5, r6, r7 }   
 659 038a 4D41     		adcs   r5, r5, r1           
 660 038c ACFB0848 		umull  r4, r8, ip, r8       
 661 0390 48F10001 		adc    r1, r8, #0           
 662 0394 2D19     		adds   r5, r5, r4             
 663 0396 4E41     		adcs   r6, r6, r1           
 664 0398 ACFB0948 		umull  r4, r8, ip, r9       
 665 039c 48F10001 		adc    r1, r8, #0           
 666 03a0 3619     		adds   r6, r6, r4             
 667 03a2 4F41     		adcs   r7, r7, r1           
 668 03a4 ACFB0A48 		umull  r4, r8, ip, r10      
 669 03a8 48F10001 		adc    r1, r8, #0           
 670 03ac 3F19     		adds   r7, r7, r4             
 671 03ae E0C2     		stmia  r2!, { r5, r6, r7 }  
 672 03b0 B0E80003 		ldmia  r0!, { r8, r9 }      
 673 03b4 92E86000 		ldmia  r2, { r5, r6 }       
 674 03b8 4D41     		adcs   r5, r5, r1           
 675 03ba ACFB0848 		umull  r4, r8, ip, r8       
 676 03be 48F10001 		adc    r1, r8, #0           
 677 03c2 2D19     		adds   r5, r5, r4             
 678 03c4 4E41     		adcs   r6, r6, r1           
 679 03c6 ACFB0948 		umull  r4, r8, ip, r9       
 680 03ca 48F10001 		adc    r1, r8, #0           
 681 03ce 3619     		adds   r6, r6, r4             
 682 03d0 41F10001 		adc    r1, r1, #0         
 683 03d4 60C2     		stmia  r2!, { r5, r6 }
 684              	@ 0 "" 2
ARM GAS  /tmp/ccFquxZA.s 			page 13


 685              	.LVL70:
 686              		.thumb
 687              		.syntax unified
 688 03d6 1160     		str	r1, [r2]
 689              	.LVL71:
 690              		.loc 1 161 0
 691 03d8 009A     		ldr	r2, [sp]
 692              	.LVL72:
 693 03da D969     		ldr	r1, [r3, #28]
 694              	.LVL73:
 695 03dc 1C32     		adds	r2, r2, #28
 696              	.LVL74:
 697 03de 1346     		mov	r3, r2
 698              		.syntax unified
 699              	@ 161 "bn.c" 1
 700 03e0 BBE80007 		ldmia  fp!, { r8, r9, r10 } 
 701 03e4 93E8E000 		ldmia  r3, { r5, r6, r7 }   
 702 03e8 A1FB0848 		umull  r4, r8, r1, r8       
 703 03ec 2D19     		adds   r5, r5, r4             
 704 03ee 56EB0806 		adcs   r6, r6, r8             
 705 03f2 A1FB0948 		umull  r4, r8, r1, r9       
 706 03f6 48F10002 		adc    r2, r8, #0           
 707 03fa 3619     		adds   r6, r6, r4             
 708 03fc 5741     		adcs   r7, r7, r2           
 709 03fe A1FB0A48 		umull  r4, r8, r1, r10      
 710 0402 48F10002 		adc    r2, r8, #0           
 711 0406 3F19     		adds   r7, r7, r4             
 712 0408 E0C3     		stmia  r3!, { r5, r6, r7 }  
 713 040a BBE80007 		ldmia  fp!, { r8, r9, r10 } 
 714 040e 93E8E000 		ldmia  r3, { r5, r6, r7 }   
 715 0412 5541     		adcs   r5, r5, r2           
 716 0414 A1FB0848 		umull  r4, r8, r1, r8       
 717 0418 48F10002 		adc    r2, r8, #0           
 718 041c 2D19     		adds   r5, r5, r4             
 719 041e 5641     		adcs   r6, r6, r2           
 720 0420 A1FB0948 		umull  r4, r8, r1, r9       
 721 0424 48F10002 		adc    r2, r8, #0           
 722 0428 3619     		adds   r6, r6, r4             
 723 042a 5741     		adcs   r7, r7, r2           
 724 042c A1FB0A48 		umull  r4, r8, r1, r10      
 725 0430 48F10002 		adc    r2, r8, #0           
 726 0434 3F19     		adds   r7, r7, r4             
 727 0436 E0C3     		stmia  r3!, { r5, r6, r7 }  
 728 0438 BBE80003 		ldmia  fp!, { r8, r9 }      
 729 043c 93E86000 		ldmia  r3, { r5, r6 }       
 730 0440 5541     		adcs   r5, r5, r2           
 731 0442 A1FB0848 		umull  r4, r8, r1, r8       
 732 0446 48F10002 		adc    r2, r8, #0           
 733 044a 2D19     		adds   r5, r5, r4             
 734 044c 5641     		adcs   r6, r6, r2           
 735 044e A1FB0948 		umull  r4, r8, r1, r9       
 736 0452 48F10002 		adc    r2, r8, #0           
 737 0456 3619     		adds   r6, r6, r4             
 738 0458 42F10002 		adc    r2, r2, #0         
 739 045c 60C3     		stmia  r3!, { r5, r6 }
 740              	@ 0 "" 2
 741              	.LVL75:
ARM GAS  /tmp/ccFquxZA.s 			page 14


 742              		.thumb
 743              		.syntax unified
 744 045e 1A60     		str	r2, [r3]
 745              		.loc 1 211 0
 746 0460 03B0     		add	sp, sp, #12
 747              		.cfi_def_cfa_offset 36
 748              	.LVL76:
 749              		@ sp needed
 750 0462 BDE8F08F 		pop	{r4, r5, r6, r7, r8, r9, r10, fp, pc}
 751              		.cfi_endproc
 752              	.LFE4:
 753              		.size	bn256_mul, .-bn256_mul
 754              		.section	.text.bn256_sqr,"ax",%progbits
 755              		.align	1
 756              		.global	bn256_sqr
 757              		.syntax unified
 758              		.thumb
 759              		.thumb_func
 760              		.fpu softvfp
 761              		.type	bn256_sqr, %function
 762              	bn256_sqr:
 763              	.LFB5:
 764              		.loc 1 215 0
 765              		.cfi_startproc
 766              		@ args = 0, pretend = 0, frame = 8
 767              		@ frame_needed = 0, uses_anonymous_args = 0
 768              	.LVL77:
 769 0000 2DE9F74F 		push	{r0, r1, r2, r4, r5, r6, r7, r8, r9, r10, fp, lr}
 770              		.cfi_def_cfa_offset 48
 771              		.cfi_offset 4, -36
 772              		.cfi_offset 5, -32
 773              		.cfi_offset 6, -28
 774              		.cfi_offset 7, -24
 775              		.cfi_offset 8, -20
 776              		.cfi_offset 9, -16
 777              		.cfi_offset 10, -12
 778              		.cfi_offset 11, -8
 779              		.cfi_offset 14, -4
 780              		.loc 1 215 0
 781 0004 0C46     		mov	r4, r1
 782              		.loc 1 219 0
 783 0006 4022     		movs	r2, #64
 784 0008 0021     		movs	r1, #0
 785              	.LVL78:
 786              		.loc 1 215 0
 787 000a 0190     		str	r0, [sp, #4]
 788              		.loc 1 219 0
 789 000c FFF7FEFF 		bl	memset
 790              	.LVL79:
 791              		.loc 1 220 0
 792 0010 0021     		movs	r1, #0
 793 0012 201F     		subs	r0, r4, #4
 794              	.LBB5:
 795              		.loc 1 285 0
 796 0014 04F11C0E 		add	lr, r4, #28
 797              	.LVL80:
 798              	.L22:
ARM GAS  /tmp/ccFquxZA.s 			page 15


 799 0018 00F10802 		add	r2, r0, #8
 800              	.LVL81:
 801              		.loc 1 227 0
 802 001c 50F8043F 		ldr	r3, [r0, #4]!
 803              	.LVL82:
 804 0020 1C46     		mov	r4, r3
 805 0022 019B     		ldr	r3, [sp, #4]
 806 0024 A246     		mov	r10, r4
 807 0026 03EBC103 		add	r3, r3, r1, lsl #3
 808              	.LVL83:
 809              		.syntax unified
 810              	@ 227 "bn.c" 1
 811 002a 4FF0000B 		mov    fp, #0
 812 002e 1D68     		ldr    r5, [r3]
 813 0030 5C46     		mov    r4, fp
 814 0032 EAFB0A54 		umlal  r5, r4, r10, r10
 815 0036 43F8045B 		str    r5, [r3], #4
 816 003a 7245     		cmp    r2, lr
 817 003c 3BD8     		bhi    0f
 818 003e D946     		mov    r9, fp
 819 0040 25D0     		beq    1f
 820              	2:
 821 0042 B2E88001 		ldmia  r2!, { r7, r8 }
 822 0046 93E86000 		ldmia  r3, { r5, r6 }
 823 004a AAFB077C 		umull  r7, r12, r10, r7
 824 004e 2D19     		adds   r5, r5, r4
 825 0050 4BEB0904 		adc    r4, fp, r9
 826 0054 ED19     		adds   r5, r5, r7
 827 0056 54EB0C04 		adcs   r4, r4, r12
 828 005a 49EB090B 		adc    fp, r9, r9
 829 005e ED19     		adds   r5, r5, r7
 830 0060 54EB0C04 		adcs   r4, r4, r12
 831 0064 4BEB090B 		adc    fp, fp, r9
 832 0068 3619     		adds   r6, r6, r4
 833 006a 4BEB0904 		adc    r4, fp, r9
 834 006e AAFB087C 		umull  r7, r12, r10, r8
 835 0072 F619     		adds   r6, r6, r7
 836 0074 54EB0C04 		adcs   r4, r4, r12
 837 0078 49EB090B 		adc    fp, r9, r9
 838 007c F619     		adds   r6, r6, r7
 839 007e 54EB0C04 		adcs   r4, r4, r12
 840 0082 4BEB090B 		adc    fp, fp, r9
 841 0086 60C3     		stmia  r3!, { r5, r6 }
 842 0088 7245     		cmp    r2, lr
 843 008a DAD3     		bcc    2b
 844 008c 13D1     		bne    0f
 845              	1:
 846 008e 1D68     		ldr    r5, [r3]
 847 0090 52F8046B 		ldr    r6, [r2], #4
 848 0094 2D19     		adds   r5, r5, r4
 849 0096 4BEB0904 		adc    r4, fp, r9
 850 009a AAFB067C 		umull  r7, r12, r10, r6
 851 009e ED19     		adds   r5, r5, r7
 852 00a0 54EB0C04 		adcs   r4, r4, r12
 853 00a4 49EB090B 		adc    fp, r9, r9
 854 00a8 ED19     		adds   r5, r5, r7
 855 00aa 54EB0C04 		adcs   r4, r4, r12
ARM GAS  /tmp/ccFquxZA.s 			page 16


 856 00ae 4BEB090B 		adc    fp, fp, r9
 857 00b2 43F8045B 		str    r5, [r3], #4
 858              	0:
 859 00b6 1D68     		ldr    r5, [r3]
 860 00b8 6419     		adds   r4, r4, r5
 861 00ba 4BF1000B 		adc    fp, fp, #0
 862 00be 43F8044B 		str    r4, [r3], #4
 863              	@ 0 "" 2
 864              	.LVL84:
 865              		.loc 1 289 0
 866              		.thumb
 867              		.syntax unified
 868 00c2 0729     		cmp	r1, #7
 869              	.LBE5:
 870              		.loc 1 220 0
 871 00c4 01F10101 		add	r1, r1, #1
 872              	.LVL85:
 873              	.LBB6:
 874              		.loc 1 290 0
 875 00c8 18BF     		it	ne
 876 00ca C3F800B0 		strne	fp, [r3]
 877              	.LVL86:
 878              	.LBE6:
 879              		.loc 1 220 0
 880 00ce 0829     		cmp	r1, #8
 881 00d0 A2D1     		bne	.L22
 882              		.loc 1 346 0
 883 00d2 03B0     		add	sp, sp, #12
 884              		.cfi_def_cfa_offset 36
 885              		@ sp needed
 886 00d4 BDE8F08F 		pop	{r4, r5, r6, r7, r8, r9, r10, fp, pc}
 887              		.cfi_endproc
 888              	.LFE5:
 889              		.size	bn256_sqr, .-bn256_sqr
 890              		.section	.text.bn256_shift,"ax",%progbits
 891              		.align	1
 892              		.global	bn256_shift
 893              		.syntax unified
 894              		.thumb
 895              		.thumb_func
 896              		.fpu softvfp
 897              		.type	bn256_shift, %function
 898              	bn256_shift:
 899              	.LFB6:
 900              		.loc 1 350 0
 901              		.cfi_startproc
 902              		@ args = 0, pretend = 0, frame = 0
 903              		@ frame_needed = 0, uses_anonymous_args = 0
 904              	.LVL87:
 905              		.loc 1 354 0
 906 0000 002A     		cmp	r2, #0
 907              		.loc 1 350 0
 908 0002 F0B5     		push	{r4, r5, r6, r7, lr}
 909              		.cfi_def_cfa_offset 20
 910              		.cfi_offset 4, -20
 911              		.cfi_offset 5, -16
 912              		.cfi_offset 6, -12
ARM GAS  /tmp/ccFquxZA.s 			page 17


 913              		.cfi_offset 7, -8
 914              		.cfi_offset 14, -4
 915 0004 A1F10404 		sub	r4, r1, #4
 916 0008 01F11C01 		add	r1, r1, #28
 917              	.LVL88:
 918              		.loc 1 354 0
 919 000c 0FDD     		ble	.L28
 920              		.loc 1 352 0
 921 000e 0026     		movs	r6, #0
 922 0010 031F     		subs	r3, r0, #4
 923              		.loc 1 358 0
 924 0012 C2F12007 		rsb	r7, r2, #32
 925              	.LVL89:
 926              	.L29:
 927              		.loc 1 358 0 is_stmt 0 discriminator 3
 928 0016 54F8045F 		ldr	r5, [r4, #4]!
 929 001a 25FA07F0 		lsr	r0, r5, r7
 930              	.LVL90:
 931              		.loc 1 359 0 is_stmt 1 discriminator 3
 932 001e 9540     		lsls	r5, r5, r2
 933 0020 3543     		orrs	r5, r5, r6
 934              		.loc 1 356 0 discriminator 3
 935 0022 8C42     		cmp	r4, r1
 936              		.loc 1 359 0 discriminator 3
 937 0024 43F8045F 		str	r5, [r3, #4]!
 938              	.LVL91:
 939              		.loc 1 358 0 discriminator 3
 940 0028 0646     		mov	r6, r0
 941              		.loc 1 356 0 discriminator 3
 942 002a F4D1     		bne	.L29
 943              	.LVL92:
 944              	.L27:
 945              		.loc 1 376 0
 946 002c F0BD     		pop	{r4, r5, r6, r7, pc}
 947              	.LVL93:
 948              	.L28:
 949              		.loc 1 369 0
 950 002e 0126     		movs	r6, #1
 951              		.loc 1 352 0
 952 0030 0025     		movs	r5, #0
 953              		.loc 1 365 0
 954 0032 C2F1000C 		rsb	ip, r2, #0
 955              	.LVL94:
 956              		.loc 1 369 0
 957 0036 06FA0CF6 		lsl	r6, r6, ip
 958 003a 013E     		subs	r6, r6, #1
 959 003c 00F11C03 		add	r3, r0, #28
 960              		.loc 1 370 0
 961 0040 2032     		adds	r2, r2, #32
 962              	.LVL95:
 963              	.L31:
 964              		.loc 1 369 0 discriminator 3
 965 0042 51F80479 		ldr	r7, [r1], #-4
 966              		.loc 1 370 0 discriminator 3
 967 0046 9540     		lsls	r5, r5, r2
 968              	.LVL96:
 969              		.loc 1 369 0 discriminator 3
ARM GAS  /tmp/ccFquxZA.s 			page 18


 970 0048 07EA0600 		and	r0, r7, r6
 971              	.LVL97:
 972              		.loc 1 370 0 discriminator 3
 973 004c 27FA0CF7 		lsr	r7, r7, ip
 974 0050 3D43     		orrs	r5, r5, r7
 975              		.loc 1 367 0 discriminator 3
 976 0052 A142     		cmp	r1, r4
 977              		.loc 1 370 0 discriminator 3
 978 0054 43F80459 		str	r5, [r3], #-4
 979              	.LVL98:
 980              		.loc 1 369 0 discriminator 3
 981 0058 0546     		mov	r5, r0
 982              		.loc 1 367 0 discriminator 3
 983 005a F2D1     		bne	.L31
 984 005c E6E7     		b	.L27
 985              		.cfi_endproc
 986              	.LFE6:
 987              		.size	bn256_shift, .-bn256_shift
 988              		.section	.text.bn256_is_zero,"ax",%progbits
 989              		.align	1
 990              		.global	bn256_is_zero
 991              		.syntax unified
 992              		.thumb
 993              		.thumb_func
 994              		.fpu softvfp
 995              		.type	bn256_is_zero, %function
 996              	bn256_is_zero:
 997              	.LFB7:
 998              		.loc 1 380 0
 999              		.cfi_startproc
 1000              		@ args = 0, pretend = 0, frame = 0
 1001              		@ frame_needed = 0, uses_anonymous_args = 0
 1002              		@ link register save eliminated.
 1003              	.LVL99:
 1004 0000 021F     		subs	r2, r0, #4
 1005 0002 00F11C03 		add	r3, r0, #28
 1006              		.loc 1 382 0
 1007 0006 0120     		movs	r0, #1
 1008              	.LVL100:
 1009              	.L35:
 1010              		.loc 1 385 0 discriminator 3
 1011 0008 52F8041F 		ldr	r1, [r2, #4]!
 1012 000c 0029     		cmp	r1, #0
 1013 000e 18BF     		it	ne
 1014 0010 0020     		movne	r0, #0
 1015              	.LVL101:
 1016              		.loc 1 384 0 discriminator 3
 1017 0012 9A42     		cmp	r2, r3
 1018 0014 F8D1     		bne	.L35
 1019              		.loc 1 388 0
 1020 0016 7047     		bx	lr
 1021              		.cfi_endproc
 1022              	.LFE7:
 1023              		.size	bn256_is_zero, .-bn256_is_zero
 1024              		.section	.text.bn256_is_even,"ax",%progbits
 1025              		.align	1
 1026              		.global	bn256_is_even
ARM GAS  /tmp/ccFquxZA.s 			page 19


 1027              		.syntax unified
 1028              		.thumb
 1029              		.thumb_func
 1030              		.fpu softvfp
 1031              		.type	bn256_is_even, %function
 1032              	bn256_is_even:
 1033              	.LFB8:
 1034              		.loc 1 392 0
 1035              		.cfi_startproc
 1036              		@ args = 0, pretend = 0, frame = 0
 1037              		@ frame_needed = 0, uses_anonymous_args = 0
 1038              		@ link register save eliminated.
 1039              	.LVL102:
 1040              		.loc 1 393 0
 1041 0000 0068     		ldr	r0, [r0]
 1042              	.LVL103:
 1043 0002 C043     		mvns	r0, r0
 1044              		.loc 1 394 0
 1045 0004 00F00100 		and	r0, r0, #1
 1046 0008 7047     		bx	lr
 1047              		.cfi_endproc
 1048              	.LFE8:
 1049              		.size	bn256_is_even, .-bn256_is_even
 1050              		.section	.text.bn256_is_ge,"ax",%progbits
 1051              		.align	1
 1052              		.global	bn256_is_ge
 1053              		.syntax unified
 1054              		.thumb
 1055              		.thumb_func
 1056              		.fpu softvfp
 1057              		.type	bn256_is_ge, %function
 1058              	bn256_is_ge:
 1059              	.LFB9:
 1060              		.loc 1 398 0
 1061              		.cfi_startproc
 1062              		@ args = 0, pretend = 0, frame = 32
 1063              		@ frame_needed = 0, uses_anonymous_args = 0
 1064              	.LVL104:
 1065 0000 00B5     		push	{lr}
 1066              		.cfi_def_cfa_offset 4
 1067              		.cfi_offset 14, -4
 1068 0002 89B0     		sub	sp, sp, #36
 1069              		.cfi_def_cfa_offset 40
 1070              		.loc 1 402 0
 1071 0004 0A46     		mov	r2, r1
 1072 0006 0146     		mov	r1, r0
 1073              	.LVL105:
 1074 0008 6846     		mov	r0, sp
 1075              	.LVL106:
 1076 000a FFF7FEFF 		bl	bn256_sub
 1077              	.LVL107:
 1078              		.loc 1 404 0
 1079 000e B0FA80F0 		clz	r0, r0
 1080              	.LVL108:
 1081 0012 4009     		lsrs	r0, r0, #5
 1082 0014 09B0     		add	sp, sp, #36
 1083              		.cfi_def_cfa_offset 4
ARM GAS  /tmp/ccFquxZA.s 			page 20


 1084              		@ sp needed
 1085 0016 5DF804FB 		ldr	pc, [sp], #4
 1086              		.cfi_endproc
 1087              	.LFE9:
 1088              		.size	bn256_is_ge, .-bn256_is_ge
 1089              		.section	.text.bn256_cmp,"ax",%progbits
 1090              		.align	1
 1091              		.global	bn256_cmp
 1092              		.syntax unified
 1093              		.thumb
 1094              		.thumb_func
 1095              		.fpu softvfp
 1096              		.type	bn256_cmp, %function
 1097              	bn256_cmp:
 1098              	.LFB10:
 1099              		.loc 1 409 0
 1100              		.cfi_startproc
 1101              		@ args = 0, pretend = 0, frame = 32
 1102              		@ frame_needed = 0, uses_anonymous_args = 0
 1103              	.LVL109:
 1104 0000 10B5     		push	{r4, lr}
 1105              		.cfi_def_cfa_offset 8
 1106              		.cfi_offset 4, -8
 1107              		.cfi_offset 14, -4
 1108 0002 88B0     		sub	sp, sp, #32
 1109              		.cfi_def_cfa_offset 40
 1110              		.loc 1 414 0
 1111 0004 0A46     		mov	r2, r1
 1112 0006 0146     		mov	r1, r0
 1113              	.LVL110:
 1114 0008 6846     		mov	r0, sp
 1115              	.LVL111:
 1116 000a FFF7FEFF 		bl	bn256_sub
 1117              	.LVL112:
 1118 000e 0446     		mov	r4, r0
 1119              	.LVL113:
 1120              		.loc 1 415 0
 1121 0010 6846     		mov	r0, sp
 1122              	.LVL114:
 1123 0012 FFF7FEFF 		bl	bn256_is_zero
 1124              	.LVL115:
 1125              		.loc 1 416 0
 1126 0016 30B9     		cbnz	r0, .L41
 1127              		.loc 1 416 0 is_stmt 0 discriminator 1
 1128 0018 002C     		cmp	r4, #0
 1129 001a 14BF     		ite	ne
 1130 001c 4FF0FF30 		movne	r0, #-1
 1131              	.LVL116:
 1132 0020 0120     		moveq	r0, #1
 1133              	.L39:
 1134              		.loc 1 417 0 is_stmt 1
 1135 0022 08B0     		add	sp, sp, #32
 1136              		.cfi_remember_state
 1137              		.cfi_def_cfa_offset 8
 1138              		@ sp needed
 1139 0024 10BD     		pop	{r4, pc}
 1140              	.LVL117:
ARM GAS  /tmp/ccFquxZA.s 			page 21


 1141              	.L41:
 1142              		.cfi_restore_state
 1143              		.loc 1 416 0
 1144 0026 0020     		movs	r0, #0
 1145              	.LVL118:
 1146 0028 FBE7     		b	.L39
 1147              		.cfi_endproc
 1148              	.LFE10:
 1149              		.size	bn256_cmp, .-bn256_cmp
 1150              		.section	.text.bn256_random,"ax",%progbits
 1151              		.align	1
 1152              		.global	bn256_random
 1153              		.syntax unified
 1154              		.thumb
 1155              		.thumb_func
 1156              		.fpu softvfp
 1157              		.type	bn256_random, %function
 1158              	bn256_random:
 1159              	.LFB11:
 1160              		.loc 1 423 0
 1161              		.cfi_startproc
 1162              		@ args = 0, pretend = 0, frame = 0
 1163              		@ frame_needed = 0, uses_anonymous_args = 0
 1164              	.LVL119:
 1165 0000 10B5     		push	{r4, lr}
 1166              		.cfi_def_cfa_offset 8
 1167              		.cfi_offset 4, -8
 1168              		.cfi_offset 14, -4
 1169              		.loc 1 423 0
 1170 0002 0446     		mov	r4, r0
 1171              		.loc 1 424 0
 1172 0004 FFF7FEFF 		bl	random_bytes_get
 1173              	.LVL120:
 1174              		.loc 1 426 0
 1175 0008 C269     		ldr	r2, [r0, #28]
 1176 000a E261     		str	r2, [r4, #28]
 1177              		.loc 1 427 0
 1178 000c 8269     		ldr	r2, [r0, #24]
 1179 000e A261     		str	r2, [r4, #24]
 1180              		.loc 1 428 0
 1181 0010 4269     		ldr	r2, [r0, #20]
 1182 0012 6261     		str	r2, [r4, #20]
 1183              		.loc 1 429 0
 1184 0014 0269     		ldr	r2, [r0, #16]
 1185 0016 2261     		str	r2, [r4, #16]
 1186              		.loc 1 430 0
 1187 0018 C268     		ldr	r2, [r0, #12]
 1188 001a E260     		str	r2, [r4, #12]
 1189              		.loc 1 431 0
 1190 001c 8268     		ldr	r2, [r0, #8]
 1191 001e A260     		str	r2, [r4, #8]
 1192              		.loc 1 432 0
 1193 0020 4268     		ldr	r2, [r0, #4]
 1194 0022 6260     		str	r2, [r4, #4]
 1195              		.loc 1 433 0
 1196 0024 0368     		ldr	r3, [r0]
 1197 0026 2360     		str	r3, [r4]
ARM GAS  /tmp/ccFquxZA.s 			page 22


 1198              		.loc 1 436 0
 1199 0028 BDE81040 		pop	{r4, lr}
 1200              		.cfi_restore 14
 1201              		.cfi_restore 4
 1202              		.cfi_def_cfa_offset 0
 1203              	.LVL121:
 1204              		.loc 1 435 0
 1205 002c FFF7FEBF 		b	random_bytes_free
 1206              	.LVL122:
 1207              		.cfi_endproc
 1208              	.LFE11:
 1209              		.size	bn256_random, .-bn256_random
 1210              		.text
 1211              	.Letext0:
 1212              		.file 2 "/usr/arm-none-eabi/include/machine/_default_types.h"
 1213              		.file 3 "/usr/arm-none-eabi/include/sys/_stdint.h"
 1214              		.file 4 "/usr/arm-none-eabi/include/sys/lock.h"
 1215              		.file 5 "/usr/arm-none-eabi/include/sys/_types.h"
 1216              		.file 6 "/usr/lib/gcc/arm-none-eabi/7.3.1/include/stddef.h"
 1217              		.file 7 "/usr/arm-none-eabi/include/sys/reent.h"
 1218              		.file 8 "bn.h"
 1219              		.file 9 "random.h"
 1220              		.file 10 "<built-in>"
 1221              		.section	.debug_info,"",%progbits
 1222              	.Ldebug_info0:
 1223 0000 220F0000 		.4byte	0xf22
 1224 0004 0400     		.2byte	0x4
 1225 0006 00000000 		.4byte	.Ldebug_abbrev0
 1226 000a 04       		.byte	0x4
 1227 000b 01       		.uleb128 0x1
 1228 000c DA040000 		.4byte	.LASF149
 1229 0010 0C       		.byte	0xc
 1230 0011 25000000 		.4byte	.LASF150
 1231 0015 F8000000 		.4byte	.LASF151
 1232 0019 30000000 		.4byte	.Ldebug_ranges0+0x30
 1233 001d 00000000 		.4byte	0
 1234 0021 00000000 		.4byte	.Ldebug_line0
 1235 0025 02       		.uleb128 0x2
 1236 0026 01       		.byte	0x1
 1237 0027 06       		.byte	0x6
 1238 0028 D5000000 		.4byte	.LASF0
 1239 002c 03       		.uleb128 0x3
 1240 002d 2A000000 		.4byte	.LASF5
 1241 0031 02       		.byte	0x2
 1242 0032 2B       		.byte	0x2b
 1243 0033 37000000 		.4byte	0x37
 1244 0037 02       		.uleb128 0x2
 1245 0038 01       		.byte	0x1
 1246 0039 08       		.byte	0x8
 1247 003a 61030000 		.4byte	.LASF1
 1248 003e 02       		.uleb128 0x2
 1249 003f 02       		.byte	0x2
 1250 0040 05       		.byte	0x5
 1251 0041 7D030000 		.4byte	.LASF2
 1252 0045 02       		.uleb128 0x2
 1253 0046 02       		.byte	0x2
 1254 0047 07       		.byte	0x7
ARM GAS  /tmp/ccFquxZA.s 			page 23


 1255 0048 67020000 		.4byte	.LASF3
 1256 004c 02       		.uleb128 0x2
 1257 004d 04       		.byte	0x4
 1258 004e 05       		.byte	0x5
 1259 004f 35010000 		.4byte	.LASF4
 1260 0053 03       		.uleb128 0x3
 1261 0054 C7010000 		.4byte	.LASF6
 1262 0058 02       		.byte	0x2
 1263 0059 4F       		.byte	0x4f
 1264 005a 5E000000 		.4byte	0x5e
 1265 005e 02       		.uleb128 0x2
 1266 005f 04       		.byte	0x4
 1267 0060 07       		.byte	0x7
 1268 0061 39020000 		.4byte	.LASF7
 1269 0065 02       		.uleb128 0x2
 1270 0066 08       		.byte	0x8
 1271 0067 05       		.byte	0x5
 1272 0068 C7000000 		.4byte	.LASF8
 1273 006c 02       		.uleb128 0x2
 1274 006d 08       		.byte	0x8
 1275 006e 07       		.byte	0x7
 1276 006f 6B000000 		.4byte	.LASF9
 1277 0073 04       		.uleb128 0x4
 1278 0074 04       		.byte	0x4
 1279 0075 05       		.byte	0x5
 1280 0076 696E7400 		.ascii	"int\000"
 1281 007a 02       		.uleb128 0x2
 1282 007b 04       		.byte	0x4
 1283 007c 07       		.byte	0x7
 1284 007d 15020000 		.4byte	.LASF10
 1285 0081 03       		.uleb128 0x3
 1286 0082 FC050000 		.4byte	.LASF11
 1287 0086 03       		.byte	0x3
 1288 0087 18       		.byte	0x18
 1289 0088 2C000000 		.4byte	0x2c
 1290 008c 05       		.uleb128 0x5
 1291 008d 81000000 		.4byte	0x81
 1292 0091 03       		.uleb128 0x3
 1293 0092 49040000 		.4byte	.LASF12
 1294 0096 03       		.byte	0x3
 1295 0097 30       		.byte	0x30
 1296 0098 53000000 		.4byte	0x53
 1297 009c 05       		.uleb128 0x5
 1298 009d 91000000 		.4byte	0x91
 1299 00a1 02       		.uleb128 0x2
 1300 00a2 08       		.byte	0x8
 1301 00a3 04       		.byte	0x4
 1302 00a4 F0020000 		.4byte	.LASF13
 1303 00a8 03       		.uleb128 0x3
 1304 00a9 AA020000 		.4byte	.LASF14
 1305 00ad 04       		.byte	0x4
 1306 00ae 22       		.byte	0x22
 1307 00af B3000000 		.4byte	0xb3
 1308 00b3 06       		.uleb128 0x6
 1309 00b4 04       		.byte	0x4
 1310 00b5 B9000000 		.4byte	0xb9
 1311 00b9 07       		.uleb128 0x7
ARM GAS  /tmp/ccFquxZA.s 			page 24


 1312 00ba 42040000 		.4byte	.LASF121
 1313 00be 03       		.uleb128 0x3
 1314 00bf 2E030000 		.4byte	.LASF15
 1315 00c3 05       		.byte	0x5
 1316 00c4 2C       		.byte	0x2c
 1317 00c5 4C000000 		.4byte	0x4c
 1318 00c9 03       		.uleb128 0x3
 1319 00ca 6E040000 		.4byte	.LASF16
 1320 00ce 05       		.byte	0x5
 1321 00cf 72       		.byte	0x72
 1322 00d0 4C000000 		.4byte	0x4c
 1323 00d4 08       		.uleb128 0x8
 1324 00d5 B2020000 		.4byte	.LASF17
 1325 00d9 06       		.byte	0x6
 1326 00da 6501     		.2byte	0x165
 1327 00dc 7A000000 		.4byte	0x7a
 1328 00e0 09       		.uleb128 0x9
 1329 00e1 04       		.byte	0x4
 1330 00e2 05       		.byte	0x5
 1331 00e3 A6       		.byte	0xa6
 1332 00e4 FF000000 		.4byte	0xff
 1333 00e8 0A       		.uleb128 0xa
 1334 00e9 A4020000 		.4byte	.LASF18
 1335 00ed 05       		.byte	0x5
 1336 00ee A8       		.byte	0xa8
 1337 00ef D4000000 		.4byte	0xd4
 1338 00f3 0A       		.uleb128 0xa
 1339 00f4 22020000 		.4byte	.LASF19
 1340 00f8 05       		.byte	0x5
 1341 00f9 A9       		.byte	0xa9
 1342 00fa FF000000 		.4byte	0xff
 1343 00fe 00       		.byte	0
 1344 00ff 0B       		.uleb128 0xb
 1345 0100 37000000 		.4byte	0x37
 1346 0104 0F010000 		.4byte	0x10f
 1347 0108 0C       		.uleb128 0xc
 1348 0109 7A000000 		.4byte	0x7a
 1349 010d 03       		.byte	0x3
 1350 010e 00       		.byte	0
 1351 010f 0D       		.uleb128 0xd
 1352 0110 08       		.byte	0x8
 1353 0111 05       		.byte	0x5
 1354 0112 A3       		.byte	0xa3
 1355 0113 30010000 		.4byte	0x130
 1356 0117 0E       		.uleb128 0xe
 1357 0118 3A040000 		.4byte	.LASF20
 1358 011c 05       		.byte	0x5
 1359 011d A5       		.byte	0xa5
 1360 011e 73000000 		.4byte	0x73
 1361 0122 00       		.byte	0
 1362 0123 0E       		.uleb128 0xe
 1363 0124 D2040000 		.4byte	.LASF21
 1364 0128 05       		.byte	0x5
 1365 0129 AA       		.byte	0xaa
 1366 012a E0000000 		.4byte	0xe0
 1367 012e 04       		.byte	0x4
 1368 012f 00       		.byte	0
ARM GAS  /tmp/ccFquxZA.s 			page 25


 1369 0130 03       		.uleb128 0x3
 1370 0131 A5030000 		.4byte	.LASF22
 1371 0135 05       		.byte	0x5
 1372 0136 AB       		.byte	0xab
 1373 0137 0F010000 		.4byte	0x10f
 1374 013b 03       		.uleb128 0x3
 1375 013c D8010000 		.4byte	.LASF23
 1376 0140 05       		.byte	0x5
 1377 0141 AF       		.byte	0xaf
 1378 0142 A8000000 		.4byte	0xa8
 1379 0146 0F       		.uleb128 0xf
 1380 0147 04       		.byte	0x4
 1381 0148 06       		.uleb128 0x6
 1382 0149 04       		.byte	0x4
 1383 014a 4E010000 		.4byte	0x14e
 1384 014e 02       		.uleb128 0x2
 1385 014f 01       		.byte	0x1
 1386 0150 08       		.byte	0x8
 1387 0151 7D040000 		.4byte	.LASF24
 1388 0155 05       		.uleb128 0x5
 1389 0156 4E010000 		.4byte	0x14e
 1390 015a 03       		.uleb128 0x3
 1391 015b 9E050000 		.4byte	.LASF25
 1392 015f 07       		.byte	0x7
 1393 0160 16       		.byte	0x16
 1394 0161 5E000000 		.4byte	0x5e
 1395 0165 10       		.uleb128 0x10
 1396 0166 E9010000 		.4byte	.LASF30
 1397 016a 18       		.byte	0x18
 1398 016b 07       		.byte	0x7
 1399 016c 2F       		.byte	0x2f
 1400 016d B8010000 		.4byte	0x1b8
 1401 0171 0E       		.uleb128 0xe
 1402 0172 BF040000 		.4byte	.LASF26
 1403 0176 07       		.byte	0x7
 1404 0177 31       		.byte	0x31
 1405 0178 B8010000 		.4byte	0x1b8
 1406 017c 00       		.byte	0
 1407 017d 11       		.uleb128 0x11
 1408 017e 5F6B00   		.ascii	"_k\000"
 1409 0181 07       		.byte	0x7
 1410 0182 32       		.byte	0x32
 1411 0183 73000000 		.4byte	0x73
 1412 0187 04       		.byte	0x4
 1413 0188 0E       		.uleb128 0xe
 1414 0189 18040000 		.4byte	.LASF27
 1415 018d 07       		.byte	0x7
 1416 018e 32       		.byte	0x32
 1417 018f 73000000 		.4byte	0x73
 1418 0193 08       		.byte	0x8
 1419 0194 0E       		.uleb128 0xe
 1420 0195 D2010000 		.4byte	.LASF28
 1421 0199 07       		.byte	0x7
 1422 019a 32       		.byte	0x32
 1423 019b 73000000 		.4byte	0x73
 1424 019f 0C       		.byte	0xc
 1425 01a0 0E       		.uleb128 0xe
ARM GAS  /tmp/ccFquxZA.s 			page 26


 1426 01a1 E1050000 		.4byte	.LASF29
 1427 01a5 07       		.byte	0x7
 1428 01a6 32       		.byte	0x32
 1429 01a7 73000000 		.4byte	0x73
 1430 01ab 10       		.byte	0x10
 1431 01ac 11       		.uleb128 0x11
 1432 01ad 5F7800   		.ascii	"_x\000"
 1433 01b0 07       		.byte	0x7
 1434 01b1 33       		.byte	0x33
 1435 01b2 BE010000 		.4byte	0x1be
 1436 01b6 14       		.byte	0x14
 1437 01b7 00       		.byte	0
 1438 01b8 06       		.uleb128 0x6
 1439 01b9 04       		.byte	0x4
 1440 01ba 65010000 		.4byte	0x165
 1441 01be 0B       		.uleb128 0xb
 1442 01bf 5A010000 		.4byte	0x15a
 1443 01c3 CE010000 		.4byte	0x1ce
 1444 01c7 0C       		.uleb128 0xc
 1445 01c8 7A000000 		.4byte	0x7a
 1446 01cc 00       		.byte	0
 1447 01cd 00       		.byte	0
 1448 01ce 10       		.uleb128 0x10
 1449 01cf 10020000 		.4byte	.LASF31
 1450 01d3 24       		.byte	0x24
 1451 01d4 07       		.byte	0x7
 1452 01d5 37       		.byte	0x37
 1453 01d6 47020000 		.4byte	0x247
 1454 01da 0E       		.uleb128 0xe
 1455 01db BE000000 		.4byte	.LASF32
 1456 01df 07       		.byte	0x7
 1457 01e0 39       		.byte	0x39
 1458 01e1 73000000 		.4byte	0x73
 1459 01e5 00       		.byte	0
 1460 01e6 0E       		.uleb128 0xe
 1461 01e7 8E040000 		.4byte	.LASF33
 1462 01eb 07       		.byte	0x7
 1463 01ec 3A       		.byte	0x3a
 1464 01ed 73000000 		.4byte	0x73
 1465 01f1 04       		.byte	0x4
 1466 01f2 0E       		.uleb128 0xe
 1467 01f3 52040000 		.4byte	.LASF34
 1468 01f7 07       		.byte	0x7
 1469 01f8 3B       		.byte	0x3b
 1470 01f9 73000000 		.4byte	0x73
 1471 01fd 08       		.byte	0x8
 1472 01fe 0E       		.uleb128 0xe
 1473 01ff 6D060000 		.4byte	.LASF35
 1474 0203 07       		.byte	0x7
 1475 0204 3C       		.byte	0x3c
 1476 0205 73000000 		.4byte	0x73
 1477 0209 0C       		.byte	0xc
 1478 020a 0E       		.uleb128 0xe
 1479 020b 08030000 		.4byte	.LASF36
 1480 020f 07       		.byte	0x7
 1481 0210 3D       		.byte	0x3d
 1482 0211 73000000 		.4byte	0x73
ARM GAS  /tmp/ccFquxZA.s 			page 27


 1483 0215 10       		.byte	0x10
 1484 0216 0E       		.uleb128 0xe
 1485 0217 DD020000 		.4byte	.LASF37
 1486 021b 07       		.byte	0x7
 1487 021c 3E       		.byte	0x3e
 1488 021d 73000000 		.4byte	0x73
 1489 0221 14       		.byte	0x14
 1490 0222 0E       		.uleb128 0xe
 1491 0223 E6050000 		.4byte	.LASF38
 1492 0227 07       		.byte	0x7
 1493 0228 3F       		.byte	0x3f
 1494 0229 73000000 		.4byte	0x73
 1495 022d 18       		.byte	0x18
 1496 022e 0E       		.uleb128 0xe
 1497 022f 87030000 		.4byte	.LASF39
 1498 0233 07       		.byte	0x7
 1499 0234 40       		.byte	0x40
 1500 0235 73000000 		.4byte	0x73
 1501 0239 1C       		.byte	0x1c
 1502 023a 0E       		.uleb128 0xe
 1503 023b 26060000 		.4byte	.LASF40
 1504 023f 07       		.byte	0x7
 1505 0240 41       		.byte	0x41
 1506 0241 73000000 		.4byte	0x73
 1507 0245 20       		.byte	0x20
 1508 0246 00       		.byte	0
 1509 0247 12       		.uleb128 0x12
 1510 0248 17010000 		.4byte	.LASF41
 1511 024c 0801     		.2byte	0x108
 1512 024e 07       		.byte	0x7
 1513 024f 4A       		.byte	0x4a
 1514 0250 87020000 		.4byte	0x287
 1515 0254 0E       		.uleb128 0xe
 1516 0255 AE010000 		.4byte	.LASF42
 1517 0259 07       		.byte	0x7
 1518 025a 4B       		.byte	0x4b
 1519 025b 87020000 		.4byte	0x287
 1520 025f 00       		.byte	0
 1521 0260 0E       		.uleb128 0xe
 1522 0261 00000000 		.4byte	.LASF43
 1523 0265 07       		.byte	0x7
 1524 0266 4C       		.byte	0x4c
 1525 0267 87020000 		.4byte	0x287
 1526 026b 80       		.byte	0x80
 1527 026c 13       		.uleb128 0x13
 1528 026d 97040000 		.4byte	.LASF44
 1529 0271 07       		.byte	0x7
 1530 0272 4E       		.byte	0x4e
 1531 0273 5A010000 		.4byte	0x15a
 1532 0277 0001     		.2byte	0x100
 1533 0279 13       		.uleb128 0x13
 1534 027a 4F010000 		.4byte	.LASF45
 1535 027e 07       		.byte	0x7
 1536 027f 51       		.byte	0x51
 1537 0280 5A010000 		.4byte	0x15a
 1538 0284 0401     		.2byte	0x104
 1539 0286 00       		.byte	0
ARM GAS  /tmp/ccFquxZA.s 			page 28


 1540 0287 0B       		.uleb128 0xb
 1541 0288 46010000 		.4byte	0x146
 1542 028c 97020000 		.4byte	0x297
 1543 0290 0C       		.uleb128 0xc
 1544 0291 7A000000 		.4byte	0x7a
 1545 0295 1F       		.byte	0x1f
 1546 0296 00       		.byte	0
 1547 0297 12       		.uleb128 0x12
 1548 0298 1B030000 		.4byte	.LASF46
 1549 029c 9001     		.2byte	0x190
 1550 029e 07       		.byte	0x7
 1551 029f 5D       		.byte	0x5d
 1552 02a0 D5020000 		.4byte	0x2d5
 1553 02a4 0E       		.uleb128 0xe
 1554 02a5 BF040000 		.4byte	.LASF26
 1555 02a9 07       		.byte	0x7
 1556 02aa 5E       		.byte	0x5e
 1557 02ab D5020000 		.4byte	0x2d5
 1558 02af 00       		.byte	0
 1559 02b0 0E       		.uleb128 0xe
 1560 02b1 E8030000 		.4byte	.LASF47
 1561 02b5 07       		.byte	0x7
 1562 02b6 5F       		.byte	0x5f
 1563 02b7 73000000 		.4byte	0x73
 1564 02bb 04       		.byte	0x4
 1565 02bc 0E       		.uleb128 0xe
 1566 02bd C2010000 		.4byte	.LASF48
 1567 02c1 07       		.byte	0x7
 1568 02c2 61       		.byte	0x61
 1569 02c3 DB020000 		.4byte	0x2db
 1570 02c7 08       		.byte	0x8
 1571 02c8 0E       		.uleb128 0xe
 1572 02c9 17010000 		.4byte	.LASF41
 1573 02cd 07       		.byte	0x7
 1574 02ce 62       		.byte	0x62
 1575 02cf 47020000 		.4byte	0x247
 1576 02d3 88       		.byte	0x88
 1577 02d4 00       		.byte	0
 1578 02d5 06       		.uleb128 0x6
 1579 02d6 04       		.byte	0x4
 1580 02d7 97020000 		.4byte	0x297
 1581 02db 0B       		.uleb128 0xb
 1582 02dc EB020000 		.4byte	0x2eb
 1583 02e0 EB020000 		.4byte	0x2eb
 1584 02e4 0C       		.uleb128 0xc
 1585 02e5 7A000000 		.4byte	0x7a
 1586 02e9 1F       		.byte	0x1f
 1587 02ea 00       		.byte	0
 1588 02eb 06       		.uleb128 0x6
 1589 02ec 04       		.byte	0x4
 1590 02ed F1020000 		.4byte	0x2f1
 1591 02f1 14       		.uleb128 0x14
 1592 02f2 10       		.uleb128 0x10
 1593 02f3 91030000 		.4byte	.LASF49
 1594 02f7 08       		.byte	0x8
 1595 02f8 07       		.byte	0x7
 1596 02f9 75       		.byte	0x75
ARM GAS  /tmp/ccFquxZA.s 			page 29


 1597 02fa 17030000 		.4byte	0x317
 1598 02fe 0E       		.uleb128 0xe
 1599 02ff F2000000 		.4byte	.LASF50
 1600 0303 07       		.byte	0x7
 1601 0304 76       		.byte	0x76
 1602 0305 17030000 		.4byte	0x317
 1603 0309 00       		.byte	0
 1604 030a 0E       		.uleb128 0xe
 1605 030b 0C000000 		.4byte	.LASF51
 1606 030f 07       		.byte	0x7
 1607 0310 77       		.byte	0x77
 1608 0311 73000000 		.4byte	0x73
 1609 0315 04       		.byte	0x4
 1610 0316 00       		.byte	0
 1611 0317 06       		.uleb128 0x6
 1612 0318 04       		.byte	0x4
 1613 0319 37000000 		.4byte	0x37
 1614 031d 10       		.uleb128 0x10
 1615 031e B0030000 		.4byte	.LASF52
 1616 0322 68       		.byte	0x68
 1617 0323 07       		.byte	0x7
 1618 0324 B5       		.byte	0xb5
 1619 0325 47040000 		.4byte	0x447
 1620 0329 11       		.uleb128 0x11
 1621 032a 5F7000   		.ascii	"_p\000"
 1622 032d 07       		.byte	0x7
 1623 032e B6       		.byte	0xb6
 1624 032f 17030000 		.4byte	0x317
 1625 0333 00       		.byte	0
 1626 0334 11       		.uleb128 0x11
 1627 0335 5F7200   		.ascii	"_r\000"
 1628 0338 07       		.byte	0x7
 1629 0339 B7       		.byte	0xb7
 1630 033a 73000000 		.4byte	0x73
 1631 033e 04       		.byte	0x4
 1632 033f 11       		.uleb128 0x11
 1633 0340 5F7700   		.ascii	"_w\000"
 1634 0343 07       		.byte	0x7
 1635 0344 B8       		.byte	0xb8
 1636 0345 73000000 		.4byte	0x73
 1637 0349 08       		.byte	0x8
 1638 034a 0E       		.uleb128 0xe
 1639 034b 48010000 		.4byte	.LASF53
 1640 034f 07       		.byte	0x7
 1641 0350 B9       		.byte	0xb9
 1642 0351 3E000000 		.4byte	0x3e
 1643 0355 0C       		.byte	0xc
 1644 0356 0E       		.uleb128 0xe
 1645 0357 4B020000 		.4byte	.LASF54
 1646 035b 07       		.byte	0x7
 1647 035c BA       		.byte	0xba
 1648 035d 3E000000 		.4byte	0x3e
 1649 0361 0E       		.byte	0xe
 1650 0362 11       		.uleb128 0x11
 1651 0363 5F626600 		.ascii	"_bf\000"
 1652 0367 07       		.byte	0x7
 1653 0368 BB       		.byte	0xbb
ARM GAS  /tmp/ccFquxZA.s 			page 30


 1654 0369 F2020000 		.4byte	0x2f2
 1655 036d 10       		.byte	0x10
 1656 036e 0E       		.uleb128 0xe
 1657 036f 82000000 		.4byte	.LASF55
 1658 0373 07       		.byte	0x7
 1659 0374 BC       		.byte	0xbc
 1660 0375 73000000 		.4byte	0x73
 1661 0379 18       		.byte	0x18
 1662 037a 0E       		.uleb128 0xe
 1663 037b 25010000 		.4byte	.LASF56
 1664 037f 07       		.byte	0x7
 1665 0380 C3       		.byte	0xc3
 1666 0381 46010000 		.4byte	0x146
 1667 0385 1C       		.byte	0x1c
 1668 0386 0E       		.uleb128 0xe
 1669 0387 00020000 		.4byte	.LASF57
 1670 038b 07       		.byte	0x7
 1671 038c C5       		.byte	0xc5
 1672 038d A2050000 		.4byte	0x5a2
 1673 0391 20       		.byte	0x20
 1674 0392 0E       		.uleb128 0xe
 1675 0393 D6020000 		.4byte	.LASF58
 1676 0397 07       		.byte	0x7
 1677 0398 C7       		.byte	0xc7
 1678 0399 CC050000 		.4byte	0x5cc
 1679 039d 24       		.byte	0x24
 1680 039e 0E       		.uleb128 0xe
 1681 039f 5C040000 		.4byte	.LASF59
 1682 03a3 07       		.byte	0x7
 1683 03a4 CA       		.byte	0xca
 1684 03a5 F0050000 		.4byte	0x5f0
 1685 03a9 28       		.byte	0x28
 1686 03aa 0E       		.uleb128 0xe
 1687 03ab 40060000 		.4byte	.LASF60
 1688 03af 07       		.byte	0x7
 1689 03b0 CB       		.byte	0xcb
 1690 03b1 0A060000 		.4byte	0x60a
 1691 03b5 2C       		.byte	0x2c
 1692 03b6 11       		.uleb128 0x11
 1693 03b7 5F756200 		.ascii	"_ub\000"
 1694 03bb 07       		.byte	0x7
 1695 03bc CE       		.byte	0xce
 1696 03bd F2020000 		.4byte	0x2f2
 1697 03c1 30       		.byte	0x30
 1698 03c2 11       		.uleb128 0x11
 1699 03c3 5F757000 		.ascii	"_up\000"
 1700 03c7 07       		.byte	0x7
 1701 03c8 CF       		.byte	0xcf
 1702 03c9 17030000 		.4byte	0x317
 1703 03cd 38       		.byte	0x38
 1704 03ce 11       		.uleb128 0x11
 1705 03cf 5F757200 		.ascii	"_ur\000"
 1706 03d3 07       		.byte	0x7
 1707 03d4 D0       		.byte	0xd0
 1708 03d5 73000000 		.4byte	0x73
 1709 03d9 3C       		.byte	0x3c
 1710 03da 0E       		.uleb128 0xe
ARM GAS  /tmp/ccFquxZA.s 			page 31


 1711 03db EC000000 		.4byte	.LASF61
 1712 03df 07       		.byte	0x7
 1713 03e0 D3       		.byte	0xd3
 1714 03e1 10060000 		.4byte	0x610
 1715 03e5 40       		.byte	0x40
 1716 03e6 0E       		.uleb128 0xe
 1717 03e7 18060000 		.4byte	.LASF62
 1718 03eb 07       		.byte	0x7
 1719 03ec D4       		.byte	0xd4
 1720 03ed 20060000 		.4byte	0x620
 1721 03f1 43       		.byte	0x43
 1722 03f2 11       		.uleb128 0x11
 1723 03f3 5F6C6200 		.ascii	"_lb\000"
 1724 03f7 07       		.byte	0x7
 1725 03f8 D7       		.byte	0xd7
 1726 03f9 F2020000 		.4byte	0x2f2
 1727 03fd 44       		.byte	0x44
 1728 03fe 0E       		.uleb128 0xe
 1729 03ff 5E010000 		.4byte	.LASF63
 1730 0403 07       		.byte	0x7
 1731 0404 DA       		.byte	0xda
 1732 0405 73000000 		.4byte	0x73
 1733 0409 4C       		.byte	0x4c
 1734 040a 0E       		.uleb128 0xe
 1735 040b 6F010000 		.4byte	.LASF64
 1736 040f 07       		.byte	0x7
 1737 0410 DB       		.byte	0xdb
 1738 0411 BE000000 		.4byte	0xbe
 1739 0415 50       		.byte	0x50
 1740 0416 0E       		.uleb128 0xe
 1741 0417 34000000 		.4byte	.LASF65
 1742 041b 07       		.byte	0x7
 1743 041c DE       		.byte	0xde
 1744 041d 65040000 		.4byte	0x465
 1745 0421 54       		.byte	0x54
 1746 0422 0E       		.uleb128 0xe
 1747 0423 B9020000 		.4byte	.LASF66
 1748 0427 07       		.byte	0x7
 1749 0428 E2       		.byte	0xe2
 1750 0429 3B010000 		.4byte	0x13b
 1751 042d 58       		.byte	0x58
 1752 042e 0E       		.uleb128 0xe
 1753 042f B8030000 		.4byte	.LASF67
 1754 0433 07       		.byte	0x7
 1755 0434 E4       		.byte	0xe4
 1756 0435 30010000 		.4byte	0x130
 1757 0439 5C       		.byte	0x5c
 1758 043a 0E       		.uleb128 0xe
 1759 043b BF020000 		.4byte	.LASF68
 1760 043f 07       		.byte	0x7
 1761 0440 E5       		.byte	0xe5
 1762 0441 73000000 		.4byte	0x73
 1763 0445 64       		.byte	0x64
 1764 0446 00       		.byte	0
 1765 0447 15       		.uleb128 0x15
 1766 0448 73000000 		.4byte	0x73
 1767 044c 65040000 		.4byte	0x465
ARM GAS  /tmp/ccFquxZA.s 			page 32


 1768 0450 16       		.uleb128 0x16
 1769 0451 65040000 		.4byte	0x465
 1770 0455 16       		.uleb128 0x16
 1771 0456 46010000 		.4byte	0x146
 1772 045a 16       		.uleb128 0x16
 1773 045b 48010000 		.4byte	0x148
 1774 045f 16       		.uleb128 0x16
 1775 0460 73000000 		.4byte	0x73
 1776 0464 00       		.byte	0
 1777 0465 06       		.uleb128 0x6
 1778 0466 04       		.byte	0x4
 1779 0467 70040000 		.4byte	0x470
 1780 046b 05       		.uleb128 0x5
 1781 046c 65040000 		.4byte	0x465
 1782 0470 17       		.uleb128 0x17
 1783 0471 20040000 		.4byte	.LASF69
 1784 0475 2804     		.2byte	0x428
 1785 0477 07       		.byte	0x7
 1786 0478 6002     		.2byte	0x260
 1787 047a A2050000 		.4byte	0x5a2
 1788 047e 18       		.uleb128 0x18
 1789 047f 76040000 		.4byte	.LASF70
 1790 0483 07       		.byte	0x7
 1791 0484 6202     		.2byte	0x262
 1792 0486 73000000 		.4byte	0x73
 1793 048a 00       		.byte	0
 1794 048b 18       		.uleb128 0x18
 1795 048c 57010000 		.4byte	.LASF71
 1796 0490 07       		.byte	0x7
 1797 0491 6702     		.2byte	0x267
 1798 0493 77060000 		.4byte	0x677
 1799 0497 04       		.byte	0x4
 1800 0498 18       		.uleb128 0x18
 1801 0499 29020000 		.4byte	.LASF72
 1802 049d 07       		.byte	0x7
 1803 049e 6702     		.2byte	0x267
 1804 04a0 77060000 		.4byte	0x677
 1805 04a4 08       		.byte	0x8
 1806 04a5 18       		.uleb128 0x18
 1807 04a6 E1010000 		.4byte	.LASF73
 1808 04aa 07       		.byte	0x7
 1809 04ab 6702     		.2byte	0x267
 1810 04ad 77060000 		.4byte	0x677
 1811 04b1 0C       		.byte	0xc
 1812 04b2 18       		.uleb128 0x18
 1813 04b3 E3030000 		.4byte	.LASF74
 1814 04b7 07       		.byte	0x7
 1815 04b8 6902     		.2byte	0x269
 1816 04ba 73000000 		.4byte	0x73
 1817 04be 10       		.byte	0x10
 1818 04bf 18       		.uleb128 0x18
 1819 04c0 1A000000 		.4byte	.LASF75
 1820 04c4 07       		.byte	0x7
 1821 04c5 6A02     		.2byte	0x26a
 1822 04c7 59080000 		.4byte	0x859
 1823 04cb 14       		.byte	0x14
 1824 04cc 18       		.uleb128 0x18
ARM GAS  /tmp/ccFquxZA.s 			page 33


 1825 04cd FF030000 		.4byte	.LASF76
 1826 04d1 07       		.byte	0x7
 1827 04d2 6D02     		.2byte	0x26d
 1828 04d4 73000000 		.4byte	0x73
 1829 04d8 30       		.byte	0x30
 1830 04d9 18       		.uleb128 0x18
 1831 04da ED030000 		.4byte	.LASF77
 1832 04de 07       		.byte	0x7
 1833 04df 6E02     		.2byte	0x26e
 1834 04e1 6E080000 		.4byte	0x86e
 1835 04e5 34       		.byte	0x34
 1836 04e6 18       		.uleb128 0x18
 1837 04e7 23030000 		.4byte	.LASF78
 1838 04eb 07       		.byte	0x7
 1839 04ec 7002     		.2byte	0x270
 1840 04ee 73000000 		.4byte	0x73
 1841 04f2 38       		.byte	0x38
 1842 04f3 18       		.uleb128 0x18
 1843 04f4 F5030000 		.4byte	.LASF79
 1844 04f8 07       		.byte	0x7
 1845 04f9 7202     		.2byte	0x272
 1846 04fb 7F080000 		.4byte	0x87f
 1847 04ff 3C       		.byte	0x3c
 1848 0500 18       		.uleb128 0x18
 1849 0501 9C020000 		.4byte	.LASF80
 1850 0505 07       		.byte	0x7
 1851 0506 7502     		.2byte	0x275
 1852 0508 B8010000 		.4byte	0x1b8
 1853 050c 40       		.byte	0x40
 1854 050d 18       		.uleb128 0x18
 1855 050e 06020000 		.4byte	.LASF81
 1856 0512 07       		.byte	0x7
 1857 0513 7602     		.2byte	0x276
 1858 0515 73000000 		.4byte	0x73
 1859 0519 44       		.byte	0x44
 1860 051a 18       		.uleb128 0x18
 1861 051b 5A060000 		.4byte	.LASF82
 1862 051f 07       		.byte	0x7
 1863 0520 7702     		.2byte	0x277
 1864 0522 B8010000 		.4byte	0x1b8
 1865 0526 48       		.byte	0x48
 1866 0527 18       		.uleb128 0x18
 1867 0528 35030000 		.4byte	.LASF83
 1868 052c 07       		.byte	0x7
 1869 052d 7802     		.2byte	0x278
 1870 052f 85080000 		.4byte	0x885
 1871 0533 4C       		.byte	0x4c
 1872 0534 18       		.uleb128 0x18
 1873 0535 31020000 		.4byte	.LASF84
 1874 0539 07       		.byte	0x7
 1875 053a 7B02     		.2byte	0x27b
 1876 053c 73000000 		.4byte	0x73
 1877 0540 50       		.byte	0x50
 1878 0541 18       		.uleb128 0x18
 1879 0542 67010000 		.4byte	.LASF85
 1880 0546 07       		.byte	0x7
 1881 0547 7C02     		.2byte	0x27c
ARM GAS  /tmp/ccFquxZA.s 			page 34


 1882 0549 48010000 		.4byte	0x148
 1883 054d 54       		.byte	0x54
 1884 054e 18       		.uleb128 0x18
 1885 054f 6F030000 		.4byte	.LASF86
 1886 0553 07       		.byte	0x7
 1887 0554 9F02     		.2byte	0x29f
 1888 0556 37080000 		.4byte	0x837
 1889 055a 58       		.byte	0x58
 1890 055b 19       		.uleb128 0x19
 1891 055c 1B030000 		.4byte	.LASF46
 1892 0560 07       		.byte	0x7
 1893 0561 A302     		.2byte	0x2a3
 1894 0563 D5020000 		.4byte	0x2d5
 1895 0567 4801     		.2byte	0x148
 1896 0569 19       		.uleb128 0x19
 1897 056a 7A020000 		.4byte	.LASF87
 1898 056e 07       		.byte	0x7
 1899 056f A402     		.2byte	0x2a4
 1900 0571 97020000 		.4byte	0x297
 1901 0575 4C01     		.2byte	0x14c
 1902 0577 19       		.uleb128 0x19
 1903 0578 0E060000 		.4byte	.LASF88
 1904 057c 07       		.byte	0x7
 1905 057d A802     		.2byte	0x2a8
 1906 057f 96080000 		.4byte	0x896
 1907 0583 DC02     		.2byte	0x2dc
 1908 0585 19       		.uleb128 0x19
 1909 0586 2D010000 		.4byte	.LASF89
 1910 058a 07       		.byte	0x7
 1911 058b AD02     		.2byte	0x2ad
 1912 058d 3C060000 		.4byte	0x63c
 1913 0591 E002     		.2byte	0x2e0
 1914 0593 19       		.uleb128 0x19
 1915 0594 12010000 		.4byte	.LASF90
 1916 0598 07       		.byte	0x7
 1917 0599 AF02     		.2byte	0x2af
 1918 059b A2080000 		.4byte	0x8a2
 1919 059f EC02     		.2byte	0x2ec
 1920 05a1 00       		.byte	0
 1921 05a2 06       		.uleb128 0x6
 1922 05a3 04       		.byte	0x4
 1923 05a4 47040000 		.4byte	0x447
 1924 05a8 15       		.uleb128 0x15
 1925 05a9 73000000 		.4byte	0x73
 1926 05ad C6050000 		.4byte	0x5c6
 1927 05b1 16       		.uleb128 0x16
 1928 05b2 65040000 		.4byte	0x465
 1929 05b6 16       		.uleb128 0x16
 1930 05b7 46010000 		.4byte	0x146
 1931 05bb 16       		.uleb128 0x16
 1932 05bc C6050000 		.4byte	0x5c6
 1933 05c0 16       		.uleb128 0x16
 1934 05c1 73000000 		.4byte	0x73
 1935 05c5 00       		.byte	0
 1936 05c6 06       		.uleb128 0x6
 1937 05c7 04       		.byte	0x4
 1938 05c8 55010000 		.4byte	0x155
ARM GAS  /tmp/ccFquxZA.s 			page 35


 1939 05cc 06       		.uleb128 0x6
 1940 05cd 04       		.byte	0x4
 1941 05ce A8050000 		.4byte	0x5a8
 1942 05d2 15       		.uleb128 0x15
 1943 05d3 C9000000 		.4byte	0xc9
 1944 05d7 F0050000 		.4byte	0x5f0
 1945 05db 16       		.uleb128 0x16
 1946 05dc 65040000 		.4byte	0x465
 1947 05e0 16       		.uleb128 0x16
 1948 05e1 46010000 		.4byte	0x146
 1949 05e5 16       		.uleb128 0x16
 1950 05e6 C9000000 		.4byte	0xc9
 1951 05ea 16       		.uleb128 0x16
 1952 05eb 73000000 		.4byte	0x73
 1953 05ef 00       		.byte	0
 1954 05f0 06       		.uleb128 0x6
 1955 05f1 04       		.byte	0x4
 1956 05f2 D2050000 		.4byte	0x5d2
 1957 05f6 15       		.uleb128 0x15
 1958 05f7 73000000 		.4byte	0x73
 1959 05fb 0A060000 		.4byte	0x60a
 1960 05ff 16       		.uleb128 0x16
 1961 0600 65040000 		.4byte	0x465
 1962 0604 16       		.uleb128 0x16
 1963 0605 46010000 		.4byte	0x146
 1964 0609 00       		.byte	0
 1965 060a 06       		.uleb128 0x6
 1966 060b 04       		.byte	0x4
 1967 060c F6050000 		.4byte	0x5f6
 1968 0610 0B       		.uleb128 0xb
 1969 0611 37000000 		.4byte	0x37
 1970 0615 20060000 		.4byte	0x620
 1971 0619 0C       		.uleb128 0xc
 1972 061a 7A000000 		.4byte	0x7a
 1973 061e 02       		.byte	0x2
 1974 061f 00       		.byte	0
 1975 0620 0B       		.uleb128 0xb
 1976 0621 37000000 		.4byte	0x37
 1977 0625 30060000 		.4byte	0x630
 1978 0629 0C       		.uleb128 0xc
 1979 062a 7A000000 		.4byte	0x7a
 1980 062e 00       		.byte	0
 1981 062f 00       		.byte	0
 1982 0630 08       		.uleb128 0x8
 1983 0631 9E030000 		.4byte	.LASF91
 1984 0635 07       		.byte	0x7
 1985 0636 1F01     		.2byte	0x11f
 1986 0638 1D030000 		.4byte	0x31d
 1987 063c 1A       		.uleb128 0x1a
 1988 063d F0050000 		.4byte	.LASF92
 1989 0641 0C       		.byte	0xc
 1990 0642 07       		.byte	0x7
 1991 0643 2301     		.2byte	0x123
 1992 0645 71060000 		.4byte	0x671
 1993 0649 18       		.uleb128 0x18
 1994 064a BF040000 		.4byte	.LASF26
 1995 064e 07       		.byte	0x7
ARM GAS  /tmp/ccFquxZA.s 			page 36


 1996 064f 2501     		.2byte	0x125
 1997 0651 71060000 		.4byte	0x671
 1998 0655 00       		.byte	0
 1999 0656 18       		.uleb128 0x18
 2000 0657 56020000 		.4byte	.LASF93
 2001 065b 07       		.byte	0x7
 2002 065c 2601     		.2byte	0x126
 2003 065e 73000000 		.4byte	0x73
 2004 0662 04       		.byte	0x4
 2005 0663 18       		.uleb128 0x18
 2006 0664 98030000 		.4byte	.LASF94
 2007 0668 07       		.byte	0x7
 2008 0669 2701     		.2byte	0x127
 2009 066b 77060000 		.4byte	0x677
 2010 066f 08       		.byte	0x8
 2011 0670 00       		.byte	0
 2012 0671 06       		.uleb128 0x6
 2013 0672 04       		.byte	0x4
 2014 0673 3C060000 		.4byte	0x63c
 2015 0677 06       		.uleb128 0x6
 2016 0678 04       		.byte	0x4
 2017 0679 30060000 		.4byte	0x630
 2018 067d 1A       		.uleb128 0x1a
 2019 067e 12000000 		.4byte	.LASF95
 2020 0682 0E       		.byte	0xe
 2021 0683 07       		.byte	0x7
 2022 0684 3F01     		.2byte	0x13f
 2023 0686 B2060000 		.4byte	0x6b2
 2024 068a 18       		.uleb128 0x18
 2025 068b 34040000 		.4byte	.LASF96
 2026 068f 07       		.byte	0x7
 2027 0690 4001     		.2byte	0x140
 2028 0692 B2060000 		.4byte	0x6b2
 2029 0696 00       		.byte	0
 2030 0697 18       		.uleb128 0x18
 2031 0698 B9040000 		.4byte	.LASF97
 2032 069c 07       		.byte	0x7
 2033 069d 4101     		.2byte	0x141
 2034 069f B2060000 		.4byte	0x6b2
 2035 06a3 06       		.byte	0x6
 2036 06a4 18       		.uleb128 0x18
 2037 06a5 99050000 		.4byte	.LASF98
 2038 06a9 07       		.byte	0x7
 2039 06aa 4201     		.2byte	0x142
 2040 06ac 45000000 		.4byte	0x45
 2041 06b0 0C       		.byte	0xc
 2042 06b1 00       		.byte	0
 2043 06b2 0B       		.uleb128 0xb
 2044 06b3 45000000 		.4byte	0x45
 2045 06b7 C2060000 		.4byte	0x6c2
 2046 06bb 0C       		.uleb128 0xc
 2047 06bc 7A000000 		.4byte	0x7a
 2048 06c0 02       		.byte	0x2
 2049 06c1 00       		.byte	0
 2050 06c2 1B       		.uleb128 0x1b
 2051 06c3 D0       		.byte	0xd0
 2052 06c4 07       		.byte	0x7
ARM GAS  /tmp/ccFquxZA.s 			page 37


 2053 06c5 8002     		.2byte	0x280
 2054 06c7 C3070000 		.4byte	0x7c3
 2055 06cb 18       		.uleb128 0x18
 2056 06cc D4050000 		.4byte	.LASF99
 2057 06d0 07       		.byte	0x7
 2058 06d1 8202     		.2byte	0x282
 2059 06d3 7A000000 		.4byte	0x7a
 2060 06d7 00       		.byte	0
 2061 06d8 18       		.uleb128 0x18
 2062 06d9 C5040000 		.4byte	.LASF100
 2063 06dd 07       		.byte	0x7
 2064 06de 8302     		.2byte	0x283
 2065 06e0 48010000 		.4byte	0x148
 2066 06e4 04       		.byte	0x4
 2067 06e5 18       		.uleb128 0x18
 2068 06e6 8F020000 		.4byte	.LASF101
 2069 06ea 07       		.byte	0x7
 2070 06eb 8402     		.2byte	0x284
 2071 06ed C3070000 		.4byte	0x7c3
 2072 06f1 08       		.byte	0x8
 2073 06f2 18       		.uleb128 0x18
 2074 06f3 31060000 		.4byte	.LASF102
 2075 06f7 07       		.byte	0x7
 2076 06f8 8502     		.2byte	0x285
 2077 06fa CE010000 		.4byte	0x1ce
 2078 06fe 24       		.byte	0x24
 2079 06ff 18       		.uleb128 0x18
 2080 0700 F1010000 		.4byte	.LASF103
 2081 0704 07       		.byte	0x7
 2082 0705 8602     		.2byte	0x286
 2083 0707 73000000 		.4byte	0x73
 2084 070b 48       		.byte	0x48
 2085 070c 18       		.uleb128 0x18
 2086 070d C1030000 		.4byte	.LASF104
 2087 0711 07       		.byte	0x7
 2088 0712 8702     		.2byte	0x287
 2089 0714 6C000000 		.4byte	0x6c
 2090 0718 50       		.byte	0x50
 2091 0719 18       		.uleb128 0x18
 2092 071a 47060000 		.4byte	.LASF105
 2093 071e 07       		.byte	0x7
 2094 071f 8802     		.2byte	0x288
 2095 0721 7D060000 		.4byte	0x67d
 2096 0725 58       		.byte	0x58
 2097 0726 18       		.uleb128 0x18
 2098 0727 D6030000 		.4byte	.LASF106
 2099 072b 07       		.byte	0x7
 2100 072c 8902     		.2byte	0x289
 2101 072e 30010000 		.4byte	0x130
 2102 0732 68       		.byte	0x68
 2103 0733 18       		.uleb128 0x18
 2104 0734 4C060000 		.4byte	.LASF107
 2105 0738 07       		.byte	0x7
 2106 0739 8A02     		.2byte	0x28a
 2107 073b 30010000 		.4byte	0x130
 2108 073f 70       		.byte	0x70
 2109 0740 18       		.uleb128 0x18
ARM GAS  /tmp/ccFquxZA.s 			page 38


 2110 0741 4D030000 		.4byte	.LASF108
 2111 0745 07       		.byte	0x7
 2112 0746 8B02     		.2byte	0x28b
 2113 0748 30010000 		.4byte	0x130
 2114 074c 78       		.byte	0x78
 2115 074d 18       		.uleb128 0x18
 2116 074e 04060000 		.4byte	.LASF109
 2117 0752 07       		.byte	0x7
 2118 0753 8C02     		.2byte	0x28c
 2119 0755 D3070000 		.4byte	0x7d3
 2120 0759 80       		.byte	0x80
 2121 075a 18       		.uleb128 0x18
 2122 075b 83020000 		.4byte	.LASF110
 2123 075f 07       		.byte	0x7
 2124 0760 8D02     		.2byte	0x28d
 2125 0762 E3070000 		.4byte	0x7e3
 2126 0766 88       		.byte	0x88
 2127 0767 18       		.uleb128 0x18
 2128 0768 A6050000 		.4byte	.LASF111
 2129 076c 07       		.byte	0x7
 2130 076d 8E02     		.2byte	0x28e
 2131 076f 73000000 		.4byte	0x73
 2132 0773 A0       		.byte	0xa0
 2133 0774 18       		.uleb128 0x18
 2134 0775 8E010000 		.4byte	.LASF112
 2135 0779 07       		.byte	0x7
 2136 077a 8F02     		.2byte	0x28f
 2137 077c 30010000 		.4byte	0x130
 2138 0780 A4       		.byte	0xa4
 2139 0781 18       		.uleb128 0x18
 2140 0782 9E000000 		.4byte	.LASF113
 2141 0786 07       		.byte	0x7
 2142 0787 9002     		.2byte	0x290
 2143 0789 30010000 		.4byte	0x130
 2144 078d AC       		.byte	0xac
 2145 078e 18       		.uleb128 0x18
 2146 078f 7D010000 		.4byte	.LASF114
 2147 0793 07       		.byte	0x7
 2148 0794 9102     		.2byte	0x291
 2149 0796 30010000 		.4byte	0x130
 2150 079a B4       		.byte	0xb4
 2151 079b 18       		.uleb128 0x18
 2152 079c 3A000000 		.4byte	.LASF115
 2153 07a0 07       		.byte	0x7
 2154 07a1 9202     		.2byte	0x292
 2155 07a3 30010000 		.4byte	0x130
 2156 07a7 BC       		.byte	0xbc
 2157 07a8 18       		.uleb128 0x18
 2158 07a9 49000000 		.4byte	.LASF116
 2159 07ad 07       		.byte	0x7
 2160 07ae 9302     		.2byte	0x293
 2161 07b0 30010000 		.4byte	0x130
 2162 07b4 C4       		.byte	0xc4
 2163 07b5 18       		.uleb128 0x18
 2164 07b6 74030000 		.4byte	.LASF117
 2165 07ba 07       		.byte	0x7
 2166 07bb 9402     		.2byte	0x294
ARM GAS  /tmp/ccFquxZA.s 			page 39


 2167 07bd 73000000 		.4byte	0x73
 2168 07c1 CC       		.byte	0xcc
 2169 07c2 00       		.byte	0
 2170 07c3 0B       		.uleb128 0xb
 2171 07c4 4E010000 		.4byte	0x14e
 2172 07c8 D3070000 		.4byte	0x7d3
 2173 07cc 0C       		.uleb128 0xc
 2174 07cd 7A000000 		.4byte	0x7a
 2175 07d1 19       		.byte	0x19
 2176 07d2 00       		.byte	0
 2177 07d3 0B       		.uleb128 0xb
 2178 07d4 4E010000 		.4byte	0x14e
 2179 07d8 E3070000 		.4byte	0x7e3
 2180 07dc 0C       		.uleb128 0xc
 2181 07dd 7A000000 		.4byte	0x7a
 2182 07e1 07       		.byte	0x7
 2183 07e2 00       		.byte	0
 2184 07e3 0B       		.uleb128 0xb
 2185 07e4 4E010000 		.4byte	0x14e
 2186 07e8 F3070000 		.4byte	0x7f3
 2187 07ec 0C       		.uleb128 0xc
 2188 07ed 7A000000 		.4byte	0x7a
 2189 07f1 17       		.byte	0x17
 2190 07f2 00       		.byte	0
 2191 07f3 1B       		.uleb128 0x1b
 2192 07f4 F0       		.byte	0xf0
 2193 07f5 07       		.byte	0x7
 2194 07f6 9902     		.2byte	0x299
 2195 07f8 17080000 		.4byte	0x817
 2196 07fc 18       		.uleb128 0x18
 2197 07fd 01030000 		.4byte	.LASF118
 2198 0801 07       		.byte	0x7
 2199 0802 9C02     		.2byte	0x29c
 2200 0804 17080000 		.4byte	0x817
 2201 0808 00       		.byte	0
 2202 0809 18       		.uleb128 0x18
 2203 080a E7020000 		.4byte	.LASF119
 2204 080e 07       		.byte	0x7
 2205 080f 9D02     		.2byte	0x29d
 2206 0811 27080000 		.4byte	0x827
 2207 0815 78       		.byte	0x78
 2208 0816 00       		.byte	0
 2209 0817 0B       		.uleb128 0xb
 2210 0818 17030000 		.4byte	0x317
 2211 081c 27080000 		.4byte	0x827
 2212 0820 0C       		.uleb128 0xc
 2213 0821 7A000000 		.4byte	0x7a
 2214 0825 1D       		.byte	0x1d
 2215 0826 00       		.byte	0
 2216 0827 0B       		.uleb128 0xb
 2217 0828 7A000000 		.4byte	0x7a
 2218 082c 37080000 		.4byte	0x837
 2219 0830 0C       		.uleb128 0xc
 2220 0831 7A000000 		.4byte	0x7a
 2221 0835 1D       		.byte	0x1d
 2222 0836 00       		.byte	0
 2223 0837 1C       		.uleb128 0x1c
ARM GAS  /tmp/ccFquxZA.s 			page 40


 2224 0838 F0       		.byte	0xf0
 2225 0839 07       		.byte	0x7
 2226 083a 7E02     		.2byte	0x27e
 2227 083c 59080000 		.4byte	0x859
 2228 0840 1D       		.uleb128 0x1d
 2229 0841 20040000 		.4byte	.LASF69
 2230 0845 07       		.byte	0x7
 2231 0846 9502     		.2byte	0x295
 2232 0848 C2060000 		.4byte	0x6c2
 2233 084c 1D       		.uleb128 0x1d
 2234 084d 1E060000 		.4byte	.LASF120
 2235 0851 07       		.byte	0x7
 2236 0852 9E02     		.2byte	0x29e
 2237 0854 F3070000 		.4byte	0x7f3
 2238 0858 00       		.byte	0
 2239 0859 0B       		.uleb128 0xb
 2240 085a 4E010000 		.4byte	0x14e
 2241 085e 69080000 		.4byte	0x869
 2242 0862 0C       		.uleb128 0xc
 2243 0863 7A000000 		.4byte	0x7a
 2244 0867 18       		.byte	0x18
 2245 0868 00       		.byte	0
 2246 0869 07       		.uleb128 0x7
 2247 086a 8B000000 		.4byte	.LASF122
 2248 086e 06       		.uleb128 0x6
 2249 086f 04       		.byte	0x4
 2250 0870 69080000 		.4byte	0x869
 2251 0874 1E       		.uleb128 0x1e
 2252 0875 7F080000 		.4byte	0x87f
 2253 0879 16       		.uleb128 0x16
 2254 087a 65040000 		.4byte	0x465
 2255 087e 00       		.byte	0
 2256 087f 06       		.uleb128 0x6
 2257 0880 04       		.byte	0x4
 2258 0881 74080000 		.4byte	0x874
 2259 0885 06       		.uleb128 0x6
 2260 0886 04       		.byte	0x4
 2261 0887 B8010000 		.4byte	0x1b8
 2262 088b 1E       		.uleb128 0x1e
 2263 088c 96080000 		.4byte	0x896
 2264 0890 16       		.uleb128 0x16
 2265 0891 73000000 		.4byte	0x73
 2266 0895 00       		.byte	0
 2267 0896 06       		.uleb128 0x6
 2268 0897 04       		.byte	0x4
 2269 0898 9C080000 		.4byte	0x89c
 2270 089c 06       		.uleb128 0x6
 2271 089d 04       		.byte	0x4
 2272 089e 8B080000 		.4byte	0x88b
 2273 08a2 0B       		.uleb128 0xb
 2274 08a3 30060000 		.4byte	0x630
 2275 08a7 B2080000 		.4byte	0x8b2
 2276 08ab 0C       		.uleb128 0xc
 2277 08ac 7A000000 		.4byte	0x7a
 2278 08b0 02       		.byte	0x2
 2279 08b1 00       		.byte	0
 2280 08b2 1F       		.uleb128 0x1f
ARM GAS  /tmp/ccFquxZA.s 			page 41


 2281 08b3 62040000 		.4byte	.LASF123
 2282 08b7 07       		.byte	0x7
 2283 08b8 2E03     		.2byte	0x32e
 2284 08ba 65040000 		.4byte	0x465
 2285 08be 1F       		.uleb128 0x1f
 2286 08bf B3050000 		.4byte	.LASF124
 2287 08c3 07       		.byte	0x7
 2288 08c4 2F03     		.2byte	0x32f
 2289 08c6 6B040000 		.4byte	0x46b
 2290 08ca 10       		.uleb128 0x10
 2291 08cb 5F060000 		.4byte	.LASF125
 2292 08cf 20       		.byte	0x20
 2293 08d0 08       		.byte	0x8
 2294 08d1 02       		.byte	0x2
 2295 08d2 E3080000 		.4byte	0x8e3
 2296 08d6 0E       		.uleb128 0xe
 2297 08d7 FC020000 		.4byte	.LASF126
 2298 08db 08       		.byte	0x8
 2299 08dc 03       		.byte	0x3
 2300 08dd E3080000 		.4byte	0x8e3
 2301 08e1 00       		.byte	0
 2302 08e2 00       		.byte	0
 2303 08e3 0B       		.uleb128 0xb
 2304 08e4 91000000 		.4byte	0x91
 2305 08e8 F3080000 		.4byte	0x8f3
 2306 08ec 0C       		.uleb128 0xc
 2307 08ed 7A000000 		.4byte	0x7a
 2308 08f1 07       		.byte	0x7
 2309 08f2 00       		.byte	0
 2310 08f3 03       		.uleb128 0x3
 2311 08f4 5F060000 		.4byte	.LASF125
 2312 08f8 08       		.byte	0x8
 2313 08f9 04       		.byte	0x4
 2314 08fa CA080000 		.4byte	0x8ca
 2315 08fe 05       		.uleb128 0x5
 2316 08ff F3080000 		.4byte	0x8f3
 2317 0903 10       		.uleb128 0x10
 2318 0904 F6050000 		.4byte	.LASF127
 2319 0908 40       		.byte	0x40
 2320 0909 08       		.byte	0x8
 2321 090a 07       		.byte	0x7
 2322 090b 1C090000 		.4byte	0x91c
 2323 090f 0E       		.uleb128 0xe
 2324 0910 FC020000 		.4byte	.LASF126
 2325 0914 08       		.byte	0x8
 2326 0915 08       		.byte	0x8
 2327 0916 1C090000 		.4byte	0x91c
 2328 091a 00       		.byte	0
 2329 091b 00       		.byte	0
 2330 091c 0B       		.uleb128 0xb
 2331 091d 91000000 		.4byte	0x91
 2332 0921 2C090000 		.4byte	0x92c
 2333 0925 0C       		.uleb128 0xc
 2334 0926 7A000000 		.4byte	0x7a
 2335 092a 0F       		.byte	0xf
 2336 092b 00       		.byte	0
 2337 092c 03       		.uleb128 0x3
ARM GAS  /tmp/ccFquxZA.s 			page 42


 2338 092d F6050000 		.4byte	.LASF127
 2339 0931 08       		.byte	0x8
 2340 0932 09       		.byte	0x9
 2341 0933 03090000 		.4byte	0x903
 2342 0937 20       		.uleb128 0x20
 2343 0938 27040000 		.4byte	.LASF139
 2344 093c 01       		.byte	0x1
 2345 093d A601     		.2byte	0x1a6
 2346 093f 00000000 		.4byte	.LFB11
 2347 0943 30000000 		.4byte	.LFE11-.LFB11
 2348 0947 01       		.uleb128 0x1
 2349 0948 9C       		.byte	0x9c
 2350 0949 7E090000 		.4byte	0x97e
 2351 094d 21       		.uleb128 0x21
 2352 094e 5800     		.ascii	"X\000"
 2353 0950 01       		.byte	0x1
 2354 0951 A601     		.2byte	0x1a6
 2355 0953 7E090000 		.4byte	0x97e
 2356 0957 00000000 		.4byte	.LLST58
 2357 095b 22       		.uleb128 0x22
 2358 095c 51020000 		.4byte	.LASF128
 2359 0960 01       		.byte	0x1
 2360 0961 A801     		.2byte	0x1a8
 2361 0963 84090000 		.4byte	0x984
 2362 0967 2C000000 		.4byte	.LLST59
 2363 096b 23       		.uleb128 0x23
 2364 096c 08000000 		.4byte	.LVL120
 2365 0970 000F0000 		.4byte	0xf00
 2366 0974 24       		.uleb128 0x24
 2367 0975 30000000 		.4byte	.LVL122
 2368 0979 0B0F0000 		.4byte	0xf0b
 2369 097d 00       		.byte	0
 2370 097e 06       		.uleb128 0x6
 2371 097f 04       		.byte	0x4
 2372 0980 F3080000 		.4byte	0x8f3
 2373 0984 06       		.uleb128 0x6
 2374 0985 04       		.byte	0x4
 2375 0986 8C000000 		.4byte	0x8c
 2376 098a 25       		.uleb128 0x25
 2377 098b 11030000 		.4byte	.LASF131
 2378 098f 01       		.byte	0x1
 2379 0990 9801     		.2byte	0x198
 2380 0992 73000000 		.4byte	0x73
 2381 0996 00000000 		.4byte	.LFB10
 2382 099a 2A000000 		.4byte	.LFE10-.LFB10
 2383 099e 01       		.uleb128 0x1
 2384 099f 9C       		.byte	0x9c
 2385 09a0 200A0000 		.4byte	0xa20
 2386 09a4 21       		.uleb128 0x21
 2387 09a5 4100     		.ascii	"A\000"
 2388 09a7 01       		.byte	0x1
 2389 09a8 9801     		.2byte	0x198
 2390 09aa 200A0000 		.4byte	0xa20
 2391 09ae 3F000000 		.4byte	.LLST54
 2392 09b2 21       		.uleb128 0x21
 2393 09b3 4200     		.ascii	"B\000"
 2394 09b5 01       		.byte	0x1
ARM GAS  /tmp/ccFquxZA.s 			page 43


 2395 09b6 9801     		.2byte	0x198
 2396 09b8 200A0000 		.4byte	0xa20
 2397 09bc 6B000000 		.4byte	.LLST55
 2398 09c0 22       		.uleb128 0x22
 2399 09c1 C6050000 		.4byte	.LASF129
 2400 09c5 01       		.byte	0x1
 2401 09c6 9A01     		.2byte	0x19a
 2402 09c8 91000000 		.4byte	0x91
 2403 09cc 97000000 		.4byte	.LLST56
 2404 09d0 22       		.uleb128 0x22
 2405 09d1 96000000 		.4byte	.LASF130
 2406 09d5 01       		.byte	0x1
 2407 09d6 9B01     		.2byte	0x19b
 2408 09d8 73000000 		.4byte	0x73
 2409 09dc B5000000 		.4byte	.LLST57
 2410 09e0 26       		.uleb128 0x26
 2411 09e1 746D7000 		.ascii	"tmp\000"
 2412 09e5 01       		.byte	0x1
 2413 09e6 9C01     		.2byte	0x19c
 2414 09e8 260A0000 		.4byte	0xa26
 2415 09ec 02       		.uleb128 0x2
 2416 09ed 91       		.byte	0x91
 2417 09ee 58       		.sleb128 -40
 2418 09ef 27       		.uleb128 0x27
 2419 09f0 0E000000 		.4byte	.LVL112
 2420 09f4 CF0D0000 		.4byte	0xdcf
 2421 09f8 0F0A0000 		.4byte	0xa0f
 2422 09fc 28       		.uleb128 0x28
 2423 09fd 01       		.uleb128 0x1
 2424 09fe 50       		.byte	0x50
 2425 09ff 02       		.uleb128 0x2
 2426 0a00 7D       		.byte	0x7d
 2427 0a01 00       		.sleb128 0
 2428 0a02 28       		.uleb128 0x28
 2429 0a03 01       		.uleb128 0x1
 2430 0a04 51       		.byte	0x51
 2431 0a05 02       		.uleb128 0x2
 2432 0a06 71       		.byte	0x71
 2433 0a07 00       		.sleb128 0
 2434 0a08 28       		.uleb128 0x28
 2435 0a09 01       		.uleb128 0x1
 2436 0a0a 52       		.byte	0x52
 2437 0a0b 02       		.uleb128 0x2
 2438 0a0c 72       		.byte	0x72
 2439 0a0d 00       		.sleb128 0
 2440 0a0e 00       		.byte	0
 2441 0a0f 29       		.uleb128 0x29
 2442 0a10 16000000 		.4byte	.LVL115
 2443 0a14 D10A0000 		.4byte	0xad1
 2444 0a18 28       		.uleb128 0x28
 2445 0a19 01       		.uleb128 0x1
 2446 0a1a 50       		.byte	0x50
 2447 0a1b 02       		.uleb128 0x2
 2448 0a1c 7D       		.byte	0x7d
 2449 0a1d 00       		.sleb128 0
 2450 0a1e 00       		.byte	0
 2451 0a1f 00       		.byte	0
ARM GAS  /tmp/ccFquxZA.s 			page 44


 2452 0a20 06       		.uleb128 0x6
 2453 0a21 04       		.byte	0x4
 2454 0a22 FE080000 		.4byte	0x8fe
 2455 0a26 0B       		.uleb128 0xb
 2456 0a27 F3080000 		.4byte	0x8f3
 2457 0a2b 360A0000 		.4byte	0xa36
 2458 0a2f 0C       		.uleb128 0xc
 2459 0a30 7A000000 		.4byte	0x7a
 2460 0a34 00       		.byte	0
 2461 0a35 00       		.byte	0
 2462 0a36 25       		.uleb128 0x25
 2463 0a37 82040000 		.4byte	.LASF132
 2464 0a3b 01       		.byte	0x1
 2465 0a3c 8D01     		.2byte	0x18d
 2466 0a3e 73000000 		.4byte	0x73
 2467 0a42 00000000 		.4byte	.LFB9
 2468 0a46 1A000000 		.4byte	.LFE9-.LFB9
 2469 0a4a 01       		.uleb128 0x1
 2470 0a4b 9C       		.byte	0x9c
 2471 0a4c A80A0000 		.4byte	0xaa8
 2472 0a50 21       		.uleb128 0x21
 2473 0a51 4100     		.ascii	"A\000"
 2474 0a53 01       		.byte	0x1
 2475 0a54 8D01     		.2byte	0x18d
 2476 0a56 200A0000 		.4byte	0xa20
 2477 0a5a D3000000 		.4byte	.LLST51
 2478 0a5e 21       		.uleb128 0x21
 2479 0a5f 4200     		.ascii	"B\000"
 2480 0a61 01       		.byte	0x1
 2481 0a62 8D01     		.2byte	0x18d
 2482 0a64 200A0000 		.4byte	0xa20
 2483 0a68 F1000000 		.4byte	.LLST52
 2484 0a6c 22       		.uleb128 0x22
 2485 0a6d C6050000 		.4byte	.LASF129
 2486 0a71 01       		.byte	0x1
 2487 0a72 8F01     		.2byte	0x18f
 2488 0a74 91000000 		.4byte	0x91
 2489 0a78 0F010000 		.4byte	.LLST53
 2490 0a7c 26       		.uleb128 0x26
 2491 0a7d 746D7000 		.ascii	"tmp\000"
 2492 0a81 01       		.byte	0x1
 2493 0a82 9001     		.2byte	0x190
 2494 0a84 260A0000 		.4byte	0xa26
 2495 0a88 02       		.uleb128 0x2
 2496 0a89 91       		.byte	0x91
 2497 0a8a 58       		.sleb128 -40
 2498 0a8b 29       		.uleb128 0x29
 2499 0a8c 0E000000 		.4byte	.LVL107
 2500 0a90 CF0D0000 		.4byte	0xdcf
 2501 0a94 28       		.uleb128 0x28
 2502 0a95 01       		.uleb128 0x1
 2503 0a96 50       		.byte	0x50
 2504 0a97 02       		.uleb128 0x2
 2505 0a98 7D       		.byte	0x7d
 2506 0a99 00       		.sleb128 0
 2507 0a9a 28       		.uleb128 0x28
 2508 0a9b 01       		.uleb128 0x1
ARM GAS  /tmp/ccFquxZA.s 			page 45


 2509 0a9c 51       		.byte	0x51
 2510 0a9d 02       		.uleb128 0x2
 2511 0a9e 71       		.byte	0x71
 2512 0a9f 00       		.sleb128 0
 2513 0aa0 28       		.uleb128 0x28
 2514 0aa1 01       		.uleb128 0x1
 2515 0aa2 52       		.byte	0x52
 2516 0aa3 02       		.uleb128 0x2
 2517 0aa4 72       		.byte	0x72
 2518 0aa5 00       		.sleb128 0
 2519 0aa6 00       		.byte	0
 2520 0aa7 00       		.byte	0
 2521 0aa8 25       		.uleb128 0x25
 2522 0aa9 3F030000 		.4byte	.LASF133
 2523 0aad 01       		.byte	0x1
 2524 0aae 8701     		.2byte	0x187
 2525 0ab0 73000000 		.4byte	0x73
 2526 0ab4 00000000 		.4byte	.LFB8
 2527 0ab8 0A000000 		.4byte	.LFE8-.LFB8
 2528 0abc 01       		.uleb128 0x1
 2529 0abd 9C       		.byte	0x9c
 2530 0abe D10A0000 		.4byte	0xad1
 2531 0ac2 21       		.uleb128 0x21
 2532 0ac3 5800     		.ascii	"X\000"
 2533 0ac5 01       		.byte	0x1
 2534 0ac6 8701     		.2byte	0x187
 2535 0ac8 200A0000 		.4byte	0xa20
 2536 0acc 22010000 		.4byte	.LLST50
 2537 0ad0 00       		.byte	0
 2538 0ad1 25       		.uleb128 0x25
 2539 0ad2 8B050000 		.4byte	.LASF134
 2540 0ad6 01       		.byte	0x1
 2541 0ad7 7B01     		.2byte	0x17b
 2542 0ad9 73000000 		.4byte	0x73
 2543 0add 00000000 		.4byte	.LFB7
 2544 0ae1 18000000 		.4byte	.LFE7-.LFB7
 2545 0ae5 01       		.uleb128 0x1
 2546 0ae6 9C       		.byte	0x9c
 2547 0ae7 160B0000 		.4byte	0xb16
 2548 0aeb 21       		.uleb128 0x21
 2549 0aec 5800     		.ascii	"X\000"
 2550 0aee 01       		.byte	0x1
 2551 0aef 7B01     		.2byte	0x17b
 2552 0af1 200A0000 		.4byte	0xa20
 2553 0af5 43010000 		.4byte	.LLST47
 2554 0af9 2A       		.uleb128 0x2a
 2555 0afa 6900     		.ascii	"i\000"
 2556 0afc 01       		.byte	0x1
 2557 0afd 7D01     		.2byte	0x17d
 2558 0aff 73000000 		.4byte	0x73
 2559 0b03 63010000 		.4byte	.LLST48
 2560 0b07 2A       		.uleb128 0x2a
 2561 0b08 7200     		.ascii	"r\000"
 2562 0b0a 01       		.byte	0x1
 2563 0b0b 7E01     		.2byte	0x17e
 2564 0b0d 73000000 		.4byte	0x73
 2565 0b11 77010000 		.4byte	.LLST49
ARM GAS  /tmp/ccFquxZA.s 			page 46


 2566 0b15 00       		.byte	0
 2567 0b16 25       		.uleb128 0x25
 2568 0b17 B6010000 		.4byte	.LASF135
 2569 0b1b 01       		.byte	0x1
 2570 0b1c 5D01     		.2byte	0x15d
 2571 0b1e 91000000 		.4byte	0x91
 2572 0b22 00000000 		.4byte	.LFB6
 2573 0b26 5E000000 		.4byte	.LFE6-.LFB6
 2574 0b2a 01       		.uleb128 0x1
 2575 0b2b 9C       		.byte	0x9c
 2576 0b2c 8B0B0000 		.4byte	0xb8b
 2577 0b30 21       		.uleb128 0x21
 2578 0b31 5800     		.ascii	"X\000"
 2579 0b33 01       		.byte	0x1
 2580 0b34 5D01     		.2byte	0x15d
 2581 0b36 7E090000 		.4byte	0x97e
 2582 0b3a 96010000 		.4byte	.LLST41
 2583 0b3e 21       		.uleb128 0x21
 2584 0b3f 4100     		.ascii	"A\000"
 2585 0b41 01       		.byte	0x1
 2586 0b42 5D01     		.2byte	0x15d
 2587 0b44 200A0000 		.4byte	0xa20
 2588 0b48 D0010000 		.4byte	.LLST42
 2589 0b4c 2B       		.uleb128 0x2b
 2590 0b4d 77010000 		.4byte	.LASF136
 2591 0b51 01       		.byte	0x1
 2592 0b52 5D01     		.2byte	0x15d
 2593 0b54 73000000 		.4byte	0x73
 2594 0b58 FE010000 		.4byte	.LLST43
 2595 0b5c 2A       		.uleb128 0x2a
 2596 0b5d 6900     		.ascii	"i\000"
 2597 0b5f 01       		.byte	0x1
 2598 0b60 5F01     		.2byte	0x15f
 2599 0b62 73000000 		.4byte	0x73
 2600 0b66 27020000 		.4byte	.LLST44
 2601 0b6a 22       		.uleb128 0x22
 2602 0b6b 5B030000 		.4byte	.LASF137
 2603 0b6f 01       		.byte	0x1
 2604 0b70 6001     		.2byte	0x160
 2605 0b72 91000000 		.4byte	0x91
 2606 0b76 3B020000 		.4byte	.LLST45
 2607 0b7a 22       		.uleb128 0x22
 2608 0b7b E1000000 		.4byte	.LASF138
 2609 0b7f 01       		.byte	0x1
 2610 0b80 6001     		.2byte	0x160
 2611 0b82 91000000 		.4byte	0x91
 2612 0b86 87020000 		.4byte	.LLST46
 2613 0b8a 00       		.byte	0
 2614 0b8b 2C       		.uleb128 0x2c
 2615 0b8c 3E010000 		.4byte	.LASF140
 2616 0b90 01       		.byte	0x1
 2617 0b91 D6       		.byte	0xd6
 2618 0b92 00000000 		.4byte	.LFB5
 2619 0b96 D8000000 		.4byte	.LFE5-.LFB5
 2620 0b9a 01       		.uleb128 0x1
 2621 0b9b 9C       		.byte	0x9c
 2622 0b9c 250C0000 		.4byte	0xc25
ARM GAS  /tmp/ccFquxZA.s 			page 47


 2623 0ba0 2D       		.uleb128 0x2d
 2624 0ba1 5800     		.ascii	"X\000"
 2625 0ba3 01       		.byte	0x1
 2626 0ba4 D6       		.byte	0xd6
 2627 0ba5 250C0000 		.4byte	0xc25
 2628 0ba9 A5020000 		.4byte	.LLST35
 2629 0bad 2D       		.uleb128 0x2d
 2630 0bae 4100     		.ascii	"A\000"
 2631 0bb0 01       		.byte	0x1
 2632 0bb1 D6       		.byte	0xd6
 2633 0bb2 200A0000 		.4byte	0xa20
 2634 0bb6 C4020000 		.4byte	.LLST36
 2635 0bba 2E       		.uleb128 0x2e
 2636 0bbb 6900     		.ascii	"i\000"
 2637 0bbd 01       		.byte	0x1
 2638 0bbe D9       		.byte	0xd9
 2639 0bbf 73000000 		.4byte	0x73
 2640 0bc3 EF020000 		.4byte	.LLST37
 2641 0bc7 2F       		.uleb128 0x2f
 2642 0bc8 18000000 		.4byte	.Ldebug_ranges0+0x18
 2643 0bcc 080C0000 		.4byte	0xc08
 2644 0bd0 2E       		.uleb128 0x2e
 2645 0bd1 77696A00 		.ascii	"wij\000"
 2646 0bd5 01       		.byte	0x1
 2647 0bd6 DE       		.byte	0xde
 2648 0bd7 2B0C0000 		.4byte	0xc2b
 2649 0bdb 0E030000 		.4byte	.LLST38
 2650 0bdf 2E       		.uleb128 0x2e
 2651 0be0 786A00   		.ascii	"xj\000"
 2652 0be3 01       		.byte	0x1
 2653 0be4 DF       		.byte	0xdf
 2654 0be5 310C0000 		.4byte	0xc31
 2655 0be9 34030000 		.4byte	.LLST39
 2656 0bed 2E       		.uleb128 0x2e
 2657 0bee 785F6900 		.ascii	"x_i\000"
 2658 0bf2 01       		.byte	0x1
 2659 0bf3 E0       		.byte	0xe0
 2660 0bf4 91000000 		.4byte	0x91
 2661 0bf8 54030000 		.4byte	.LLST40
 2662 0bfc 30       		.uleb128 0x30
 2663 0bfd 6300     		.ascii	"c\000"
 2664 0bff 01       		.byte	0x1
 2665 0c00 E1       		.byte	0xe1
 2666 0c01 91000000 		.4byte	0x91
 2667 0c05 01       		.uleb128 0x1
 2668 0c06 5B       		.byte	0x5b
 2669 0c07 00       		.byte	0
 2670 0c08 29       		.uleb128 0x29
 2671 0c09 10000000 		.4byte	.LVL79
 2672 0c0d 160F0000 		.4byte	0xf16
 2673 0c11 28       		.uleb128 0x28
 2674 0c12 01       		.uleb128 0x1
 2675 0c13 50       		.byte	0x50
 2676 0c14 03       		.uleb128 0x3
 2677 0c15 91       		.byte	0x91
 2678 0c16 54       		.sleb128 -44
 2679 0c17 06       		.byte	0x6
ARM GAS  /tmp/ccFquxZA.s 			page 48


 2680 0c18 28       		.uleb128 0x28
 2681 0c19 01       		.uleb128 0x1
 2682 0c1a 51       		.byte	0x51
 2683 0c1b 01       		.uleb128 0x1
 2684 0c1c 30       		.byte	0x30
 2685 0c1d 28       		.uleb128 0x28
 2686 0c1e 01       		.uleb128 0x1
 2687 0c1f 52       		.byte	0x52
 2688 0c20 02       		.uleb128 0x2
 2689 0c21 08       		.byte	0x8
 2690 0c22 40       		.byte	0x40
 2691 0c23 00       		.byte	0
 2692 0c24 00       		.byte	0
 2693 0c25 06       		.uleb128 0x6
 2694 0c26 04       		.byte	0x4
 2695 0c27 2C090000 		.4byte	0x92c
 2696 0c2b 06       		.uleb128 0x6
 2697 0c2c 04       		.byte	0x4
 2698 0c2d 91000000 		.4byte	0x91
 2699 0c31 06       		.uleb128 0x6
 2700 0c32 04       		.byte	0x4
 2701 0c33 9C000000 		.4byte	0x9c
 2702 0c37 2C       		.uleb128 0x2c
 2703 0c38 AF040000 		.4byte	.LASF141
 2704 0c3c 01       		.byte	0x1
 2705 0c3d 8F       		.byte	0x8f
 2706 0c3e 00000000 		.4byte	.LFB4
 2707 0c42 66040000 		.4byte	.LFE4-.LFB4
 2708 0c46 01       		.uleb128 0x1
 2709 0c47 9C       		.byte	0x9c
 2710 0c48 C40C0000 		.4byte	0xcc4
 2711 0c4c 2D       		.uleb128 0x2d
 2712 0c4d 5800     		.ascii	"X\000"
 2713 0c4f 01       		.byte	0x1
 2714 0c50 8F       		.byte	0x8f
 2715 0c51 250C0000 		.4byte	0xc25
 2716 0c55 74030000 		.4byte	.LLST28
 2717 0c59 2D       		.uleb128 0x2d
 2718 0c5a 4100     		.ascii	"A\000"
 2719 0c5c 01       		.byte	0x1
 2720 0c5d 8F       		.byte	0x8f
 2721 0c5e 200A0000 		.4byte	0xa20
 2722 0c62 9F030000 		.4byte	.LLST29
 2723 0c66 2D       		.uleb128 0x2d
 2724 0c67 4200     		.ascii	"B\000"
 2725 0c69 01       		.byte	0x1
 2726 0c6a 8F       		.byte	0x8f
 2727 0c6b 200A0000 		.4byte	0xa20
 2728 0c6f CB030000 		.4byte	.LLST30
 2729 0c73 2E       		.uleb128 0x2e
 2730 0c74 7300     		.ascii	"s\000"
 2731 0c76 01       		.byte	0x1
 2732 0c77 93       		.byte	0x93
 2733 0c78 310C0000 		.4byte	0xc31
 2734 0c7c EA030000 		.4byte	.LLST31
 2735 0c80 2E       		.uleb128 0x2e
 2736 0c81 6400     		.ascii	"d\000"
ARM GAS  /tmp/ccFquxZA.s 			page 49


 2737 0c83 01       		.byte	0x1
 2738 0c84 94       		.byte	0x94
 2739 0c85 2B0C0000 		.4byte	0xc2b
 2740 0c89 4A040000 		.4byte	.LLST32
 2741 0c8d 2E       		.uleb128 0x2e
 2742 0c8e 7700     		.ascii	"w\000"
 2743 0c90 01       		.byte	0x1
 2744 0c91 95       		.byte	0x95
 2745 0c92 91000000 		.4byte	0x91
 2746 0c96 C1040000 		.4byte	.LLST33
 2747 0c9a 2E       		.uleb128 0x2e
 2748 0c9b 6300     		.ascii	"c\000"
 2749 0c9d 01       		.byte	0x1
 2750 0c9e 96       		.byte	0x96
 2751 0c9f 91000000 		.4byte	0x91
 2752 0ca3 70050000 		.4byte	.LLST34
 2753 0ca7 29       		.uleb128 0x29
 2754 0ca8 12000000 		.4byte	.LVL33
 2755 0cac 160F0000 		.4byte	0xf16
 2756 0cb0 28       		.uleb128 0x28
 2757 0cb1 01       		.uleb128 0x1
 2758 0cb2 50       		.byte	0x50
 2759 0cb3 03       		.uleb128 0x3
 2760 0cb4 7D       		.byte	0x7d
 2761 0cb5 00       		.sleb128 0
 2762 0cb6 06       		.byte	0x6
 2763 0cb7 28       		.uleb128 0x28
 2764 0cb8 01       		.uleb128 0x1
 2765 0cb9 51       		.byte	0x51
 2766 0cba 01       		.uleb128 0x1
 2767 0cbb 30       		.byte	0x30
 2768 0cbc 28       		.uleb128 0x28
 2769 0cbd 01       		.uleb128 0x1
 2770 0cbe 52       		.byte	0x52
 2771 0cbf 02       		.uleb128 0x2
 2772 0cc0 08       		.byte	0x8
 2773 0cc1 40       		.byte	0x40
 2774 0cc2 00       		.byte	0
 2775 0cc3 00       		.byte	0
 2776 0cc4 31       		.uleb128 0x31
 2777 0cc5 C7020000 		.4byte	.LASF142
 2778 0cc9 01       		.byte	0x1
 2779 0cca 6F       		.byte	0x6f
 2780 0ccb 91000000 		.4byte	0x91
 2781 0ccf 00000000 		.4byte	.LFB3
 2782 0cd3 22000000 		.4byte	.LFE3-.LFB3
 2783 0cd7 01       		.uleb128 0x1
 2784 0cd8 9C       		.byte	0x9c
 2785 0cd9 560D0000 		.4byte	0xd56
 2786 0cdd 2D       		.uleb128 0x2d
 2787 0cde 5800     		.ascii	"X\000"
 2788 0ce0 01       		.byte	0x1
 2789 0ce1 6F       		.byte	0x6f
 2790 0ce2 7E090000 		.4byte	0x97e
 2791 0ce6 0C060000 		.4byte	.LLST20
 2792 0cea 2D       		.uleb128 0x2d
 2793 0ceb 4100     		.ascii	"A\000"
ARM GAS  /tmp/ccFquxZA.s 			page 50


 2794 0ced 01       		.byte	0x1
 2795 0cee 6F       		.byte	0x6f
 2796 0cef 200A0000 		.4byte	0xa20
 2797 0cf3 2C060000 		.4byte	.LLST21
 2798 0cf7 2D       		.uleb128 0x2d
 2799 0cf8 7700     		.ascii	"w\000"
 2800 0cfa 01       		.byte	0x1
 2801 0cfb 6F       		.byte	0x6f
 2802 0cfc 91000000 		.4byte	0x91
 2803 0d00 5A060000 		.4byte	.LLST22
 2804 0d04 2E       		.uleb128 0x2e
 2805 0d05 6900     		.ascii	"i\000"
 2806 0d07 01       		.byte	0x1
 2807 0d08 71       		.byte	0x71
 2808 0d09 73000000 		.4byte	0x73
 2809 0d0d 7B060000 		.4byte	.LLST23
 2810 0d11 32       		.uleb128 0x32
 2811 0d12 C6050000 		.4byte	.LASF129
 2812 0d16 01       		.byte	0x1
 2813 0d17 72       		.byte	0x72
 2814 0d18 91000000 		.4byte	0x91
 2815 0d1c 8F060000 		.4byte	.LLST24
 2816 0d20 2E       		.uleb128 0x2e
 2817 0d21 707800   		.ascii	"px\000"
 2818 0d24 01       		.byte	0x1
 2819 0d25 73       		.byte	0x73
 2820 0d26 2B0C0000 		.4byte	0xc2b
 2821 0d2a BA060000 		.4byte	.LLST25
 2822 0d2e 2E       		.uleb128 0x2e
 2823 0d2f 706100   		.ascii	"pa\000"
 2824 0d32 01       		.byte	0x1
 2825 0d33 74       		.byte	0x74
 2826 0d34 310C0000 		.4byte	0xc31
 2827 0d38 CD060000 		.4byte	.LLST26
 2828 0d3c 33       		.uleb128 0x33
 2829 0d3d 08000000 		.4byte	.LBB4
 2830 0d41 12000000 		.4byte	.LBE4-.LBB4
 2831 0d45 32       		.uleb128 0x32
 2832 0d46 65060000 		.4byte	.LASF143
 2833 0d4a 01       		.byte	0x1
 2834 0d4b 7B       		.byte	0x7b
 2835 0d4c 91000000 		.4byte	0x91
 2836 0d50 05070000 		.4byte	.LLST27
 2837 0d54 00       		.byte	0
 2838 0d55 00       		.byte	0
 2839 0d56 31       		.uleb128 0x31
 2840 0d57 A0040000 		.4byte	.LASF144
 2841 0d5b 01       		.byte	0x1
 2842 0d5c 59       		.byte	0x59
 2843 0d5d 91000000 		.4byte	0x91
 2844 0d61 00000000 		.4byte	.LFB2
 2845 0d65 24000000 		.4byte	.LFE2-.LFB2
 2846 0d69 01       		.uleb128 0x1
 2847 0d6a 9C       		.byte	0x9c
 2848 0d6b CF0D0000 		.4byte	0xdcf
 2849 0d6f 2D       		.uleb128 0x2d
 2850 0d70 5800     		.ascii	"X\000"
ARM GAS  /tmp/ccFquxZA.s 			page 51


 2851 0d72 01       		.byte	0x1
 2852 0d73 59       		.byte	0x59
 2853 0d74 7E090000 		.4byte	0x97e
 2854 0d78 25070000 		.4byte	.LLST13
 2855 0d7c 2D       		.uleb128 0x2d
 2856 0d7d 4100     		.ascii	"A\000"
 2857 0d7f 01       		.byte	0x1
 2858 0d80 59       		.byte	0x59
 2859 0d81 200A0000 		.4byte	0xa20
 2860 0d85 45070000 		.4byte	.LLST14
 2861 0d89 2D       		.uleb128 0x2d
 2862 0d8a 7700     		.ascii	"w\000"
 2863 0d8c 01       		.byte	0x1
 2864 0d8d 59       		.byte	0x59
 2865 0d8e 91000000 		.4byte	0x91
 2866 0d92 73070000 		.4byte	.LLST15
 2867 0d96 2E       		.uleb128 0x2e
 2868 0d97 6900     		.ascii	"i\000"
 2869 0d99 01       		.byte	0x1
 2870 0d9a 5B       		.byte	0x5b
 2871 0d9b 73000000 		.4byte	0x73
 2872 0d9f 94070000 		.4byte	.LLST16
 2873 0da3 32       		.uleb128 0x32
 2874 0da4 5B030000 		.4byte	.LASF137
 2875 0da8 01       		.byte	0x1
 2876 0da9 5C       		.byte	0x5c
 2877 0daa 91000000 		.4byte	0x91
 2878 0dae A8070000 		.4byte	.LLST17
 2879 0db2 2E       		.uleb128 0x2e
 2880 0db3 707800   		.ascii	"px\000"
 2881 0db6 01       		.byte	0x1
 2882 0db7 5D       		.byte	0x5d
 2883 0db8 2B0C0000 		.4byte	0xc2b
 2884 0dbc C6070000 		.4byte	.LLST18
 2885 0dc0 2E       		.uleb128 0x2e
 2886 0dc1 706100   		.ascii	"pa\000"
 2887 0dc4 01       		.byte	0x1
 2888 0dc5 5E       		.byte	0x5e
 2889 0dc6 310C0000 		.4byte	0xc31
 2890 0dca FC070000 		.4byte	.LLST19
 2891 0dce 00       		.byte	0
 2892 0dcf 31       		.uleb128 0x31
 2893 0dd0 CC030000 		.4byte	.LASF145
 2894 0dd4 01       		.byte	0x1
 2895 0dd5 3C       		.byte	0x3c
 2896 0dd6 91000000 		.4byte	0x91
 2897 0dda 00000000 		.4byte	.LFB1
 2898 0dde 36000000 		.4byte	.LFE1-.LFB1
 2899 0de2 01       		.uleb128 0x1
 2900 0de3 9C       		.byte	0x9c
 2901 0de4 720E0000 		.4byte	0xe72
 2902 0de8 2D       		.uleb128 0x2d
 2903 0de9 5800     		.ascii	"X\000"
 2904 0deb 01       		.byte	0x1
 2905 0dec 3C       		.byte	0x3c
 2906 0ded 7E090000 		.4byte	0x97e
 2907 0df1 34080000 		.4byte	.LLST6
ARM GAS  /tmp/ccFquxZA.s 			page 52


 2908 0df5 34       		.uleb128 0x34
 2909 0df6 4100     		.ascii	"A\000"
 2910 0df8 01       		.byte	0x1
 2911 0df9 3C       		.byte	0x3c
 2912 0dfa 200A0000 		.4byte	0xa20
 2913 0dfe 01       		.uleb128 0x1
 2914 0dff 51       		.byte	0x51
 2915 0e00 34       		.uleb128 0x34
 2916 0e01 4200     		.ascii	"B\000"
 2917 0e03 01       		.byte	0x1
 2918 0e04 3C       		.byte	0x3c
 2919 0e05 200A0000 		.4byte	0xa20
 2920 0e09 01       		.uleb128 0x1
 2921 0e0a 52       		.byte	0x52
 2922 0e0b 2E       		.uleb128 0x2e
 2923 0e0c 6900     		.ascii	"i\000"
 2924 0e0e 01       		.byte	0x1
 2925 0e0f 3E       		.byte	0x3e
 2926 0e10 73000000 		.4byte	0x73
 2927 0e14 52080000 		.4byte	.LLST7
 2928 0e18 30       		.uleb128 0x30
 2929 0e19 7600     		.ascii	"v\000"
 2930 0e1b 01       		.byte	0x1
 2931 0e1c 3F       		.byte	0x3f
 2932 0e1d 91000000 		.4byte	0x91
 2933 0e21 01       		.uleb128 0x1
 2934 0e22 55       		.byte	0x55
 2935 0e23 32       		.uleb128 0x32
 2936 0e24 C6050000 		.4byte	.LASF129
 2937 0e28 01       		.byte	0x1
 2938 0e29 40       		.byte	0x40
 2939 0e2a 91000000 		.4byte	0x91
 2940 0e2e 89080000 		.4byte	.LLST8
 2941 0e32 2E       		.uleb128 0x2e
 2942 0e33 707800   		.ascii	"px\000"
 2943 0e36 01       		.byte	0x1
 2944 0e37 41       		.byte	0x41
 2945 0e38 2B0C0000 		.4byte	0xc2b
 2946 0e3c A8080000 		.4byte	.LLST9
 2947 0e40 2E       		.uleb128 0x2e
 2948 0e41 706100   		.ascii	"pa\000"
 2949 0e44 01       		.byte	0x1
 2950 0e45 42       		.byte	0x42
 2951 0e46 310C0000 		.4byte	0xc31
 2952 0e4a EA080000 		.4byte	.LLST10
 2953 0e4e 2E       		.uleb128 0x2e
 2954 0e4f 706200   		.ascii	"pb\000"
 2955 0e52 01       		.byte	0x1
 2956 0e53 42       		.byte	0x42
 2957 0e54 310C0000 		.4byte	0xc31
 2958 0e58 21090000 		.4byte	.LLST11
 2959 0e5c 35       		.uleb128 0x35
 2960 0e5d 00000000 		.4byte	.Ldebug_ranges0+0
 2961 0e61 32       		.uleb128 0x32
 2962 0e62 65060000 		.4byte	.LASF143
 2963 0e66 01       		.byte	0x1
 2964 0e67 4A       		.byte	0x4a
ARM GAS  /tmp/ccFquxZA.s 			page 53


 2965 0e68 91000000 		.4byte	0x91
 2966 0e6c 58090000 		.4byte	.LLST12
 2967 0e70 00       		.byte	0
 2968 0e71 00       		.byte	0
 2969 0e72 31       		.uleb128 0x31
 2970 0e73 5D020000 		.4byte	.LASF146
 2971 0e77 01       		.byte	0x1
 2972 0e78 20       		.byte	0x20
 2973 0e79 91000000 		.4byte	0x91
 2974 0e7d 00000000 		.4byte	.LFB0
 2975 0e81 32000000 		.4byte	.LFE0-.LFB0
 2976 0e85 01       		.uleb128 0x1
 2977 0e86 9C       		.byte	0x9c
 2978 0e87 000F0000 		.4byte	0xf00
 2979 0e8b 2D       		.uleb128 0x2d
 2980 0e8c 5800     		.ascii	"X\000"
 2981 0e8e 01       		.byte	0x1
 2982 0e8f 20       		.byte	0x20
 2983 0e90 7E090000 		.4byte	0x97e
 2984 0e94 78090000 		.4byte	.LLST0
 2985 0e98 34       		.uleb128 0x34
 2986 0e99 4100     		.ascii	"A\000"
 2987 0e9b 01       		.byte	0x1
 2988 0e9c 20       		.byte	0x20
 2989 0e9d 200A0000 		.4byte	0xa20
 2990 0ea1 01       		.uleb128 0x1
 2991 0ea2 51       		.byte	0x51
 2992 0ea3 34       		.uleb128 0x34
 2993 0ea4 4200     		.ascii	"B\000"
 2994 0ea6 01       		.byte	0x1
 2995 0ea7 20       		.byte	0x20
 2996 0ea8 200A0000 		.4byte	0xa20
 2997 0eac 01       		.uleb128 0x1
 2998 0ead 52       		.byte	0x52
 2999 0eae 2E       		.uleb128 0x2e
 3000 0eaf 6900     		.ascii	"i\000"
 3001 0eb1 01       		.byte	0x1
 3002 0eb2 22       		.byte	0x22
 3003 0eb3 73000000 		.4byte	0x73
 3004 0eb7 96090000 		.4byte	.LLST1
 3005 0ebb 30       		.uleb128 0x30
 3006 0ebc 7600     		.ascii	"v\000"
 3007 0ebe 01       		.byte	0x1
 3008 0ebf 23       		.byte	0x23
 3009 0ec0 91000000 		.4byte	0x91
 3010 0ec4 01       		.uleb128 0x1
 3011 0ec5 55       		.byte	0x55
 3012 0ec6 32       		.uleb128 0x32
 3013 0ec7 5B030000 		.4byte	.LASF137
 3014 0ecb 01       		.byte	0x1
 3015 0ecc 24       		.byte	0x24
 3016 0ecd 91000000 		.4byte	0x91
 3017 0ed1 CD090000 		.4byte	.LLST2
 3018 0ed5 2E       		.uleb128 0x2e
 3019 0ed6 707800   		.ascii	"px\000"
 3020 0ed9 01       		.byte	0x1
 3021 0eda 25       		.byte	0x25
ARM GAS  /tmp/ccFquxZA.s 			page 54


 3022 0edb 2B0C0000 		.4byte	0xc2b
 3023 0edf 020A0000 		.4byte	.LLST3
 3024 0ee3 2E       		.uleb128 0x2e
 3025 0ee4 706100   		.ascii	"pa\000"
 3026 0ee7 01       		.byte	0x1
 3027 0ee8 26       		.byte	0x26
 3028 0ee9 310C0000 		.4byte	0xc31
 3029 0eed 200A0000 		.4byte	.LLST4
 3030 0ef1 2E       		.uleb128 0x2e
 3031 0ef2 706200   		.ascii	"pb\000"
 3032 0ef5 01       		.byte	0x1
 3033 0ef6 26       		.byte	0x26
 3034 0ef7 310C0000 		.4byte	0xc31
 3035 0efb 570A0000 		.4byte	.LLST5
 3036 0eff 00       		.byte	0
 3037 0f00 36       		.uleb128 0x36
 3038 0f01 AD000000 		.4byte	.LASF147
 3039 0f05 AD000000 		.4byte	.LASF147
 3040 0f09 09       		.byte	0x9
 3041 0f0a 05       		.byte	0x5
 3042 0f0b 36       		.uleb128 0x36
 3043 0f0c 9C010000 		.4byte	.LASF148
 3044 0f10 9C010000 		.4byte	.LASF148
 3045 0f14 09       		.byte	0x9
 3046 0f15 06       		.byte	0x6
 3047 0f16 37       		.uleb128 0x37
 3048 0f17 CD050000 		.4byte	.LASF152
 3049 0f1b 5A000000 		.4byte	.LASF153
 3050 0f1f 0A       		.byte	0xa
 3051 0f20 00       		.byte	0
 3052 0f21 CD050000 		.4byte	.LASF152
 3053 0f25 00       		.byte	0
 3054              		.section	.debug_abbrev,"",%progbits
 3055              	.Ldebug_abbrev0:
 3056 0000 01       		.uleb128 0x1
 3057 0001 11       		.uleb128 0x11
 3058 0002 01       		.byte	0x1
 3059 0003 25       		.uleb128 0x25
 3060 0004 0E       		.uleb128 0xe
 3061 0005 13       		.uleb128 0x13
 3062 0006 0B       		.uleb128 0xb
 3063 0007 03       		.uleb128 0x3
 3064 0008 0E       		.uleb128 0xe
 3065 0009 1B       		.uleb128 0x1b
 3066 000a 0E       		.uleb128 0xe
 3067 000b 55       		.uleb128 0x55
 3068 000c 17       		.uleb128 0x17
 3069 000d 11       		.uleb128 0x11
 3070 000e 01       		.uleb128 0x1
 3071 000f 10       		.uleb128 0x10
 3072 0010 17       		.uleb128 0x17
 3073 0011 00       		.byte	0
 3074 0012 00       		.byte	0
 3075 0013 02       		.uleb128 0x2
 3076 0014 24       		.uleb128 0x24
 3077 0015 00       		.byte	0
 3078 0016 0B       		.uleb128 0xb
ARM GAS  /tmp/ccFquxZA.s 			page 55


 3079 0017 0B       		.uleb128 0xb
 3080 0018 3E       		.uleb128 0x3e
 3081 0019 0B       		.uleb128 0xb
 3082 001a 03       		.uleb128 0x3
 3083 001b 0E       		.uleb128 0xe
 3084 001c 00       		.byte	0
 3085 001d 00       		.byte	0
 3086 001e 03       		.uleb128 0x3
 3087 001f 16       		.uleb128 0x16
 3088 0020 00       		.byte	0
 3089 0021 03       		.uleb128 0x3
 3090 0022 0E       		.uleb128 0xe
 3091 0023 3A       		.uleb128 0x3a
 3092 0024 0B       		.uleb128 0xb
 3093 0025 3B       		.uleb128 0x3b
 3094 0026 0B       		.uleb128 0xb
 3095 0027 49       		.uleb128 0x49
 3096 0028 13       		.uleb128 0x13
 3097 0029 00       		.byte	0
 3098 002a 00       		.byte	0
 3099 002b 04       		.uleb128 0x4
 3100 002c 24       		.uleb128 0x24
 3101 002d 00       		.byte	0
 3102 002e 0B       		.uleb128 0xb
 3103 002f 0B       		.uleb128 0xb
 3104 0030 3E       		.uleb128 0x3e
 3105 0031 0B       		.uleb128 0xb
 3106 0032 03       		.uleb128 0x3
 3107 0033 08       		.uleb128 0x8
 3108 0034 00       		.byte	0
 3109 0035 00       		.byte	0
 3110 0036 05       		.uleb128 0x5
 3111 0037 26       		.uleb128 0x26
 3112 0038 00       		.byte	0
 3113 0039 49       		.uleb128 0x49
 3114 003a 13       		.uleb128 0x13
 3115 003b 00       		.byte	0
 3116 003c 00       		.byte	0
 3117 003d 06       		.uleb128 0x6
 3118 003e 0F       		.uleb128 0xf
 3119 003f 00       		.byte	0
 3120 0040 0B       		.uleb128 0xb
 3121 0041 0B       		.uleb128 0xb
 3122 0042 49       		.uleb128 0x49
 3123 0043 13       		.uleb128 0x13
 3124 0044 00       		.byte	0
 3125 0045 00       		.byte	0
 3126 0046 07       		.uleb128 0x7
 3127 0047 13       		.uleb128 0x13
 3128 0048 00       		.byte	0
 3129 0049 03       		.uleb128 0x3
 3130 004a 0E       		.uleb128 0xe
 3131 004b 3C       		.uleb128 0x3c
 3132 004c 19       		.uleb128 0x19
 3133 004d 00       		.byte	0
 3134 004e 00       		.byte	0
 3135 004f 08       		.uleb128 0x8
ARM GAS  /tmp/ccFquxZA.s 			page 56


 3136 0050 16       		.uleb128 0x16
 3137 0051 00       		.byte	0
 3138 0052 03       		.uleb128 0x3
 3139 0053 0E       		.uleb128 0xe
 3140 0054 3A       		.uleb128 0x3a
 3141 0055 0B       		.uleb128 0xb
 3142 0056 3B       		.uleb128 0x3b
 3143 0057 05       		.uleb128 0x5
 3144 0058 49       		.uleb128 0x49
 3145 0059 13       		.uleb128 0x13
 3146 005a 00       		.byte	0
 3147 005b 00       		.byte	0
 3148 005c 09       		.uleb128 0x9
 3149 005d 17       		.uleb128 0x17
 3150 005e 01       		.byte	0x1
 3151 005f 0B       		.uleb128 0xb
 3152 0060 0B       		.uleb128 0xb
 3153 0061 3A       		.uleb128 0x3a
 3154 0062 0B       		.uleb128 0xb
 3155 0063 3B       		.uleb128 0x3b
 3156 0064 0B       		.uleb128 0xb
 3157 0065 01       		.uleb128 0x1
 3158 0066 13       		.uleb128 0x13
 3159 0067 00       		.byte	0
 3160 0068 00       		.byte	0
 3161 0069 0A       		.uleb128 0xa
 3162 006a 0D       		.uleb128 0xd
 3163 006b 00       		.byte	0
 3164 006c 03       		.uleb128 0x3
 3165 006d 0E       		.uleb128 0xe
 3166 006e 3A       		.uleb128 0x3a
 3167 006f 0B       		.uleb128 0xb
 3168 0070 3B       		.uleb128 0x3b
 3169 0071 0B       		.uleb128 0xb
 3170 0072 49       		.uleb128 0x49
 3171 0073 13       		.uleb128 0x13
 3172 0074 00       		.byte	0
 3173 0075 00       		.byte	0
 3174 0076 0B       		.uleb128 0xb
 3175 0077 01       		.uleb128 0x1
 3176 0078 01       		.byte	0x1
 3177 0079 49       		.uleb128 0x49
 3178 007a 13       		.uleb128 0x13
 3179 007b 01       		.uleb128 0x1
 3180 007c 13       		.uleb128 0x13
 3181 007d 00       		.byte	0
 3182 007e 00       		.byte	0
 3183 007f 0C       		.uleb128 0xc
 3184 0080 21       		.uleb128 0x21
 3185 0081 00       		.byte	0
 3186 0082 49       		.uleb128 0x49
 3187 0083 13       		.uleb128 0x13
 3188 0084 2F       		.uleb128 0x2f
 3189 0085 0B       		.uleb128 0xb
 3190 0086 00       		.byte	0
 3191 0087 00       		.byte	0
 3192 0088 0D       		.uleb128 0xd
ARM GAS  /tmp/ccFquxZA.s 			page 57


 3193 0089 13       		.uleb128 0x13
 3194 008a 01       		.byte	0x1
 3195 008b 0B       		.uleb128 0xb
 3196 008c 0B       		.uleb128 0xb
 3197 008d 3A       		.uleb128 0x3a
 3198 008e 0B       		.uleb128 0xb
 3199 008f 3B       		.uleb128 0x3b
 3200 0090 0B       		.uleb128 0xb
 3201 0091 01       		.uleb128 0x1
 3202 0092 13       		.uleb128 0x13
 3203 0093 00       		.byte	0
 3204 0094 00       		.byte	0
 3205 0095 0E       		.uleb128 0xe
 3206 0096 0D       		.uleb128 0xd
 3207 0097 00       		.byte	0
 3208 0098 03       		.uleb128 0x3
 3209 0099 0E       		.uleb128 0xe
 3210 009a 3A       		.uleb128 0x3a
 3211 009b 0B       		.uleb128 0xb
 3212 009c 3B       		.uleb128 0x3b
 3213 009d 0B       		.uleb128 0xb
 3214 009e 49       		.uleb128 0x49
 3215 009f 13       		.uleb128 0x13
 3216 00a0 38       		.uleb128 0x38
 3217 00a1 0B       		.uleb128 0xb
 3218 00a2 00       		.byte	0
 3219 00a3 00       		.byte	0
 3220 00a4 0F       		.uleb128 0xf
 3221 00a5 0F       		.uleb128 0xf
 3222 00a6 00       		.byte	0
 3223 00a7 0B       		.uleb128 0xb
 3224 00a8 0B       		.uleb128 0xb
 3225 00a9 00       		.byte	0
 3226 00aa 00       		.byte	0
 3227 00ab 10       		.uleb128 0x10
 3228 00ac 13       		.uleb128 0x13
 3229 00ad 01       		.byte	0x1
 3230 00ae 03       		.uleb128 0x3
 3231 00af 0E       		.uleb128 0xe
 3232 00b0 0B       		.uleb128 0xb
 3233 00b1 0B       		.uleb128 0xb
 3234 00b2 3A       		.uleb128 0x3a
 3235 00b3 0B       		.uleb128 0xb
 3236 00b4 3B       		.uleb128 0x3b
 3237 00b5 0B       		.uleb128 0xb
 3238 00b6 01       		.uleb128 0x1
 3239 00b7 13       		.uleb128 0x13
 3240 00b8 00       		.byte	0
 3241 00b9 00       		.byte	0
 3242 00ba 11       		.uleb128 0x11
 3243 00bb 0D       		.uleb128 0xd
 3244 00bc 00       		.byte	0
 3245 00bd 03       		.uleb128 0x3
 3246 00be 08       		.uleb128 0x8
 3247 00bf 3A       		.uleb128 0x3a
 3248 00c0 0B       		.uleb128 0xb
 3249 00c1 3B       		.uleb128 0x3b
ARM GAS  /tmp/ccFquxZA.s 			page 58


 3250 00c2 0B       		.uleb128 0xb
 3251 00c3 49       		.uleb128 0x49
 3252 00c4 13       		.uleb128 0x13
 3253 00c5 38       		.uleb128 0x38
 3254 00c6 0B       		.uleb128 0xb
 3255 00c7 00       		.byte	0
 3256 00c8 00       		.byte	0
 3257 00c9 12       		.uleb128 0x12
 3258 00ca 13       		.uleb128 0x13
 3259 00cb 01       		.byte	0x1
 3260 00cc 03       		.uleb128 0x3
 3261 00cd 0E       		.uleb128 0xe
 3262 00ce 0B       		.uleb128 0xb
 3263 00cf 05       		.uleb128 0x5
 3264 00d0 3A       		.uleb128 0x3a
 3265 00d1 0B       		.uleb128 0xb
 3266 00d2 3B       		.uleb128 0x3b
 3267 00d3 0B       		.uleb128 0xb
 3268 00d4 01       		.uleb128 0x1
 3269 00d5 13       		.uleb128 0x13
 3270 00d6 00       		.byte	0
 3271 00d7 00       		.byte	0
 3272 00d8 13       		.uleb128 0x13
 3273 00d9 0D       		.uleb128 0xd
 3274 00da 00       		.byte	0
 3275 00db 03       		.uleb128 0x3
 3276 00dc 0E       		.uleb128 0xe
 3277 00dd 3A       		.uleb128 0x3a
 3278 00de 0B       		.uleb128 0xb
 3279 00df 3B       		.uleb128 0x3b
 3280 00e0 0B       		.uleb128 0xb
 3281 00e1 49       		.uleb128 0x49
 3282 00e2 13       		.uleb128 0x13
 3283 00e3 38       		.uleb128 0x38
 3284 00e4 05       		.uleb128 0x5
 3285 00e5 00       		.byte	0
 3286 00e6 00       		.byte	0
 3287 00e7 14       		.uleb128 0x14
 3288 00e8 15       		.uleb128 0x15
 3289 00e9 00       		.byte	0
 3290 00ea 27       		.uleb128 0x27
 3291 00eb 19       		.uleb128 0x19
 3292 00ec 00       		.byte	0
 3293 00ed 00       		.byte	0
 3294 00ee 15       		.uleb128 0x15
 3295 00ef 15       		.uleb128 0x15
 3296 00f0 01       		.byte	0x1
 3297 00f1 27       		.uleb128 0x27
 3298 00f2 19       		.uleb128 0x19
 3299 00f3 49       		.uleb128 0x49
 3300 00f4 13       		.uleb128 0x13
 3301 00f5 01       		.uleb128 0x1
 3302 00f6 13       		.uleb128 0x13
 3303 00f7 00       		.byte	0
 3304 00f8 00       		.byte	0
 3305 00f9 16       		.uleb128 0x16
 3306 00fa 05       		.uleb128 0x5
ARM GAS  /tmp/ccFquxZA.s 			page 59


 3307 00fb 00       		.byte	0
 3308 00fc 49       		.uleb128 0x49
 3309 00fd 13       		.uleb128 0x13
 3310 00fe 00       		.byte	0
 3311 00ff 00       		.byte	0
 3312 0100 17       		.uleb128 0x17
 3313 0101 13       		.uleb128 0x13
 3314 0102 01       		.byte	0x1
 3315 0103 03       		.uleb128 0x3
 3316 0104 0E       		.uleb128 0xe
 3317 0105 0B       		.uleb128 0xb
 3318 0106 05       		.uleb128 0x5
 3319 0107 3A       		.uleb128 0x3a
 3320 0108 0B       		.uleb128 0xb
 3321 0109 3B       		.uleb128 0x3b
 3322 010a 05       		.uleb128 0x5
 3323 010b 01       		.uleb128 0x1
 3324 010c 13       		.uleb128 0x13
 3325 010d 00       		.byte	0
 3326 010e 00       		.byte	0
 3327 010f 18       		.uleb128 0x18
 3328 0110 0D       		.uleb128 0xd
 3329 0111 00       		.byte	0
 3330 0112 03       		.uleb128 0x3
 3331 0113 0E       		.uleb128 0xe
 3332 0114 3A       		.uleb128 0x3a
 3333 0115 0B       		.uleb128 0xb
 3334 0116 3B       		.uleb128 0x3b
 3335 0117 05       		.uleb128 0x5
 3336 0118 49       		.uleb128 0x49
 3337 0119 13       		.uleb128 0x13
 3338 011a 38       		.uleb128 0x38
 3339 011b 0B       		.uleb128 0xb
 3340 011c 00       		.byte	0
 3341 011d 00       		.byte	0
 3342 011e 19       		.uleb128 0x19
 3343 011f 0D       		.uleb128 0xd
 3344 0120 00       		.byte	0
 3345 0121 03       		.uleb128 0x3
 3346 0122 0E       		.uleb128 0xe
 3347 0123 3A       		.uleb128 0x3a
 3348 0124 0B       		.uleb128 0xb
 3349 0125 3B       		.uleb128 0x3b
 3350 0126 05       		.uleb128 0x5
 3351 0127 49       		.uleb128 0x49
 3352 0128 13       		.uleb128 0x13
 3353 0129 38       		.uleb128 0x38
 3354 012a 05       		.uleb128 0x5
 3355 012b 00       		.byte	0
 3356 012c 00       		.byte	0
 3357 012d 1A       		.uleb128 0x1a
 3358 012e 13       		.uleb128 0x13
 3359 012f 01       		.byte	0x1
 3360 0130 03       		.uleb128 0x3
 3361 0131 0E       		.uleb128 0xe
 3362 0132 0B       		.uleb128 0xb
 3363 0133 0B       		.uleb128 0xb
ARM GAS  /tmp/ccFquxZA.s 			page 60


 3364 0134 3A       		.uleb128 0x3a
 3365 0135 0B       		.uleb128 0xb
 3366 0136 3B       		.uleb128 0x3b
 3367 0137 05       		.uleb128 0x5
 3368 0138 01       		.uleb128 0x1
 3369 0139 13       		.uleb128 0x13
 3370 013a 00       		.byte	0
 3371 013b 00       		.byte	0
 3372 013c 1B       		.uleb128 0x1b
 3373 013d 13       		.uleb128 0x13
 3374 013e 01       		.byte	0x1
 3375 013f 0B       		.uleb128 0xb
 3376 0140 0B       		.uleb128 0xb
 3377 0141 3A       		.uleb128 0x3a
 3378 0142 0B       		.uleb128 0xb
 3379 0143 3B       		.uleb128 0x3b
 3380 0144 05       		.uleb128 0x5
 3381 0145 01       		.uleb128 0x1
 3382 0146 13       		.uleb128 0x13
 3383 0147 00       		.byte	0
 3384 0148 00       		.byte	0
 3385 0149 1C       		.uleb128 0x1c
 3386 014a 17       		.uleb128 0x17
 3387 014b 01       		.byte	0x1
 3388 014c 0B       		.uleb128 0xb
 3389 014d 0B       		.uleb128 0xb
 3390 014e 3A       		.uleb128 0x3a
 3391 014f 0B       		.uleb128 0xb
 3392 0150 3B       		.uleb128 0x3b
 3393 0151 05       		.uleb128 0x5
 3394 0152 01       		.uleb128 0x1
 3395 0153 13       		.uleb128 0x13
 3396 0154 00       		.byte	0
 3397 0155 00       		.byte	0
 3398 0156 1D       		.uleb128 0x1d
 3399 0157 0D       		.uleb128 0xd
 3400 0158 00       		.byte	0
 3401 0159 03       		.uleb128 0x3
 3402 015a 0E       		.uleb128 0xe
 3403 015b 3A       		.uleb128 0x3a
 3404 015c 0B       		.uleb128 0xb
 3405 015d 3B       		.uleb128 0x3b
 3406 015e 05       		.uleb128 0x5
 3407 015f 49       		.uleb128 0x49
 3408 0160 13       		.uleb128 0x13
 3409 0161 00       		.byte	0
 3410 0162 00       		.byte	0
 3411 0163 1E       		.uleb128 0x1e
 3412 0164 15       		.uleb128 0x15
 3413 0165 01       		.byte	0x1
 3414 0166 27       		.uleb128 0x27
 3415 0167 19       		.uleb128 0x19
 3416 0168 01       		.uleb128 0x1
 3417 0169 13       		.uleb128 0x13
 3418 016a 00       		.byte	0
 3419 016b 00       		.byte	0
 3420 016c 1F       		.uleb128 0x1f
ARM GAS  /tmp/ccFquxZA.s 			page 61


 3421 016d 34       		.uleb128 0x34
 3422 016e 00       		.byte	0
 3423 016f 03       		.uleb128 0x3
 3424 0170 0E       		.uleb128 0xe
 3425 0171 3A       		.uleb128 0x3a
 3426 0172 0B       		.uleb128 0xb
 3427 0173 3B       		.uleb128 0x3b
 3428 0174 05       		.uleb128 0x5
 3429 0175 49       		.uleb128 0x49
 3430 0176 13       		.uleb128 0x13
 3431 0177 3F       		.uleb128 0x3f
 3432 0178 19       		.uleb128 0x19
 3433 0179 3C       		.uleb128 0x3c
 3434 017a 19       		.uleb128 0x19
 3435 017b 00       		.byte	0
 3436 017c 00       		.byte	0
 3437 017d 20       		.uleb128 0x20
 3438 017e 2E       		.uleb128 0x2e
 3439 017f 01       		.byte	0x1
 3440 0180 3F       		.uleb128 0x3f
 3441 0181 19       		.uleb128 0x19
 3442 0182 03       		.uleb128 0x3
 3443 0183 0E       		.uleb128 0xe
 3444 0184 3A       		.uleb128 0x3a
 3445 0185 0B       		.uleb128 0xb
 3446 0186 3B       		.uleb128 0x3b
 3447 0187 05       		.uleb128 0x5
 3448 0188 27       		.uleb128 0x27
 3449 0189 19       		.uleb128 0x19
 3450 018a 11       		.uleb128 0x11
 3451 018b 01       		.uleb128 0x1
 3452 018c 12       		.uleb128 0x12
 3453 018d 06       		.uleb128 0x6
 3454 018e 40       		.uleb128 0x40
 3455 018f 18       		.uleb128 0x18
 3456 0190 9742     		.uleb128 0x2117
 3457 0192 19       		.uleb128 0x19
 3458 0193 01       		.uleb128 0x1
 3459 0194 13       		.uleb128 0x13
 3460 0195 00       		.byte	0
 3461 0196 00       		.byte	0
 3462 0197 21       		.uleb128 0x21
 3463 0198 05       		.uleb128 0x5
 3464 0199 00       		.byte	0
 3465 019a 03       		.uleb128 0x3
 3466 019b 08       		.uleb128 0x8
 3467 019c 3A       		.uleb128 0x3a
 3468 019d 0B       		.uleb128 0xb
 3469 019e 3B       		.uleb128 0x3b
 3470 019f 05       		.uleb128 0x5
 3471 01a0 49       		.uleb128 0x49
 3472 01a1 13       		.uleb128 0x13
 3473 01a2 02       		.uleb128 0x2
 3474 01a3 17       		.uleb128 0x17
 3475 01a4 00       		.byte	0
 3476 01a5 00       		.byte	0
 3477 01a6 22       		.uleb128 0x22
ARM GAS  /tmp/ccFquxZA.s 			page 62


 3478 01a7 34       		.uleb128 0x34
 3479 01a8 00       		.byte	0
 3480 01a9 03       		.uleb128 0x3
 3481 01aa 0E       		.uleb128 0xe
 3482 01ab 3A       		.uleb128 0x3a
 3483 01ac 0B       		.uleb128 0xb
 3484 01ad 3B       		.uleb128 0x3b
 3485 01ae 05       		.uleb128 0x5
 3486 01af 49       		.uleb128 0x49
 3487 01b0 13       		.uleb128 0x13
 3488 01b1 02       		.uleb128 0x2
 3489 01b2 17       		.uleb128 0x17
 3490 01b3 00       		.byte	0
 3491 01b4 00       		.byte	0
 3492 01b5 23       		.uleb128 0x23
 3493 01b6 898201   		.uleb128 0x4109
 3494 01b9 00       		.byte	0
 3495 01ba 11       		.uleb128 0x11
 3496 01bb 01       		.uleb128 0x1
 3497 01bc 31       		.uleb128 0x31
 3498 01bd 13       		.uleb128 0x13
 3499 01be 00       		.byte	0
 3500 01bf 00       		.byte	0
 3501 01c0 24       		.uleb128 0x24
 3502 01c1 898201   		.uleb128 0x4109
 3503 01c4 00       		.byte	0
 3504 01c5 11       		.uleb128 0x11
 3505 01c6 01       		.uleb128 0x1
 3506 01c7 9542     		.uleb128 0x2115
 3507 01c9 19       		.uleb128 0x19
 3508 01ca 31       		.uleb128 0x31
 3509 01cb 13       		.uleb128 0x13
 3510 01cc 00       		.byte	0
 3511 01cd 00       		.byte	0
 3512 01ce 25       		.uleb128 0x25
 3513 01cf 2E       		.uleb128 0x2e
 3514 01d0 01       		.byte	0x1
 3515 01d1 3F       		.uleb128 0x3f
 3516 01d2 19       		.uleb128 0x19
 3517 01d3 03       		.uleb128 0x3
 3518 01d4 0E       		.uleb128 0xe
 3519 01d5 3A       		.uleb128 0x3a
 3520 01d6 0B       		.uleb128 0xb
 3521 01d7 3B       		.uleb128 0x3b
 3522 01d8 05       		.uleb128 0x5
 3523 01d9 27       		.uleb128 0x27
 3524 01da 19       		.uleb128 0x19
 3525 01db 49       		.uleb128 0x49
 3526 01dc 13       		.uleb128 0x13
 3527 01dd 11       		.uleb128 0x11
 3528 01de 01       		.uleb128 0x1
 3529 01df 12       		.uleb128 0x12
 3530 01e0 06       		.uleb128 0x6
 3531 01e1 40       		.uleb128 0x40
 3532 01e2 18       		.uleb128 0x18
 3533 01e3 9742     		.uleb128 0x2117
 3534 01e5 19       		.uleb128 0x19
ARM GAS  /tmp/ccFquxZA.s 			page 63


 3535 01e6 01       		.uleb128 0x1
 3536 01e7 13       		.uleb128 0x13
 3537 01e8 00       		.byte	0
 3538 01e9 00       		.byte	0
 3539 01ea 26       		.uleb128 0x26
 3540 01eb 34       		.uleb128 0x34
 3541 01ec 00       		.byte	0
 3542 01ed 03       		.uleb128 0x3
 3543 01ee 08       		.uleb128 0x8
 3544 01ef 3A       		.uleb128 0x3a
 3545 01f0 0B       		.uleb128 0xb
 3546 01f1 3B       		.uleb128 0x3b
 3547 01f2 05       		.uleb128 0x5
 3548 01f3 49       		.uleb128 0x49
 3549 01f4 13       		.uleb128 0x13
 3550 01f5 02       		.uleb128 0x2
 3551 01f6 18       		.uleb128 0x18
 3552 01f7 00       		.byte	0
 3553 01f8 00       		.byte	0
 3554 01f9 27       		.uleb128 0x27
 3555 01fa 898201   		.uleb128 0x4109
 3556 01fd 01       		.byte	0x1
 3557 01fe 11       		.uleb128 0x11
 3558 01ff 01       		.uleb128 0x1
 3559 0200 31       		.uleb128 0x31
 3560 0201 13       		.uleb128 0x13
 3561 0202 01       		.uleb128 0x1
 3562 0203 13       		.uleb128 0x13
 3563 0204 00       		.byte	0
 3564 0205 00       		.byte	0
 3565 0206 28       		.uleb128 0x28
 3566 0207 8A8201   		.uleb128 0x410a
 3567 020a 00       		.byte	0
 3568 020b 02       		.uleb128 0x2
 3569 020c 18       		.uleb128 0x18
 3570 020d 9142     		.uleb128 0x2111
 3571 020f 18       		.uleb128 0x18
 3572 0210 00       		.byte	0
 3573 0211 00       		.byte	0
 3574 0212 29       		.uleb128 0x29
 3575 0213 898201   		.uleb128 0x4109
 3576 0216 01       		.byte	0x1
 3577 0217 11       		.uleb128 0x11
 3578 0218 01       		.uleb128 0x1
 3579 0219 31       		.uleb128 0x31
 3580 021a 13       		.uleb128 0x13
 3581 021b 00       		.byte	0
 3582 021c 00       		.byte	0
 3583 021d 2A       		.uleb128 0x2a
 3584 021e 34       		.uleb128 0x34
 3585 021f 00       		.byte	0
 3586 0220 03       		.uleb128 0x3
 3587 0221 08       		.uleb128 0x8
 3588 0222 3A       		.uleb128 0x3a
 3589 0223 0B       		.uleb128 0xb
 3590 0224 3B       		.uleb128 0x3b
 3591 0225 05       		.uleb128 0x5
ARM GAS  /tmp/ccFquxZA.s 			page 64


 3592 0226 49       		.uleb128 0x49
 3593 0227 13       		.uleb128 0x13
 3594 0228 02       		.uleb128 0x2
 3595 0229 17       		.uleb128 0x17
 3596 022a 00       		.byte	0
 3597 022b 00       		.byte	0
 3598 022c 2B       		.uleb128 0x2b
 3599 022d 05       		.uleb128 0x5
 3600 022e 00       		.byte	0
 3601 022f 03       		.uleb128 0x3
 3602 0230 0E       		.uleb128 0xe
 3603 0231 3A       		.uleb128 0x3a
 3604 0232 0B       		.uleb128 0xb
 3605 0233 3B       		.uleb128 0x3b
 3606 0234 05       		.uleb128 0x5
 3607 0235 49       		.uleb128 0x49
 3608 0236 13       		.uleb128 0x13
 3609 0237 02       		.uleb128 0x2
 3610 0238 17       		.uleb128 0x17
 3611 0239 00       		.byte	0
 3612 023a 00       		.byte	0
 3613 023b 2C       		.uleb128 0x2c
 3614 023c 2E       		.uleb128 0x2e
 3615 023d 01       		.byte	0x1
 3616 023e 3F       		.uleb128 0x3f
 3617 023f 19       		.uleb128 0x19
 3618 0240 03       		.uleb128 0x3
 3619 0241 0E       		.uleb128 0xe
 3620 0242 3A       		.uleb128 0x3a
 3621 0243 0B       		.uleb128 0xb
 3622 0244 3B       		.uleb128 0x3b
 3623 0245 0B       		.uleb128 0xb
 3624 0246 27       		.uleb128 0x27
 3625 0247 19       		.uleb128 0x19
 3626 0248 11       		.uleb128 0x11
 3627 0249 01       		.uleb128 0x1
 3628 024a 12       		.uleb128 0x12
 3629 024b 06       		.uleb128 0x6
 3630 024c 40       		.uleb128 0x40
 3631 024d 18       		.uleb128 0x18
 3632 024e 9742     		.uleb128 0x2117
 3633 0250 19       		.uleb128 0x19
 3634 0251 01       		.uleb128 0x1
 3635 0252 13       		.uleb128 0x13
 3636 0253 00       		.byte	0
 3637 0254 00       		.byte	0
 3638 0255 2D       		.uleb128 0x2d
 3639 0256 05       		.uleb128 0x5
 3640 0257 00       		.byte	0
 3641 0258 03       		.uleb128 0x3
 3642 0259 08       		.uleb128 0x8
 3643 025a 3A       		.uleb128 0x3a
 3644 025b 0B       		.uleb128 0xb
 3645 025c 3B       		.uleb128 0x3b
 3646 025d 0B       		.uleb128 0xb
 3647 025e 49       		.uleb128 0x49
 3648 025f 13       		.uleb128 0x13
ARM GAS  /tmp/ccFquxZA.s 			page 65


 3649 0260 02       		.uleb128 0x2
 3650 0261 17       		.uleb128 0x17
 3651 0262 00       		.byte	0
 3652 0263 00       		.byte	0
 3653 0264 2E       		.uleb128 0x2e
 3654 0265 34       		.uleb128 0x34
 3655 0266 00       		.byte	0
 3656 0267 03       		.uleb128 0x3
 3657 0268 08       		.uleb128 0x8
 3658 0269 3A       		.uleb128 0x3a
 3659 026a 0B       		.uleb128 0xb
 3660 026b 3B       		.uleb128 0x3b
 3661 026c 0B       		.uleb128 0xb
 3662 026d 49       		.uleb128 0x49
 3663 026e 13       		.uleb128 0x13
 3664 026f 02       		.uleb128 0x2
 3665 0270 17       		.uleb128 0x17
 3666 0271 00       		.byte	0
 3667 0272 00       		.byte	0
 3668 0273 2F       		.uleb128 0x2f
 3669 0274 0B       		.uleb128 0xb
 3670 0275 01       		.byte	0x1
 3671 0276 55       		.uleb128 0x55
 3672 0277 17       		.uleb128 0x17
 3673 0278 01       		.uleb128 0x1
 3674 0279 13       		.uleb128 0x13
 3675 027a 00       		.byte	0
 3676 027b 00       		.byte	0
 3677 027c 30       		.uleb128 0x30
 3678 027d 34       		.uleb128 0x34
 3679 027e 00       		.byte	0
 3680 027f 03       		.uleb128 0x3
 3681 0280 08       		.uleb128 0x8
 3682 0281 3A       		.uleb128 0x3a
 3683 0282 0B       		.uleb128 0xb
 3684 0283 3B       		.uleb128 0x3b
 3685 0284 0B       		.uleb128 0xb
 3686 0285 49       		.uleb128 0x49
 3687 0286 13       		.uleb128 0x13
 3688 0287 02       		.uleb128 0x2
 3689 0288 18       		.uleb128 0x18
 3690 0289 00       		.byte	0
 3691 028a 00       		.byte	0
 3692 028b 31       		.uleb128 0x31
 3693 028c 2E       		.uleb128 0x2e
 3694 028d 01       		.byte	0x1
 3695 028e 3F       		.uleb128 0x3f
 3696 028f 19       		.uleb128 0x19
 3697 0290 03       		.uleb128 0x3
 3698 0291 0E       		.uleb128 0xe
 3699 0292 3A       		.uleb128 0x3a
 3700 0293 0B       		.uleb128 0xb
 3701 0294 3B       		.uleb128 0x3b
 3702 0295 0B       		.uleb128 0xb
 3703 0296 27       		.uleb128 0x27
 3704 0297 19       		.uleb128 0x19
 3705 0298 49       		.uleb128 0x49
ARM GAS  /tmp/ccFquxZA.s 			page 66


 3706 0299 13       		.uleb128 0x13
 3707 029a 11       		.uleb128 0x11
 3708 029b 01       		.uleb128 0x1
 3709 029c 12       		.uleb128 0x12
 3710 029d 06       		.uleb128 0x6
 3711 029e 40       		.uleb128 0x40
 3712 029f 18       		.uleb128 0x18
 3713 02a0 9742     		.uleb128 0x2117
 3714 02a2 19       		.uleb128 0x19
 3715 02a3 01       		.uleb128 0x1
 3716 02a4 13       		.uleb128 0x13
 3717 02a5 00       		.byte	0
 3718 02a6 00       		.byte	0
 3719 02a7 32       		.uleb128 0x32
 3720 02a8 34       		.uleb128 0x34
 3721 02a9 00       		.byte	0
 3722 02aa 03       		.uleb128 0x3
 3723 02ab 0E       		.uleb128 0xe
 3724 02ac 3A       		.uleb128 0x3a
 3725 02ad 0B       		.uleb128 0xb
 3726 02ae 3B       		.uleb128 0x3b
 3727 02af 0B       		.uleb128 0xb
 3728 02b0 49       		.uleb128 0x49
 3729 02b1 13       		.uleb128 0x13
 3730 02b2 02       		.uleb128 0x2
 3731 02b3 17       		.uleb128 0x17
 3732 02b4 00       		.byte	0
 3733 02b5 00       		.byte	0
 3734 02b6 33       		.uleb128 0x33
 3735 02b7 0B       		.uleb128 0xb
 3736 02b8 01       		.byte	0x1
 3737 02b9 11       		.uleb128 0x11
 3738 02ba 01       		.uleb128 0x1
 3739 02bb 12       		.uleb128 0x12
 3740 02bc 06       		.uleb128 0x6
 3741 02bd 00       		.byte	0
 3742 02be 00       		.byte	0
 3743 02bf 34       		.uleb128 0x34
 3744 02c0 05       		.uleb128 0x5
 3745 02c1 00       		.byte	0
 3746 02c2 03       		.uleb128 0x3
 3747 02c3 08       		.uleb128 0x8
 3748 02c4 3A       		.uleb128 0x3a
 3749 02c5 0B       		.uleb128 0xb
 3750 02c6 3B       		.uleb128 0x3b
 3751 02c7 0B       		.uleb128 0xb
 3752 02c8 49       		.uleb128 0x49
 3753 02c9 13       		.uleb128 0x13
 3754 02ca 02       		.uleb128 0x2
 3755 02cb 18       		.uleb128 0x18
 3756 02cc 00       		.byte	0
 3757 02cd 00       		.byte	0
 3758 02ce 35       		.uleb128 0x35
 3759 02cf 0B       		.uleb128 0xb
 3760 02d0 01       		.byte	0x1
 3761 02d1 55       		.uleb128 0x55
 3762 02d2 17       		.uleb128 0x17
ARM GAS  /tmp/ccFquxZA.s 			page 67


 3763 02d3 00       		.byte	0
 3764 02d4 00       		.byte	0
 3765 02d5 36       		.uleb128 0x36
 3766 02d6 2E       		.uleb128 0x2e
 3767 02d7 00       		.byte	0
 3768 02d8 3F       		.uleb128 0x3f
 3769 02d9 19       		.uleb128 0x19
 3770 02da 3C       		.uleb128 0x3c
 3771 02db 19       		.uleb128 0x19
 3772 02dc 6E       		.uleb128 0x6e
 3773 02dd 0E       		.uleb128 0xe
 3774 02de 03       		.uleb128 0x3
 3775 02df 0E       		.uleb128 0xe
 3776 02e0 3A       		.uleb128 0x3a
 3777 02e1 0B       		.uleb128 0xb
 3778 02e2 3B       		.uleb128 0x3b
 3779 02e3 0B       		.uleb128 0xb
 3780 02e4 00       		.byte	0
 3781 02e5 00       		.byte	0
 3782 02e6 37       		.uleb128 0x37
 3783 02e7 2E       		.uleb128 0x2e
 3784 02e8 00       		.byte	0
 3785 02e9 3F       		.uleb128 0x3f
 3786 02ea 19       		.uleb128 0x19
 3787 02eb 3C       		.uleb128 0x3c
 3788 02ec 19       		.uleb128 0x19
 3789 02ed 6E       		.uleb128 0x6e
 3790 02ee 0E       		.uleb128 0xe
 3791 02ef 03       		.uleb128 0x3
 3792 02f0 0E       		.uleb128 0xe
 3793 02f1 3A       		.uleb128 0x3a
 3794 02f2 0B       		.uleb128 0xb
 3795 02f3 3B       		.uleb128 0x3b
 3796 02f4 0B       		.uleb128 0xb
 3797 02f5 6E       		.uleb128 0x6e
 3798 02f6 0E       		.uleb128 0xe
 3799 02f7 00       		.byte	0
 3800 02f8 00       		.byte	0
 3801 02f9 00       		.byte	0
 3802              		.section	.debug_loc,"",%progbits
 3803              	.Ldebug_loc0:
 3804              	.LLST58:
 3805 0000 00000000 		.4byte	.LVL119
 3806 0004 07000000 		.4byte	.LVL120-1
 3807 0008 0100     		.2byte	0x1
 3808 000a 50       		.byte	0x50
 3809 000b 07000000 		.4byte	.LVL120-1
 3810 000f 2C000000 		.4byte	.LVL121
 3811 0013 0100     		.2byte	0x1
 3812 0015 54       		.byte	0x54
 3813 0016 2C000000 		.4byte	.LVL121
 3814 001a 30000000 		.4byte	.LFE11
 3815 001e 0400     		.2byte	0x4
 3816 0020 F3       		.byte	0xf3
 3817 0021 01       		.uleb128 0x1
 3818 0022 50       		.byte	0x50
 3819 0023 9F       		.byte	0x9f
ARM GAS  /tmp/ccFquxZA.s 			page 68


 3820 0024 00000000 		.4byte	0
 3821 0028 00000000 		.4byte	0
 3822              	.LLST59:
 3823 002c 08000000 		.4byte	.LVL120
 3824 0030 2F000000 		.4byte	.LVL122-1
 3825 0034 0100     		.2byte	0x1
 3826 0036 50       		.byte	0x50
 3827 0037 00000000 		.4byte	0
 3828 003b 00000000 		.4byte	0
 3829              	.LLST54:
 3830 003f 00000000 		.4byte	.LVL109
 3831 0043 0A000000 		.4byte	.LVL111
 3832 0047 0100     		.2byte	0x1
 3833 0049 50       		.byte	0x50
 3834 004a 0A000000 		.4byte	.LVL111
 3835 004e 15000000 		.4byte	.LVL115-1
 3836 0052 0100     		.2byte	0x1
 3837 0054 51       		.byte	0x51
 3838 0055 15000000 		.4byte	.LVL115-1
 3839 0059 2A000000 		.4byte	.LFE10
 3840 005d 0400     		.2byte	0x4
 3841 005f F3       		.byte	0xf3
 3842 0060 01       		.uleb128 0x1
 3843 0061 50       		.byte	0x50
 3844 0062 9F       		.byte	0x9f
 3845 0063 00000000 		.4byte	0
 3846 0067 00000000 		.4byte	0
 3847              	.LLST55:
 3848 006b 00000000 		.4byte	.LVL109
 3849 006f 08000000 		.4byte	.LVL110
 3850 0073 0100     		.2byte	0x1
 3851 0075 51       		.byte	0x51
 3852 0076 08000000 		.4byte	.LVL110
 3853 007a 15000000 		.4byte	.LVL115-1
 3854 007e 0100     		.2byte	0x1
 3855 0080 52       		.byte	0x52
 3856 0081 15000000 		.4byte	.LVL115-1
 3857 0085 2A000000 		.4byte	.LFE10
 3858 0089 0400     		.2byte	0x4
 3859 008b F3       		.byte	0xf3
 3860 008c 01       		.uleb128 0x1
 3861 008d 51       		.byte	0x51
 3862 008e 9F       		.byte	0x9f
 3863 008f 00000000 		.4byte	0
 3864 0093 00000000 		.4byte	0
 3865              	.LLST56:
 3866 0097 10000000 		.4byte	.LVL113
 3867 009b 12000000 		.4byte	.LVL114
 3868 009f 0100     		.2byte	0x1
 3869 00a1 50       		.byte	0x50
 3870 00a2 12000000 		.4byte	.LVL114
 3871 00a6 2A000000 		.4byte	.LFE10
 3872 00aa 0100     		.2byte	0x1
 3873 00ac 54       		.byte	0x54
 3874 00ad 00000000 		.4byte	0
 3875 00b1 00000000 		.4byte	0
 3876              	.LLST57:
ARM GAS  /tmp/ccFquxZA.s 			page 69


 3877 00b5 16000000 		.4byte	.LVL115
 3878 00b9 20000000 		.4byte	.LVL116
 3879 00bd 0100     		.2byte	0x1
 3880 00bf 50       		.byte	0x50
 3881 00c0 26000000 		.4byte	.LVL117
 3882 00c4 28000000 		.4byte	.LVL118
 3883 00c8 0100     		.2byte	0x1
 3884 00ca 50       		.byte	0x50
 3885 00cb 00000000 		.4byte	0
 3886 00cf 00000000 		.4byte	0
 3887              	.LLST51:
 3888 00d3 00000000 		.4byte	.LVL104
 3889 00d7 0A000000 		.4byte	.LVL106
 3890 00db 0100     		.2byte	0x1
 3891 00dd 50       		.byte	0x50
 3892 00de 0A000000 		.4byte	.LVL106
 3893 00e2 1A000000 		.4byte	.LFE9
 3894 00e6 0100     		.2byte	0x1
 3895 00e8 51       		.byte	0x51
 3896 00e9 00000000 		.4byte	0
 3897 00ed 00000000 		.4byte	0
 3898              	.LLST52:
 3899 00f1 00000000 		.4byte	.LVL104
 3900 00f5 08000000 		.4byte	.LVL105
 3901 00f9 0100     		.2byte	0x1
 3902 00fb 51       		.byte	0x51
 3903 00fc 08000000 		.4byte	.LVL105
 3904 0100 1A000000 		.4byte	.LFE9
 3905 0104 0100     		.2byte	0x1
 3906 0106 52       		.byte	0x52
 3907 0107 00000000 		.4byte	0
 3908 010b 00000000 		.4byte	0
 3909              	.LLST53:
 3910 010f 0E000000 		.4byte	.LVL107
 3911 0113 12000000 		.4byte	.LVL108
 3912 0117 0100     		.2byte	0x1
 3913 0119 50       		.byte	0x50
 3914 011a 00000000 		.4byte	0
 3915 011e 00000000 		.4byte	0
 3916              	.LLST50:
 3917 0122 00000000 		.4byte	.LVL102
 3918 0126 02000000 		.4byte	.LVL103
 3919 012a 0100     		.2byte	0x1
 3920 012c 50       		.byte	0x50
 3921 012d 02000000 		.4byte	.LVL103
 3922 0131 0A000000 		.4byte	.LFE8
 3923 0135 0400     		.2byte	0x4
 3924 0137 F3       		.byte	0xf3
 3925 0138 01       		.uleb128 0x1
 3926 0139 50       		.byte	0x50
 3927 013a 9F       		.byte	0x9f
 3928 013b 00000000 		.4byte	0
 3929 013f 00000000 		.4byte	0
 3930              	.LLST47:
 3931 0143 00000000 		.4byte	.LVL99
 3932 0147 08000000 		.4byte	.LVL100
 3933 014b 0100     		.2byte	0x1
ARM GAS  /tmp/ccFquxZA.s 			page 70


 3934 014d 50       		.byte	0x50
 3935 014e 08000000 		.4byte	.LVL100
 3936 0152 18000000 		.4byte	.LFE7
 3937 0156 0300     		.2byte	0x3
 3938 0158 73       		.byte	0x73
 3939 0159 64       		.sleb128 -28
 3940 015a 9F       		.byte	0x9f
 3941 015b 00000000 		.4byte	0
 3942 015f 00000000 		.4byte	0
 3943              	.LLST48:
 3944 0163 00000000 		.4byte	.LVL99
 3945 0167 08000000 		.4byte	.LVL100
 3946 016b 0200     		.2byte	0x2
 3947 016d 30       		.byte	0x30
 3948 016e 9F       		.byte	0x9f
 3949 016f 00000000 		.4byte	0
 3950 0173 00000000 		.4byte	0
 3951              	.LLST49:
 3952 0177 00000000 		.4byte	.LVL99
 3953 017b 08000000 		.4byte	.LVL100
 3954 017f 0200     		.2byte	0x2
 3955 0181 31       		.byte	0x31
 3956 0182 9F       		.byte	0x9f
 3957 0183 08000000 		.4byte	.LVL100
 3958 0187 18000000 		.4byte	.LFE7
 3959 018b 0100     		.2byte	0x1
 3960 018d 50       		.byte	0x50
 3961 018e 00000000 		.4byte	0
 3962 0192 00000000 		.4byte	0
 3963              	.LLST41:
 3964 0196 00000000 		.4byte	.LVL87
 3965 019a 16000000 		.4byte	.LVL89
 3966 019e 0100     		.2byte	0x1
 3967 01a0 50       		.byte	0x50
 3968 01a1 16000000 		.4byte	.LVL89
 3969 01a5 2E000000 		.4byte	.LVL93
 3970 01a9 0400     		.2byte	0x4
 3971 01ab F3       		.byte	0xf3
 3972 01ac 01       		.uleb128 0x1
 3973 01ad 50       		.byte	0x50
 3974 01ae 9F       		.byte	0x9f
 3975 01af 2E000000 		.4byte	.LVL93
 3976 01b3 42000000 		.4byte	.LVL95
 3977 01b7 0100     		.2byte	0x1
 3978 01b9 50       		.byte	0x50
 3979 01ba 42000000 		.4byte	.LVL95
 3980 01be 5E000000 		.4byte	.LFE6
 3981 01c2 0400     		.2byte	0x4
 3982 01c4 F3       		.byte	0xf3
 3983 01c5 01       		.uleb128 0x1
 3984 01c6 50       		.byte	0x50
 3985 01c7 9F       		.byte	0x9f
 3986 01c8 00000000 		.4byte	0
 3987 01cc 00000000 		.4byte	0
 3988              	.LLST42:
 3989 01d0 00000000 		.4byte	.LVL87
 3990 01d4 0C000000 		.4byte	.LVL88
ARM GAS  /tmp/ccFquxZA.s 			page 71


 3991 01d8 0100     		.2byte	0x1
 3992 01da 51       		.byte	0x51
 3993 01db 0C000000 		.4byte	.LVL88
 3994 01df 2C000000 		.4byte	.LVL92
 3995 01e3 0300     		.2byte	0x3
 3996 01e5 71       		.byte	0x71
 3997 01e6 64       		.sleb128 -28
 3998 01e7 9F       		.byte	0x9f
 3999 01e8 2C000000 		.4byte	.LVL92
 4000 01ec 5E000000 		.4byte	.LFE6
 4001 01f0 0400     		.2byte	0x4
 4002 01f2 F3       		.byte	0xf3
 4003 01f3 01       		.uleb128 0x1
 4004 01f4 51       		.byte	0x51
 4005 01f5 9F       		.byte	0x9f
 4006 01f6 00000000 		.4byte	0
 4007 01fa 00000000 		.4byte	0
 4008              	.LLST43:
 4009 01fe 00000000 		.4byte	.LVL87
 4010 0202 2C000000 		.4byte	.LVL92
 4011 0206 0100     		.2byte	0x1
 4012 0208 52       		.byte	0x52
 4013 0209 2E000000 		.4byte	.LVL93
 4014 020d 36000000 		.4byte	.LVL94
 4015 0211 0100     		.2byte	0x1
 4016 0213 52       		.byte	0x52
 4017 0214 36000000 		.4byte	.LVL94
 4018 0218 5E000000 		.4byte	.LFE6
 4019 021c 0100     		.2byte	0x1
 4020 021e 5C       		.byte	0x5c
 4021 021f 00000000 		.4byte	0
 4022 0223 00000000 		.4byte	0
 4023              	.LLST44:
 4024 0227 36000000 		.4byte	.LVL94
 4025 022b 42000000 		.4byte	.LVL95
 4026 022f 0200     		.2byte	0x2
 4027 0231 37       		.byte	0x37
 4028 0232 9F       		.byte	0x9f
 4029 0233 00000000 		.4byte	0
 4030 0237 00000000 		.4byte	0
 4031              	.LLST45:
 4032 023b 00000000 		.4byte	.LVL87
 4033 023f 16000000 		.4byte	.LVL89
 4034 0243 0200     		.2byte	0x2
 4035 0245 30       		.byte	0x30
 4036 0246 9F       		.byte	0x9f
 4037 0247 16000000 		.4byte	.LVL89
 4038 024b 28000000 		.4byte	.LVL91
 4039 024f 0100     		.2byte	0x1
 4040 0251 56       		.byte	0x56
 4041 0252 28000000 		.4byte	.LVL91
 4042 0256 2E000000 		.4byte	.LVL93
 4043 025a 0100     		.2byte	0x1
 4044 025c 50       		.byte	0x50
 4045 025d 2E000000 		.4byte	.LVL93
 4046 0261 42000000 		.4byte	.LVL95
 4047 0265 0200     		.2byte	0x2
ARM GAS  /tmp/ccFquxZA.s 			page 72


 4048 0267 30       		.byte	0x30
 4049 0268 9F       		.byte	0x9f
 4050 0269 42000000 		.4byte	.LVL95
 4051 026d 48000000 		.4byte	.LVL96
 4052 0271 0100     		.2byte	0x1
 4053 0273 55       		.byte	0x55
 4054 0274 58000000 		.4byte	.LVL98
 4055 0278 5E000000 		.4byte	.LFE6
 4056 027c 0100     		.2byte	0x1
 4057 027e 50       		.byte	0x50
 4058 027f 00000000 		.4byte	0
 4059 0283 00000000 		.4byte	0
 4060              	.LLST46:
 4061 0287 1E000000 		.4byte	.LVL90
 4062 028b 2E000000 		.4byte	.LVL93
 4063 028f 0100     		.2byte	0x1
 4064 0291 50       		.byte	0x50
 4065 0292 4C000000 		.4byte	.LVL97
 4066 0296 5E000000 		.4byte	.LFE6
 4067 029a 0100     		.2byte	0x1
 4068 029c 50       		.byte	0x50
 4069 029d 00000000 		.4byte	0
 4070 02a1 00000000 		.4byte	0
 4071              	.LLST35:
 4072 02a5 00000000 		.4byte	.LVL77
 4073 02a9 0F000000 		.4byte	.LVL79-1
 4074 02ad 0100     		.2byte	0x1
 4075 02af 50       		.byte	0x50
 4076 02b0 0F000000 		.4byte	.LVL79-1
 4077 02b4 D8000000 		.4byte	.LFE5
 4078 02b8 0200     		.2byte	0x2
 4079 02ba 91       		.byte	0x91
 4080 02bb 54       		.sleb128 -44
 4081 02bc 00000000 		.4byte	0
 4082 02c0 00000000 		.4byte	0
 4083              	.LLST36:
 4084 02c4 00000000 		.4byte	.LVL77
 4085 02c8 0A000000 		.4byte	.LVL78
 4086 02cc 0100     		.2byte	0x1
 4087 02ce 51       		.byte	0x51
 4088 02cf 0A000000 		.4byte	.LVL78
 4089 02d3 18000000 		.4byte	.LVL80
 4090 02d7 0100     		.2byte	0x1
 4091 02d9 54       		.byte	0x54
 4092 02da 18000000 		.4byte	.LVL80
 4093 02de D8000000 		.4byte	.LFE5
 4094 02e2 0300     		.2byte	0x3
 4095 02e4 7E       		.byte	0x7e
 4096 02e5 64       		.sleb128 -28
 4097 02e6 9F       		.byte	0x9f
 4098 02e7 00000000 		.4byte	0
 4099 02eb 00000000 		.4byte	0
 4100              	.LLST37:
 4101 02ef 10000000 		.4byte	.LVL79
 4102 02f3 18000000 		.4byte	.LVL80
 4103 02f7 0200     		.2byte	0x2
 4104 02f9 30       		.byte	0x30
ARM GAS  /tmp/ccFquxZA.s 			page 73


 4105 02fa 9F       		.byte	0x9f
 4106 02fb 18000000 		.4byte	.LVL80
 4107 02ff D8000000 		.4byte	.LFE5
 4108 0303 0100     		.2byte	0x1
 4109 0305 51       		.byte	0x51
 4110 0306 00000000 		.4byte	0
 4111 030a 00000000 		.4byte	0
 4112              	.LLST38:
 4113 030e 18000000 		.4byte	.LVL80
 4114 0312 2A000000 		.4byte	.LVL83
 4115 0316 0900     		.2byte	0x9
 4116 0318 71       		.byte	0x71
 4117 0319 00       		.sleb128 0
 4118 031a 33       		.byte	0x33
 4119 031b 24       		.byte	0x24
 4120 031c 91       		.byte	0x91
 4121 031d 54       		.sleb128 -44
 4122 031e 06       		.byte	0x6
 4123 031f 22       		.byte	0x22
 4124 0320 9F       		.byte	0x9f
 4125 0321 2A000000 		.4byte	.LVL83
 4126 0325 D8000000 		.4byte	.LFE5
 4127 0329 0100     		.2byte	0x1
 4128 032b 53       		.byte	0x53
 4129 032c 00000000 		.4byte	0
 4130 0330 00000000 		.4byte	0
 4131              	.LLST39:
 4132 0334 18000000 		.4byte	.LVL80
 4133 0338 1C000000 		.4byte	.LVL81
 4134 033c 0300     		.2byte	0x3
 4135 033e 70       		.byte	0x70
 4136 033f 04       		.sleb128 4
 4137 0340 9F       		.byte	0x9f
 4138 0341 1C000000 		.4byte	.LVL81
 4139 0345 C2000000 		.4byte	.LVL84
 4140 0349 0100     		.2byte	0x1
 4141 034b 52       		.byte	0x52
 4142 034c 00000000 		.4byte	0
 4143 0350 00000000 		.4byte	0
 4144              	.LLST40:
 4145 0354 1C000000 		.4byte	.LVL81
 4146 0358 20000000 		.4byte	.LVL82
 4147 035c 0200     		.2byte	0x2
 4148 035e 70       		.byte	0x70
 4149 035f 00       		.sleb128 0
 4150 0360 20000000 		.4byte	.LVL82
 4151 0364 CE000000 		.4byte	.LVL86
 4152 0368 0200     		.2byte	0x2
 4153 036a 70       		.byte	0x70
 4154 036b 7C       		.sleb128 -4
 4155 036c 00000000 		.4byte	0
 4156 0370 00000000 		.4byte	0
 4157              	.LLST28:
 4158 0374 00000000 		.4byte	.LVL30
 4159 0378 11000000 		.4byte	.LVL33-1
 4160 037c 0100     		.2byte	0x1
 4161 037e 50       		.byte	0x50
ARM GAS  /tmp/ccFquxZA.s 			page 74


 4162 037f 11000000 		.4byte	.LVL33-1
 4163 0383 62040000 		.4byte	.LVL76
 4164 0387 0200     		.2byte	0x2
 4165 0389 7D       		.byte	0x7d
 4166 038a 00       		.sleb128 0
 4167 038b 62040000 		.4byte	.LVL76
 4168 038f 66040000 		.4byte	.LFE4
 4169 0393 0200     		.2byte	0x2
 4170 0395 91       		.byte	0x91
 4171 0396 50       		.sleb128 -48
 4172 0397 00000000 		.4byte	0
 4173 039b 00000000 		.4byte	0
 4174              	.LLST29:
 4175 039f 00000000 		.4byte	.LVL30
 4176 03a3 0A000000 		.4byte	.LVL31
 4177 03a7 0100     		.2byte	0x1
 4178 03a9 51       		.byte	0x51
 4179 03aa 0A000000 		.4byte	.LVL31
 4180 03ae 5E040000 		.4byte	.LVL75
 4181 03b2 0100     		.2byte	0x1
 4182 03b4 5B       		.byte	0x5b
 4183 03b5 5E040000 		.4byte	.LVL75
 4184 03b9 66040000 		.4byte	.LFE4
 4185 03bd 0400     		.2byte	0x4
 4186 03bf F3       		.byte	0xf3
 4187 03c0 01       		.uleb128 0x1
 4188 03c1 51       		.byte	0x51
 4189 03c2 9F       		.byte	0x9f
 4190 03c3 00000000 		.4byte	0
 4191 03c7 00000000 		.4byte	0
 4192              	.LLST30:
 4193 03cb 00000000 		.4byte	.LVL30
 4194 03cf 0C000000 		.4byte	.LVL32
 4195 03d3 0100     		.2byte	0x1
 4196 03d5 52       		.byte	0x52
 4197 03d6 0C000000 		.4byte	.LVL32
 4198 03da 66040000 		.4byte	.LFE4
 4199 03de 0200     		.2byte	0x2
 4200 03e0 91       		.byte	0x91
 4201 03e1 54       		.sleb128 -44
 4202 03e2 00000000 		.4byte	0
 4203 03e6 00000000 		.4byte	0
 4204              	.LLST31:
 4205 03ea 12000000 		.4byte	.LVL33
 4206 03ee 9A000000 		.4byte	.LVL34
 4207 03f2 0100     		.2byte	0x1
 4208 03f4 5B       		.byte	0x5b
 4209 03f5 9C000000 		.4byte	.LVL35
 4210 03f9 24010000 		.4byte	.LVL40
 4211 03fd 0100     		.2byte	0x1
 4212 03ff 5B       		.byte	0x5b
 4213 0400 26010000 		.4byte	.LVL41
 4214 0404 AE010000 		.4byte	.LVL46
 4215 0408 0100     		.2byte	0x1
 4216 040a 5B       		.byte	0x5b
 4217 040b B0010000 		.4byte	.LVL47
 4218 040f 38020000 		.4byte	.LVL52
ARM GAS  /tmp/ccFquxZA.s 			page 75


 4219 0413 0100     		.2byte	0x1
 4220 0415 5B       		.byte	0x5b
 4221 0416 3A020000 		.4byte	.LVL53
 4222 041a C2020000 		.4byte	.LVL58
 4223 041e 0100     		.2byte	0x1
 4224 0420 5B       		.byte	0x5b
 4225 0421 C4020000 		.4byte	.LVL59
 4226 0425 4C030000 		.4byte	.LVL64
 4227 0429 0100     		.2byte	0x1
 4228 042b 5B       		.byte	0x5b
 4229 042c 4E030000 		.4byte	.LVL65
 4230 0430 D6030000 		.4byte	.LVL70
 4231 0434 0100     		.2byte	0x1
 4232 0436 5B       		.byte	0x5b
 4233 0437 D8030000 		.4byte	.LVL71
 4234 043b 5E040000 		.4byte	.LVL75
 4235 043f 0100     		.2byte	0x1
 4236 0441 5B       		.byte	0x5b
 4237 0442 00000000 		.4byte	0
 4238 0446 00000000 		.4byte	0
 4239              	.LLST32:
 4240 044a 12000000 		.4byte	.LVL33
 4241 044e 9A000000 		.4byte	.LVL34
 4242 0452 0200     		.2byte	0x2
 4243 0454 7D       		.byte	0x7d
 4244 0455 00       		.sleb128 0
 4245 0456 9A000000 		.4byte	.LVL34
 4246 045a A0000000 		.4byte	.LVL36
 4247 045e 0100     		.2byte	0x1
 4248 0460 52       		.byte	0x52
 4249 0461 A6000000 		.4byte	.LVL39
 4250 0465 2A010000 		.4byte	.LVL43
 4251 0469 0100     		.2byte	0x1
 4252 046b 52       		.byte	0x52
 4253 046c 30010000 		.4byte	.LVL45
 4254 0470 B4010000 		.4byte	.LVL49
 4255 0474 0100     		.2byte	0x1
 4256 0476 52       		.byte	0x52
 4257 0477 BA010000 		.4byte	.LVL51
 4258 047b 3E020000 		.4byte	.LVL55
 4259 047f 0100     		.2byte	0x1
 4260 0481 52       		.byte	0x52
 4261 0482 44020000 		.4byte	.LVL57
 4262 0486 C8020000 		.4byte	.LVL61
 4263 048a 0100     		.2byte	0x1
 4264 048c 52       		.byte	0x52
 4265 048d CE020000 		.4byte	.LVL63
 4266 0491 52030000 		.4byte	.LVL67
 4267 0495 0100     		.2byte	0x1
 4268 0497 52       		.byte	0x52
 4269 0498 58030000 		.4byte	.LVL69
 4270 049c DA030000 		.4byte	.LVL72
 4271 04a0 0100     		.2byte	0x1
 4272 04a2 52       		.byte	0x52
 4273 04a3 DE030000 		.4byte	.LVL74
 4274 04a7 5E040000 		.4byte	.LVL75
 4275 04ab 0100     		.2byte	0x1
ARM GAS  /tmp/ccFquxZA.s 			page 76


 4276 04ad 52       		.byte	0x52
 4277 04ae 5E040000 		.4byte	.LVL75
 4278 04b2 66040000 		.4byte	.LFE4
 4279 04b6 0100     		.2byte	0x1
 4280 04b8 53       		.byte	0x53
 4281 04b9 00000000 		.4byte	0
 4282 04bd 00000000 		.4byte	0
 4283              	.LLST33:
 4284 04c1 12000000 		.4byte	.LVL33
 4285 04c5 9C000000 		.4byte	.LVL35
 4286 04c9 0300     		.2byte	0x3
 4287 04cb 91       		.byte	0x91
 4288 04cc 54       		.sleb128 -44
 4289 04cd 06       		.byte	0x6
 4290 04ce 9C000000 		.4byte	.LVL35
 4291 04d2 A4000000 		.4byte	.LVL38
 4292 04d6 0100     		.2byte	0x1
 4293 04d8 5C       		.byte	0x5c
 4294 04d9 A6000000 		.4byte	.LVL39
 4295 04dd 24010000 		.4byte	.LVL40
 4296 04e1 0100     		.2byte	0x1
 4297 04e3 51       		.byte	0x51
 4298 04e4 24010000 		.4byte	.LVL40
 4299 04e8 2E010000 		.4byte	.LVL44
 4300 04ec 0100     		.2byte	0x1
 4301 04ee 5C       		.byte	0x5c
 4302 04ef 30010000 		.4byte	.LVL45
 4303 04f3 AE010000 		.4byte	.LVL46
 4304 04f7 0100     		.2byte	0x1
 4305 04f9 51       		.byte	0x51
 4306 04fa AE010000 		.4byte	.LVL46
 4307 04fe B8010000 		.4byte	.LVL50
 4308 0502 0100     		.2byte	0x1
 4309 0504 5C       		.byte	0x5c
 4310 0505 BA010000 		.4byte	.LVL51
 4311 0509 38020000 		.4byte	.LVL52
 4312 050d 0100     		.2byte	0x1
 4313 050f 51       		.byte	0x51
 4314 0510 38020000 		.4byte	.LVL52
 4315 0514 42020000 		.4byte	.LVL56
 4316 0518 0100     		.2byte	0x1
 4317 051a 5C       		.byte	0x5c
 4318 051b 44020000 		.4byte	.LVL57
 4319 051f C2020000 		.4byte	.LVL58
 4320 0523 0100     		.2byte	0x1
 4321 0525 51       		.byte	0x51
 4322 0526 C2020000 		.4byte	.LVL58
 4323 052a CC020000 		.4byte	.LVL62
 4324 052e 0100     		.2byte	0x1
 4325 0530 5C       		.byte	0x5c
 4326 0531 CE020000 		.4byte	.LVL63
 4327 0535 4C030000 		.4byte	.LVL64
 4328 0539 0100     		.2byte	0x1
 4329 053b 51       		.byte	0x51
 4330 053c 4C030000 		.4byte	.LVL64
 4331 0540 54030000 		.4byte	.LVL68
 4332 0544 0100     		.2byte	0x1
ARM GAS  /tmp/ccFquxZA.s 			page 77


 4333 0546 5C       		.byte	0x5c
 4334 0547 58030000 		.4byte	.LVL69
 4335 054b D6030000 		.4byte	.LVL70
 4336 054f 0100     		.2byte	0x1
 4337 0551 51       		.byte	0x51
 4338 0552 D6030000 		.4byte	.LVL70
 4339 0556 DE030000 		.4byte	.LVL74
 4340 055a 0100     		.2byte	0x1
 4341 055c 5C       		.byte	0x5c
 4342 055d DE030000 		.4byte	.LVL74
 4343 0561 66040000 		.4byte	.LFE4
 4344 0565 0100     		.2byte	0x1
 4345 0567 51       		.byte	0x51
 4346 0568 00000000 		.4byte	0
 4347 056c 00000000 		.4byte	0
 4348              	.LLST34:
 4349 0570 9A000000 		.4byte	.LVL34
 4350 0574 A2000000 		.4byte	.LVL37
 4351 0578 0100     		.2byte	0x1
 4352 057a 50       		.byte	0x50
 4353 057b 24010000 		.4byte	.LVL40
 4354 057f 28010000 		.4byte	.LVL42
 4355 0583 0100     		.2byte	0x1
 4356 0585 51       		.byte	0x51
 4357 0586 28010000 		.4byte	.LVL42
 4358 058a 2A010000 		.4byte	.LVL43
 4359 058e 0200     		.2byte	0x2
 4360 0590 72       		.byte	0x72
 4361 0591 00       		.sleb128 0
 4362 0592 AE010000 		.4byte	.LVL46
 4363 0596 B2010000 		.4byte	.LVL48
 4364 059a 0100     		.2byte	0x1
 4365 059c 51       		.byte	0x51
 4366 059d B2010000 		.4byte	.LVL48
 4367 05a1 B4010000 		.4byte	.LVL49
 4368 05a5 0200     		.2byte	0x2
 4369 05a7 72       		.byte	0x72
 4370 05a8 00       		.sleb128 0
 4371 05a9 38020000 		.4byte	.LVL52
 4372 05ad 3C020000 		.4byte	.LVL54
 4373 05b1 0100     		.2byte	0x1
 4374 05b3 51       		.byte	0x51
 4375 05b4 3C020000 		.4byte	.LVL54
 4376 05b8 3E020000 		.4byte	.LVL55
 4377 05bc 0200     		.2byte	0x2
 4378 05be 72       		.byte	0x72
 4379 05bf 00       		.sleb128 0
 4380 05c0 C2020000 		.4byte	.LVL58
 4381 05c4 C6020000 		.4byte	.LVL60
 4382 05c8 0100     		.2byte	0x1
 4383 05ca 51       		.byte	0x51
 4384 05cb C6020000 		.4byte	.LVL60
 4385 05cf C8020000 		.4byte	.LVL61
 4386 05d3 0200     		.2byte	0x2
 4387 05d5 72       		.byte	0x72
 4388 05d6 00       		.sleb128 0
 4389 05d7 4C030000 		.4byte	.LVL64
ARM GAS  /tmp/ccFquxZA.s 			page 78


 4390 05db 50030000 		.4byte	.LVL66
 4391 05df 0100     		.2byte	0x1
 4392 05e1 51       		.byte	0x51
 4393 05e2 50030000 		.4byte	.LVL66
 4394 05e6 52030000 		.4byte	.LVL67
 4395 05ea 0200     		.2byte	0x2
 4396 05ec 72       		.byte	0x72
 4397 05ed 00       		.sleb128 0
 4398 05ee D6030000 		.4byte	.LVL70
 4399 05f2 DC030000 		.4byte	.LVL73
 4400 05f6 0100     		.2byte	0x1
 4401 05f8 51       		.byte	0x51
 4402 05f9 5E040000 		.4byte	.LVL75
 4403 05fd 66040000 		.4byte	.LFE4
 4404 0601 0100     		.2byte	0x1
 4405 0603 52       		.byte	0x52
 4406 0604 00000000 		.4byte	0
 4407 0608 00000000 		.4byte	0
 4408              	.LLST20:
 4409 060c 00000000 		.4byte	.LVL23
 4410 0610 08000000 		.4byte	.LVL25
 4411 0614 0100     		.2byte	0x1
 4412 0616 50       		.byte	0x50
 4413 0617 08000000 		.4byte	.LVL25
 4414 061b 22000000 		.4byte	.LFE3
 4415 061f 0300     		.2byte	0x3
 4416 0621 74       		.byte	0x74
 4417 0622 60       		.sleb128 -32
 4418 0623 9F       		.byte	0x9f
 4419 0624 00000000 		.4byte	0
 4420 0628 00000000 		.4byte	0
 4421              	.LLST21:
 4422 062c 00000000 		.4byte	.LVL23
 4423 0630 04000000 		.4byte	.LVL24
 4424 0634 0100     		.2byte	0x1
 4425 0636 51       		.byte	0x51
 4426 0637 04000000 		.4byte	.LVL24
 4427 063b 08000000 		.4byte	.LVL25
 4428 063f 0300     		.2byte	0x3
 4429 0641 71       		.byte	0x71
 4430 0642 04       		.sleb128 4
 4431 0643 9F       		.byte	0x9f
 4432 0644 08000000 		.4byte	.LVL25
 4433 0648 22000000 		.4byte	.LFE3
 4434 064c 0400     		.2byte	0x4
 4435 064e F3       		.byte	0xf3
 4436 064f 01       		.uleb128 0x1
 4437 0650 51       		.byte	0x51
 4438 0651 9F       		.byte	0x9f
 4439 0652 00000000 		.4byte	0
 4440 0656 00000000 		.4byte	0
 4441              	.LLST22:
 4442 065a 00000000 		.4byte	.LVL23
 4443 065e 08000000 		.4byte	.LVL25
 4444 0662 0100     		.2byte	0x1
 4445 0664 52       		.byte	0x52
 4446 0665 08000000 		.4byte	.LVL25
ARM GAS  /tmp/ccFquxZA.s 			page 79


 4447 0669 22000000 		.4byte	.LFE3
 4448 066d 0400     		.2byte	0x4
 4449 066f F3       		.byte	0xf3
 4450 0670 01       		.uleb128 0x1
 4451 0671 52       		.byte	0x52
 4452 0672 9F       		.byte	0x9f
 4453 0673 00000000 		.4byte	0
 4454 0677 00000000 		.4byte	0
 4455              	.LLST23:
 4456 067b 00000000 		.4byte	.LVL23
 4457 067f 08000000 		.4byte	.LVL25
 4458 0683 0200     		.2byte	0x2
 4459 0685 30       		.byte	0x30
 4460 0686 9F       		.byte	0x9f
 4461 0687 00000000 		.4byte	0
 4462 068b 00000000 		.4byte	0
 4463              	.LLST24:
 4464 068f 00000000 		.4byte	.LVL23
 4465 0693 14000000 		.4byte	.LVL27
 4466 0697 0100     		.2byte	0x1
 4467 0699 52       		.byte	0x52
 4468 069a 14000000 		.4byte	.LVL27
 4469 069e 18000000 		.4byte	.LVL28
 4470 06a2 0E00     		.2byte	0xe
 4471 06a4 73       		.byte	0x73
 4472 06a5 00       		.sleb128 0
 4473 06a6 40       		.byte	0x40
 4474 06a7 4B       		.byte	0x4b
 4475 06a8 24       		.byte	0x24
 4476 06a9 22       		.byte	0x22
 4477 06aa 72       		.byte	0x72
 4478 06ab 00       		.sleb128 0
 4479 06ac 40       		.byte	0x40
 4480 06ad 4B       		.byte	0x4b
 4481 06ae 24       		.byte	0x24
 4482 06af 22       		.byte	0x22
 4483 06b0 2D       		.byte	0x2d
 4484 06b1 9F       		.byte	0x9f
 4485 06b2 00000000 		.4byte	0
 4486 06b6 00000000 		.4byte	0
 4487              	.LLST25:
 4488 06ba 00000000 		.4byte	.LVL23
 4489 06be 20000000 		.4byte	.LVL29
 4490 06c2 0100     		.2byte	0x1
 4491 06c4 50       		.byte	0x50
 4492 06c5 00000000 		.4byte	0
 4493 06c9 00000000 		.4byte	0
 4494              	.LLST26:
 4495 06cd 00000000 		.4byte	.LVL23
 4496 06d1 04000000 		.4byte	.LVL24
 4497 06d5 0100     		.2byte	0x1
 4498 06d7 51       		.byte	0x51
 4499 06d8 04000000 		.4byte	.LVL24
 4500 06dc 0C000000 		.4byte	.LVL26
 4501 06e0 0300     		.2byte	0x3
 4502 06e2 71       		.byte	0x71
 4503 06e3 04       		.sleb128 4
ARM GAS  /tmp/ccFquxZA.s 			page 80


 4504 06e4 9F       		.byte	0x9f
 4505 06e5 0C000000 		.4byte	.LVL26
 4506 06e9 14000000 		.4byte	.LVL27
 4507 06ed 0100     		.2byte	0x1
 4508 06ef 51       		.byte	0x51
 4509 06f0 14000000 		.4byte	.LVL27
 4510 06f4 22000000 		.4byte	.LFE3
 4511 06f8 0300     		.2byte	0x3
 4512 06fa 71       		.byte	0x71
 4513 06fb 04       		.sleb128 4
 4514 06fc 9F       		.byte	0x9f
 4515 06fd 00000000 		.4byte	0
 4516 0701 00000000 		.4byte	0
 4517              	.LLST27:
 4518 0705 0C000000 		.4byte	.LVL26
 4519 0709 18000000 		.4byte	.LVL28
 4520 070d 0E00     		.2byte	0xe
 4521 070f 73       		.byte	0x73
 4522 0710 00       		.sleb128 0
 4523 0711 40       		.byte	0x40
 4524 0712 4B       		.byte	0x4b
 4525 0713 24       		.byte	0x24
 4526 0714 22       		.byte	0x22
 4527 0715 72       		.byte	0x72
 4528 0716 00       		.sleb128 0
 4529 0717 40       		.byte	0x40
 4530 0718 4B       		.byte	0x4b
 4531 0719 24       		.byte	0x24
 4532 071a 22       		.byte	0x22
 4533 071b 2D       		.byte	0x2d
 4534 071c 9F       		.byte	0x9f
 4535 071d 00000000 		.4byte	0
 4536 0721 00000000 		.4byte	0
 4537              	.LLST13:
 4538 0725 00000000 		.4byte	.LVL16
 4539 0729 0A000000 		.4byte	.LVL19
 4540 072d 0100     		.2byte	0x1
 4541 072f 50       		.byte	0x50
 4542 0730 0A000000 		.4byte	.LVL19
 4543 0734 24000000 		.4byte	.LFE2
 4544 0738 0300     		.2byte	0x3
 4545 073a 76       		.byte	0x76
 4546 073b 60       		.sleb128 -32
 4547 073c 9F       		.byte	0x9f
 4548 073d 00000000 		.4byte	0
 4549 0741 00000000 		.4byte	0
 4550              	.LLST14:
 4551 0745 00000000 		.4byte	.LVL16
 4552 0749 06000000 		.4byte	.LVL18
 4553 074d 0100     		.2byte	0x1
 4554 074f 51       		.byte	0x51
 4555 0750 06000000 		.4byte	.LVL18
 4556 0754 0A000000 		.4byte	.LVL19
 4557 0758 0300     		.2byte	0x3
 4558 075a 71       		.byte	0x71
 4559 075b 04       		.sleb128 4
 4560 075c 9F       		.byte	0x9f
ARM GAS  /tmp/ccFquxZA.s 			page 81


 4561 075d 0A000000 		.4byte	.LVL19
 4562 0761 24000000 		.4byte	.LFE2
 4563 0765 0400     		.2byte	0x4
 4564 0767 F3       		.byte	0xf3
 4565 0768 01       		.uleb128 0x1
 4566 0769 51       		.byte	0x51
 4567 076a 9F       		.byte	0x9f
 4568 076b 00000000 		.4byte	0
 4569 076f 00000000 		.4byte	0
 4570              	.LLST15:
 4571 0773 00000000 		.4byte	.LVL16
 4572 0777 0A000000 		.4byte	.LVL19
 4573 077b 0100     		.2byte	0x1
 4574 077d 52       		.byte	0x52
 4575 077e 0A000000 		.4byte	.LVL19
 4576 0782 24000000 		.4byte	.LFE2
 4577 0786 0400     		.2byte	0x4
 4578 0788 F3       		.byte	0xf3
 4579 0789 01       		.uleb128 0x1
 4580 078a 52       		.byte	0x52
 4581 078b 9F       		.byte	0x9f
 4582 078c 00000000 		.4byte	0
 4583 0790 00000000 		.4byte	0
 4584              	.LLST16:
 4585 0794 04000000 		.4byte	.LVL17
 4586 0798 0A000000 		.4byte	.LVL19
 4587 079c 0200     		.2byte	0x2
 4588 079e 30       		.byte	0x30
 4589 079f 9F       		.byte	0x9f
 4590 07a0 00000000 		.4byte	0
 4591 07a4 00000000 		.4byte	0
 4592              	.LLST17:
 4593 07a8 00000000 		.4byte	.LVL16
 4594 07ac 20000000 		.4byte	.LVL22
 4595 07b0 0100     		.2byte	0x1
 4596 07b2 52       		.byte	0x52
 4597 07b3 20000000 		.4byte	.LVL22
 4598 07b7 24000000 		.4byte	.LFE2
 4599 07bb 0100     		.2byte	0x1
 4600 07bd 50       		.byte	0x50
 4601 07be 00000000 		.4byte	0
 4602 07c2 00000000 		.4byte	0
 4603              	.LLST18:
 4604 07c6 04000000 		.4byte	.LVL17
 4605 07ca 0A000000 		.4byte	.LVL19
 4606 07ce 0100     		.2byte	0x1
 4607 07d0 50       		.byte	0x50
 4608 07d1 0A000000 		.4byte	.LVL19
 4609 07d5 1A000000 		.4byte	.LVL21
 4610 07d9 0100     		.2byte	0x1
 4611 07db 55       		.byte	0x55
 4612 07dc 1A000000 		.4byte	.LVL21
 4613 07e0 20000000 		.4byte	.LVL22
 4614 07e4 0300     		.2byte	0x3
 4615 07e6 75       		.byte	0x75
 4616 07e7 7C       		.sleb128 -4
 4617 07e8 9F       		.byte	0x9f
ARM GAS  /tmp/ccFquxZA.s 			page 82


 4618 07e9 20000000 		.4byte	.LVL22
 4619 07ed 24000000 		.4byte	.LFE2
 4620 07f1 0100     		.2byte	0x1
 4621 07f3 55       		.byte	0x55
 4622 07f4 00000000 		.4byte	0
 4623 07f8 00000000 		.4byte	0
 4624              	.LLST19:
 4625 07fc 04000000 		.4byte	.LVL17
 4626 0800 06000000 		.4byte	.LVL18
 4627 0804 0100     		.2byte	0x1
 4628 0806 51       		.byte	0x51
 4629 0807 06000000 		.4byte	.LVL18
 4630 080b 0E000000 		.4byte	.LVL20
 4631 080f 0300     		.2byte	0x3
 4632 0811 71       		.byte	0x71
 4633 0812 04       		.sleb128 4
 4634 0813 9F       		.byte	0x9f
 4635 0814 0E000000 		.4byte	.LVL20
 4636 0818 20000000 		.4byte	.LVL22
 4637 081c 0100     		.2byte	0x1
 4638 081e 51       		.byte	0x51
 4639 081f 20000000 		.4byte	.LVL22
 4640 0823 24000000 		.4byte	.LFE2
 4641 0827 0300     		.2byte	0x3
 4642 0829 71       		.byte	0x71
 4643 082a 04       		.sleb128 4
 4644 082b 9F       		.byte	0x9f
 4645 082c 00000000 		.4byte	0
 4646 0830 00000000 		.4byte	0
 4647              	.LLST6:
 4648 0834 00000000 		.4byte	.LVL8
 4649 0838 06000000 		.4byte	.LVL10
 4650 083c 0100     		.2byte	0x1
 4651 083e 50       		.byte	0x50
 4652 083f 06000000 		.4byte	.LVL10
 4653 0843 36000000 		.4byte	.LFE1
 4654 0847 0100     		.2byte	0x1
 4655 0849 57       		.byte	0x57
 4656 084a 00000000 		.4byte	0
 4657 084e 00000000 		.4byte	0
 4658              	.LLST7:
 4659 0852 04000000 		.4byte	.LVL9
 4660 0856 08000000 		.4byte	.LVL11
 4661 085a 0200     		.2byte	0x2
 4662 085c 30       		.byte	0x30
 4663 085d 9F       		.byte	0x9f
 4664 085e 08000000 		.4byte	.LVL11
 4665 0862 26000000 		.4byte	.LVL14
 4666 0866 0100     		.2byte	0x1
 4667 0868 53       		.byte	0x53
 4668 0869 26000000 		.4byte	.LVL14
 4669 086d 30000000 		.4byte	.LVL15
 4670 0871 0300     		.2byte	0x3
 4671 0873 73       		.byte	0x73
 4672 0874 7F       		.sleb128 -1
 4673 0875 9F       		.byte	0x9f
 4674 0876 30000000 		.4byte	.LVL15
ARM GAS  /tmp/ccFquxZA.s 			page 83


 4675 087a 36000000 		.4byte	.LFE1
 4676 087e 0100     		.2byte	0x1
 4677 0880 53       		.byte	0x53
 4678 0881 00000000 		.4byte	0
 4679 0885 00000000 		.4byte	0
 4680              	.LLST8:
 4681 0889 04000000 		.4byte	.LVL9
 4682 088d 08000000 		.4byte	.LVL11
 4683 0891 0200     		.2byte	0x2
 4684 0893 30       		.byte	0x30
 4685 0894 9F       		.byte	0x9f
 4686 0895 08000000 		.4byte	.LVL11
 4687 0899 36000000 		.4byte	.LFE1
 4688 089d 0100     		.2byte	0x1
 4689 089f 50       		.byte	0x50
 4690 08a0 00000000 		.4byte	0
 4691 08a4 00000000 		.4byte	0
 4692              	.LLST9:
 4693 08a8 04000000 		.4byte	.LVL9
 4694 08ac 06000000 		.4byte	.LVL10
 4695 08b0 0100     		.2byte	0x1
 4696 08b2 50       		.byte	0x50
 4697 08b3 06000000 		.4byte	.LVL10
 4698 08b7 08000000 		.4byte	.LVL11
 4699 08bb 0100     		.2byte	0x1
 4700 08bd 57       		.byte	0x57
 4701 08be 08000000 		.4byte	.LVL11
 4702 08c2 26000000 		.4byte	.LVL14
 4703 08c6 0800     		.2byte	0x8
 4704 08c8 73       		.byte	0x73
 4705 08c9 00       		.sleb128 0
 4706 08ca 32       		.byte	0x32
 4707 08cb 24       		.byte	0x24
 4708 08cc 77       		.byte	0x77
 4709 08cd 00       		.sleb128 0
 4710 08ce 22       		.byte	0x22
 4711 08cf 9F       		.byte	0x9f
 4712 08d0 26000000 		.4byte	.LVL14
 4713 08d4 30000000 		.4byte	.LVL15
 4714 08d8 0800     		.2byte	0x8
 4715 08da 73       		.byte	0x73
 4716 08db 7F       		.sleb128 -1
 4717 08dc 32       		.byte	0x32
 4718 08dd 24       		.byte	0x24
 4719 08de 77       		.byte	0x77
 4720 08df 00       		.sleb128 0
 4721 08e0 22       		.byte	0x22
 4722 08e1 9F       		.byte	0x9f
 4723 08e2 00000000 		.4byte	0
 4724 08e6 00000000 		.4byte	0
 4725              	.LLST10:
 4726 08ea 04000000 		.4byte	.LVL9
 4727 08ee 08000000 		.4byte	.LVL11
 4728 08f2 0100     		.2byte	0x1
 4729 08f4 51       		.byte	0x51
 4730 08f5 08000000 		.4byte	.LVL11
 4731 08f9 26000000 		.4byte	.LVL14
ARM GAS  /tmp/ccFquxZA.s 			page 84


 4732 08fd 0800     		.2byte	0x8
 4733 08ff 73       		.byte	0x73
 4734 0900 00       		.sleb128 0
 4735 0901 32       		.byte	0x32
 4736 0902 24       		.byte	0x24
 4737 0903 71       		.byte	0x71
 4738 0904 00       		.sleb128 0
 4739 0905 22       		.byte	0x22
 4740 0906 9F       		.byte	0x9f
 4741 0907 26000000 		.4byte	.LVL14
 4742 090b 30000000 		.4byte	.LVL15
 4743 090f 0800     		.2byte	0x8
 4744 0911 73       		.byte	0x73
 4745 0912 7F       		.sleb128 -1
 4746 0913 32       		.byte	0x32
 4747 0914 24       		.byte	0x24
 4748 0915 71       		.byte	0x71
 4749 0916 00       		.sleb128 0
 4750 0917 22       		.byte	0x22
 4751 0918 9F       		.byte	0x9f
 4752 0919 00000000 		.4byte	0
 4753 091d 00000000 		.4byte	0
 4754              	.LLST11:
 4755 0921 04000000 		.4byte	.LVL9
 4756 0925 08000000 		.4byte	.LVL11
 4757 0929 0100     		.2byte	0x1
 4758 092b 52       		.byte	0x52
 4759 092c 08000000 		.4byte	.LVL11
 4760 0930 26000000 		.4byte	.LVL14
 4761 0934 0800     		.2byte	0x8
 4762 0936 73       		.byte	0x73
 4763 0937 00       		.sleb128 0
 4764 0938 32       		.byte	0x32
 4765 0939 24       		.byte	0x24
 4766 093a 72       		.byte	0x72
 4767 093b 00       		.sleb128 0
 4768 093c 22       		.byte	0x22
 4769 093d 9F       		.byte	0x9f
 4770 093e 26000000 		.4byte	.LVL14
 4771 0942 30000000 		.4byte	.LVL15
 4772 0946 0800     		.2byte	0x8
 4773 0948 73       		.byte	0x73
 4774 0949 7F       		.sleb128 -1
 4775 094a 32       		.byte	0x32
 4776 094b 24       		.byte	0x24
 4777 094c 72       		.byte	0x72
 4778 094d 00       		.sleb128 0
 4779 094e 22       		.byte	0x22
 4780 094f 9F       		.byte	0x9f
 4781 0950 00000000 		.4byte	0
 4782 0954 00000000 		.4byte	0
 4783              	.LLST12:
 4784 0958 0C000000 		.4byte	.LVL12
 4785 095c 30000000 		.4byte	.LVL15
 4786 0960 0E00     		.2byte	0xe
 4787 0962 76       		.byte	0x76
 4788 0963 00       		.sleb128 0
ARM GAS  /tmp/ccFquxZA.s 			page 85


 4789 0964 40       		.byte	0x40
 4790 0965 4B       		.byte	0x4b
 4791 0966 24       		.byte	0x24
 4792 0967 22       		.byte	0x22
 4793 0968 70       		.byte	0x70
 4794 0969 00       		.sleb128 0
 4795 096a 40       		.byte	0x40
 4796 096b 4B       		.byte	0x4b
 4797 096c 24       		.byte	0x24
 4798 096d 22       		.byte	0x22
 4799 096e 2D       		.byte	0x2d
 4800 096f 9F       		.byte	0x9f
 4801 0970 00000000 		.4byte	0
 4802 0974 00000000 		.4byte	0
 4803              	.LLST0:
 4804 0978 00000000 		.4byte	.LVL0
 4805 097c 06000000 		.4byte	.LVL2
 4806 0980 0100     		.2byte	0x1
 4807 0982 50       		.byte	0x50
 4808 0983 06000000 		.4byte	.LVL2
 4809 0987 32000000 		.4byte	.LFE0
 4810 098b 0100     		.2byte	0x1
 4811 098d 57       		.byte	0x57
 4812 098e 00000000 		.4byte	0
 4813 0992 00000000 		.4byte	0
 4814              	.LLST1:
 4815 0996 04000000 		.4byte	.LVL1
 4816 099a 08000000 		.4byte	.LVL3
 4817 099e 0200     		.2byte	0x2
 4818 09a0 30       		.byte	0x30
 4819 09a1 9F       		.byte	0x9f
 4820 09a2 08000000 		.4byte	.LVL3
 4821 09a6 28000000 		.4byte	.LVL6
 4822 09aa 0100     		.2byte	0x1
 4823 09ac 54       		.byte	0x54
 4824 09ad 28000000 		.4byte	.LVL6
 4825 09b1 2E000000 		.4byte	.LVL7
 4826 09b5 0300     		.2byte	0x3
 4827 09b7 74       		.byte	0x74
 4828 09b8 7F       		.sleb128 -1
 4829 09b9 9F       		.byte	0x9f
 4830 09ba 2E000000 		.4byte	.LVL7
 4831 09be 32000000 		.4byte	.LFE0
 4832 09c2 0100     		.2byte	0x1
 4833 09c4 54       		.byte	0x54
 4834 09c5 00000000 		.4byte	0
 4835 09c9 00000000 		.4byte	0
 4836              	.LLST2:
 4837 09cd 04000000 		.4byte	.LVL1
 4838 09d1 08000000 		.4byte	.LVL3
 4839 09d5 0200     		.2byte	0x2
 4840 09d7 30       		.byte	0x30
 4841 09d8 9F       		.byte	0x9f
 4842 09d9 08000000 		.4byte	.LVL3
 4843 09dd 1A000000 		.4byte	.LVL5
 4844 09e1 0100     		.2byte	0x1
 4845 09e3 50       		.byte	0x50
ARM GAS  /tmp/ccFquxZA.s 			page 86


 4846 09e4 1A000000 		.4byte	.LVL5
 4847 09e8 2E000000 		.4byte	.LVL7
 4848 09ec 0100     		.2byte	0x1
 4849 09ee 56       		.byte	0x56
 4850 09ef 2E000000 		.4byte	.LVL7
 4851 09f3 32000000 		.4byte	.LFE0
 4852 09f7 0100     		.2byte	0x1
 4853 09f9 50       		.byte	0x50
 4854 09fa 00000000 		.4byte	0
 4855 09fe 00000000 		.4byte	0
 4856              	.LLST3:
 4857 0a02 04000000 		.4byte	.LVL1
 4858 0a06 06000000 		.4byte	.LVL2
 4859 0a0a 0100     		.2byte	0x1
 4860 0a0c 50       		.byte	0x50
 4861 0a0d 06000000 		.4byte	.LVL2
 4862 0a11 08000000 		.4byte	.LVL3
 4863 0a15 0100     		.2byte	0x1
 4864 0a17 57       		.byte	0x57
 4865 0a18 00000000 		.4byte	0
 4866 0a1c 00000000 		.4byte	0
 4867              	.LLST4:
 4868 0a20 04000000 		.4byte	.LVL1
 4869 0a24 08000000 		.4byte	.LVL3
 4870 0a28 0100     		.2byte	0x1
 4871 0a2a 51       		.byte	0x51
 4872 0a2b 08000000 		.4byte	.LVL3
 4873 0a2f 28000000 		.4byte	.LVL6
 4874 0a33 0800     		.2byte	0x8
 4875 0a35 74       		.byte	0x74
 4876 0a36 00       		.sleb128 0
 4877 0a37 32       		.byte	0x32
 4878 0a38 24       		.byte	0x24
 4879 0a39 71       		.byte	0x71
 4880 0a3a 00       		.sleb128 0
 4881 0a3b 22       		.byte	0x22
 4882 0a3c 9F       		.byte	0x9f
 4883 0a3d 28000000 		.4byte	.LVL6
 4884 0a41 2E000000 		.4byte	.LVL7
 4885 0a45 0800     		.2byte	0x8
 4886 0a47 74       		.byte	0x74
 4887 0a48 7F       		.sleb128 -1
 4888 0a49 32       		.byte	0x32
 4889 0a4a 24       		.byte	0x24
 4890 0a4b 71       		.byte	0x71
 4891 0a4c 00       		.sleb128 0
 4892 0a4d 22       		.byte	0x22
 4893 0a4e 9F       		.byte	0x9f
 4894 0a4f 00000000 		.4byte	0
 4895 0a53 00000000 		.4byte	0
 4896              	.LLST5:
 4897 0a57 04000000 		.4byte	.LVL1
 4898 0a5b 08000000 		.4byte	.LVL3
 4899 0a5f 0100     		.2byte	0x1
 4900 0a61 52       		.byte	0x52
 4901 0a62 08000000 		.4byte	.LVL3
 4902 0a66 28000000 		.4byte	.LVL6
ARM GAS  /tmp/ccFquxZA.s 			page 87


 4903 0a6a 0800     		.2byte	0x8
 4904 0a6c 74       		.byte	0x74
 4905 0a6d 00       		.sleb128 0
 4906 0a6e 32       		.byte	0x32
 4907 0a6f 24       		.byte	0x24
 4908 0a70 72       		.byte	0x72
 4909 0a71 00       		.sleb128 0
 4910 0a72 22       		.byte	0x22
 4911 0a73 9F       		.byte	0x9f
 4912 0a74 28000000 		.4byte	.LVL6
 4913 0a78 2E000000 		.4byte	.LVL7
 4914 0a7c 0800     		.2byte	0x8
 4915 0a7e 74       		.byte	0x74
 4916 0a7f 7F       		.sleb128 -1
 4917 0a80 32       		.byte	0x32
 4918 0a81 24       		.byte	0x24
 4919 0a82 72       		.byte	0x72
 4920 0a83 00       		.sleb128 0
 4921 0a84 22       		.byte	0x22
 4922 0a85 9F       		.byte	0x9f
 4923 0a86 00000000 		.4byte	0
 4924 0a8a 00000000 		.4byte	0
 4925              		.section	.debug_aranges,"",%progbits
 4926 0000 74000000 		.4byte	0x74
 4927 0004 0200     		.2byte	0x2
 4928 0006 00000000 		.4byte	.Ldebug_info0
 4929 000a 04       		.byte	0x4
 4930 000b 00       		.byte	0
 4931 000c 0000     		.2byte	0
 4932 000e 0000     		.2byte	0
 4933 0010 00000000 		.4byte	.LFB0
 4934 0014 32000000 		.4byte	.LFE0-.LFB0
 4935 0018 00000000 		.4byte	.LFB1
 4936 001c 36000000 		.4byte	.LFE1-.LFB1
 4937 0020 00000000 		.4byte	.LFB2
 4938 0024 24000000 		.4byte	.LFE2-.LFB2
 4939 0028 00000000 		.4byte	.LFB3
 4940 002c 22000000 		.4byte	.LFE3-.LFB3
 4941 0030 00000000 		.4byte	.LFB4
 4942 0034 66040000 		.4byte	.LFE4-.LFB4
 4943 0038 00000000 		.4byte	.LFB5
 4944 003c D8000000 		.4byte	.LFE5-.LFB5
 4945 0040 00000000 		.4byte	.LFB6
 4946 0044 5E000000 		.4byte	.LFE6-.LFB6
 4947 0048 00000000 		.4byte	.LFB7
 4948 004c 18000000 		.4byte	.LFE7-.LFB7
 4949 0050 00000000 		.4byte	.LFB8
 4950 0054 0A000000 		.4byte	.LFE8-.LFB8
 4951 0058 00000000 		.4byte	.LFB9
 4952 005c 1A000000 		.4byte	.LFE9-.LFB9
 4953 0060 00000000 		.4byte	.LFB10
 4954 0064 2A000000 		.4byte	.LFE10-.LFB10
 4955 0068 00000000 		.4byte	.LFB11
 4956 006c 30000000 		.4byte	.LFE11-.LFB11
 4957 0070 00000000 		.4byte	0
 4958 0074 00000000 		.4byte	0
 4959              		.section	.debug_ranges,"",%progbits
ARM GAS  /tmp/ccFquxZA.s 			page 88


 4960              	.Ldebug_ranges0:
 4961 0000 08000000 		.4byte	.LBB2
 4962 0004 24000000 		.4byte	.LBE2
 4963 0008 26000000 		.4byte	.LBB3
 4964 000c 30000000 		.4byte	.LBE3
 4965 0010 00000000 		.4byte	0
 4966 0014 00000000 		.4byte	0
 4967 0018 14000000 		.4byte	.LBB5
 4968 001c C4000000 		.4byte	.LBE5
 4969 0020 C8000000 		.4byte	.LBB6
 4970 0024 CE000000 		.4byte	.LBE6
 4971 0028 00000000 		.4byte	0
 4972 002c 00000000 		.4byte	0
 4973 0030 00000000 		.4byte	.LFB0
 4974 0034 32000000 		.4byte	.LFE0
 4975 0038 00000000 		.4byte	.LFB1
 4976 003c 36000000 		.4byte	.LFE1
 4977 0040 00000000 		.4byte	.LFB2
 4978 0044 24000000 		.4byte	.LFE2
 4979 0048 00000000 		.4byte	.LFB3
 4980 004c 22000000 		.4byte	.LFE3
 4981 0050 00000000 		.4byte	.LFB4
 4982 0054 66040000 		.4byte	.LFE4
 4983 0058 00000000 		.4byte	.LFB5
 4984 005c D8000000 		.4byte	.LFE5
 4985 0060 00000000 		.4byte	.LFB6
 4986 0064 5E000000 		.4byte	.LFE6
 4987 0068 00000000 		.4byte	.LFB7
 4988 006c 18000000 		.4byte	.LFE7
 4989 0070 00000000 		.4byte	.LFB8
 4990 0074 0A000000 		.4byte	.LFE8
 4991 0078 00000000 		.4byte	.LFB9
 4992 007c 1A000000 		.4byte	.LFE9
 4993 0080 00000000 		.4byte	.LFB10
 4994 0084 2A000000 		.4byte	.LFE10
 4995 0088 00000000 		.4byte	.LFB11
 4996 008c 30000000 		.4byte	.LFE11
 4997 0090 00000000 		.4byte	0
 4998 0094 00000000 		.4byte	0
 4999              		.section	.debug_line,"",%progbits
 5000              	.Ldebug_line0:
 5001 0000 14030000 		.section	.debug_str,"MS",%progbits,1
 5001      0200F600 
 5001      00000201 
 5001      FB0E0D00 
 5001      01010101 
 5002              	.LASF43:
 5003 0000 5F64736F 		.ascii	"_dso_handle\000"
 5003      5F68616E 
 5003      646C6500 
 5004              	.LASF51:
 5005 000c 5F73697A 		.ascii	"_size\000"
 5005      6500
 5006              	.LASF95:
 5007 0012 5F72616E 		.ascii	"_rand48\000"
 5007      64343800 
 5008              	.LASF75:
ARM GAS  /tmp/ccFquxZA.s 			page 89


 5009 001a 5F656D65 		.ascii	"_emergency\000"
 5009      7267656E 
 5009      637900
 5010              	.LASF150:
 5011 0025 626E2E63 		.ascii	"bn.c\000"
 5011      00
 5012              	.LASF5:
 5013 002a 5F5F7569 		.ascii	"__uint8_t\000"
 5013      6E74385F 
 5013      7400
 5014              	.LASF65:
 5015 0034 5F646174 		.ascii	"_data\000"
 5015      6100
 5016              	.LASF115:
 5017 003a 5F776372 		.ascii	"_wcrtomb_state\000"
 5017      746F6D62 
 5017      5F737461 
 5017      746500
 5018              	.LASF116:
 5019 0049 5F776373 		.ascii	"_wcsrtombs_state\000"
 5019      72746F6D 
 5019      62735F73 
 5019      74617465 
 5019      00
 5020              	.LASF153:
 5021 005a 5F5F6275 		.ascii	"__builtin_memset\000"
 5021      696C7469 
 5021      6E5F6D65 
 5021      6D736574 
 5021      00
 5022              	.LASF9:
 5023 006b 6C6F6E67 		.ascii	"long long unsigned int\000"
 5023      206C6F6E 
 5023      6720756E 
 5023      7369676E 
 5023      65642069 
 5024              	.LASF55:
 5025 0082 5F6C6266 		.ascii	"_lbfsize\000"
 5025      73697A65 
 5025      00
 5026              	.LASF122:
 5027 008b 5F5F6C6F 		.ascii	"__locale_t\000"
 5027      63616C65 
 5027      5F7400
 5028              	.LASF130:
 5029 0096 69735F7A 		.ascii	"is_zero\000"
 5029      65726F00 
 5030              	.LASF113:
 5031 009e 5F6D6272 		.ascii	"_mbrtowc_state\000"
 5031      746F7763 
 5031      5F737461 
 5031      746500
 5032              	.LASF147:
 5033 00ad 72616E64 		.ascii	"random_bytes_get\000"
 5033      6F6D5F62 
 5033      79746573 
 5033      5F676574 
ARM GAS  /tmp/ccFquxZA.s 			page 90


 5033      00
 5034              	.LASF32:
 5035 00be 5F5F746D 		.ascii	"__tm_sec\000"
 5035      5F736563 
 5035      00
 5036              	.LASF8:
 5037 00c7 6C6F6E67 		.ascii	"long long int\000"
 5037      206C6F6E 
 5037      6720696E 
 5037      7400
 5038              	.LASF0:
 5039 00d5 7369676E 		.ascii	"signed char\000"
 5039      65642063 
 5039      68617200 
 5040              	.LASF138:
 5041 00e1 6E657874 		.ascii	"next_carry\000"
 5041      5F636172 
 5041      727900
 5042              	.LASF61:
 5043 00ec 5F756275 		.ascii	"_ubuf\000"
 5043      6600
 5044              	.LASF50:
 5045 00f2 5F626173 		.ascii	"_base\000"
 5045      6500
 5046              	.LASF151:
 5047 00f8 2F686F6D 		.ascii	"/home/jshuo/u2f-token/src\000"
 5047      652F6A73 
 5047      68756F2F 
 5047      7532662D 
 5047      746F6B65 
 5048              	.LASF90:
 5049 0112 5F5F7366 		.ascii	"__sf\000"
 5049      00
 5050              	.LASF41:
 5051 0117 5F6F6E5F 		.ascii	"_on_exit_args\000"
 5051      65786974 
 5051      5F617267 
 5051      7300
 5052              	.LASF56:
 5053 0125 5F636F6F 		.ascii	"_cookie\000"
 5053      6B696500 
 5054              	.LASF89:
 5055 012d 5F5F7367 		.ascii	"__sglue\000"
 5055      6C756500 
 5056              	.LASF4:
 5057 0135 6C6F6E67 		.ascii	"long int\000"
 5057      20696E74 
 5057      00
 5058              	.LASF140:
 5059 013e 626E3235 		.ascii	"bn256_sqr\000"
 5059      365F7371 
 5059      7200
 5060              	.LASF53:
 5061 0148 5F666C61 		.ascii	"_flags\000"
 5061      677300
 5062              	.LASF45:
 5063 014f 5F69735F 		.ascii	"_is_cxa\000"
ARM GAS  /tmp/ccFquxZA.s 			page 91


 5063      63786100 
 5064              	.LASF71:
 5065 0157 5F737464 		.ascii	"_stdin\000"
 5065      696E00
 5066              	.LASF63:
 5067 015e 5F626C6B 		.ascii	"_blksize\000"
 5067      73697A65 
 5067      00
 5068              	.LASF85:
 5069 0167 5F637674 		.ascii	"_cvtbuf\000"
 5069      62756600 
 5070              	.LASF64:
 5071 016f 5F6F6666 		.ascii	"_offset\000"
 5071      73657400 
 5072              	.LASF136:
 5073 0177 73686966 		.ascii	"shift\000"
 5073      7400
 5074              	.LASF114:
 5075 017d 5F6D6273 		.ascii	"_mbsrtowcs_state\000"
 5075      72746F77 
 5075      63735F73 
 5075      74617465 
 5075      00
 5076              	.LASF112:
 5077 018e 5F6D6272 		.ascii	"_mbrlen_state\000"
 5077      6C656E5F 
 5077      73746174 
 5077      6500
 5078              	.LASF148:
 5079 019c 72616E64 		.ascii	"random_bytes_free\000"
 5079      6F6D5F62 
 5079      79746573 
 5079      5F667265 
 5079      6500
 5080              	.LASF42:
 5081 01ae 5F666E61 		.ascii	"_fnargs\000"
 5081      72677300 
 5082              	.LASF135:
 5083 01b6 626E3235 		.ascii	"bn256_shift\000"
 5083      365F7368 
 5083      69667400 
 5084              	.LASF48:
 5085 01c2 5F666E73 		.ascii	"_fns\000"
 5085      00
 5086              	.LASF6:
 5087 01c7 5F5F7569 		.ascii	"__uint32_t\000"
 5087      6E743332 
 5087      5F7400
 5088              	.LASF28:
 5089 01d2 5F736967 		.ascii	"_sign\000"
 5089      6E00
 5090              	.LASF23:
 5091 01d8 5F666C6F 		.ascii	"_flock_t\000"
 5091      636B5F74 
 5091      00
 5092              	.LASF73:
 5093 01e1 5F737464 		.ascii	"_stderr\000"
ARM GAS  /tmp/ccFquxZA.s 			page 92


 5093      65727200 
 5094              	.LASF30:
 5095 01e9 5F426967 		.ascii	"_Bigint\000"
 5095      696E7400 
 5096              	.LASF103:
 5097 01f1 5F67616D 		.ascii	"_gamma_signgam\000"
 5097      6D615F73 
 5097      69676E67 
 5097      616D00
 5098              	.LASF57:
 5099 0200 5F726561 		.ascii	"_read\000"
 5099      6400
 5100              	.LASF81:
 5101 0206 5F726573 		.ascii	"_result_k\000"
 5101      756C745F 
 5101      6B00
 5102              	.LASF31:
 5103 0210 5F5F746D 		.ascii	"__tm\000"
 5103      00
 5104              	.LASF10:
 5105 0215 756E7369 		.ascii	"unsigned int\000"
 5105      676E6564 
 5105      20696E74 
 5105      00
 5106              	.LASF19:
 5107 0222 5F5F7763 		.ascii	"__wchb\000"
 5107      686200
 5108              	.LASF72:
 5109 0229 5F737464 		.ascii	"_stdout\000"
 5109      6F757400 
 5110              	.LASF84:
 5111 0231 5F637674 		.ascii	"_cvtlen\000"
 5111      6C656E00 
 5112              	.LASF7:
 5113 0239 6C6F6E67 		.ascii	"long unsigned int\000"
 5113      20756E73 
 5113      69676E65 
 5113      6420696E 
 5113      7400
 5114              	.LASF54:
 5115 024b 5F66696C 		.ascii	"_file\000"
 5115      6500
 5116              	.LASF128:
 5117 0251 72616E64 		.ascii	"rand\000"
 5117      00
 5118              	.LASF93:
 5119 0256 5F6E696F 		.ascii	"_niobs\000"
 5119      627300
 5120              	.LASF146:
 5121 025d 626E3235 		.ascii	"bn256_add\000"
 5121      365F6164 
 5121      6400
 5122              	.LASF3:
 5123 0267 73686F72 		.ascii	"short unsigned int\000"
 5123      7420756E 
 5123      7369676E 
 5123      65642069 
ARM GAS  /tmp/ccFquxZA.s 			page 93


 5123      6E7400
 5124              	.LASF87:
 5125 027a 5F617465 		.ascii	"_atexit0\000"
 5125      78697430 
 5125      00
 5126              	.LASF110:
 5127 0283 5F736967 		.ascii	"_signal_buf\000"
 5127      6E616C5F 
 5127      62756600 
 5128              	.LASF101:
 5129 028f 5F617363 		.ascii	"_asctime_buf\000"
 5129      74696D65 
 5129      5F627566 
 5129      00
 5130              	.LASF80:
 5131 029c 5F726573 		.ascii	"_result\000"
 5131      756C7400 
 5132              	.LASF18:
 5133 02a4 5F5F7763 		.ascii	"__wch\000"
 5133      6800
 5134              	.LASF14:
 5135 02aa 5F4C4F43 		.ascii	"_LOCK_T\000"
 5135      4B5F5400 
 5136              	.LASF17:
 5137 02b2 77696E74 		.ascii	"wint_t\000"
 5137      5F7400
 5138              	.LASF66:
 5139 02b9 5F6C6F63 		.ascii	"_lock\000"
 5139      6B00
 5140              	.LASF68:
 5141 02bf 5F666C61 		.ascii	"_flags2\000"
 5141      67733200 
 5142              	.LASF142:
 5143 02c7 626E3235 		.ascii	"bn256_sub_uint\000"
 5143      365F7375 
 5143      625F7569 
 5143      6E7400
 5144              	.LASF58:
 5145 02d6 5F777269 		.ascii	"_write\000"
 5145      746500
 5146              	.LASF37:
 5147 02dd 5F5F746D 		.ascii	"__tm_year\000"
 5147      5F796561 
 5147      7200
 5148              	.LASF119:
 5149 02e7 5F6E6D61 		.ascii	"_nmalloc\000"
 5149      6C6C6F63 
 5149      00
 5150              	.LASF13:
 5151 02f0 6C6F6E67 		.ascii	"long double\000"
 5151      20646F75 
 5151      626C6500 
 5152              	.LASF126:
 5153 02fc 776F7264 		.ascii	"word\000"
 5153      00
 5154              	.LASF118:
 5155 0301 5F6E6578 		.ascii	"_nextf\000"
ARM GAS  /tmp/ccFquxZA.s 			page 94


 5155      746600
 5156              	.LASF36:
 5157 0308 5F5F746D 		.ascii	"__tm_mon\000"
 5157      5F6D6F6E 
 5157      00
 5158              	.LASF131:
 5159 0311 626E3235 		.ascii	"bn256_cmp\000"
 5159      365F636D 
 5159      7000
 5160              	.LASF46:
 5161 031b 5F617465 		.ascii	"_atexit\000"
 5161      78697400 
 5162              	.LASF78:
 5163 0323 5F5F7364 		.ascii	"__sdidinit\000"
 5163      6964696E 
 5163      697400
 5164              	.LASF15:
 5165 032e 5F6F6666 		.ascii	"_off_t\000"
 5165      5F7400
 5166              	.LASF83:
 5167 0335 5F667265 		.ascii	"_freelist\000"
 5167      656C6973 
 5167      7400
 5168              	.LASF133:
 5169 033f 626E3235 		.ascii	"bn256_is_even\000"
 5169      365F6973 
 5169      5F657665 
 5169      6E00
 5170              	.LASF108:
 5171 034d 5F776374 		.ascii	"_wctomb_state\000"
 5171      6F6D625F 
 5171      73746174 
 5171      6500
 5172              	.LASF137:
 5173 035b 63617272 		.ascii	"carry\000"
 5173      7900
 5174              	.LASF1:
 5175 0361 756E7369 		.ascii	"unsigned char\000"
 5175      676E6564 
 5175      20636861 
 5175      7200
 5176              	.LASF86:
 5177 036f 5F6E6577 		.ascii	"_new\000"
 5177      00
 5178              	.LASF117:
 5179 0374 5F685F65 		.ascii	"_h_errno\000"
 5179      72726E6F 
 5179      00
 5180              	.LASF2:
 5181 037d 73686F72 		.ascii	"short int\000"
 5181      7420696E 
 5181      7400
 5182              	.LASF39:
 5183 0387 5F5F746D 		.ascii	"__tm_yday\000"
 5183      5F796461 
 5183      7900
 5184              	.LASF49:
ARM GAS  /tmp/ccFquxZA.s 			page 95


 5185 0391 5F5F7362 		.ascii	"__sbuf\000"
 5185      756600
 5186              	.LASF94:
 5187 0398 5F696F62 		.ascii	"_iobs\000"
 5187      7300
 5188              	.LASF91:
 5189 039e 5F5F4649 		.ascii	"__FILE\000"
 5189      4C4500
 5190              	.LASF22:
 5191 03a5 5F6D6273 		.ascii	"_mbstate_t\000"
 5191      74617465 
 5191      5F7400
 5192              	.LASF52:
 5193 03b0 5F5F7346 		.ascii	"__sFILE\000"
 5193      494C4500 
 5194              	.LASF67:
 5195 03b8 5F6D6273 		.ascii	"_mbstate\000"
 5195      74617465 
 5195      00
 5196              	.LASF104:
 5197 03c1 5F72616E 		.ascii	"_rand_next\000"
 5197      645F6E65 
 5197      787400
 5198              	.LASF145:
 5199 03cc 626E3235 		.ascii	"bn256_sub\000"
 5199      365F7375 
 5199      6200
 5200              	.LASF106:
 5201 03d6 5F6D626C 		.ascii	"_mblen_state\000"
 5201      656E5F73 
 5201      74617465 
 5201      00
 5202              	.LASF74:
 5203 03e3 5F696E63 		.ascii	"_inc\000"
 5203      00
 5204              	.LASF47:
 5205 03e8 5F696E64 		.ascii	"_ind\000"
 5205      00
 5206              	.LASF77:
 5207 03ed 5F6C6F63 		.ascii	"_locale\000"
 5207      616C6500 
 5208              	.LASF79:
 5209 03f5 5F5F636C 		.ascii	"__cleanup\000"
 5209      65616E75 
 5209      7000
 5210              	.LASF76:
 5211 03ff 5F756E73 		.ascii	"_unspecified_locale_info\000"
 5211      70656369 
 5211      66696564 
 5211      5F6C6F63 
 5211      616C655F 
 5212              	.LASF27:
 5213 0418 5F6D6178 		.ascii	"_maxwds\000"
 5213      77647300 
 5214              	.LASF69:
 5215 0420 5F726565 		.ascii	"_reent\000"
 5215      6E7400
ARM GAS  /tmp/ccFquxZA.s 			page 96


 5216              	.LASF139:
 5217 0427 626E3235 		.ascii	"bn256_random\000"
 5217      365F7261 
 5217      6E646F6D 
 5217      00
 5218              	.LASF96:
 5219 0434 5F736565 		.ascii	"_seed\000"
 5219      6400
 5220              	.LASF20:
 5221 043a 5F5F636F 		.ascii	"__count\000"
 5221      756E7400 
 5222              	.LASF121:
 5223 0442 5F5F6C6F 		.ascii	"__lock\000"
 5223      636B00
 5224              	.LASF12:
 5225 0449 75696E74 		.ascii	"uint32_t\000"
 5225      33325F74 
 5225      00
 5226              	.LASF34:
 5227 0452 5F5F746D 		.ascii	"__tm_hour\000"
 5227      5F686F75 
 5227      7200
 5228              	.LASF59:
 5229 045c 5F736565 		.ascii	"_seek\000"
 5229      6B00
 5230              	.LASF123:
 5231 0462 5F696D70 		.ascii	"_impure_ptr\000"
 5231      7572655F 
 5231      70747200 
 5232              	.LASF16:
 5233 046e 5F66706F 		.ascii	"_fpos_t\000"
 5233      735F7400 
 5234              	.LASF70:
 5235 0476 5F657272 		.ascii	"_errno\000"
 5235      6E6F00
 5236              	.LASF24:
 5237 047d 63686172 		.ascii	"char\000"
 5237      00
 5238              	.LASF132:
 5239 0482 626E3235 		.ascii	"bn256_is_ge\000"
 5239      365F6973 
 5239      5F676500 
 5240              	.LASF33:
 5241 048e 5F5F746D 		.ascii	"__tm_min\000"
 5241      5F6D696E 
 5241      00
 5242              	.LASF44:
 5243 0497 5F666E74 		.ascii	"_fntypes\000"
 5243      79706573 
 5243      00
 5244              	.LASF144:
 5245 04a0 626E3235 		.ascii	"bn256_add_uint\000"
 5245      365F6164 
 5245      645F7569 
 5245      6E7400
 5246              	.LASF141:
 5247 04af 626E3235 		.ascii	"bn256_mul\000"
ARM GAS  /tmp/ccFquxZA.s 			page 97


 5247      365F6D75 
 5247      6C00
 5248              	.LASF97:
 5249 04b9 5F6D756C 		.ascii	"_mult\000"
 5249      7400
 5250              	.LASF26:
 5251 04bf 5F6E6578 		.ascii	"_next\000"
 5251      7400
 5252              	.LASF100:
 5253 04c5 5F737472 		.ascii	"_strtok_last\000"
 5253      746F6B5F 
 5253      6C617374 
 5253      00
 5254              	.LASF21:
 5255 04d2 5F5F7661 		.ascii	"__value\000"
 5255      6C756500 
 5256              	.LASF149:
 5257 04da 474E5520 		.ascii	"GNU C11 7.3.1 20180622 (release) [ARM/embedded-7-br"
 5257      43313120 
 5257      372E332E 
 5257      31203230 
 5257      31383036 
 5258 050d 616E6368 		.ascii	"anch revision 261907] -mcpu=cortex-m3 -mthumb -mno-"
 5258      20726576 
 5258      6973696F 
 5258      6E203236 
 5258      31393037 
 5259 0540 7468756D 		.ascii	"thumb-interwork -g -O3 -Os -ffunction-sections -fda"
 5259      622D696E 
 5259      74657277 
 5259      6F726B20 
 5259      2D67202D 
 5260 0573 74612D73 		.ascii	"ta-sections -fno-common\000"
 5260      65637469 
 5260      6F6E7320 
 5260      2D666E6F 
 5260      2D636F6D 
 5261              	.LASF134:
 5262 058b 626E3235 		.ascii	"bn256_is_zero\000"
 5262      365F6973 
 5262      5F7A6572 
 5262      6F00
 5263              	.LASF98:
 5264 0599 5F616464 		.ascii	"_add\000"
 5264      00
 5265              	.LASF25:
 5266 059e 5F5F554C 		.ascii	"__ULong\000"
 5266      6F6E6700 
 5267              	.LASF111:
 5268 05a6 5F676574 		.ascii	"_getdate_err\000"
 5268      64617465 
 5268      5F657272 
 5268      00
 5269              	.LASF124:
 5270 05b3 5F676C6F 		.ascii	"_global_impure_ptr\000"
 5270      62616C5F 
 5270      696D7075 
ARM GAS  /tmp/ccFquxZA.s 			page 98


 5270      72655F70 
 5270      747200
 5271              	.LASF129:
 5272 05c6 626F7272 		.ascii	"borrow\000"
 5272      6F7700
 5273              	.LASF152:
 5274 05cd 6D656D73 		.ascii	"memset\000"
 5274      657400
 5275              	.LASF99:
 5276 05d4 5F756E75 		.ascii	"_unused_rand\000"
 5276      7365645F 
 5276      72616E64 
 5276      00
 5277              	.LASF29:
 5278 05e1 5F776473 		.ascii	"_wds\000"
 5278      00
 5279              	.LASF38:
 5280 05e6 5F5F746D 		.ascii	"__tm_wday\000"
 5280      5F776461 
 5280      7900
 5281              	.LASF92:
 5282 05f0 5F676C75 		.ascii	"_glue\000"
 5282      6500
 5283              	.LASF127:
 5284 05f6 626E3531 		.ascii	"bn512\000"
 5284      3200
 5285              	.LASF11:
 5286 05fc 75696E74 		.ascii	"uint8_t\000"
 5286      385F7400 
 5287              	.LASF109:
 5288 0604 5F6C3634 		.ascii	"_l64a_buf\000"
 5288      615F6275 
 5288      6600
 5289              	.LASF88:
 5290 060e 5F736967 		.ascii	"_sig_func\000"
 5290      5F66756E 
 5290      6300
 5291              	.LASF62:
 5292 0618 5F6E6275 		.ascii	"_nbuf\000"
 5292      6600
 5293              	.LASF120:
 5294 061e 5F756E75 		.ascii	"_unused\000"
 5294      73656400 
 5295              	.LASF40:
 5296 0626 5F5F746D 		.ascii	"__tm_isdst\000"
 5296      5F697364 
 5296      737400
 5297              	.LASF102:
 5298 0631 5F6C6F63 		.ascii	"_localtime_buf\000"
 5298      616C7469 
 5298      6D655F62 
 5298      756600
 5299              	.LASF60:
 5300 0640 5F636C6F 		.ascii	"_close\000"
 5300      736500
 5301              	.LASF105:
 5302 0647 5F723438 		.ascii	"_r48\000"
ARM GAS  /tmp/ccFquxZA.s 			page 99


 5302      00
 5303              	.LASF107:
 5304 064c 5F6D6274 		.ascii	"_mbtowc_state\000"
 5304      6F77635F 
 5304      73746174 
 5304      6500
 5305              	.LASF82:
 5306 065a 5F703573 		.ascii	"_p5s\000"
 5306      00
 5307              	.LASF125:
 5308 065f 626E3235 		.ascii	"bn256\000"
 5308      3600
 5309              	.LASF143:
 5310 0665 626F7272 		.ascii	"borrow0\000"
 5310      6F773000 
 5311              	.LASF35:
 5312 066d 5F5F746D 		.ascii	"__tm_mday\000"
 5312      5F6D6461 
 5312      7900
 5313              		.ident	"GCC: (GNU Tools for Arm Embedded Processors 7-2018-q3-update) 7.3.1 20180622 (release) [AR
ARM GAS  /tmp/ccFquxZA.s 			page 100


DEFINED SYMBOLS
                            *ABS*:0000000000000000 bn.c
     /tmp/ccFquxZA.s:16     .text.bn256_add:0000000000000000 $t
     /tmp/ccFquxZA.s:23     .text.bn256_add:0000000000000000 bn256_add
     /tmp/ccFquxZA.s:79     .text.bn256_sub:0000000000000000 $t
     /tmp/ccFquxZA.s:86     .text.bn256_sub:0000000000000000 bn256_sub
     /tmp/ccFquxZA.s:148    .text.bn256_add_uint:0000000000000000 $t
     /tmp/ccFquxZA.s:155    .text.bn256_add_uint:0000000000000000 bn256_add_uint
     /tmp/ccFquxZA.s:199    .text.bn256_sub_uint:0000000000000000 $t
     /tmp/ccFquxZA.s:206    .text.bn256_sub_uint:0000000000000000 bn256_sub_uint
     /tmp/ccFquxZA.s:251    .text.bn256_mul:0000000000000000 $t
     /tmp/ccFquxZA.s:258    .text.bn256_mul:0000000000000000 bn256_mul
     /tmp/ccFquxZA.s:755    .text.bn256_sqr:0000000000000000 $t
     /tmp/ccFquxZA.s:762    .text.bn256_sqr:0000000000000000 bn256_sqr
     /tmp/ccFquxZA.s:891    .text.bn256_shift:0000000000000000 $t
     /tmp/ccFquxZA.s:898    .text.bn256_shift:0000000000000000 bn256_shift
     /tmp/ccFquxZA.s:989    .text.bn256_is_zero:0000000000000000 $t
     /tmp/ccFquxZA.s:996    .text.bn256_is_zero:0000000000000000 bn256_is_zero
     /tmp/ccFquxZA.s:1025   .text.bn256_is_even:0000000000000000 $t
     /tmp/ccFquxZA.s:1032   .text.bn256_is_even:0000000000000000 bn256_is_even
     /tmp/ccFquxZA.s:1051   .text.bn256_is_ge:0000000000000000 $t
     /tmp/ccFquxZA.s:1058   .text.bn256_is_ge:0000000000000000 bn256_is_ge
     /tmp/ccFquxZA.s:1090   .text.bn256_cmp:0000000000000000 $t
     /tmp/ccFquxZA.s:1097   .text.bn256_cmp:0000000000000000 bn256_cmp
     /tmp/ccFquxZA.s:1151   .text.bn256_random:0000000000000000 $t
     /tmp/ccFquxZA.s:1158   .text.bn256_random:0000000000000000 bn256_random

UNDEFINED SYMBOLS
memset
random_bytes_get
random_bytes_free
