ARM GAS  /tmp/ccFquxZA.s 			page 1


   1              		.cpu cortex-m3
   2              		.eabi_attribute 20, 1
   3              		.eabi_attribute 21, 1
   4              		.eabi_attribute 23, 3
   5              		.eabi_attribute 24, 1
   6              		.eabi_attribute 25, 1
   7              		.eabi_attribute 26, 1
   8              		.eabi_attribute 30, 4
   9              		.eabi_attribute 34, 1
  10              		.eabi_attribute 18, 4
  11              		.file	"bn.c"
  12              		.text
  13              	.Ltext0:
  14              		.cfi_sections	.debug_frame
  15              		.section	.text.bn256_add,"ax",%progbits
  16              		.align	1
  17              		.global	bn256_add
  18              		.syntax unified
  19              		.thumb
  20              		.thumb_func
  21              		.fpu softvfp
  22              		.type	bn256_add, %function
  23              	bn256_add:
  24              	.LFB0:
  25              		.file 1 "bn.c"
  26              		.loc 1 33 0
  27              		.cfi_startproc
  28              		@ args = 0, pretend = 0, frame = 0
  29              		@ frame_needed = 0, uses_anonymous_args = 0
  30              	.LVL0:
  31 0000 F0B5     		push	{r4, r5, r6, r7, lr}
  32              		.cfi_def_cfa_offset 20
  33              		.cfi_offset 4, -20
  34              		.cfi_offset 5, -16
  35              		.cfi_offset 6, -12
  36              		.cfi_offset 7, -8
  37              		.cfi_offset 14, -4
  38              		.loc 1 33 0
  39 0002 0746     		mov	r7, r0
  40              	.LVL1:
  41              		.loc 1 36 0
  42 0004 0020     		movs	r0, #0
  43              	.LVL2:
  44              		.loc 1 44 0
  45 0006 0446     		mov	r4, r0
  46              	.LVL3:
  47              	.L6:
  48 0008 51F82430 		ldr	r3, [r1, r4, lsl #2]
  49              		.loc 1 46 0 discriminator 3
  50 000c 52F82450 		ldr	r5, [r2, r4, lsl #2]
  51              	.LVL4:
  52 0010 1B18     		adds	r3, r3, r0
  53 0012 4FF00006 		mov	r6, #0
  54 0016 28BF     		it	cs
  55 0018 0126     		movcs	r6, #1
  56              	.LVL5:
  57 001a 5B19     		adds	r3, r3, r5
ARM GAS  /tmp/ccFquxZA.s 			page 2


  58              		.loc 1 49 0 discriminator 3
  59 001c 47F82430 		str	r3, [r7, r4, lsl #2]
  60              		.loc 1 50 0 discriminator 3
  61 0020 2CBF     		ite	cs
  62 0022 0123     		movcs	r3, #1
  63 0024 0023     		movcc	r3, #0
  64              		.loc 1 44 0 discriminator 3
  65 0026 0134     		adds	r4, r4, #1
  66              	.LVL6:
  67 0028 082C     		cmp	r4, #8
  68              		.loc 1 50 0 discriminator 3
  69 002a 03EB0600 		add	r0, r3, r6
  70              	.LVL7:
  71              		.loc 1 44 0 discriminator 3
  72 002e EBD1     		bne	.L6
  73              		.loc 1 57 0
  74 0030 F0BD     		pop	{r4, r5, r6, r7, pc}
  75              		.cfi_endproc
  76              	.LFE0:
  77              		.size	bn256_add, .-bn256_add
  78              		.section	.text.bn256_sub,"ax",%progbits
  79              		.align	1
  80              		.global	bn256_sub
  81              		.syntax unified
  82              		.thumb
  83              		.thumb_func
  84              		.fpu softvfp
  85              		.type	bn256_sub, %function
  86              	bn256_sub:
  87              	.LFB1:
  88              		.loc 1 61 0
  89              		.cfi_startproc
  90              		@ args = 0, pretend = 0, frame = 0
  91              		@ frame_needed = 0, uses_anonymous_args = 0
  92              	.LVL8:
  93 0000 F0B5     		push	{r4, r5, r6, r7, lr}
  94              		.cfi_def_cfa_offset 20
  95              		.cfi_offset 4, -20
  96              		.cfi_offset 5, -16
  97              		.cfi_offset 6, -12
  98              		.cfi_offset 7, -8
  99              		.cfi_offset 14, -4
 100              		.loc 1 61 0
 101 0002 0746     		mov	r7, r0
 102              	.LVL9:
 103              		.loc 1 64 0
 104 0004 0020     		movs	r0, #0
 105              	.LVL10:
 106              		.loc 1 72 0
 107 0006 0346     		mov	r3, r0
 108              	.LVL11:
 109              	.L9:
 110              	.LBB2:
 111              		.loc 1 74 0 discriminator 3
 112 0008 51F82360 		ldr	r6, [r1, r3, lsl #2]
 113              	.LVL12:
 114              		.loc 1 76 0 discriminator 3
ARM GAS  /tmp/ccFquxZA.s 			page 3


 115 000c 52F82350 		ldr	r5, [r2, r3, lsl #2]
 116              	.LVL13:
 117              		.loc 1 77 0 discriminator 3
 118 0010 341A     		subs	r4, r6, r0
 119              		.loc 1 78 0 discriminator 3
 120 0012 AC42     		cmp	r4, r5
 121 0014 2CBF     		ite	cs
 122 0016 4FF0000C 		movcs	ip, #0
 123 001a 4FF0010C 		movcc	ip, #1
 124              		.loc 1 79 0 discriminator 3
 125 001e 641B     		subs	r4, r4, r5
 126 0020 47F82340 		str	r4, [r7, r3, lsl #2]
 127              	.LBE2:
 128              		.loc 1 72 0 discriminator 3
 129 0024 0133     		adds	r3, r3, #1
 130              	.LVL14:
 131              	.LBB3:
 132              		.loc 1 78 0 discriminator 3
 133 0026 8642     		cmp	r6, r0
 134 0028 2CBF     		ite	cs
 135 002a 6046     		movcs	r0, ip
 136 002c 0CF10100 		addcc	r0, ip, #1
 137              	.LVL15:
 138              	.LBE3:
 139              		.loc 1 72 0 discriminator 3
 140 0030 082B     		cmp	r3, #8
 141 0032 E9D1     		bne	.L9
 142              		.loc 1 86 0
 143 0034 F0BD     		pop	{r4, r5, r6, r7, pc}
 144              		.cfi_endproc
 145              	.LFE1:
 146              		.size	bn256_sub, .-bn256_sub
 147              		.section	.text.bn256_add_uint,"ax",%progbits
 148              		.align	1
 149              		.global	bn256_add_uint
 150              		.syntax unified
 151              		.thumb
 152              		.thumb_func
 153              		.fpu softvfp
 154              		.type	bn256_add_uint, %function
 155              	bn256_add_uint:
 156              	.LFB2:
 157              		.loc 1 90 0
 158              		.cfi_startproc
 159              		@ args = 0, pretend = 0, frame = 0
 160              		@ frame_needed = 0, uses_anonymous_args = 0
 161              	.LVL16:
 162 0000 70B5     		push	{r4, r5, r6, lr}
 163              		.cfi_def_cfa_offset 16
 164              		.cfi_offset 4, -16
 165              		.cfi_offset 5, -12
 166              		.cfi_offset 6, -8
 167              		.cfi_offset 14, -4
 168              		.loc 1 96 0
 169 0002 0546     		mov	r5, r0
 170              	.LVL17:
 171 0004 0439     		subs	r1, r1, #4
ARM GAS  /tmp/ccFquxZA.s 			page 4


 172              	.LVL18:
 173 0006 00F12006 		add	r6, r0, #32
 174              	.LVL19:
 175              	.L14:
 176 000a 51F8044F 		ldr	r4, [r1, #4]!
 177              	.LVL20:
 178 000e 0023     		movs	r3, #0
 179 0010 A418     		adds	r4, r4, r2
 180 0012 28BF     		it	cs
 181 0014 0123     		movcs	r3, #1
 182              		.loc 1 101 0 discriminator 3
 183 0016 45F8044B 		str	r4, [r5], #4
 184              	.LVL21:
 185              		.loc 1 99 0 discriminator 3
 186 001a B542     		cmp	r5, r6
 187              		.loc 1 102 0 discriminator 3
 188 001c 1846     		mov	r0, r3
 189 001e 1A46     		mov	r2, r3
 190              	.LVL22:
 191              		.loc 1 99 0 discriminator 3
 192 0020 F3D1     		bne	.L14
 193              		.loc 1 108 0
 194 0022 70BD     		pop	{r4, r5, r6, pc}
 195              		.cfi_endproc
 196              	.LFE2:
 197              		.size	bn256_add_uint, .-bn256_add_uint
 198              		.section	.text.bn256_sub_uint,"ax",%progbits
 199              		.align	1
 200              		.global	bn256_sub_uint
 201              		.syntax unified
 202              		.thumb
 203              		.thumb_func
 204              		.fpu softvfp
 205              		.type	bn256_sub_uint, %function
 206              	bn256_sub_uint:
 207              	.LFB3:
 208              		.loc 1 112 0
 209              		.cfi_startproc
 210              		@ args = 0, pretend = 0, frame = 0
 211              		@ frame_needed = 0, uses_anonymous_args = 0
 212              	.LVL23:
 213 0000 30B5     		push	{r4, r5, lr}
 214              		.cfi_def_cfa_offset 12
 215              		.cfi_offset 4, -12
 216              		.cfi_offset 5, -8
 217              		.cfi_offset 14, -4
 218 0002 0439     		subs	r1, r1, #4
 219              	.LVL24:
 220 0004 00F12004 		add	r4, r0, #32
 221              	.LVL25:
 222              	.L17:
 223              	.LBB4:
 224              		.loc 1 123 0 discriminator 3
 225 0008 51F8043F 		ldr	r3, [r1, #4]!
 226              	.LVL26:
 227              		.loc 1 125 0 discriminator 3
 228 000c 9D1A     		subs	r5, r3, r2
ARM GAS  /tmp/ccFquxZA.s 			page 5


 229              		.loc 1 123 0 discriminator 3
 230 000e 9342     		cmp	r3, r2
 231              		.loc 1 125 0 discriminator 3
 232 0010 40F8045B 		str	r5, [r0], #4
 233              	.LVL27:
 234              		.loc 1 123 0 discriminator 3
 235 0014 2CBF     		ite	cs
 236 0016 0022     		movcs	r2, #0
 237              	.LVL28:
 238 0018 0122     		movcc	r2, #1
 239              	.LBE4:
 240              		.loc 1 121 0 discriminator 3
 241 001a A042     		cmp	r0, r4
 242 001c F4D1     		bne	.L17
 243              		.loc 1 132 0
 244 001e 1046     		mov	r0, r2
 245              	.LVL29:
 246 0020 30BD     		pop	{r4, r5, pc}
 247              		.cfi_endproc
 248              	.LFE3:
 249              		.size	bn256_sub_uint, .-bn256_sub_uint
 250              		.section	.text.bn256_mul,"ax",%progbits
 251              		.align	1
 252              		.global	bn256_mul
 253              		.syntax unified
 254              		.thumb
 255              		.thumb_func
 256              		.fpu softvfp
 257              		.type	bn256_mul, %function
 258              	bn256_mul:
 259              	.LFB4:
 260              		.loc 1 144 0
 261              		.cfi_startproc
 262              		@ args = 0, pretend = 0, frame = 8
 263              		@ frame_needed = 0, uses_anonymous_args = 0
 264              	.LVL30:
 265 0000 2DE9F74F 		push	{r0, r1, r2, r4, r5, r6, r7, r8, r9, r10, fp, lr}
 266              		.cfi_def_cfa_offset 48
 267              		.cfi_offset 4, -36
 268              		.cfi_offset 5, -32
 269              		.cfi_offset 6, -28
 270              		.cfi_offset 7, -24
 271              		.cfi_offset 8, -20
 272              		.cfi_offset 9, -16
 273              		.cfi_offset 10, -12
 274              		.cfi_offset 11, -8
 275              		.cfi_offset 14, -4
 276              		.loc 1 144 0
 277 0004 8B46     		mov	fp, r1
 278 0006 0192     		str	r2, [sp, #4]
 279              		.loc 1 152 0
 280 0008 0021     		movs	r1, #0
 281              	.LVL31:
 282 000a 4022     		movs	r2, #64
 283              	.LVL32:
 284              		.loc 1 144 0
 285 000c 0090     		str	r0, [sp]
ARM GAS  /tmp/ccFquxZA.s 			page 6


 286              		.loc 1 152 0
 287 000e FFF7FEFF 		bl	memset
 288              	.LVL33:
 289              		.loc 1 154 0
 290 0012 DDE90023 		ldrd	r2, r3, [sp]
 291 0016 1868     		ldr	r0, [r3]
 292 0018 5946     		mov	r1, fp
 293 001a 8446     		mov	ip, r0
 294              		.syntax unified
 295              	@ 154 "bn.c" 1
 296 001c B1E80007 		ldmia  r1!, { r8, r9, r10 } 
 297 0020 92E8E000 		ldmia  r2, { r5, r6, r7 }   
 298 0024 ACFB0848 		umull  r4, r8, ip, r8       
 299 0028 2D19     		adds   r5, r5, r4             
 300 002a 56EB0806 		adcs   r6, r6, r8             
 301 002e ACFB0948 		umull  r4, r8, ip, r9       
 302 0032 48F10000 		adc    r0, r8, #0           
 303 0036 3619     		adds   r6, r6, r4             
 304 0038 4741     		adcs   r7, r7, r0           
 305 003a ACFB0A48 		umull  r4, r8, ip, r10      
 306 003e 48F10000 		adc    r0, r8, #0           
 307 0042 3F19     		adds   r7, r7, r4             
 308 0044 E0C2     		stmia  r2!, { r5, r6, r7 }  
 309 0046 B1E80007 		ldmia  r1!, { r8, r9, r10 } 
 310 004a 92E8E000 		ldmia  r2, { r5, r6, r7 }   
 311 004e 4541     		adcs   r5, r5, r0           
 312 0050 ACFB0848 		umull  r4, r8, ip, r8       
 313 0054 48F10000 		adc    r0, r8, #0           
 314 0058 2D19     		adds   r5, r5, r4             
 315 005a 4641     		adcs   r6, r6, r0           
 316 005c ACFB0948 		umull  r4, r8, ip, r9       
 317 0060 48F10000 		adc    r0, r8, #0           
 318 0064 3619     		adds   r6, r6, r4             
 319 0066 4741     		adcs   r7, r7, r0           
 320 0068 ACFB0A48 		umull  r4, r8, ip, r10      
 321 006c 48F10000 		adc    r0, r8, #0           
 322 0070 3F19     		adds   r7, r7, r4             
 323 0072 E0C2     		stmia  r2!, { r5, r6, r7 }  
 324 0074 B1E80003 		ldmia  r1!, { r8, r9 }      
 325 0078 92E86000 		ldmia  r2, { r5, r6 }       
 326 007c 4541     		adcs   r5, r5, r0           
 327 007e ACFB0848 		umull  r4, r8, ip, r8       
 328 0082 48F10000 		adc    r0, r8, #0           
 329 0086 2D19     		adds   r5, r5, r4             
 330 0088 4641     		adcs   r6, r6, r0           
 331 008a ACFB0948 		umull  r4, r8, ip, r9       
 332 008e 48F10000 		adc    r0, r8, #0           
 333 0092 3619     		adds   r6, r6, r4             
 334 0094 40F10000 		adc    r0, r0, #0         
 335 0098 60C2     		stmia  r2!, { r5, r6 }
 336              	@ 0 "" 2
 337              	.LVL34:
 338              		.thumb
 339              		.syntax unified
 340 009a 1060     		str	r0, [r2]
 341              	.LVL35:
 342              		.loc 1 155 0
ARM GAS  /tmp/ccFquxZA.s 			page 7


 343 009c 5968     		ldr	r1, [r3, #4]
 344 009e 009A     		ldr	r2, [sp]
 345              	.LVL36:
 346 00a0 5846     		mov	r0, fp
 347              	.LVL37:
 348 00a2 8C46     		mov	ip, r1
 349              	.LVL38:
 350 00a4 0432     		adds	r2, r2, #4
 351              	.LVL39:
 352              		.syntax unified
 353              	@ 155 "bn.c" 1
 354 00a6 B0E80007 		ldmia  r0!, { r8, r9, r10 } 
 355 00aa 92E8E000 		ldmia  r2, { r5, r6, r7 }   
 356 00ae ACFB0848 		umull  r4, r8, ip, r8       
 357 00b2 2D19     		adds   r5, r5, r4             
 358 00b4 56EB0806 		adcs   r6, r6, r8             
 359 00b8 ACFB0948 		umull  r4, r8, ip, r9       
 360 00bc 48F10001 		adc    r1, r8, #0           
 361 00c0 3619     		adds   r6, r6, r4             
 362 00c2 4F41     		adcs   r7, r7, r1           
 363 00c4 ACFB0A48 		umull  r4, r8, ip, r10      
 364 00c8 48F10001 		adc    r1, r8, #0           
 365 00cc 3F19     		adds   r7, r7, r4             
 366 00ce E0C2     		stmia  r2!, { r5, r6, r7 }  
 367 00d0 B0E80007 		ldmia  r0!, { r8, r9, r10 } 
 368 00d4 92E8E000 		ldmia  r2, { r5, r6, r7 }   
 369 00d8 4D41     		adcs   r5, r5, r1           
 370 00da ACFB0848 		umull  r4, r8, ip, r8       
 371 00de 48F10001 		adc    r1, r8, #0           
 372 00e2 2D19     		adds   r5, r5, r4             
 373 00e4 4E41     		adcs   r6, r6, r1           
 374 00e6 ACFB0948 		umull  r4, r8, ip, r9       
 375 00ea 48F10001 		adc    r1, r8, #0           
 376 00ee 3619     		adds   r6, r6, r4             
 377 00f0 4F41     		adcs   r7, r7, r1           
 378 00f2 ACFB0A48 		umull  r4, r8, ip, r10      
 379 00f6 48F10001 		adc    r1, r8, #0           
 380 00fa 3F19     		adds   r7, r7, r4             
 381 00fc E0C2     		stmia  r2!, { r5, r6, r7 }  
 382 00fe B0E80003 		ldmia  r0!, { r8, r9 }      
 383 0102 92E86000 		ldmia  r2, { r5, r6 }       
 384 0106 4D41     		adcs   r5, r5, r1           
 385 0108 ACFB0848 		umull  r4, r8, ip, r8       
 386 010c 48F10001 		adc    r1, r8, #0           
 387 0110 2D19     		adds   r5, r5, r4             
 388 0112 4E41     		adcs   r6, r6, r1           
 389 0114 ACFB0948 		umull  r4, r8, ip, r9       
 390 0118 48F10001 		adc    r1, r8, #0           
 391 011c 3619     		adds   r6, r6, r4             
 392 011e 41F10001 		adc    r1, r1, #0         
 393 0122 60C2     		stmia  r2!, { r5, r6 }
 394              	@ 0 "" 2
 395              	.LVL40:
 396              		.thumb
 397              		.syntax unified
 398 0124 1160     		str	r1, [r2]
 399              	.LVL41:
ARM GAS  /tmp/ccFquxZA.s 			page 8


 400              		.loc 1 156 0
 401 0126 9968     		ldr	r1, [r3, #8]
 402              	.LVL42:
 403 0128 009A     		ldr	r2, [sp]
 404              	.LVL43:
 405 012a 5846     		mov	r0, fp
 406 012c 8C46     		mov	ip, r1
 407              	.LVL44:
 408 012e 0832     		adds	r2, r2, #8
 409              	.LVL45:
 410              		.syntax unified
 411              	@ 156 "bn.c" 1
 412 0130 B0E80007 		ldmia  r0!, { r8, r9, r10 } 
 413 0134 92E8E000 		ldmia  r2, { r5, r6, r7 }   
 414 0138 ACFB0848 		umull  r4, r8, ip, r8       
 415 013c 2D19     		adds   r5, r5, r4             
 416 013e 56EB0806 		adcs   r6, r6, r8             
 417 0142 ACFB0948 		umull  r4, r8, ip, r9       
 418 0146 48F10001 		adc    r1, r8, #0           
 419 014a 3619     		adds   r6, r6, r4             
 420 014c 4F41     		adcs   r7, r7, r1           
 421 014e ACFB0A48 		umull  r4, r8, ip, r10      
 422 0152 48F10001 		adc    r1, r8, #0           
 423 0156 3F19     		adds   r7, r7, r4             
 424 0158 E0C2     		stmia  r2!, { r5, r6, r7 }  
 425 015a B0E80007 		ldmia  r0!, { r8, r9, r10 } 
 426 015e 92E8E000 		ldmia  r2, { r5, r6, r7 }   
 427 0162 4D41     		adcs   r5, r5, r1           
 428 0164 ACFB0848 		umull  r4, r8, ip, r8       
 429 0168 48F10001 		adc    r1, r8, #0           
 430 016c 2D19     		adds   r5, r5, r4             
 431 016e 4E41     		adcs   r6, r6, r1           
 432 0170 ACFB0948 		umull  r4, r8, ip, r9       
 433 0174 48F10001 		adc    r1, r8, #0           
 434 0178 3619     		adds   r6, r6, r4             
 435 017a 4F41     		adcs   r7, r7, r1           
 436 017c ACFB0A48 		umull  r4, r8, ip, r10      
 437 0180 48F10001 		adc    r1, r8, #0           
 438 0184 3F19     		adds   r7, r7, r4             
 439 0186 E0C2     		stmia  r2!, { r5, r6, r7 }  
 440 0188 B0E80003 		ldmia  r0!, { r8, r9 }      
 441 018c 92E86000 		ldmia  r2, { r5, r6 }       
 442 0190 4D41     		adcs   r5, r5, r1           
 443 0192 ACFB0848 		umull  r4, r8, ip, r8       
 444 0196 48F10001 		adc    r1, r8, #0           
 445 019a 2D19     		adds   r5, r5, r4             
 446 019c 4E41     		adcs   r6, r6, r1           
 447 019e ACFB0948 		umull  r4, r8, ip, r9       
 448 01a2 48F10001 		adc    r1, r8, #0           
 449 01a6 3619     		adds   r6, r6, r4             
 450 01a8 41F10001 		adc    r1, r1, #0         
 451 01ac 60C2     		stmia  r2!, { r5, r6 }
 452              	@ 0 "" 2
 453              	.LVL46:
 454              		.thumb
 455              		.syntax unified
 456 01ae 1160     		str	r1, [r2]
ARM GAS  /tmp/ccFquxZA.s 			page 9


 457              	.LVL47:
 458              		.loc 1 157 0
 459 01b0 D968     		ldr	r1, [r3, #12]
 460              	.LVL48:
 461 01b2 009A     		ldr	r2, [sp]
 462              	.LVL49:
 463 01b4 5846     		mov	r0, fp
 464 01b6 8C46     		mov	ip, r1
 465              	.LVL50:
 466 01b8 0C32     		adds	r2, r2, #12
 467              	.LVL51:
 468              		.syntax unified
 469              	@ 157 "bn.c" 1
 470 01ba B0E80007 		ldmia  r0!, { r8, r9, r10 } 
 471 01be 92E8E000 		ldmia  r2, { r5, r6, r7 }   
 472 01c2 ACFB0848 		umull  r4, r8, ip, r8       
 473 01c6 2D19     		adds   r5, r5, r4             
 474 01c8 56EB0806 		adcs   r6, r6, r8             
 475 01cc ACFB0948 		umull  r4, r8, ip, r9       
 476 01d0 48F10001 		adc    r1, r8, #0           
 477 01d4 3619     		adds   r6, r6, r4             
 478 01d6 4F41     		adcs   r7, r7, r1           
 479 01d8 ACFB0A48 		umull  r4, r8, ip, r10      
 480 01dc 48F10001 		adc    r1, r8, #0           
 481 01e0 3F19     		adds   r7, r7, r4             
 482 01e2 E0C2     		stmia  r2!, { r5, r6, r7 }  
 483 01e4 B0E80007 		ldmia  r0!, { r8, r9, r10 } 
 484 01e8 92E8E000 		ldmia  r2, { r5, r6, r7 }   
 485 01ec 4D41     		adcs   r5, r5, r1           
 486 01ee ACFB0848 		umull  r4, r8, ip, r8       
 487 01f2 48F10001 		adc    r1, r8, #0           
 488 01f6 2D19     		adds   r5, r5, r4             
 489 01f8 4E41     		adcs   r6, r6, r1           
 490 01fa ACFB0948 		umull  r4, r8, ip, r9       
 491 01fe 48F10001 		adc    r1, r8, #0           
 492 0202 3619     		adds   r6, r6, r4             
 493 0204 4F41     		adcs   r7, r7, r1           
 494 0206 ACFB0A48 		umull  r4, r8, ip, r10      
 495 020a 48F10001 		adc    r1, r8, #0           
 496 020e 3F19     		adds   r7, r7, r4             
 497 0210 E0C2     		stmia  r2!, { r5, r6, r7 }  
 498 0212 B0E80003 		ldmia  r0!, { r8, r9 }      
 499 0216 92E86000 		ldmia  r2, { r5, r6 }       
 500 021a 4D41     		adcs   r5, r5, r1           
 501 021c ACFB0848 		umull  r4, r8, ip, r8       
 502 0220 48F10001 		adc    r1, r8, #0           
 503 0224 2D19     		adds   r5, r5, r4             
 504 0226 4E41     		adcs   r6, r6, r1           
 505 0228 ACFB0948 		umull  r4, r8, ip, r9       
 506 022c 48F10001 		adc    r1, r8, #0           
 507 0230 3619     		adds   r6, r6, r4             
 508 0232 41F10001 		adc    r1, r1, #0         
 509 0236 60C2     		stmia  r2!, { r5, r6 }
 510              	@ 0 "" 2
 511              	.LVL52:
 512              		.thumb
 513              		.syntax unified
ARM GAS  /tmp/ccFquxZA.s 			page 10


 514 0238 1160     		str	r1, [r2]
 515              	.LVL53:
 516              		.loc 1 158 0
 517 023a 1969     		ldr	r1, [r3, #16]
 518              	.LVL54:
 519 023c 009A     		ldr	r2, [sp]
 520              	.LVL55:
 521 023e 5846     		mov	r0, fp
 522 0240 8C46     		mov	ip, r1
 523              	.LVL56:
 524 0242 1032     		adds	r2, r2, #16
 525              	.LVL57:
 526              		.syntax unified
 527              	@ 158 "bn.c" 1
 528 0244 B0E80007 		ldmia  r0!, { r8, r9, r10 } 
 529 0248 92E8E000 		ldmia  r2, { r5, r6, r7 }   
 530 024c ACFB0848 		umull  r4, r8, ip, r8       
 531 0250 2D19     		adds   r5, r5, r4             
 532 0252 56EB0806 		adcs   r6, r6, r8             
 533 0256 ACFB0948 		umull  r4, r8, ip, r9       
 534 025a 48F10001 		adc    r1, r8, #0           
 535 025e 3619     		adds   r6, r6, r4             
 536 0260 4F41     		adcs   r7, r7, r1           
 537 0262 ACFB0A48 		umull  r4, r8, ip, r10      
 538 0266 48F10001 		adc    r1, r8, #0           
 539 026a 3F19     		adds   r7, r7, r4             
 540 026c E0C2     		stmia  r2!, { r5, r6, r7 }  
 541 026e B0E80007 		ldmia  r0!, { r8, r9, r10 } 
 542 0272 92E8E000 		ldmia  r2, { r5, r6, r7 }   
 543 0276 4D41     		adcs   r5, r5, r1           
 544 0278 ACFB0848 		umull  r4, r8, ip, r8       
 545 027c 48F10001 		adc    r1, r8, #0           
 546 0280 2D19     		adds   r5, r5, r4             
 547 0282 4E41     		adcs   r6, r6, r1           
 548 0284 ACFB0948 		umull  r4, r8, ip, r9       
 549 0288 48F10001 		adc    r1, r8, #0           
 550 028c 3619     		adds   r6, r6, r4             
 551 028e 4F41     		adcs   r7, r7, r1           
 552 0290 ACFB0A48 		umull  r4, r8, ip, r10      
 553 0294 48F10001 		adc    r1, r8, #0           
 554 0298 3F19     		adds   r7, r7, r4             
 555 029a E0C2     		stmia  r2!, { r5, r6, r7 }  
 556 029c B0E80003 		ldmia  r0!, { r8, r9 }      
 557 02a0 92E86000 		ldmia  r2, { r5, r6 }       
 558 02a4 4D41     		adcs   r5, r5, r1           
 559 02a6 ACFB0848 		umull  r4, r8, ip, r8       
 560 02aa 48F10001 		adc    r1, r8, #0           
 561 02ae 2D19     		adds   r5, r5, r4             
 562 02b0 4E41     		adcs   r6, r6, r1           
 563 02b2 ACFB0948 		umull  r4, r8, ip, r9       
 564 02b6 48F10001 		adc    r1, r8, #0           
 565 02ba 3619     		adds   r6, r6, r4             
 566 02bc 41F10001 		adc    r1, r1, #0         
 567 02c0 60C2     		stmia  r2!, { r5, r6 }
 568              	@ 0 "" 2
 569              	.LVL58:
 570              		.thumb
ARM GAS  /tmp/ccFquxZA.s 			page 11


 571              		.syntax unified
 572 02c2 1160     		str	r1, [r2]
 573              	.LVL59:
 574              		.loc 1 159 0
 575 02c4 5969     		ldr	r1, [r3, #20]
 576              	.LVL60:
 577 02c6 009A     		ldr	r2, [sp]
 578              	.LVL61:
 579 02c8 5846     		mov	r0, fp
 580 02ca 8C46     		mov	ip, r1
 581              	.LVL62:
 582 02cc 1432     		adds	r2, r2, #20
 583              	.LVL63:
 584              		.syntax unified
 585              	@ 159 "bn.c" 1
 586 02ce B0E80007 		ldmia  r0!, { r8, r9, r10 } 
 587 02d2 92E8E000 		ldmia  r2, { r5, r6, r7 }   
 588 02d6 ACFB0848 		umull  r4, r8, ip, r8       
 589 02da 2D19     		adds   r5, r5, r4             
 590 02dc 56EB0806 		adcs   r6, r6, r8             
 591 02e0 ACFB0948 		umull  r4, r8, ip, r9       
 592 02e4 48F10001 		adc    r1, r8, #0           
 593 02e8 3619     		adds   r6, r6, r4             
 594 02ea 4F41     		adcs   r7, r7, r1           
 595 02ec ACFB0A48 		umull  r4, r8, ip, r10      
 596 02f0 48F10001 		adc    r1, r8, #0           
 597 02f4 3F19     		adds   r7, r7, r4             
 598 02f6 E0C2     		stmia  r2!, { r5, r6, r7 }  
 599 02f8 B0E80007 		ldmia  r0!, { r8, r9, r10 } 
 600 02fc 92E8E000 		ldmia  r2, { r5, r6, r7 }   
 601 0300 4D41     		adcs   r5, r5, r1           
 602 0302 ACFB0848 		umull  r4, r8, ip, r8       
 603 0306 48F10001 		adc    r1, r8, #0           
 604 030a 2D19     		adds   r5, r5, r4             
 605 030c 4E41     		adcs   r6, r6, r1           
 606 030e ACFB0948 		umull  r4, r8, ip, r9       
 607 0312 48F10001 		adc    r1, r8, #0           
 608 0316 3619     		adds   r6, r6, r4             
 609 0318 4F41     		adcs   r7, r7, r1           
 610 031a ACFB0A48 		umull  r4, r8, ip, r10      
 611 031e 48F10001 		adc    r1, r8, #0           
 612 0322 3F19     		adds   r7, r7, r4             
 613 0324 E0C2     		stmia  r2!, { r5, r6, r7 }  
 614 0326 B0E80003 		ldmia  r0!, { r8, r9 }      
 615 032a 92E86000 		ldmia  r2, { r5, r6 }       
 616 032e 4D41     		adcs   r5, r5, r1           
 617 0330 ACFB0848 		umull  r4, r8, ip, r8       
 618 0334 48F10001 		adc    r1, r8, #0           
 619 0338 2D19     		adds   r5, r5, r4             
 620 033a 4E41     		adcs   r6, r6, r1           
 621 033c ACFB0948 		umull  r4, r8, ip, r9       
 622 0340 48F10001 		adc    r1, r8, #0           
 623 0344 3619     		adds   r6, r6, r4             
 624 0346 41F10001 		adc    r1, r1, #0         
 625 034a 60C2     		stmia  r2!, { r5, r6 }
 626              	@ 0 "" 2
 627              	.LVL64:
ARM GAS  /tmp/ccFquxZA.s 			page 12


 628              		.thumb
 629              		.syntax unified
 630 034c 1160     		str	r1, [r2]
 631              	.LVL65:
 632              		.loc 1 160 0
 633 034e 9969     		ldr	r1, [r3, #24]
 634              	.LVL66:
 635 0350 009A     		ldr	r2, [sp]
 636              	.LVL67:
 637 0352 8C46     		mov	ip, r1
 638              	.LVL68:
 639 0354 5846     		mov	r0, fp
 640 0356 1832     		adds	r2, r2, #24
 641              	.LVL69:
 642              		.syntax unified
 643              	@ 160 "bn.c" 1
 644 0358 B0E80007 		ldmia  r0!, { r8, r9, r10 } 
 645 035c 92E8E000 		ldmia  r2, { r5, r6, r7 }   
 646 0360 ACFB0848 		umull  r4, r8, ip, r8       
 647 0364 2D19     		adds   r5, r5, r4             
 648 0366 56EB0806 		adcs   r6, r6, r8             
 649 036a ACFB0948 		umull  r4, r8, ip, r9       
 650 036e 48F10001 		adc    r1, r8, #0           
 651 0372 3619     		adds   r6, r6, r4             
 652 0374 4F41     		adcs   r7, r7, r1           
 653 0376 ACFB0A48 		umull  r4, r8, ip, r10      
 654 037a 48F10001 		adc    r1, r8, #0           
 655 037e 3F19     		adds   r7, r7, r4             
 656 0380 E0C2     		stmia  r2!, { r5, r6, r7 }  
 657 0382 B0E80007 		ldmia  r0!, { r8, r9, r10 } 
 658 0386 92E8E000 		ldmia  r2, { r5, r6, r7 }   
 659 038a 4D41     		adcs   r5, r5, r1           
 660 038c ACFB0848 		umull  r4, r8, ip, r8       
 661 0390 48F10001 		adc    r1, r8, #0           
 662 0394 2D19     		adds   r5, r5, r4             
 663 0396 4E41     		adcs   r6, r6, r1           
 664 0398 ACFB0948 		umull  r4, r8, ip, r9       
 665 039c 48F10001 		adc    r1, r8, #0           
 666 03a0 3619     		adds   r6, r6, r4             
 667 03a2 4F41     		adcs   r7, r7, r1           
 668 03a4 ACFB0A48 		umull  r4, r8, ip, r10      
 669 03a8 48F10001 		adc    r1, r8, #0           
 670 03ac 3F19     		adds   r7, r7, r4             
 671 03ae E0C2     		stmia  r2!, { r5, r6, r7 }  
 672 03b0 B0E80003 		ldmia  r0!, { r8, r9 }      
 673 03b4 92E86000 		ldmia  r2, { r5, r6 }       
 674 03b8 4D41     		adcs   r5, r5, r1           
 675 03ba ACFB0848 		umull  r4, r8, ip, r8       
 676 03be 48F10001 		adc    r1, r8, #0           
 677 03c2 2D19     		adds   r5, r5, r4             
 678 03c4 4E41     		adcs   r6, r6, r1           
 679 03c6 ACFB0948 		umull  r4, r8, ip, r9       
 680 03ca 48F10001 		adc    r1, r8, #0           
 681 03ce 3619     		adds   r6, r6, r4             
 682 03d0 41F10001 		adc    r1, r1, #0         
 683 03d4 60C2     		stmia  r2!, { r5, r6 }
 684              	@ 0 "" 2
ARM GAS  /tmp/ccFquxZA.s 			page 13


 685              	.LVL70:
 686              		.thumb
 687              		.syntax unified
 688 03d6 1160     		str	r1, [r2]
 689              	.LVL71:
 690              		.loc 1 161 0
 691 03d8 009A     		ldr	r2, [sp]
 692              	.LVL72:
 693 03da D969     		ldr	r1, [r3, #28]
 694              	.LVL73:
 695 03dc 1C32     		adds	r2, r2, #28
 696              	.LVL74:
 697 03de 1346     		mov	r3, r2
 698              		.syntax unified
 699              	@ 161 "bn.c" 1
 700 03e0 BBE80007 		ldmia  fp!, { r8, r9, r10 } 
 701 03e4 93E8E000 		ldmia  r3, { r5, r6, r7 }   
 702 03e8 A1FB0848 		umull  r4, r8, r1, r8       
 703 03ec 2D19     		adds   r5, r5, r4             
 704 03ee 56EB0806 		adcs   r6, r6, r8             
 705 03f2 A1FB0948 		umull  r4, r8, r1, r9       
 706 03f6 48F10002 		adc    r2, r8, #0           
 707 03fa 3619     		adds   r6, r6, r4             
 708 03fc 5741     		adcs   r7, r7, r2           
 709 03fe A1FB0A48 		umull  r4, r8, r1, r10      
 710 0402 48F10002 		adc    r2, r8, #0           
 711 0406 3F19     		adds   r7, r7, r4             
 712 0408 E0C3     		stmia  r3!, { r5, r6, r7 }  
 713 040a BBE80007 		ldmia  fp!, { r8, r9, r10 } 
 714 040e 93E8E000 		ldmia  r3, { r5, r6, r7 }   
 715 0412 5541     		adcs   r5, r5, r2           
 716 0414 A1FB0848 		umull  r4, r8, r1, r8       
 717 0418 48F10002 		adc    r2, r8, #0           
 718 041c 2D19     		adds   r5, r5, r4             
 719 041e 5641     		adcs   r6, r6, r2           
 720 0420 A1FB0948 		umull  r4, r8, r1, r9       
 721 0424 48F10002 		adc    r2, r8, #0           
 722 0428 3619     		adds   r6, r6, r4             
 723 042a 5741     		adcs   r7, r7, r2           
 724 042c A1FB0A48 		umull  r4, r8, r1, r10      
 725 0430 48F10002 		adc    r2, r8, #0           
 726 0434 3F19     		adds   r7, r7, r4             
 727 0436 E0C3     		stmia  r3!, { r5, r6, r7 }  
 728 0438 BBE80003 		ldmia  fp!, { r8, r9 }      
 729 043c 93E86000 		ldmia  r3, { r5, r6 }       
 730 0440 5541     		adcs   r5, r5, r2           
 731 0442 A1FB0848 		umull  r4, r8, r1, r8       
 732 0446 48F10002 		adc    r2, r8, #0           
 733 044a 2D19     		adds   r5, r5, r4             
 734 044c 5641     		adcs   r6, r6, r2           
 735 044e A1FB0948 		umull  r4, r8, r1, r9       
 736 0452 48F10002 		adc    r2, r8, #0           
 737 0456 3619     		adds   r6, r6, r4             
 738 0458 42F10002 		adc    r2, r2, #0         
 739 045c 60C3     		stmia  r3!, { r5, r6 }
 740              	@ 0 "" 2
 741              	.LVL75:
ARM GAS  /tmp/ccFquxZA.s 			page 14


 742              		.thumb
 743              		.syntax unified
 744 045e 1A60     		str	r2, [r3]
 745              		.loc 1 211 0
 746 0460 03B0     		add	sp, sp, #12
 747              		.cfi_def_cfa_offset 36
 748              	.LVL76:
 749              		@ sp needed
 750 0462 BDE8F08F 		pop	{r4, r5, r6, r7, r8, r9, r10, fp, pc}
 751              		.cfi_endproc
 752              	.LFE4:
 753              		.size	bn256_mul, .-bn256_mul
 754              		.section	.text.bn256_sqr,"ax",%progbits
 755              		.align	1
 756              		.global	bn256_sqr
 757              		.syntax unified
 758              		.thumb
 759              		.thumb_func
 760              		.fpu softvfp
 761              		.type	bn256_sqr, %function
 762              	bn256_sqr:
 763              	.LFB5:
 764              		.loc 1 215 0
 765              		.cfi_startproc
 766              		@ args = 0, pretend = 0, frame = 8
 767              		@ frame_needed = 0, uses_anonymous_args = 0
 768              	.LVL77:
 769 0000 2DE9F74F 		push	{r0, r1, r2, r4, r5, r6, r7, r8, r9, r10, fp, lr}
 770              		.cfi_def_cfa_offset 48
 771              		.cfi_offset 4, -36
 772              		.cfi_offset 5, -32
 773              		.cfi_offset 6, -28
 774              		.cfi_offset 7, -24
 775              		.cfi_offset 8, -20
 776              		.cfi_offset 9, -16
 777              		.cfi_offset 10, -12
 778              		.cfi_offset 11, -8
 779              		.cfi_offset 14, -4
 780              		.loc 1 215 0
 781 0004 0C46     		mov	r4, r1
 782              		.loc 1 219 0
 783 0006 4022     		movs	r2, #64
 784 0008 0021     		movs	r1, #0
 785              	.LVL78:
 786              		.loc 1 215 0
 787 000a 0190     		str	r0, [sp, #4]
 788              		.loc 1 219 0
 789 000c FFF7FEFF 		bl	memset
 790              	.LVL79:
 791              		.loc 1 220 0
 792 0010 0021     		movs	r1, #0
 793 0012 201F     		subs	r0, r4, #4
 794              	.LBB5:
 795              		.loc 1 285 0
 796 0014 04F11C0E 		add	lr, r4, #28
 797              	.LVL80:
 798              	.L22:
ARM GAS  /tmp/ccFquxZA.s 			page 15


 799 0018 00F10802 		add	r2, r0, #8
 800              	.LVL81:
 801              		.loc 1 227 0
 802 001c 50F8043F 		ldr	r3, [r0, #4]!
 803              	.LVL82:
 804 0020 1C46     		mov	r4, r3
 805 0022 019B     		ldr	r3, [sp, #4]
 806 0024 A246     		mov	r10, r4
 807 0026 03EBC103 		add	r3, r3, r1, lsl #3
 808              	.LVL83:
 809              		.syntax unified
 810              	@ 227 "bn.c" 1
 811 002a 4FF0000B 		mov    fp, #0
 812 002e 1D68     		ldr    r5, [r3]
 813 0030 5C46     		mov    r4, fp
 814 0032 EAFB0A54 		umlal  r5, r4, r10, r10
 815 0036 43F8045B 		str    r5, [r3], #4
 816 003a 7245     		cmp    r2, lr
 817 003c 3BD8     		bhi    0f
 818 003e D946     		mov    r9, fp
 819 0040 25D0     		beq    1f
 820              	2:
 821 0042 B2E88001 		ldmia  r2!, { r7, r8 }
 822 0046 93E86000 		ldmia  r3, { r5, r6 }
 823 004a AAFB077C 		umull  r7, r12, r10, r7
 824 004e 2D19     		adds   r5, r5, r4
 825 0050 4BEB0904 		adc    r4, fp, r9
 826 0054 ED19     		adds   r5, r5, r7
 827 0056 54EB0C04 		adcs   r4, r4, r12
 828 005a 49EB090B 		adc    fp, r9, r9
 829 005e ED19     		adds   r5, r5, r7
 830 0060 54EB0C04 		adcs   r4, r4, r12
 831 0064 4BEB090B 		adc    fp, fp, r9
 832 0068 3619     		adds   r6, r6, r4
 833 006a 4BEB0904 		adc    r4, fp, r9
 834 006e AAFB087C 		umull  r7, r12, r10, r8
 835 0072 F619     		adds   r6, r6, r7
 836 0074 54EB0C04 		adcs   r4, r4, r12
 837 0078 49EB090B 		adc    fp, r9, r9
 838 007c F619     		adds   r6, r6, r7
 839 007e 54EB0C04 		adcs   r4, r4, r12
 840 0082 4BEB090B 		adc    fp, fp, r9
 841 0086 60C3     		stmia  r3!, { r5, r6 }
 842 0088 7245     		cmp    r2, lr
 843 008a DAD3     		bcc    2b
 844 008c 13D1     		bne    0f
 845              	1:
 846 008e 1D68     		ldr    r5, [r3]
 847 0090 52F8046B 		ldr    r6, [r2], #4
 848 0094 2D19     		adds   r5, r5, r4
 849 0096 4BEB0904 		adc    r4, fp, r9
 850 009a AAFB067C 		umull  r7, r12, r10, r6
 851 009e ED19     		adds   r5, r5, r7
 852 00a0 54EB0C04 		adcs   r4, r4, r12
 853 00a4 49EB090B 		adc    fp, r9, r9
 854 00a8 ED19     		adds   r5, r5, r7
 855 00aa 54EB0C04 		adcs   r4, r4, r12
ARM GAS  /tmp/ccFquxZA.s 			page 16


 856 00ae 4BEB090B 		adc    fp, fp, r9
 857 00b2 43F8045B 		str    r5, [r3], #4
 858              	0:
 859 00b6 1D68     		ldr    r5, [r3]
 860 00b8 6419     		adds   r4, r4, r5
 861 00ba 4BF1000B 		adc    fp, fp, #0
 862 00be 43F8044B 		str    r4, [r3], #4
 863              	@ 0 "" 2
 864              	.LVL84:
 865              		.loc 1 289 0
 866              		.thumb
 867              		.syntax unified
 868 00c2 0729     		cmp	r1, #7
 869              	.LBE5:
 870              		.loc 1 220 0
 871 00c4 01F10101 		add	r1, r1, #1
 872              	.LVL85:
 873              	.LBB6:
 874              		.loc 1 290 0
 875 00c8 18BF     		it	ne
 876 00ca C3F800B0 		strne	fp, [r3]
 877              	.LVL86:
 878              	.LBE6:
 879              		.loc 1 220 0
 880 00ce 0829     		cmp	r1, #8
 881 00d0 A2D1     		bne	.L22
 882              		.loc 1 346 0
 883 00d2 03B0     		add	sp, sp, #12
 884              		.cfi_def_cfa_offset 36
 885              		@ sp needed
 886 00d4 BDE8F08F 		pop	{r4, r5, r6, r7, r8, r9, r10, fp, pc}
 887              		.cfi_endproc
 888              	.LFE5:
 889              		.size	bn256_sqr, .-bn256_sqr
 890              		.section	.text.bn256_shift,"ax",%progbits
 891              		.align	1
 892              		.global	bn256_shift
 893              		.syntax unified
 894              		.thumb
 895              		.thumb_func
 896              		.fpu softvfp
 897              		.type	bn256_shift, %function
 898              	bn256_shift:
 899              	.LFB6:
 900              		.loc 1 350 0
 901              		.cfi_startproc
 902              		@ args = 0, pretend = 0, frame = 0
 903              		@ frame_needed = 0, uses_anonymous_args = 0
 904              	.LVL87:
 905              		.loc 1 354 0
 906 0000 002A     		cmp	r2, #0
 907              		.loc 1 350 0
 908 0002 F0B5     		push	{r4, r5, r6, r7, lr}
 909              		.cfi_def_cfa_offset 20
 910              		.cfi_offset 4, -20
 911              		.cfi_offset 5, -16
 912              		.cfi_offset 6, -12
ARM GAS  /tmp/ccFquxZA.s 			page 17


 913              		.cfi_offset 7, -8
 914              		.cfi_offset 14, -4
 915 0004 A1F10404 		sub	r4, r1, #4
 916 0008 01F11C01 		add	r1, r1, #28
 917              	.LVL88:
 918              		.loc 1 354 0
 919 000c 0FDD     		ble	.L28
 920              		.loc 1 352 0
 921 000e 0026     		movs	r6, #0
 922 0010 031F     		subs	r3, r0, #4
 923              		.loc 1 358 0
 924 0012 C2F12007 		rsb	r7, r2, #32
 925              	.LVL89:
 926              	.L29:
 927              		.loc 1 358 0 is_stmt 0 discriminator 3
 928 0016 54F8045F 		ldr	r5, [r4, #4]!
 929 001a 25FA07F0 		lsr	r0, r5, r7
 930              	.LVL90:
 931              		.loc 1 359 0 is_stmt 1 discriminator 3
 932 001e 9540     		lsls	r5, r5, r2
 933 0020 3543     		orrs	r5, r5, r6
 934              		.loc 1 356 0 discriminator 3
 935 0022 8C42     		cmp	r4, r1
 936              		.loc 1 359 0 discriminator 3
 937 0024 43F8045F 		str	r5, [r3, #4]!
 938              	.LVL91:
 939              		.loc 1 358 0 discriminator 3
 940 0028 0646     		mov	r6, r0
 941              		.loc 1 356 0 discriminator 3
 942 002a F4D1     		bne	.L29
 943              	.LVL92:
 944              	.L27:
 945              		.loc 1 376 0
 946 002c F0BD     		pop	{r4, r5, r6, r7, pc}
 947              	.LVL93:
 948              	.L28:
 949              		.loc 1 369 0
 950 002e 0126     		movs	r6, #1
 951              		.loc 1 352 0
 952 0030 0025     		movs	r5, #0
 953              		.loc 1 365 0
 954 0032 C2F1000C 		rsb	ip, r2, #0
 955              	.LVL94:
 956              		.loc 1 369 0
 957 0036 06FA0CF6 		lsl	r6, r6, ip
 958 003a 013E     		subs	r6, r6, #1
 959 003c 00F11C03 		add	r3, r0, #28
 960              		.loc 1 370 0
 961 0040 2032     		adds	r2, r2, #32
 962              	.LVL95:
 963              	.L31:
 964              		.loc 1 369 0 discriminator 3
 965 0042 51F80479 		ldr	r7, [r1], #-4
 966              		.loc 1 370 0 discriminator 3
 967 0046 9540     		lsls	r5, r5, r2
 968              	.LVL96:
 969              		.loc 1 369 0 discriminator 3
ARM GAS  /tmp/ccFquxZA.s 			page 18


 970 0048 07EA0600 		and	r0, r7, r6
 971              	.LVL97:
 972              		.loc 1 370 0 discriminator 3
 973 004c 27FA0CF7 		lsr	r7, r7, ip
 974 0050 3D43     		orrs	r5, r5, r7
 975              		.loc 1 367 0 discriminator 3
 976 0052 A142     		cmp	r1, r4
 977              		.loc 1 370 0 discriminator 3
 978 0054 43F80459 		str	r5, [r3], #-4
 979              	.LVL98:
 980              		.loc 1 369 0 discriminator 3
 981 0058 0546     		mov	r5, r0
 982              		.loc 1 367 0 discriminator 3
 983 005a F2D1     		bne	.L31
 984 005c E6E7     		b	.L27
 985              		.cfi_endproc
 986              	.LFE6:
 987              		.size	bn256_shift, .-bn256_shift
 988              		.section	.text.bn256_is_zero,"ax",%progbits
 989              		.align	1
 990              		.global	bn256_is_zero
 991              		.syntax unified
 992              		.thumb
 993              		.thumb_func
 994              		.fpu softvfp
 995              		.type	bn256_is_zero, %function
 996              	bn256_is_zero:
 997              	.LFB7:
 998              		.loc 1 380 0
 999              		.cfi_startproc
 1000              		@ args = 0, pretend = 0, frame = 0
 1001              		@ frame_needed = 0, uses_anonymous_args = 0
 1002              		@ link register save eliminated.
 1003              	.LVL99:
 1004 0000 021F     		subs	r2, r0, #4
 1005 0002 00F11C03 		add	r3, r0, #28
 1006              		.loc 1 382 0
 1007 0006 0120     		movs	r0, #1
 1008              	.LVL100:
 1009              	.L35:
 1010              		.loc 1 385 0 discriminator 3
 1011 0008 52F8041F 		ldr	r1, [r2, #4]!
 1012 000c 0029     		cmp	r1, #0
 1013 000e 18BF     		it	ne
 1014 0010 0020     		movne	r0, #0
 1015              	.LVL101:
 1016              		.loc 1 384 0 discriminator 3
 1017 0012 9A42     		cmp	r2, r3
 1018 0014 F8D1     		bne	.L35
 1019              		.loc 1 388 0
 1020 0016 7047     		bx	lr
 1021              		.cfi_endproc
 1022              	.LFE7:
 1023              		.size	bn256_is_zero, .-bn256_is_zero
 1024              		.section	.text.bn256_is_even,"ax",%progbits
 1025              		.align	1
 1026              		.global	bn256_is_even
ARM GAS  /tmp/ccFquxZA.s 			page 19


 1027              		.syntax unified
 1028              		.thumb
 1029              		.thumb_func
 1030              		.fpu softvfp
 1031              		.type	bn256_is_even, %function
 1032              	bn256_is_even:
 1033              	.LFB8:
 1034              		.loc 1 392 0
 1035              		.cfi_startproc
 1036              		@ args = 0, pretend = 0, frame = 0
 1037              		@ frame_needed = 0, uses_anonymous_args = 0
 1038              		@ link register save eliminated.
 1039              	.LVL102:
 1040              		.loc 1 393 0
 1041 0000 0068     		ldr	r0, [r0]
 1042              	.LVL103:
 1043 0002 C043     		mvns	r0, r0
 1044              		.loc 1 394 0
 1045 0004 00F00100 		and	r0, r0, #1
 1046 0008 7047     		bx	lr
 1047              		.cfi_endproc
 1048              	.LFE8:
 1049              		.size	bn256_is_even, .-bn256_is_even
 1050              		.section	.text.bn256_is_ge,"ax",%progbits
 1051              		.align	1
 1052              		.global	bn256_is_ge
 1053              		.syntax unified
 1054              		.thumb
 1055              		.thumb_func
 1056              		.fpu softvfp
 1057              		.type	bn256_is_ge, %function
 1058              	bn256_is_ge:
 1059              	.LFB9:
 1060              		.loc 1 398 0
 1061              		.cfi_startproc
 1062              		@ args = 0, pretend = 0, frame = 32
 1063              		@ frame_needed = 0, uses_anonymous_args = 0
 1064              	.LVL104:
 1065 0000 00B5     		push	{lr}
 1066              		.cfi_def_cfa_offset 4
 1067              		.cfi_offset 14, -4
 1068 0002 89B0     		sub	sp, sp, #36
 1069              		.cfi_def_cfa_offset 40
 1070              		.loc 1 402 0
 1071 0004 0A46     		mov	r2, r1
 1072 0006 0146     		mov	r1, r0
 1073              	.LVL105:
 1074 0008 6846     		mov	r0, sp
 1075              	.LVL106:
 1076 000a FFF7FEFF 		bl	bn256_sub
 1077              	.LVL107:
 1078              		.loc 1 404 0
 1079 000e B0FA80F0 		clz	r0, r0
 1080              	.LVL108:
 1081 0012 4009     		lsrs	r0, r0, #5
 1082 0014 09B0     		add	sp, sp, #36
 1083              		.cfi_def_cfa_offset 4
ARM GAS  /tmp/ccFquxZA.s 			page 20


 1084              		@ sp needed
 1085 0016 5DF804FB 		ldr	pc, [sp], #4
 1086              		.cfi_endproc
 1087              	.LFE9:
 1088              		.size	bn256_is_ge, .-bn256_is_ge
 1089              		.section	.text.bn256_cmp,"ax",%progbits
 1090              		.align	1
 1091              		.global	bn256_cmp
 1092              		.syntax unified
 1093              		.thumb
 1094              		.thumb_func
 1095              		.fpu softvfp
 1096              		.type	bn256_cmp, %function
 1097              	bn256_cmp:
 1098              	.LFB10:
 1099              		.loc 1 409 0
 1100              		.cfi_startproc
 1101              		@ args = 0, pretend = 0, frame = 32
 1102              		@ frame_needed = 0, uses_anonymous_args = 0
 1103              	.LVL109:
 1104 0000 10B5     		push	{r4, lr}
 1105              		.cfi_def_cfa_offset 8
 1106              		.cfi_offset 4, -8
 1107              		.cfi_offset 14, -4
 1108 0002 88B0     		sub	sp, sp, #32
 1109              		.cfi_def_cfa_offset 40
 1110              		.loc 1 414 0
 1111 0004 0A46     		mov	r2, r1
 1112 0006 0146     		mov	r1, r0
 1113              	.LVL110:
 1114 0008 6846     		mov	r0, sp
 1115              	.LVL111:
 1116 000a FFF7FEFF 		bl	bn256_sub
 1117              	.LVL112:
 1118 000e 0446     		mov	r4, r0
 1119              	.LVL113:
 1120              		.loc 1 415 0
 1121 0010 6846     		mov	r0, sp
 1122              	.LVL114:
 1123 0012 FFF7FEFF 		bl	bn256_is_zero
 1124              	.LVL115:
 1125              		.loc 1 416 0
 1126 0016 30B9     		cbnz	r0, .L41
 1127              		.loc 1 416 0 is_stmt 0 discriminator 1
 1128 0018 002C     		cmp	r4, #0
 1129 001a 14BF     		ite	ne
 1130 001c 4FF0FF30 		movne	r0, #-1
 1131              	.LVL116:
 1132 0020 0120     		moveq	r0, #1
 1133              	.L39:
 1134              		.loc 1 417 0 is_stmt 1
 1135 0022 08B0     		add	sp, sp, #32
 1136              		.cfi_remember_state
 1137              		.cfi_def_cfa_offset 8
 1138              		@ sp needed
 1139 0024 10BD     		pop	{r4, pc}
 1140              	.LVL117:
ARM GAS  /tmp/ccFquxZA.s 			page 21


 1141              	.L41:
 1142              		.cfi_restore_state
 1143              		.loc 1 416 0
 1144 0026 0020     		movs	r0, #0
 1145              	.LVL118:
 1146 0028 FBE7     		b	.L39
 1147              		.cfi_endproc
 1148              	.LFE10:
 1149              		.size	bn256_cmp, .-bn256_cmp
 1150              		.section	.text.bn256_random,"ax",%progbits
 1151              		.align	1
 1152              		.global	bn256_random
 1153              		.syntax unified
 1154              		.thumb
 1155              		.thumb_func
 1156              		.fpu softvfp
 1157              		.type	bn256_random, %function
 1158              	bn256_random:
 1159              	.LFB11:
 1160              		.loc 1 423 0
 1161              		.cfi_startproc
 1162              		@ args = 0, pretend = 0, frame = 0
 1163              		@ frame_needed = 0, uses_anonymous_args = 0
 1164              	.LVL119:
 1165 0000 10B5     		push	{r4, lr}
 1166              		.cfi_def_cfa_offset 8
 1167              		.cfi_offset 4, -8
 1168              		.cfi_offset 14, -4
 1169              		.loc 1 423 0
 1170 0002 0446     		mov	r4, r0
 1171              		.loc 1 424 0
 1172 0004 FFF7FEFF 		bl	random_bytes_get
 1173              	.LVL120:
 1174              		.loc 1 426 0
 1175 0008 C269     		ldr	r2, [r0, #28]
 1176 000a E261     		str	r2, [r4, #28]
 1177              		.loc 1 427 0
 1178 000c 8269     		ldr	r2, [r0, #24]
 1179 000e A261     		str	r2, [r4, #24]
 1180              		.loc 1 428 0
 1181 0010 4269     		ldr	r2, [r0, #20]
 1182 0012 6261     		str	r2, [r4, #20]
 1183              		.loc 1 429 0
 1184 0014 0269     		ldr	r2, [r0, #16]
 1185 0016 2261     		str	r2, [r4, #16]
 1186              		.loc 1 430 0
 1187 0018 C268     		ldr	r2, [r0, #12]
 1188 001a E260     		str	r2, [r4, #12]
 1189              		.loc 1 431 0
 1190 001c 8268     		ldr	r2, [r0, #8]
 1191 001e A260     		str	r2, [r4, #8]
 1192              		.loc 1 432 0
 1193 0020 4268     		ldr	r2, [r0, #4]
 1194 0022 6260     		str	r2, [r4, #4]
 1195              		.loc 1 433 0
 1196 0024 0368     		ldr	r3, [r0]
 1197 0026 2360     		str	r3, [r4]
ARM GAS  /tmp/ccFquxZA.s 			page 22


 1198              		.loc 1 436 0
 1199 0028 BDE81040 		pop	{r4, lr}
 1200              		.cfi_restore 14
 1201              		.cfi_restore 4
 1202              		.cfi_def_cfa_offset 0
 1203              	.LVL121:
 1204              		.loc 1 435 0
 1205 002c FFF7FEBF 		b	random_bytes_free
 1206              	.LVL122:
 1207              		.cfi_endproc
 1208              	.LFE11:
 1209              		.size	bn256_random, .-bn256_random
 1210              		.text
 1211              	.Letext0:
 1212              		.file 2 "/usr/arm-none-eabi/include/machine/_default_types.h"
 1213              		.file 3 "/usr/arm-none-eabi/include/sys/_stdint.h"
 1214              		.file 4 "/usr/arm-none-eabi/include/sys/lock.h"
 1215              		.file 5 "/usr/arm-none-eabi/include/sys/_types.h"
 1216              		.file 6 "/usr/lib/gcc/arm-none-eabi/7.3.1/include/stddef.h"
 1217              		.file 7 "/usr/arm-none-eabi/include/sys/reent.h"
 1218              		.file 8 "bn.h"
 1219              		.file 9 "random.h"
 1220              		.file 10 "<built-in>"