ARM GAS  /tmp/ccubcZdE.s 			page 1


   1              		.cpu cortex-m3
   2              		.eabi_attribute 20, 1
   3              		.eabi_attribute 21, 1
   4              		.eabi_attribute 23, 3
   5              		.eabi_attribute 24, 1
   6              		.eabi_attribute 25, 1
   7              		.eabi_attribute 26, 1
   8              		.eabi_attribute 30, 4
   9              		.eabi_attribute 34, 1
  10              		.eabi_attribute 18, 4
  11              		.file	"call-ec_p256r1.c"
  12              		.text
  13              	.Ltext0:
  14              		.cfi_sections	.debug_frame
  15              		.section	.text.ecdsa_sign_p256r1,"ax",%progbits
  16              		.align	1
  17              		.global	ecdsa_sign_p256r1
  18              		.syntax unified
  19              		.thumb
  20              		.thumb_func
  21              		.fpu softvfp
  22              		.type	ecdsa_sign_p256r1, %function
  23              	ecdsa_sign_p256r1:
  24              	.LFB0:
  25              		.file 1 "call-ec.c"
  26              		.loc 1 34 0
  27              		.cfi_startproc
  28              		@ args = 0, pretend = 0, frame = 128
  29              		@ frame_needed = 0, uses_anonymous_args = 0
  30              	.LVL0:
  31 0000 70B5     		push	{r4, r5, r6, lr}
  32              		.cfi_def_cfa_offset 16
  33              		.cfi_offset 4, -16
  34              		.cfi_offset 5, -12
  35              		.cfi_offset 6, -8
  36              		.cfi_offset 14, -4
  37 0002 A0B0     		sub	sp, sp, #128
  38              		.cfi_def_cfa_offset 144
  39              		.loc 1 34 0
  40 0004 0D46     		mov	r5, r1
  41              	.LVL1:
  42 0006 013A     		subs	r2, r2, #1
  43              	.LVL2:
  44 0008 20A9     		add	r1, sp, #128
  45              	.LVL3:
  46              		.loc 1 40 0
  47 000a 18AB     		add	r3, sp, #96
  48              	.LVL4:
  49              	.L2:
  50              		.loc 1 41 0 discriminator 3
  51 000c 12F8014F 		ldrb	r4, [r2, #1]!	@ zero_extendqisi2
  52              	.LVL5:
  53 0010 01F8014D 		strb	r4, [r1, #-1]!
  54              	.LVL6:
  55              		.loc 1 40 0 discriminator 3
  56 0014 9942     		cmp	r1, r3
  57 0016 F9D1     		bne	.L2
ARM GAS  /tmp/ccubcZdE.s 			page 2


  58 0018 1A46     		mov	r2, r3
  59              	.LVL7:
  60 001a 0138     		subs	r0, r0, #1
  61              	.LVL8:
  62              		.loc 1 44 0
  63 001c 10AC     		add	r4, sp, #64
  64              	.LVL9:
  65              	.L3:
  66              		.loc 1 45 0 discriminator 3
  67 001e 10F8011F 		ldrb	r1, [r0, #1]!	@ zero_extendqisi2
  68              	.LVL10:
  69 0022 02F8011D 		strb	r1, [r2, #-1]!
  70              	.LVL11:
  71              		.loc 1 44 0 discriminator 3
  72 0026 A242     		cmp	r2, r4
  73 0028 F9D1     		bne	.L3
  74              		.loc 1 47 0
  75 002a 6E46     		mov	r6, sp
  76 002c 2246     		mov	r2, r4
  77 002e 08A9     		add	r1, sp, #32
  78 0030 3046     		mov	r0, r6
  79              	.LVL12:
  80 0032 FFF7FEFF 		bl	ecdsa_p256r1
  81              	.LVL13:
  82 0036 08AB     		add	r3, sp, #32
  83 0038 6A1E     		subs	r2, r5, #1
  84              	.LVL14:
  85              	.L4:
  86              		.loc 1 50 0 discriminator 3
  87 003a 13F8011D 		ldrb	r1, [r3, #-1]!	@ zero_extendqisi2
  88              		.loc 1 49 0 discriminator 3
  89 003e B342     		cmp	r3, r6
  90              		.loc 1 50 0 discriminator 3
  91 0040 02F8011F 		strb	r1, [r2, #1]!
  92              	.LVL15:
  93              		.loc 1 49 0 discriminator 3
  94 0044 F9D1     		bne	.L4
  95 0046 05F11F03 		add	r3, r5, #31
  96 004a 3F35     		adds	r5, r5, #63
  97              	.LVL16:
  98              	.L5:
  99              		.loc 1 53 0 discriminator 3
 100 004c 14F8012D 		ldrb	r2, [r4, #-1]!	@ zero_extendqisi2
 101 0050 03F8012F 		strb	r2, [r3, #1]!
 102              	.LVL17:
 103              		.loc 1 52 0 discriminator 3
 104 0054 AB42     		cmp	r3, r5
 105 0056 F9D1     		bne	.L5
 106              		.loc 1 55 0
 107 0058 0020     		movs	r0, #0
 108 005a 20B0     		add	sp, sp, #128
 109              		.cfi_def_cfa_offset 16
 110              		@ sp needed
 111 005c 70BD     		pop	{r4, r5, r6, pc}
 112              		.cfi_endproc
 113              	.LFE0:
 114              		.size	ecdsa_sign_p256r1, .-ecdsa_sign_p256r1
ARM GAS  /tmp/ccubcZdE.s 			page 3


 115              		.section	.text.ecc_compute_public_p256r1,"ax",%progbits
 116              		.align	1
 117              		.global	ecc_compute_public_p256r1
 118              		.syntax unified
 119              		.thumb
 120              		.thumb_func
 121              		.fpu softvfp
 122              		.type	ecc_compute_public_p256r1, %function
 123              	ecc_compute_public_p256r1:
 124              	.LFB1:
 125              		.loc 1 59 0
 126              		.cfi_startproc
 127              		@ args = 0, pretend = 0, frame = 96
 128              		@ frame_needed = 0, uses_anonymous_args = 0
 129              	.LVL18:
 130 0000 30B5     		push	{r4, r5, lr}
 131              		.cfi_def_cfa_offset 12
 132              		.cfi_offset 4, -12
 133              		.cfi_offset 5, -8
 134              		.cfi_offset 14, -4
 135 0002 99B0     		sub	sp, sp, #100
 136              		.cfi_def_cfa_offset 112
 137              	.LVL19:
 138              		.loc 1 59 0
 139 0004 0C46     		mov	r4, r1
 140 0006 08A9     		add	r1, sp, #32
 141              	.LVL20:
 142 0008 0D46     		mov	r5, r1
 143              		.loc 1 66 0
 144 000a 6B46     		mov	r3, sp
 145 000c 0138     		subs	r0, r0, #1
 146              	.LVL21:
 147              	.L11:
 148              		.loc 1 67 0 discriminator 3
 149 000e 10F8012F 		ldrb	r2, [r0, #1]!	@ zero_extendqisi2
 150              	.LVL22:
 151 0012 01F8012D 		strb	r2, [r1, #-1]!
 152              	.LVL23:
 153              		.loc 1 66 0 discriminator 3
 154 0016 9942     		cmp	r1, r3
 155 0018 F9D1     		bne	.L11
 156              		.loc 1 68 0
 157 001a 2846     		mov	r0, r5
 158              	.LVL24:
 159 001c FFF7FEFF 		bl	compute_kG_p256r1
 160              	.LVL25:
 161 0020 0028     		cmp	r0, #0
 162 0022 14DB     		blt	.L15
 163 0024 10AB     		add	r3, sp, #64
 164 0026 621E     		subs	r2, r4, #1
 165              	.LVL26:
 166              	.L13:
 167              		.loc 1 74 0 discriminator 3
 168 0028 13F8011D 		ldrb	r1, [r3, #-1]!	@ zero_extendqisi2
 169              		.loc 1 73 0 discriminator 3
 170 002c AB42     		cmp	r3, r5
 171              		.loc 1 74 0 discriminator 3
ARM GAS  /tmp/ccubcZdE.s 			page 4


 172 002e 02F8011F 		strb	r1, [r2, #1]!
 173              	.LVL27:
 174              		.loc 1 73 0 discriminator 3
 175 0032 F9D1     		bne	.L13
 176 0034 04F11F03 		add	r3, r4, #31
 177 0038 18AA     		add	r2, sp, #96
 178              	.LVL28:
 179 003a 3F34     		adds	r4, r4, #63
 180              	.LVL29:
 181              	.L14:
 182              		.loc 1 77 0 discriminator 3
 183 003c 12F8011D 		ldrb	r1, [r2, #-1]!	@ zero_extendqisi2
 184 0040 03F8011F 		strb	r1, [r3, #1]!
 185              	.LVL30:
 186              		.loc 1 76 0 discriminator 3
 187 0044 9C42     		cmp	r4, r3
 188 0046 F9D1     		bne	.L14
 189              		.loc 1 79 0
 190 0048 0020     		movs	r0, #0
 191              	.LVL31:
 192              	.L10:
 193              		.loc 1 80 0
 194 004a 19B0     		add	sp, sp, #100
 195              		.cfi_remember_state
 196              		.cfi_def_cfa_offset 12
 197              		@ sp needed
 198 004c 30BD     		pop	{r4, r5, pc}
 199              	.LVL32:
 200              	.L15:
 201              		.cfi_restore_state
 202              		.loc 1 69 0
 203 004e 0120     		movs	r0, #1
 204 0050 FBE7     		b	.L10
 205              		.cfi_endproc
 206              	.LFE1:
 207              		.size	ecc_compute_public_p256r1, .-ecc_compute_public_p256r1
 208              		.section	.text.ecdh_decrypt_p256r1,"ax",%progbits
 209              		.align	1
 210              		.global	ecdh_decrypt_p256r1
 211              		.syntax unified
 212              		.thumb
 213              		.thumb_func
 214              		.fpu softvfp
 215              		.type	ecdh_decrypt_p256r1, %function
 216              	ecdh_decrypt_p256r1:
 217              	.LFB2:
 218              		.loc 1 85 0
 219              		.cfi_startproc
 220              		@ args = 0, pretend = 0, frame = 160
 221              		@ frame_needed = 0, uses_anonymous_args = 0
 222              	.LVL33:
 223 0000 F0B5     		push	{r4, r5, r6, r7, lr}
 224              		.cfi_def_cfa_offset 20
 225              		.cfi_offset 4, -20
 226              		.cfi_offset 5, -16
 227              		.cfi_offset 6, -12
 228              		.cfi_offset 7, -8
ARM GAS  /tmp/ccubcZdE.s 			page 5


 229              		.cfi_offset 14, -4
 230 0002 A9B0     		sub	sp, sp, #164
 231              		.cfi_def_cfa_offset 184
 232 0004 08AB     		add	r3, sp, #32
 233              		.loc 1 85 0
 234 0006 0C46     		mov	r4, r1
 235              	.LVL34:
 236 0008 1E46     		mov	r6, r3
 237              		.loc 1 94 0
 238 000a 6946     		mov	r1, sp
 239              	.LVL35:
 240 000c 013A     		subs	r2, r2, #1
 241              	.LVL36:
 242              	.L20:
 243              		.loc 1 95 0 discriminator 3
 244 000e 12F8015F 		ldrb	r5, [r2, #1]!	@ zero_extendqisi2
 245              	.LVL37:
 246 0012 03F8015D 		strb	r5, [r3, #-1]!
 247              	.LVL38:
 248              		.loc 1 94 0 discriminator 3
 249 0016 8B42     		cmp	r3, r1
 250 0018 F9D1     		bne	.L20
 251              		.loc 1 97 0
 252 001a 431C     		adds	r3, r0, #1
 253              	.LVL39:
 254 001c 20AA     		add	r2, sp, #128
 255 001e 00F12105 		add	r5, r0, #33
 256              	.LVL40:
 257              	.L21:
 258              		.loc 1 100 0 discriminator 3
 259 0022 13F8017B 		ldrb	r7, [r3], #1	@ zero_extendqisi2
 260              	.LVL41:
 261              		.loc 1 99 0 discriminator 3
 262 0026 AB42     		cmp	r3, r5
 263              		.loc 1 100 0 discriminator 3
 264 0028 02F8017D 		strb	r7, [r2, #-1]!
 265              	.LVL42:
 266              		.loc 1 99 0 discriminator 3
 267 002c F9D1     		bne	.L21
 268 002e 28AD     		add	r5, sp, #160
 269 0030 00F14102 		add	r2, r0, #65
 270              	.LVL43:
 271              	.L22:
 272              		.loc 1 103 0 discriminator 3
 273 0034 13F8010B 		ldrb	r0, [r3], #1	@ zero_extendqisi2
 274              	.LVL44:
 275              		.loc 1 102 0 discriminator 3
 276 0038 9342     		cmp	r3, r2
 277              		.loc 1 103 0 discriminator 3
 278 003a 05F8010D 		strb	r0, [r5, #-1]!
 279              	.LVL45:
 280              		.loc 1 102 0 discriminator 3
 281 003e F9D1     		bne	.L22
 282              		.loc 1 105 0
 283 0040 18AA     		add	r2, sp, #96
 284              	.LVL46:
 285 0042 3046     		mov	r0, r6
ARM GAS  /tmp/ccubcZdE.s 			page 6


 286 0044 FFF7FEFF 		bl	compute_kP_p256r1
 287              	.LVL47:
 288              		.loc 1 106 0
 289 0048 98B9     		cbnz	r0, .L19
 290              	.LVL48:
 291              		.loc 1 110 0
 292 004a 0422     		movs	r2, #4
 293 004c 2346     		mov	r3, r4
 294 004e 03F8202B 		strb	r2, [r3], #32
 295              	.LVL49:
 296 0052 2246     		mov	r2, r4
 297 0054 10A9     		add	r1, sp, #64
 298              	.LVL50:
 299              	.L24:
 300              		.loc 1 112 0 discriminator 3
 301 0056 11F8015D 		ldrb	r5, [r1, #-1]!	@ zero_extendqisi2
 302 005a 02F8015F 		strb	r5, [r2, #1]!
 303              	.LVL51:
 304              		.loc 1 111 0 discriminator 3
 305 005e 9342     		cmp	r3, r2
 306 0060 F9D1     		bne	.L24
 307 0062 18AA     		add	r2, sp, #96
 308              	.LVL52:
 309 0064 4034     		adds	r4, r4, #64
 310              	.LVL53:
 311              	.L25:
 312              		.loc 1 115 0 discriminator 3
 313 0066 12F8011D 		ldrb	r1, [r2, #-1]!	@ zero_extendqisi2
 314 006a 03F8011F 		strb	r1, [r3, #1]!
 315              	.LVL54:
 316              		.loc 1 114 0 discriminator 3
 317 006e A342     		cmp	r3, r4
 318 0070 F9D1     		bne	.L25
 319              	.LVL55:
 320              	.L19:
 321              		.loc 1 119 0
 322 0072 29B0     		add	sp, sp, #164
 323              		.cfi_def_cfa_offset 20
 324              		@ sp needed
 325 0074 F0BD     		pop	{r4, r5, r6, r7, pc}
 326              		.cfi_endproc
 327              	.LFE2:
 328              		.size	ecdh_decrypt_p256r1, .-ecdh_decrypt_p256r1
 329              		.section	.text.ecc_check_secret_p256r1,"ax",%progbits
 330              		.align	1
 331              		.global	ecc_check_secret_p256r1
 332              		.syntax unified
 333              		.thumb
 334              		.thumb_func
 335              		.fpu softvfp
 336              		.type	ecc_check_secret_p256r1, %function
 337              	ecc_check_secret_p256r1:
 338              	.LFB3:
 339              		.loc 1 134 0
 340              		.cfi_startproc
 341              		@ args = 0, pretend = 0, frame = 0
 342              		@ frame_needed = 0, uses_anonymous_args = 0
ARM GAS  /tmp/ccubcZdE.s 			page 7


 343              		@ link register save eliminated.
 344              	.LVL56:
 345              		.loc 1 135 0
 346 0000 FFF7FEBF 		b	check_secret_p256r1
 347              	.LVL57:
 348              		.cfi_endproc
 349              	.LFE3:
 350              		.size	ecc_check_secret_p256r1, .-ecc_check_secret_p256r1
 351              		.text
 352              	.Letext0:
 353              		.file 2 "/usr/arm-none-eabi/include/machine/_default_types.h"
 354              		.file 3 "/usr/arm-none-eabi/include/sys/_stdint.h"
 355              		.file 4 "/usr/arm-none-eabi/include/sys/lock.h"
 356              		.file 5 "/usr/arm-none-eabi/include/sys/_types.h"
 357              		.file 6 "/usr/lib/gcc/arm-none-eabi/7.3.1/include/stddef.h"
 358              		.file 7 "/usr/arm-none-eabi/include/sys/reent.h"
 359              		.file 8 "/usr/arm-none-eabi/include/stdlib.h"
 360              		.file 9 "bn.h"
 361              		.file 10 "affine.h"
 362              		.file 11 "ec_p256r1.h"