ARM GAS  /tmp/ccYjC7Ok.s 			page 1


   1              		.cpu cortex-m3
   2              		.eabi_attribute 20, 1
   3              		.eabi_attribute 21, 1
   4              		.eabi_attribute 23, 3
   5              		.eabi_attribute 24, 1
   6              		.eabi_attribute 25, 1
   7              		.eabi_attribute 26, 1
   8              		.eabi_attribute 30, 4
   9              		.eabi_attribute 34, 1
  10              		.eabi_attribute 18, 4
  11              		.file	"chopstx.c"
  12              		.text
  13              	.Ltext0:
  14              		.cfi_sections	.debug_frame
  15              		.section	.text.ll_dequeue,"ax",%progbits
  16              		.align	1
  17              		.syntax unified
  18              		.thumb
  19              		.thumb_func
  20              		.fpu softvfp
  21              		.type	ll_dequeue, %function
  22              	ll_dequeue:
  23              	.LFB5:
  24              		.file 1 "../chopstx/chopstx.c"
  25              		.loc 1 187 0
  26              		.cfi_startproc
  27              		@ args = 0, pretend = 0, frame = 0
  28              		@ frame_needed = 0, uses_anonymous_args = 0
  29              		@ link register save eliminated.
  30              	.LVL0:
  31              		.loc 1 188 0
  32 0000 D0E90021 		ldrd	r2, r1, [r0]
  33 0004 5160     		str	r1, [r2, #4]
  34              		.loc 1 189 0
  35 0006 4168     		ldr	r1, [r0, #4]
  36 0008 0A60     		str	r2, [r1]
  37              		.loc 1 190 0
  38 000a C0E90000 		strd	r0, r0, [r0]
  39              		.loc 1 192 0
  40 000e 7047     		bx	lr
  41              		.cfi_endproc
  42              	.LFE5:
  43              		.size	ll_dequeue, .-ll_dequeue
  44              		.section	.text.ll_pop,"ax",%progbits
  45              		.align	1
  46              		.syntax unified
  47              		.thumb
  48              		.thumb_func
  49              		.fpu softvfp
  50              		.type	ll_pop, %function
  51              	ll_pop:
  52              	.LFB7:
  53              		.loc 1 208 0
  54              		.cfi_startproc
  55              		@ args = 0, pretend = 0, frame = 0
  56              		@ frame_needed = 0, uses_anonymous_args = 0
  57              		@ link register save eliminated.
ARM GAS  /tmp/ccYjC7Ok.s 			page 2


  58              	.LVL1:
  59              		.loc 1 209 0
  60 0000 0368     		ldr	r3, [r0]
  61 0002 8342     		cmp	r3, r0
  62 0004 02D0     		beq	.L3
  63              		.loc 1 212 0
  64 0006 1846     		mov	r0, r3
  65              	.LVL2:
  66 0008 FFF7FEBF 		b	ll_dequeue
  67              	.LVL3:
  68              	.L3:
  69              		.loc 1 213 0
  70 000c 0020     		movs	r0, #0
  71              	.LVL4:
  72 000e 7047     		bx	lr
  73              		.cfi_endproc
  74              	.LFE7:
  75              		.size	ll_pop, .-ll_pop
  76              		.section	.text.chx_cpu_sched_lock,"ax",%progbits
  77              		.align	1
  78              		.syntax unified
  79              		.thumb
  80              		.thumb_func
  81              		.fpu softvfp
  82              		.type	chx_cpu_sched_lock, %function
  83              	chx_cpu_sched_lock:
  84              	.LFB22:
  85              		.file 2 "../chopstx/chopstx-cortex-m.c"
  86              		.loc 2 205 0
  87              		.cfi_startproc
  88              		@ args = 0, pretend = 0, frame = 0
  89              		@ frame_needed = 0, uses_anonymous_args = 0
  90              		@ link register save eliminated.
  91              		.loc 2 206 0
  92 0000 044B     		ldr	r3, .L6
  93 0002 1B68     		ldr	r3, [r3]
  94 0004 DB7A     		ldrb	r3, [r3, #11]	@ zero_extendqisi2
  95 0006 F72B     		cmp	r3, #247
  96 0008 02D8     		bhi	.L4
  97              	.LVL5:
  98              	.LBB193:
  99              		.loc 2 212 0
 100 000a 4023     		movs	r3, #64
 101              		.syntax unified
 102              	@ 212 "../chopstx/chopstx-cortex-m.c" 1
 103 000c 83F31188 		msr	BASEPRI, r3
 104              	@ 0 "" 2
 105              	.LVL6:
 106              		.thumb
 107              		.syntax unified
 108              	.L4:
 109              	.LBE193:
 110              		.loc 2 215 0
 111 0010 7047     		bx	lr
 112              	.L7:
 113 0012 00BF     		.align	2
 114              	.L6:
ARM GAS  /tmp/ccYjC7Ok.s 			page 3


 115 0014 00000000 		.word	.LANCHOR0
 116              		.cfi_endproc
 117              	.LFE22:
 118              		.size	chx_cpu_sched_lock, .-chx_cpu_sched_lock
 119              		.section	.text.chx_cpu_sched_unlock,"ax",%progbits
 120              		.align	1
 121              		.syntax unified
 122              		.thumb
 123              		.thumb_func
 124              		.fpu softvfp
 125              		.type	chx_cpu_sched_unlock, %function
 126              	chx_cpu_sched_unlock:
 127              	.LFB23:
 128              		.loc 2 219 0
 129              		.cfi_startproc
 130              		@ args = 0, pretend = 0, frame = 0
 131              		@ frame_needed = 0, uses_anonymous_args = 0
 132              		@ link register save eliminated.
 133              		.loc 2 220 0
 134 0000 044B     		ldr	r3, .L10
 135 0002 1B68     		ldr	r3, [r3]
 136 0004 DB7A     		ldrb	r3, [r3, #11]	@ zero_extendqisi2
 137 0006 F72B     		cmp	r3, #247
 138 0008 02D8     		bhi	.L8
 139              	.LVL7:
 140              	.LBB194:
 141              		.loc 2 226 0
 142 000a 0023     		movs	r3, #0
 143              		.syntax unified
 144              	@ 226 "../chopstx/chopstx-cortex-m.c" 1
 145 000c 83F31188 		msr	BASEPRI, r3
 146              	@ 0 "" 2
 147              	.LVL8:
 148              		.thumb
 149              		.syntax unified
 150              	.L8:
 151              	.LBE194:
 152              		.loc 2 229 0
 153 0010 7047     		bx	lr
 154              	.L11:
 155 0012 00BF     		.align	2
 156              	.L10:
 157 0014 00000000 		.word	.LANCHOR0
 158              		.cfi_endproc
 159              	.LFE23:
 160              		.size	chx_cpu_sched_unlock, .-chx_cpu_sched_unlock
 161              		.section	.text.chx_sched,"ax",%progbits
 162              		.align	1
 163              		.syntax unified
 164              		.thumb
 165              		.thumb_func
 166              		.fpu softvfp
 167              		.type	chx_sched, %function
 168              	chx_sched:
 169              	.LFB28:
 170              		.loc 2 307 0
 171              		.cfi_startproc
ARM GAS  /tmp/ccYjC7Ok.s 			page 4


 172              		@ Naked Function: prologue and epilogue provided by programmer.
 173              		@ args = 0, pretend = 0, frame = 0
 174              		@ frame_needed = 0, uses_anonymous_args = 0
 175              	.LVL9:
 176              		.loc 2 311 0
 177              		.syntax unified
 178              	@ 311 "../chopstx/chopstx-cortex-m.c" 1
 179 0000 00DF     		svc	#0
 180 0002 7047     		bx	lr
 181              	@ 0 "" 2
 182              	.LVL10:
 183              		.loc 2 465 0
 184              		.thumb
 185              		.syntax unified
 186              		.cfi_endproc
 187              	.LFE28:
 188              		.size	chx_sched, .-chx_sched
 189              		.section	.text.ll_prio_enqueue,"ax",%progbits
 190              		.align	1
 191              		.syntax unified
 192              		.thumb
 193              		.thumb_func
 194              		.fpu softvfp
 195              		.type	ll_prio_enqueue, %function
 196              	ll_prio_enqueue:
 197              	.LFB9:
 198              		.loc 1 230 0
 199              		.cfi_startproc
 200              		@ args = 0, pretend = 0, frame = 0
 201              		@ frame_needed = 0, uses_anonymous_args = 0
 202              	.LVL11:
 203 0000 10B5     		push	{r4, lr}
 204              		.cfi_def_cfa_offset 8
 205              		.cfi_offset 4, -8
 206              		.cfi_offset 14, -4
 207              		.loc 1 233 0
 208 0002 0B68     		ldr	r3, [r1]
 209              	.LVL12:
 210              	.L14:
 211              		.loc 1 233 0 is_stmt 0 discriminator 1
 212 0004 8B42     		cmp	r3, r1
 213 0006 03D0     		beq	.L17
 214              		.loc 1 234 0 is_stmt 1
 215 0008 DC7A     		ldrb	r4, [r3, #11]	@ zero_extendqisi2
 216 000a C27A     		ldrb	r2, [r0, #11]	@ zero_extendqisi2
 217 000c 9442     		cmp	r4, r2
 218 000e 07D2     		bcs	.L15
 219              	.L17:
 220              	.LBB197:
 221              	.LBB198:
 222              		.loc 1 200 0
 223 0010 5A68     		ldr	r2, [r3, #4]
 224              	.LBE198:
 225              	.LBE197:
 226              		.loc 1 237 0
 227 0012 C160     		str	r1, [r0, #12]
 228              	.LVL13:
ARM GAS  /tmp/ccYjC7Ok.s 			page 5


 229              	.LBB200:
 230              	.LBB199:
 231              		.loc 1 200 0
 232 0014 4260     		str	r2, [r0, #4]
 233              		.loc 1 201 0
 234 0016 5A68     		ldr	r2, [r3, #4]
 235              		.loc 1 199 0
 236 0018 0360     		str	r3, [r0]
 237              		.loc 1 201 0
 238 001a 1060     		str	r0, [r2]
 239              		.loc 1 202 0
 240 001c 5860     		str	r0, [r3, #4]
 241              	.LVL14:
 242              	.LBE199:
 243              	.LBE200:
 244              		.loc 1 239 0
 245 001e 10BD     		pop	{r4, pc}
 246              	.LVL15:
 247              	.L15:
 248              		.loc 1 233 0 discriminator 2
 249 0020 1B68     		ldr	r3, [r3]
 250              	.LVL16:
 251 0022 EFE7     		b	.L14
 252              		.cfi_endproc
 253              	.LFE9:
 254              		.size	ll_prio_enqueue, .-ll_prio_enqueue
 255              		.section	.text.chx_ready_enqueue,"ax",%progbits
 256              		.align	1
 257              		.syntax unified
 258              		.thumb
 259              		.thumb_func
 260              		.fpu softvfp
 261              		.type	chx_ready_enqueue, %function
 262              	chx_ready_enqueue:
 263              	.LFB12:
 264              		.loc 1 286 0
 265              		.cfi_startproc
 266              		@ args = 0, pretend = 0, frame = 0
 267              		@ frame_needed = 0, uses_anonymous_args = 0
 268              		@ link register save eliminated.
 269              	.LVL17:
 270              		.loc 1 288 0
 271 0000 0121     		movs	r1, #1
 272 0002 027A     		ldrb	r2, [r0, #8]	@ zero_extendqisi2
 273 0004 61F30302 		bfi	r2, r1, #0, #4
 274 0008 0272     		strb	r2, [r0, #8]
 275              		.loc 1 289 0
 276 000a 0149     		ldr	r1, .L20
 277 000c FFF7FEBF 		b	ll_prio_enqueue
 278              	.LVL18:
 279              	.L21:
 280              		.align	2
 281              	.L20:
 282 0010 00000000 		.word	.LANCHOR1
 283              		.cfi_endproc
 284              	.LFE12:
 285              		.size	chx_ready_enqueue, .-chx_ready_enqueue
ARM GAS  /tmp/ccYjC7Ok.s 			page 6


 286              		.section	.text.chx_mutex_unlock,"ax",%progbits
 287              		.align	1
 288              		.syntax unified
 289              		.thumb
 290              		.thumb_func
 291              		.fpu softvfp
 292              		.type	chx_mutex_unlock, %function
 293              	chx_mutex_unlock:
 294              	.LFB40:
 295              		.loc 1 558 0
 296              		.cfi_startproc
 297              		@ args = 0, pretend = 0, frame = 0
 298              		@ frame_needed = 0, uses_anonymous_args = 0
 299              	.LVL19:
 300              		.loc 1 562 0
 301 0000 0022     		movs	r2, #0
 302              		.loc 1 558 0
 303 0002 70B5     		push	{r4, r5, r6, lr}
 304              		.cfi_def_cfa_offset 16
 305              		.cfi_offset 4, -16
 306              		.cfi_offset 5, -12
 307              		.cfi_offset 6, -8
 308              		.cfi_offset 14, -4
 309              		.loc 1 563 0
 310 0004 0E4E     		ldr	r6, .L28
 311 0006 C468     		ldr	r4, [r0, #12]
 312 0008 3168     		ldr	r1, [r6]
 313              		.loc 1 562 0
 314 000a 8260     		str	r2, [r0, #8]
 315              		.loc 1 563 0
 316 000c 8C63     		str	r4, [r1, #56]
 317              		.loc 1 564 0
 318 000e C260     		str	r2, [r0, #12]
 319              		.loc 1 566 0
 320 0010 FFF7FEFF 		bl	ll_pop
 321              	.LVL20:
 322              		.loc 1 567 0
 323 0014 0446     		mov	r4, r0
 324 0016 40B1     		cbz	r0, .L23
 325              	.LBB201:
 326              		.loc 1 569 0
 327 0018 3368     		ldr	r3, [r6]
 328 001a 9D7A     		ldrb	r5, [r3, #10]	@ zero_extendqisi2
 329              	.LVL21:
 330              		.loc 1 572 0
 331 001c FFF7FEFF 		bl	chx_ready_enqueue
 332              	.LVL22:
 333              		.loc 1 575 0
 334 0020 3268     		ldr	r2, [r6]
 335 0022 936B     		ldr	r3, [r2, #56]
 336              	.LVL23:
 337              	.L24:
 338              		.loc 1 575 0 is_stmt 0 discriminator 1
 339 0024 13B9     		cbnz	r3, .L26
 340              		.loc 1 580 0 is_stmt 1
 341 0026 D572     		strb	r5, [r2, #11]
 342              		.loc 1 582 0
ARM GAS  /tmp/ccYjC7Ok.s 			page 7


 343 0028 E07A     		ldrb	r0, [r4, #11]	@ zero_extendqisi2
 344              	.LVL24:
 345              	.L23:
 346              	.LBE201:
 347              		.loc 1 587 0
 348 002a 70BD     		pop	{r4, r5, r6, pc}
 349              	.LVL25:
 350              	.L26:
 351              	.LBB204:
 352              	.LBB202:
 353              	.LBB203:
 354              		.loc 1 182 0
 355 002c 1968     		ldr	r1, [r3]
 356              	.LVL26:
 357              	.LBE203:
 358              	.LBE202:
 359              		.loc 1 576 0
 360 002e 8B42     		cmp	r3, r1
 361 0030 03D0     		beq	.L25
 362 0032 C97A     		ldrb	r1, [r1, #11]	@ zero_extendqisi2
 363 0034 8D42     		cmp	r5, r1
 364 0036 38BF     		it	cc
 365 0038 0D46     		movcc	r5, r1
 366              	.LVL27:
 367              	.L25:
 368              		.loc 1 575 0 discriminator 2
 369 003a DB68     		ldr	r3, [r3, #12]
 370              	.LVL28:
 371 003c F2E7     		b	.L24
 372              	.L29:
 373 003e 00BF     		.align	2
 374              	.L28:
 375 0040 00000000 		.word	.LANCHOR0
 376              	.LBE204:
 377              		.cfi_endproc
 378              	.LFE40:
 379              		.size	chx_mutex_unlock, .-chx_mutex_unlock
 380              		.section	.text.requeue,"ax",%progbits
 381              		.align	1
 382              		.syntax unified
 383              		.thumb
 384              		.thumb_func
 385              		.fpu softvfp
 386              		.type	requeue, %function
 387              	requeue:
 388              	.LFB46:
 389              		.loc 1 729 0
 390              		.cfi_startproc
 391              		@ args = 0, pretend = 0, frame = 0
 392              		@ frame_needed = 0, uses_anonymous_args = 0
 393              	.LVL29:
 394              		.loc 1 730 0
 395 0000 027A     		ldrb	r2, [r0, #8]	@ zero_extendqisi2
 396              		.loc 1 729 0
 397 0002 10B5     		push	{r4, lr}
 398              		.cfi_def_cfa_offset 8
 399              		.cfi_offset 4, -8
ARM GAS  /tmp/ccYjC7Ok.s 			page 8


 400              		.cfi_offset 14, -4
 401              		.loc 1 730 0
 402 0004 02F00F02 		and	r2, r2, #15
 403 0008 012A     		cmp	r2, #1
 404              		.loc 1 729 0
 405 000a 0346     		mov	r3, r0
 406              		.loc 1 730 0
 407 000c 07D1     		bne	.L31
 408              	.L34:
 409              	.LVL30:
 410              		.loc 1 733 0
 411 000e 1846     		mov	r0, r3
 412              	.LVL31:
 413 0010 FFF7FEFF 		bl	ll_dequeue
 414              	.LVL32:
 415 0014 D968     		ldr	r1, [r3, #12]
 416 0016 FFF7FEFF 		bl	ll_prio_enqueue
 417              	.LVL33:
 418              	.L35:
 419              		.loc 1 758 0
 420 001a 0020     		movs	r0, #0
 421 001c 08E0     		b	.L30
 422              	.LVL34:
 423              	.L31:
 424              		.loc 1 736 0
 425 001e 022A     		cmp	r2, #2
 426 0020 07D1     		bne	.L33
 427              	.LBB210:
 428              		.loc 1 738 0
 429 0022 C468     		ldr	r4, [r0, #12]
 430              	.LVL35:
 431              		.loc 1 741 0
 432 0024 FFF7FEFF 		bl	ll_dequeue
 433              	.LVL36:
 434 0028 D968     		ldr	r1, [r3, #12]
 435 002a FFF7FEFF 		bl	ll_prio_enqueue
 436              	.LVL37:
 437              		.loc 1 743 0
 438 002e A068     		ldr	r0, [r4, #8]
 439              	.LVL38:
 440              	.L30:
 441              	.LBE210:
 442              		.loc 1 759 0
 443 0030 10BD     		pop	{r4, pc}
 444              	.LVL39:
 445              	.L33:
 446              		.loc 1 745 0
 447 0032 032A     		cmp	r2, #3
 448 0034 EBD0     		beq	.L34
 449              		.loc 1 754 0
 450 0036 052A     		cmp	r2, #5
 451 0038 EFD1     		bne	.L35
 452              		.loc 1 756 0
 453 003a 0069     		ldr	r0, [r0, #16]
 454              	.LVL40:
 455 003c F8E7     		b	.L30
 456              		.cfi_endproc
ARM GAS  /tmp/ccYjC7Ok.s 			page 9


 457              	.LFE46:
 458              		.size	requeue, .-requeue
 459              		.section	.text.chx_set_timer,"ax",%progbits
 460              		.align	1
 461              		.syntax unified
 462              		.thumb
 463              		.thumb_func
 464              		.fpu softvfp
 465              		.type	chx_set_timer, %function
 466              	chx_set_timer:
 467              	.LFB32:
 468              		.loc 1 305 0
 469              		.cfi_startproc
 470              		@ args = 0, pretend = 0, frame = 0
 471              		@ frame_needed = 0, uses_anonymous_args = 0
 472              		@ link register save eliminated.
 473              	.LVL41:
 474              		.loc 1 306 0
 475 0000 054B     		ldr	r3, .L42
 476 0002 9842     		cmp	r0, r3
 477              	.LVL42:
 478              	.LBB213:
 479              	.LBB214:
 480              		.loc 2 118 0
 481 0004 05BF     		ittet	eq
 482 0006 0022     		moveq	r2, #0
 483              		.loc 2 117 0
 484 0008 044B     		ldreq	r3, .L42+4
 485              	.LBE214:
 486              	.LBE213:
 487              		.loc 1 309 0
 488 000a 0161     		strne	r1, [r0, #16]
 489              	.LBB216:
 490              	.LBB215:
 491              		.loc 2 117 0
 492 000c 1960     		streq	r1, [r3]
 493              		.loc 2 118 0
 494 000e 02BF     		ittt	eq
 495 0010 0349     		ldreq	r1, .L42+8
 496              	.LVL43:
 497 0012 0A60     		streq	r2, [r1]
 498              		.loc 2 119 0
 499 0014 1A60     		streq	r2, [r3]
 500              	.LBE215:
 501              	.LBE216:
 502              		.loc 1 310 0
 503 0016 7047     		bx	lr
 504              	.L43:
 505              		.align	2
 506              	.L42:
 507 0018 00000000 		.word	.LANCHOR2
 508 001c 14E000E0 		.word	-536813548
 509 0020 18E000E0 		.word	-536813544
 510              		.cfi_endproc
 511              	.LFE32:
 512              		.size	chx_set_timer, .-chx_set_timer
 513              		.section	.text.chx_timer_insert,"ax",%progbits
ARM GAS  /tmp/ccYjC7Ok.s 			page 10


 514              		.align	1
 515              		.syntax unified
 516              		.thumb
 517              		.thumb_func
 518              		.fpu softvfp
 519              		.type	chx_timer_insert, %function
 520              	chx_timer_insert:
 521              	.LFB33:
 522              		.loc 1 314 0
 523              		.cfi_startproc
 524              		@ args = 0, pretend = 0, frame = 0
 525              		@ frame_needed = 0, uses_anonymous_args = 0
 526              	.LVL44:
 527 0000 70B5     		push	{r4, r5, r6, lr}
 528              		.cfi_def_cfa_offset 16
 529              		.cfi_offset 4, -16
 530              		.cfi_offset 5, -12
 531              		.cfi_offset 6, -8
 532              		.cfi_offset 14, -4
 533              	.LBB225:
 534              	.LBB226:
 535              		.loc 2 130 0
 536 0002 4825     		movs	r5, #72
 537              	.LBE226:
 538              	.LBE225:
 539              		.loc 1 314 0
 540 0004 0446     		mov	r4, r0
 541              	.LBB228:
 542              	.LBB229:
 543              		.loc 2 125 0
 544 0006 134B     		ldr	r3, .L52
 545              	.LBE229:
 546              	.LBE228:
 547              		.loc 1 319 0
 548 0008 134A     		ldr	r2, .L52+4
 549              	.LBB231:
 550              	.LBB227:
 551              		.loc 2 130 0
 552 000a 4D43     		muls	r5, r1, r5
 553              	.LVL45:
 554              	.LBE227:
 555              	.LBE231:
 556              	.LBB232:
 557              	.LBB230:
 558              		.loc 2 125 0
 559 000c 1E68     		ldr	r6, [r3]
 560              	.LBE230:
 561              	.LBE232:
 562              		.loc 1 319 0
 563 000e 1368     		ldr	r3, [r2]
 564              	.LVL46:
 565              	.L45:
 566              		.loc 1 319 0 is_stmt 0 discriminator 1
 567 0010 9342     		cmp	r3, r2
 568 0012 0AD1     		bne	.L48
 569              	.LBB233:
 570              	.LBB234:
ARM GAS  /tmp/ccYjC7Ok.s 			page 11


 571              		.loc 1 200 0 is_stmt 1
 572 0014 5868     		ldr	r0, [r3, #4]
 573              	.LVL47:
 574              		.loc 1 199 0
 575 0016 2360     		str	r3, [r4]
 576              		.loc 1 200 0
 577 0018 6060     		str	r0, [r4, #4]
 578              	.LBE234:
 579              	.LBE233:
 580              		.loc 1 338 0
 581 001a E360     		str	r3, [r4, #12]
 582              	.LVL48:
 583              		.loc 1 340 0
 584 001c 2946     		mov	r1, r5
 585              	.LVL49:
 586              	.LBB236:
 587              	.LBB235:
 588              		.loc 1 201 0
 589 001e 0460     		str	r4, [r0]
 590              		.loc 1 202 0
 591 0020 5C60     		str	r4, [r3, #4]
 592              	.LVL50:
 593              	.LBE235:
 594              	.LBE236:
 595              		.loc 1 340 0
 596 0022 FFF7FEFF 		bl	chx_set_timer
 597              	.LVL51:
 598              		.loc 1 341 0
 599 0026 0121     		movs	r1, #1
 600 0028 0CE0     		b	.L51
 601              	.LVL52:
 602              	.L48:
 603              		.loc 1 321 0
 604 002a B542     		cmp	r5, r6
 605 002c 0ED2     		bcs	.L46
 606              	.LBB237:
 607              	.LBB238:
 608              		.loc 1 200 0
 609 002e 5868     		ldr	r0, [r3, #4]
 610              	.LVL53:
 611              	.LBE238:
 612              	.LBE237:
 613              		.loc 1 323 0
 614 0030 E260     		str	r2, [r4, #12]
 615              	.LVL54:
 616              	.LBB241:
 617              	.LBB239:
 618              		.loc 1 200 0
 619 0032 6060     		str	r0, [r4, #4]
 620              		.loc 1 201 0
 621 0034 5A68     		ldr	r2, [r3, #4]
 622              		.loc 1 199 0
 623 0036 2360     		str	r3, [r4]
 624              	.LBE239:
 625              	.LBE241:
 626              		.loc 1 325 0
 627 0038 2946     		mov	r1, r5
ARM GAS  /tmp/ccYjC7Ok.s 			page 12


 628              	.LVL55:
 629              	.LBB242:
 630              	.LBB240:
 631              		.loc 1 201 0
 632 003a 1460     		str	r4, [r2]
 633              		.loc 1 202 0
 634 003c 5C60     		str	r4, [r3, #4]
 635              	.LVL56:
 636              	.LBE240:
 637              	.LBE242:
 638              		.loc 1 325 0
 639 003e FFF7FEFF 		bl	chx_set_timer
 640              	.LVL57:
 641              		.loc 1 326 0
 642 0042 711B     		subs	r1, r6, r5
 643              	.L51:
 644              		.loc 1 341 0
 645 0044 2046     		mov	r0, r4
 646 0046 FFF7FEFF 		bl	chx_set_timer
 647              	.LVL58:
 648              		.loc 1 345 0
 649 004a 70BD     		pop	{r4, r5, r6, pc}
 650              	.LVL59:
 651              	.L46:
 652              		.loc 1 331 0 discriminator 2
 653 004c AD1B     		subs	r5, r5, r6
 654              	.LVL60:
 655              		.loc 1 332 0 discriminator 2
 656 004e 1E69     		ldr	r6, [r3, #16]
 657              	.LVL61:
 658              		.loc 1 319 0 discriminator 2
 659 0050 1B68     		ldr	r3, [r3]
 660              	.LVL62:
 661 0052 DDE7     		b	.L45
 662              	.L53:
 663              		.align	2
 664              	.L52:
 665 0054 18E000E0 		.word	-536813544
 666 0058 00000000 		.word	.LANCHOR2
 667              		.cfi_endproc
 668              	.LFE33:
 669              		.size	chx_timer_insert, .-chx_timer_insert
 670              		.section	.text.chx_timer_dequeue,"ax",%progbits
 671              		.align	1
 672              		.syntax unified
 673              		.thumb
 674              		.thumb_func
 675              		.fpu softvfp
 676              		.type	chx_timer_dequeue, %function
 677              	chx_timer_dequeue:
 678              	.LFB34:
 679              		.loc 1 350 0
 680              		.cfi_startproc
 681              		@ args = 0, pretend = 0, frame = 0
 682              		@ frame_needed = 0, uses_anonymous_args = 0
 683              	.LVL63:
 684              		.loc 1 354 0
ARM GAS  /tmp/ccYjC7Ok.s 			page 13


 685 0000 4268     		ldr	r2, [r0, #4]
 686              	.LVL64:
 687              		.loc 1 355 0
 688 0002 1049     		ldr	r1, .L59
 689              		.loc 1 350 0
 690 0004 10B5     		push	{r4, lr}
 691              		.cfi_def_cfa_offset 8
 692              		.cfi_offset 4, -8
 693              		.cfi_offset 14, -4
 694              		.loc 1 355 0
 695 0006 8A42     		cmp	r2, r1
 696              		.loc 1 350 0
 697 0008 0346     		mov	r3, r0
 698              		.loc 1 355 0
 699 000a 15D1     		bne	.L55
 700              		.loc 1 357 0
 701 000c 0168     		ldr	r1, [r0]
 702 000e 9142     		cmp	r1, r2
 703 0010 0D49     		ldr	r1, .L59+4
 704              	.LVL65:
 705              	.LBB254:
 706              		.loc 1 361 0
 707 0012 1CBF     		itt	ne
 708 0014 1C69     		ldrne	r4, [r3, #16]
 709              	.LBB255:
 710              	.LBB256:
 711              		.loc 2 125 0
 712 0016 0868     		ldrne	r0, [r1]
 713              	.LVL66:
 714 0018 0C4A     		ldr	r2, .L59+8
 715              	.LVL67:
 716              	.LBE256:
 717              	.LBE255:
 718              		.loc 1 361 0
 719 001a 17BF     		itett	ne
 720 001c 0019     		addne	r0, r0, r4
 721              	.LBE254:
 722              	.LBB263:
 723              	.LBB264:
 724              	.LBB265:
 725              		.loc 2 117 0
 726 001e 0020     		moveq	r0, #0
 727              	.LVL68:
 728              	.LBE265:
 729              	.LBE264:
 730              	.LBE263:
 731              	.LBB268:
 732              	.LBB257:
 733              	.LBB258:
 734              	.LBB259:
 735 0020 1060     		strne	r0, [r2]
 736              		.loc 2 118 0
 737 0022 0020     		movne	r0, #0
 738              	.LVL69:
 739              	.LBE259:
 740              	.LBE258:
 741              	.LBE257:
ARM GAS  /tmp/ccYjC7Ok.s 			page 14


 742              	.LBE268:
 743              	.LBB269:
 744              	.LBB267:
 745              	.LBB266:
 746              		.loc 2 117 0
 747 0024 08BF     		it	eq
 748 0026 1060     		streq	r0, [r2]
 749              	.LBE266:
 750              	.LBE267:
 751              	.LBE269:
 752              	.LBB270:
 753              	.LBB262:
 754              	.LBB261:
 755              	.LBB260:
 756              		.loc 2 118 0
 757 0028 0860     		str	r0, [r1]
 758              		.loc 2 119 0
 759 002a 1060     		str	r0, [r2]
 760              	.LVL70:
 761              	.L57:
 762              	.LBE260:
 763              	.LBE261:
 764              	.LBE262:
 765              	.LBE270:
 766              		.loc 1 368 0
 767 002c 1846     		mov	r0, r3
 768 002e FFF7FEFF 		bl	ll_dequeue
 769              	.LVL71:
 770              		.loc 1 369 0
 771 0032 0022     		movs	r2, #0
 772 0034 1A61     		str	r2, [r3, #16]
 773              	.LVL72:
 774              		.loc 1 371 0
 775 0036 10BD     		pop	{r4, pc}
 776              	.LVL73:
 777              	.L55:
 778              		.loc 1 367 0
 779 0038 1169     		ldr	r1, [r2, #16]
 780 003a 0069     		ldr	r0, [r0, #16]
 781              	.LVL74:
 782 003c 0144     		add	r1, r1, r0
 783 003e 1161     		str	r1, [r2, #16]
 784 0040 F4E7     		b	.L57
 785              	.L60:
 786 0042 00BF     		.align	2
 787              	.L59:
 788 0044 00000000 		.word	.LANCHOR2
 789 0048 18E000E0 		.word	-536813544
 790 004c 14E000E0 		.word	-536813548
 791              		.cfi_endproc
 792              	.LFE34:
 793              		.size	chx_timer_dequeue, .-chx_timer_dequeue
 794              		.section	.text.chx_wakeup,"ax",%progbits
 795              		.align	1
 796              		.syntax unified
 797              		.thumb
 798              		.thumb_func
ARM GAS  /tmp/ccYjC7Ok.s 			page 15


 799              		.fpu softvfp
 800              		.type	chx_wakeup, %function
 801              	chx_wakeup:
 802              	.LFB38:
 803              		.loc 1 484 0
 804              		.cfi_startproc
 805              		@ args = 0, pretend = 0, frame = 0
 806              		@ frame_needed = 0, uses_anonymous_args = 0
 807              	.LVL75:
 808              		.loc 1 488 0
 809 0000 90F90930 		ldrsb	r3, [r0, #9]
 810              		.loc 1 484 0
 811 0004 10B5     		push	{r4, lr}
 812              		.cfi_def_cfa_offset 8
 813              		.cfi_offset 4, -8
 814              		.cfi_offset 14, -4
 815              		.loc 1 488 0
 816 0006 002B     		cmp	r3, #0
 817              		.loc 1 484 0
 818 0008 0446     		mov	r4, r0
 819              		.loc 1 488 0
 820 000a 1EDA     		bge	.L62
 821              	.LVL76:
 822              	.LBB275:
 823              		.loc 1 493 0
 824 000c 8269     		ldr	r2, [r0, #24]
 825              		.loc 1 495 0
 826 000e 4469     		ldr	r4, [r0, #20]
 827              	.LVL77:
 828              		.loc 1 493 0
 829 0010 1368     		ldr	r3, [r2]
 830 0012 0133     		adds	r3, r3, #1
 831 0014 1360     		str	r3, [r2]
 832              		.loc 1 494 0
 833 0016 0122     		movs	r2, #1
 834 0018 C369     		ldr	r3, [r0, #28]
 835 001a 1A80     		strh	r2, [r3]	@ movhi
 836              		.loc 1 496 0
 837 001c 237A     		ldrb	r3, [r4, #8]	@ zero_extendqisi2
 838 001e 03F00F03 		and	r3, r3, #15
 839 0022 062B     		cmp	r3, #6
 840 0024 01D0     		beq	.L63
 841              	.LVL78:
 842              	.L68:
 843              	.LBE275:
 844              		.loc 1 485 0
 845 0026 0020     		movs	r0, #0
 846              	.L61:
 847              		.loc 1 517 0
 848 0028 10BD     		pop	{r4, pc}
 849              	.LVL79:
 850              	.L63:
 851              	.LBB276:
 852              		.loc 1 498 0
 853 002a 2261     		str	r2, [r4, #16]
 854              		.loc 1 499 0
 855 002c 0B4B     		ldr	r3, .L75
ARM GAS  /tmp/ccYjC7Ok.s 			page 16


 856 002e E268     		ldr	r2, [r4, #12]
 857 0030 9A42     		cmp	r2, r3
 858 0032 02D1     		bne	.L65
 859              		.loc 1 500 0
 860 0034 2046     		mov	r0, r4
 861              	.LVL80:
 862 0036 FFF7FEFF 		bl	chx_timer_dequeue
 863              	.LVL81:
 864              	.L65:
 865              		.loc 1 501 0
 866 003a 2046     		mov	r0, r4
 867              	.LVL82:
 868              	.L74:
 869 003c FFF7FEFF 		bl	chx_ready_enqueue
 870              	.LVL83:
 871              		.loc 1 502 0
 872 0040 074B     		ldr	r3, .L75+4
 873 0042 1B68     		ldr	r3, [r3]
 874 0044 23B9     		cbnz	r3, .L73
 875              	.L67:
 876              		.loc 1 503 0
 877 0046 0120     		movs	r0, #1
 878 0048 EEE7     		b	.L61
 879              	.LVL84:
 880              	.L62:
 881              	.LBE276:
 882              	.LBB277:
 883              	.LBB278:
 884              		.loc 1 510 0
 885 004a 0123     		movs	r3, #1
 886 004c 0361     		str	r3, [r0, #16]
 887 004e F5E7     		b	.L74
 888              	.LVL85:
 889              	.L73:
 890              		.loc 1 512 0
 891 0050 E27A     		ldrb	r2, [r4, #11]	@ zero_extendqisi2
 892 0052 DB7A     		ldrb	r3, [r3, #11]	@ zero_extendqisi2
 893 0054 9A42     		cmp	r2, r3
 894 0056 F6D8     		bhi	.L67
 895 0058 E5E7     		b	.L68
 896              	.L76:
 897 005a 00BF     		.align	2
 898              	.L75:
 899 005c 00000000 		.word	.LANCHOR2
 900 0060 00000000 		.word	.LANCHOR0
 901              	.LBE278:
 902              	.LBE277:
 903              		.cfi_endproc
 904              	.LFE38:
 905              		.size	chx_wakeup, .-chx_wakeup
 906              		.section	.text.chopstx_exit,"ax",%progbits
 907              		.align	1
 908              		.global	chopstx_exit
 909              		.syntax unified
 910              		.thumb
 911              		.thumb_func
 912              		.fpu softvfp
ARM GAS  /tmp/ccYjC7Ok.s 			page 17


 913              		.type	chopstx_exit, %function
 914              	chopstx_exit:
 915              	.LFB59:
 916              		.loc 1 1074 0
 917              		.cfi_startproc
 918              		@ Volatile: function does not return.
 919              		@ args = 0, pretend = 0, frame = 0
 920              		@ frame_needed = 0, uses_anonymous_args = 0
 921              	.LVL86:
 922              		.loc 1 1078 0
 923 0000 0022     		movs	r2, #0
 924              		.loc 1 1074 0
 925 0002 0646     		mov	r6, r0
 926              		.loc 1 1076 0
 927 0004 204C     		ldr	r4, .L94
 928              		.loc 1 1074 0
 929 0006 08B5     		push	{r3, lr}
 930              		.cfi_def_cfa_offset 8
 931              		.cfi_offset 3, -8
 932              		.cfi_offset 14, -4
 933              		.loc 1 1076 0
 934 0008 2368     		ldr	r3, [r4]
 935 000a DD6B     		ldr	r5, [r3, #60]
 936              	.LVL87:
 937              		.loc 1 1078 0
 938 000c DA63     		str	r2, [r3, #60]
 939              	.LVL88:
 940              	.L78:
 941              		.loc 1 1079 0
 942 000e 5DBB     		cbnz	r5, .L79
 943              		.loc 1 1086 0
 944 0010 2368     		ldr	r3, [r4]
 945 0012 986B     		ldr	r0, [r3, #56]
 946              	.LVL89:
 947              	.L80:
 948              		.loc 1 1086 0 is_stmt 0 discriminator 1
 949 0014 68BB     		cbnz	r0, .L81
 950              	.LVL90:
 951              	.LBB281:
 952              	.LBB282:
 953              		.loc 1 526 0 is_stmt 1
 954 0016 FFF7FEFF 		bl	chx_cpu_sched_lock
 955              	.LVL91:
 956              		.loc 1 527 0
 957 001a 2168     		ldr	r1, [r4]
 958 001c 0B7A     		ldrb	r3, [r1, #8]	@ zero_extendqisi2
 959 001e 5806     		lsls	r0, r3, #25
 960              	.LVL92:
 961 0020 0CD5     		bpl	.L82
 962              	.LVL93:
 963              		.loc 1 530 0
 964 0022 1A4A     		ldr	r2, .L94+4
 965 0024 1368     		ldr	r3, [r2]
 966              	.LVL94:
 967              	.L83:
 968 0026 9342     		cmp	r3, r2
 969 0028 08D0     		beq	.L82
ARM GAS  /tmp/ccYjC7Ok.s 			page 18


 970              		.loc 1 531 0
 971 002a 1869     		ldr	r0, [r3, #16]
 972 002c 8142     		cmp	r1, r0
 973 002e 29D1     		bne	.L84
 974              		.loc 1 533 0
 975 0030 1846     		mov	r0, r3
 976 0032 FFF7FEFF 		bl	ll_dequeue
 977              	.LVL95:
 978              		.loc 1 534 0
 979 0036 1846     		mov	r0, r3
 980 0038 FFF7FEFF 		bl	chx_wakeup
 981              	.LVL96:
 982              	.L82:
 983              		.loc 1 540 0
 984 003c 2068     		ldr	r0, [r4]
 985 003e 90F90830 		ldrsb	r3, [r0, #8]
 986 0042 002B     		cmp	r3, #0
 987 0044 01DA     		bge	.L86
 988              		.loc 1 541 0
 989 0046 FFF7FEFF 		bl	chx_timer_dequeue
 990              	.LVL97:
 991              	.L86:
 992              		.loc 1 542 0
 993 004a 2268     		ldr	r2, [r4]
 994              		.loc 1 547 0
 995 004c 0020     		movs	r0, #0
 996              		.loc 1 542 0
 997 004e 137A     		ldrb	r3, [r2, #8]	@ zero_extendqisi2
 998              		.loc 1 546 0
 999 0050 1661     		str	r6, [r2, #16]
 1000              		.loc 1 542 0
 1001 0052 D906     		lsls	r1, r3, #27
 1002              		.loc 1 545 0
 1003 0054 56BF     		itet	pl
 1004 0056 0E21     		movpl	r1, #14
 1005              		.loc 1 543 0
 1006 0058 43F00F03 		orrmi	r3, r3, #15
 1007              		.loc 1 545 0
 1008 005c 61F30303 		bfipl	r3, r1, #0, #4
 1009 0060 1372     		strb	r3, [r2, #8]
 1010              		.loc 1 547 0
 1011 0062 FFF7FEFF 		bl	chx_sched
 1012              	.LVL98:
 1013              	.L89:
 1014 0066 FEE7     		b	.L89
 1015              	.LVL99:
 1016              	.L79:
 1017              	.LBE282:
 1018              	.LBE281:
 1019              		.loc 1 1081 0
 1020 0068 D5E90130 		ldrd	r3, r0, [r5, #4]
 1021 006c 9847     		blx	r3
 1022              	.LVL100:
 1023              		.loc 1 1082 0
 1024 006e 2D68     		ldr	r5, [r5]
 1025              	.LVL101:
 1026 0070 CDE7     		b	.L78
ARM GAS  /tmp/ccYjC7Ok.s 			page 19


 1027              	.LVL102:
 1028              	.L81:
 1029              		.loc 1 1088 0 discriminator 3
 1030 0072 C568     		ldr	r5, [r0, #12]
 1031              	.LVL103:
 1032              		.loc 1 1090 0 discriminator 3
 1033 0074 FFF7FEFF 		bl	chx_cpu_sched_lock
 1034              	.LVL104:
 1035              		.loc 1 1092 0 discriminator 3
 1036 0078 FFF7FEFF 		bl	chx_mutex_unlock
 1037              	.LVL105:
 1038              		.loc 1 1094 0 discriminator 3
 1039 007c FFF7FEFF 		bl	chx_cpu_sched_unlock
 1040              	.LVL106:
 1041              		.loc 1 1086 0 discriminator 3
 1042 0080 2846     		mov	r0, r5
 1043 0082 C7E7     		b	.L80
 1044              	.LVL107:
 1045              	.L84:
 1046              	.LBB284:
 1047              	.LBB283:
 1048              		.loc 1 530 0
 1049 0084 1B68     		ldr	r3, [r3]
 1050              	.LVL108:
 1051 0086 CEE7     		b	.L83
 1052              	.L95:
 1053              		.align	2
 1054              	.L94:
 1055 0088 00000000 		.word	.LANCHOR0
 1056 008c 00000000 		.word	.LANCHOR3
 1057              	.LBE283:
 1058              	.LBE284:
 1059              		.cfi_endproc
 1060              	.LFE59:
 1061              		.size	chopstx_exit, .-chopstx_exit
 1062              		.section	.text.chx_snooze,"ax",%progbits
 1063              		.align	1
 1064              		.syntax unified
 1065              		.thumb
 1066              		.thumb_func
 1067              		.fpu softvfp
 1068              		.type	chx_snooze, %function
 1069              	chx_snooze:
 1070              	.LFB42:
 1071              		.loc 1 652 0
 1072              		.cfi_startproc
 1073              		@ args = 0, pretend = 0, frame = 0
 1074              		@ frame_needed = 0, uses_anonymous_args = 0
 1075              	.LVL109:
 1076 0000 F8B5     		push	{r3, r4, r5, r6, r7, lr}
 1077              		.cfi_def_cfa_offset 24
 1078              		.cfi_offset 3, -24
 1079              		.cfi_offset 4, -20
 1080              		.cfi_offset 5, -16
 1081              		.cfi_offset 6, -12
 1082              		.cfi_offset 7, -8
 1083              		.cfi_offset 14, -4
ARM GAS  /tmp/ccYjC7Ok.s 			page 20


 1084              		.loc 1 653 0
 1085 0002 0C68     		ldr	r4, [r1]
 1086              	.LVL110:
 1087              		.loc 1 652 0
 1088 0004 0746     		mov	r7, r0
 1089 0006 0E46     		mov	r6, r1
 1090              		.loc 1 657 0
 1091 0008 1CB9     		cbnz	r4, .L97
 1092              		.loc 1 659 0
 1093 000a FFF7FEFF 		bl	chx_cpu_sched_unlock
 1094              	.LVL111:
 1095              		.loc 1 660 0
 1096 000e 0120     		movs	r0, #1
 1097              	.LVL112:
 1098              	.L96:
 1099              		.loc 1 676 0
 1100 0010 F8BD     		pop	{r3, r4, r5, r6, r7, pc}
 1101              	.LVL113:
 1102              	.L97:
 1103              		.loc 1 664 0
 1104 0012 0E4D     		ldr	r5, .L100
 1105              		.loc 1 663 0
 1106 0014 0E4B     		ldr	r3, .L100+4
 1107              		.loc 1 664 0
 1108 0016 2868     		ldr	r0, [r5]
 1109              	.LVL114:
 1110              		.loc 1 663 0
 1111 0018 9C42     		cmp	r4, r3
 1112              		.loc 1 664 0
 1113 001a 90F90820 		ldrsb	r2, [r0, #8]
 1114              		.loc 1 663 0
 1115 001e 28BF     		it	cs
 1116 0020 1C46     		movcs	r4, r3
 1117              	.LVL115:
 1118              		.loc 1 664 0
 1119 0022 002A     		cmp	r2, #0
 1120 0024 01DA     		bge	.L99
 1121              		.loc 1 665 0
 1122 0026 FFF7FEFF 		bl	chx_timer_dequeue
 1123              	.LVL116:
 1124              	.L99:
 1125              		.loc 1 668 0
 1126 002a 2868     		ldr	r0, [r5]
 1127              		.loc 1 669 0
 1128 002c 2146     		mov	r1, r4
 1129              		.loc 1 668 0
 1130 002e 037A     		ldrb	r3, [r0, #8]	@ zero_extendqisi2
 1131 0030 67F30303 		bfi	r3, r7, #0, #4
 1132 0034 0372     		strb	r3, [r0, #8]
 1133              		.loc 1 669 0
 1134 0036 FFF7FEFF 		bl	chx_timer_insert
 1135              	.LVL117:
 1136              		.loc 1 671 0
 1137 003a 0020     		movs	r0, #0
 1138 003c FFF7FEFF 		bl	chx_sched
 1139              	.LVL118:
 1140              		.loc 1 672 0
ARM GAS  /tmp/ccYjC7Ok.s 			page 21


 1141 0040 0028     		cmp	r0, #0
 1142 0042 E5D1     		bne	.L96
 1143              		.loc 1 673 0
 1144 0044 3368     		ldr	r3, [r6]
 1145 0046 1C1B     		subs	r4, r3, r4
 1146              	.LVL119:
 1147 0048 3460     		str	r4, [r6]
 1148 004a E1E7     		b	.L96
 1149              	.L101:
 1150              		.align	2
 1151              	.L100:
 1152 004c 00000000 		.word	.LANCHOR0
 1153 0050 388E0300 		.word	233016
 1154              		.cfi_endproc
 1155              	.LFE42:
 1156              		.size	chx_snooze, .-chx_snooze
 1157              		.section	.text.chx_fatal,"ax",%progbits
 1158              		.align	1
 1159              		.weak	chx_fatal
 1160              		.syntax unified
 1161              		.thumb
 1162              		.thumb_func
 1163              		.fpu softvfp
 1164              		.type	chx_fatal, %function
 1165              	chx_fatal:
 1166              	.LFB0:
 1167              		.loc 1 70 0
 1168              		.cfi_startproc
 1169              		@ Volatile: function does not return.
 1170              		@ args = 0, pretend = 0, frame = 0
 1171              		@ frame_needed = 0, uses_anonymous_args = 0
 1172              		@ link register save eliminated.
 1173              	.LVL120:
 1174              	.L103:
 1175 0000 FEE7     		b	.L103
 1176              		.cfi_endproc
 1177              	.LFE0:
 1178              		.size	chx_fatal, .-chx_fatal
 1179              		.section	.text.idle,"ax",%progbits
 1180              		.align	1
 1181              		.syntax unified
 1182              		.thumb
 1183              		.thumb_func
 1184              		.fpu softvfp
 1185              		.type	idle, %function
 1186              	idle:
 1187              	.LFB24:
 1188              		.loc 2 234 0
 1189              		.cfi_startproc
 1190              		@ Naked Function: prologue and epilogue provided by programmer.
 1191              		@ Volatile: function does not return.
 1192              		@ args = 0, pretend = 0, frame = 0
 1193              		@ frame_needed = 0, uses_anonymous_args = 0
 1194              	.L105:
 1195 0000 FEE7     		b	.L105
 1196              		.cfi_endproc
 1197              	.LFE24:
ARM GAS  /tmp/ccYjC7Ok.s 			page 22


 1198              		.size	idle, .-idle
 1199              		.section	.text.chx_handle_intr,"ax",%progbits
 1200              		.align	1
 1201              		.global	chx_handle_intr
 1202              		.syntax unified
 1203              		.thumb
 1204              		.thumb_func
 1205              		.fpu softvfp
 1206              		.type	chx_handle_intr, %function
 1207              	chx_handle_intr:
 1208              	.LFB25:
 1209              		.loc 2 246 0
 1210              		.cfi_startproc
 1211              		@ args = 0, pretend = 0, frame = 0
 1212              		@ frame_needed = 0, uses_anonymous_args = 0
 1213              		.loc 2 246 0
 1214 0000 10B5     		push	{r4, lr}
 1215              		.cfi_def_cfa_offset 8
 1216              		.cfi_offset 4, -8
 1217              		.cfi_offset 14, -4
 1218              		.loc 2 250 0
 1219              		.syntax unified
 1220              	@ 250 "../chopstx/chopstx-cortex-m.c" 1
 1221 0002 EFF30580 		mrs	r0, IPSR
 1222 0006 A0F11000 		sub	r0, #16
 1223              	@ 0 "" 2
 1224              	.LVL121:
 1225              		.thumb
 1226              		.syntax unified
 1227              	.LBB290:
 1228              	.LBB291:
 1229              		.loc 2 174 0
 1230 000a 0121     		movs	r1, #1
 1231              	.LBE291:
 1232              	.LBE290:
 1233              		.loc 2 254 0
 1234 000c C3B2     		uxtb	r3, r0
 1235              	.LVL122:
 1236              	.LBB293:
 1237              	.LBB292:
 1238              		.loc 2 174 0
 1239 000e 5A09     		lsrs	r2, r3, #5
 1240 0010 03F01F03 		and	r3, r3, #31
 1241              	.LVL123:
 1242 0014 01FA03F3 		lsl	r3, r1, r3
 1243 0018 0F49     		ldr	r1, .L116
 1244 001a 2032     		adds	r2, r2, #32
 1245 001c 41F82230 		str	r3, [r1, r2, lsl #2]
 1246              	.LVL124:
 1247              	.LBE292:
 1248              	.LBE293:
 1249              		.loc 2 256 0
 1250 0020 0E4B     		ldr	r3, .L116+4
 1251 0022 1C68     		ldr	r4, [r3]
 1252              	.LVL125:
 1253              	.L107:
 1254              		.loc 2 256 0 is_stmt 0 discriminator 1
ARM GAS  /tmp/ccYjC7Ok.s 			page 23


 1255 0024 9C42     		cmp	r4, r3
 1256 0026 14D0     		beq	.L106
 1257              		.loc 2 257 0 is_stmt 1
 1258 0028 2269     		ldr	r2, [r4, #16]
 1259 002a 8242     		cmp	r2, r0
 1260 002c 12D1     		bne	.L108
 1261              	.LVL126:
 1262              	.LBB294:
 1263              		.loc 2 261 0
 1264 002e 2046     		mov	r0, r4
 1265              	.LVL127:
 1266 0030 FFF7FEFF 		bl	ll_dequeue
 1267              	.LVL128:
 1268              		.loc 2 262 0
 1269 0034 2046     		mov	r0, r4
 1270 0036 FFF7FEFF 		bl	chx_wakeup
 1271              	.LVL129:
 1272              	.LBB295:
 1273              	.LBB296:
 1274              		.loc 2 278 0
 1275 003a 094B     		ldr	r3, .L116+8
 1276 003c 1B68     		ldr	r3, [r3]
 1277 003e 23B1     		cbz	r3, .L109
 1278              	.LBE296:
 1279              	.LBE295:
 1280              		.loc 2 263 0
 1281 0040 6269     		ldr	r2, [r4, #20]
 1282              	.LBB298:
 1283              	.LBB297:
 1284              		.loc 2 278 0
 1285 0042 DB7A     		ldrb	r3, [r3, #11]	@ zero_extendqisi2
 1286 0044 D27A     		ldrb	r2, [r2, #11]	@ zero_extendqisi2
 1287 0046 9A42     		cmp	r2, r3
 1288 0048 03D9     		bls	.L106
 1289              	.L109:
 1290              		.loc 2 280 0
 1291 004a 4FF08052 		mov	r2, #268435456
 1292 004e 054B     		ldr	r3, .L116+12
 1293 0050 1A60     		str	r2, [r3]
 1294              	.LVL130:
 1295              		.loc 2 281 0
 1296              	.LVL131:
 1297              	.L106:
 1298              	.LBE297:
 1299              	.LBE298:
 1300              	.LBE294:
 1301              		.loc 2 267 0
 1302 0052 10BD     		pop	{r4, pc}
 1303              	.LVL132:
 1304              	.L108:
 1305              		.loc 2 256 0 discriminator 2
 1306 0054 2468     		ldr	r4, [r4]
 1307              	.LVL133:
 1308 0056 E5E7     		b	.L107
 1309              	.L117:
 1310              		.align	2
 1311              	.L116:
ARM GAS  /tmp/ccYjC7Ok.s 			page 24


 1312 0058 00E100E0 		.word	-536813312
 1313 005c 00000000 		.word	.LANCHOR4
 1314 0060 00000000 		.word	.LANCHOR0
 1315 0064 04ED00E0 		.word	-536810236
 1316              		.cfi_endproc
 1317              	.LFE25:
 1318              		.size	chx_handle_intr, .-chx_handle_intr
 1319              		.section	.text.preempt,"ax",%progbits
 1320              		.align	1
 1321              		.global	preempt
 1322              		.syntax unified
 1323              		.thumb
 1324              		.thumb_func
 1325              		.fpu softvfp
 1326              		.type	preempt, %function
 1327              	preempt:
 1328              	.LFB30:
 1329              		.loc 2 506 0
 1330              		.cfi_startproc
 1331              		@ Naked Function: prologue and epilogue provided by programmer.
 1332              		@ args = 0, pretend = 0, frame = 0
 1333              		@ frame_needed = 0, uses_anonymous_args = 0
 1334              		.loc 2 510 0
 1335 0000 4020     		movs	r0, #64
 1336              		.syntax unified
 1337              	@ 510 "../chopstx/chopstx-cortex-m.c" 1
 1338 0002 80F31188 		msr	BASEPRI, r0
 1339 0006 3D4A     		ldr	r2, =running
 1340 0008 1068     		ldr	r0, [r2]
 1341 000a 0146     		mov	r1, r0
 1342              	@ 0 "" 2
 1343              		.loc 2 523 0
 1344              		.thumb
 1345              		.syntax unified
 1346 000c C1B1     		cbz	r1, .L120
 1347              		.loc 2 529 0
 1348              		.syntax unified
 1349              	@ 529 "../chopstx/chopstx-cortex-m.c" 1
 1350 000e 01F11401 		add	r1, #20
 1351 0012 F0C1     		stm	r1!, {r4, r5, r6, r7}
 1352 0014 4246     		mov	r2, r8
 1353 0016 4B46     		mov	r3, r9
 1354 0018 5446     		mov	r4, r10
 1355 001a 5D46     		mov	r5, r11
 1356 001c EFF30986 		mrs	r6, PSP
 1357 0020 7CC1     		stm	r1!, {r2, r3, r4, r5, r6}
 1358              	@ 0 "" 2
 1359              		.loc 2 547 0
 1360              		.thumb
 1361              		.syntax unified
 1362 0022 0446     		mov	r4, r0
 1363 0024 60B1     		cbz	r0, .L120
 1364              		.loc 2 549 0
 1365 0026 037A     		ldrb	r3, [r0, #8]	@ zero_extendqisi2
 1366 0028 1906     		lsls	r1, r3, #24
 1367 002a 4DD5     		bpl	.L122
 1368              		.loc 2 551 0
ARM GAS  /tmp/ccYjC7Ok.s 			page 25


 1369 002c 1A07     		lsls	r2, r3, #28
 1370 002e 04D1     		bne	.L123
 1371              		.loc 2 553 0
 1372 0030 FFF7FEFF 		bl	chx_timer_dequeue
 1373              	.LVL134:
 1374              		.loc 2 554 0
 1375 0034 2046     		mov	r0, r4
 1376 0036 FFF7FEFF 		bl	chx_ready_enqueue
 1377              	.LVL135:
 1378              	.L123:
 1379              		.loc 2 563 0
 1380 003a 0022     		movs	r2, #0
 1381 003c 2D4B     		ldr	r3, .L135
 1382 003e 1A60     		str	r2, [r3]
 1383              	.L120:
 1384              	.LVL136:
 1385              	.LBB307:
 1386              	.LBB308:
 1387              		.loc 1 265 0
 1388 0040 2D48     		ldr	r0, .L135+4
 1389 0042 FFF7FEFF 		bl	ll_pop
 1390              	.LVL137:
 1391              		.loc 1 266 0
 1392 0046 48B1     		cbz	r0, .L128
 1393              		.loc 1 267 0
 1394 0048 037A     		ldrb	r3, [r0, #8]	@ zero_extendqisi2
 1395 004a 6FF30303 		bfc	r3, #0, #4
 1396 004e 0372     		strb	r3, [r0, #8]
 1397              	.LVL138:
 1398              	.LBE308:
 1399              	.LBE307:
 1400              		.loc 2 570 0
 1401 0050 1B06     		lsls	r3, r3, #24
 1402 0052 03D5     		bpl	.L128
 1403              	.LVL139:
 1404              		.loc 2 573 0
 1405 0054 4FF47A71 		mov	r1, #1000
 1406 0058 FFF7FEFF 		bl	chx_timer_insert
 1407              	.LVL140:
 1408              	.L128:
 1409              		.loc 2 577 0
 1410              		.syntax unified
 1411              	@ 577 "../chopstx/chopstx-cortex-m.c" 1
 1412              		.L_CONTEXT_SWITCH:
 1413 005c 2749     		ldr	r1, =running
 1414 005e 0860     		str	r0, [r1]
 1415 0060 D0B1     		cbz	r0, 1f
 1416 0062 00F11400 		add	r0, #20
 1417 0066 F0C8     		ldm	r0!, {r4, r5, r6, r7}
 1418 0068 50F8048B 		ldr	r8, [r0], #4
 1419 006c 50F8049B 		ldr	r9, [r0], #4
 1420 0070 50F804AB 		ldr	r10, [r0], #4
 1421 0074 50F804BB 		ldr	r11, [r0], #4
 1422 0078 50F8041B 		ldr	r1, [r0], #4
 1423 007c 81F30988 		msr	PSP, r1
 1424 0080 A0F12D00 		sub	r0, #45
 1425 0084 0178     		ldrb	r1, [r0]
ARM GAS  /tmp/ccYjC7Ok.s 			page 26


 1426 0086 4FF00000 		mov	r0, #0
 1427 008a F729     		cmp	r1, #247
 1428 008c 01D8     		bhi	0f
 1429 008e 80F31188 		msr	BASEPRI, r0
 1430              	0:
 1431 0092 A0F10300 		sub	r0, #3
 1432 0096 0047     		bx	r0
 1433              	1:
 1434 0098 1948     		ldr	r0, =__main_stack_end__-32
 1435 009a 80F30988 		msr	PSP, r0
 1436 009e 4FF00001 		mov	r1, #0
 1437 00a2 4FF00002 		mov	r2, #0
 1438 00a6 4FF00003 		mov	r3, #0
 1439 00aa 0EC0     		stm	r0!, {r1, r2, r3}
 1440 00ac 0EC0     		stm	r0!, {r1, r2, r3}
 1441 00ae 1549     		ldr	r1, =idle
 1442 00b0 4FF01002 		mov	r2, #0x010
 1443 00b4 4FEA0252 		lsl	r2, r2, #20
 1444 00b8 06C0     		stm	r0!, {r1, r2}
 1445 00ba 4FF00000 		mov	r0, #0
 1446 00be 80F31188 		msr	BASEPRI, r0
 1447 00c2 A0F10300 	sub	r0, #3
 1448 00c6 0047     		bx	r0
 1449              	@ 0 "" 2
 1450              		.loc 2 650 0
 1451              		.thumb
 1452              		.syntax unified
 1453              	.L122:
 1454              	.LVL141:
 1455              	.LBB309:
 1456              	.LBB310:
 1457              		.loc 1 278 0
 1458 00c8 0122     		movs	r2, #1
 1459 00ca 62F30303 		bfi	r3, r2, #0, #4
 1460              	.LBB311:
 1461              	.LBB312:
 1462              		.loc 1 220 0
 1463 00ce 0A4A     		ldr	r2, .L135+4
 1464              	.LBE312:
 1465              	.LBE311:
 1466              		.loc 1 278 0
 1467 00d0 0372     		strb	r3, [r0, #8]
 1468              	.LVL142:
 1469              	.LBB316:
 1470              	.LBB315:
 1471              		.loc 1 220 0
 1472 00d2 1368     		ldr	r3, [r2]
 1473              	.LVL143:
 1474              	.L124:
 1475 00d4 9342     		cmp	r3, r2
 1476 00d6 07D1     		bne	.L126
 1477              	.L125:
 1478              		.loc 1 224 0
 1479 00d8 E260     		str	r2, [r4, #12]
 1480              	.LVL144:
 1481              	.LBB313:
 1482              	.LBB314:
ARM GAS  /tmp/ccYjC7Ok.s 			page 27


 1483              		.loc 1 200 0
 1484 00da 5A68     		ldr	r2, [r3, #4]
 1485              		.loc 1 199 0
 1486 00dc 2360     		str	r3, [r4]
 1487              		.loc 1 200 0
 1488 00de 6260     		str	r2, [r4, #4]
 1489              		.loc 1 201 0
 1490 00e0 5A68     		ldr	r2, [r3, #4]
 1491 00e2 1460     		str	r4, [r2]
 1492              		.loc 1 202 0
 1493 00e4 5C60     		str	r4, [r3, #4]
 1494 00e6 A8E7     		b	.L123
 1495              	.LVL145:
 1496              	.L126:
 1497              	.LBE314:
 1498              	.LBE313:
 1499              		.loc 1 221 0
 1500 00e8 D87A     		ldrb	r0, [r3, #11]	@ zero_extendqisi2
 1501 00ea E17A     		ldrb	r1, [r4, #11]	@ zero_extendqisi2
 1502 00ec 8842     		cmp	r0, r1
 1503 00ee F3D9     		bls	.L125
 1504              		.loc 1 220 0
 1505 00f0 1B68     		ldr	r3, [r3]
 1506              	.LVL146:
 1507 00f2 EFE7     		b	.L124
 1508              	.L136:
 1509              		.align	2
 1510              	.L135:
 1511 00f4 00000000 		.word	.LANCHOR0
 1512 00f8 00000000 		.word	.LANCHOR1
 1513              	.LBE315:
 1514              	.LBE316:
 1515              	.LBE310:
 1516              	.LBE309:
 1517              		.cfi_endproc
 1518              	.LFE30:
 1519              		.size	preempt, .-preempt
 1520              		.section	.text.svc,"ax",%progbits
 1521              		.align	1
 1522              		.global	svc
 1523              		.syntax unified
 1524              		.thumb
 1525              		.thumb_func
 1526              		.fpu softvfp
 1527              		.type	svc, %function
 1528              	svc:
 1529              	.LFB31:
 1530              		.loc 2 663 0
 1531              		.cfi_startproc
 1532              		@ Naked Function: prologue and epilogue provided by programmer.
 1533              		@ args = 0, pretend = 0, frame = 0
 1534              		@ frame_needed = 0, uses_anonymous_args = 0
 1535              		.loc 2 667 0
 1536              		.syntax unified
 1537              	@ 667 "../chopstx/chopstx-cortex-m.c" 1
 1538 0000 1849     		ldr	r1, =running
 1539 0002 0868     		ldr	r0, [r1]
ARM GAS  /tmp/ccYjC7Ok.s 			page 28


 1540 0004 00F11401 		add	r1, r0, #20
 1541 0008 F0C1     		stm	r1!, {r4, r5, r6, r7}
 1542 000a 4246     		mov	r2, r8
 1543 000c 4B46     		mov	r3, r9
 1544 000e 5446     		mov	r4, r10
 1545 0010 5D46     		mov	r5, r11
 1546 0012 EFF30986 		mrs	r6, PSP
 1547 0016 7CC1     		stm	r1!, {r2, r3, r4, r5, r6}
 1548 0018 3168     		ldr	r1, [r6]
 1549              	@ 0 "" 2
 1550              		.loc 2 683 0
 1551              		.thumb
 1552              		.syntax unified
 1553 001a 61B1     		cbz	r1, .L138
 1554              		.loc 2 685 0
 1555 001c 90F90830 		ldrsb	r3, [r0, #8]
 1556 0020 0446     		mov	r4, r0
 1557 0022 002B     		cmp	r3, #0
 1558 0024 01DA     		bge	.L139
 1559              		.loc 2 686 0
 1560 0026 FFF7FEFF 		bl	chx_timer_dequeue
 1561              	.LVL147:
 1562              	.L139:
 1563              		.loc 2 687 0
 1564 002a 2046     		mov	r0, r4
 1565 002c FFF7FEFF 		bl	chx_ready_enqueue
 1566              	.LVL148:
 1567              		.loc 2 688 0
 1568 0030 0022     		movs	r2, #0
 1569 0032 0A4B     		ldr	r3, .L148
 1570 0034 1A60     		str	r2, [r3]
 1571              	.L138:
 1572              	.LVL149:
 1573              	.LBB319:
 1574              	.LBB320:
 1575              		.loc 1 265 0
 1576 0036 0A48     		ldr	r0, .L148+4
 1577 0038 FFF7FEFF 		bl	ll_pop
 1578              	.LVL150:
 1579              		.loc 1 266 0
 1580 003c 48B1     		cbz	r0, .L141
 1581              		.loc 1 267 0
 1582 003e 037A     		ldrb	r3, [r0, #8]	@ zero_extendqisi2
 1583 0040 6FF30303 		bfc	r3, #0, #4
 1584 0044 0372     		strb	r3, [r0, #8]
 1585              	.LVL151:
 1586              	.LBE320:
 1587              	.LBE319:
 1588              		.loc 2 692 0
 1589 0046 1B06     		lsls	r3, r3, #24
 1590 0048 03D5     		bpl	.L141
 1591              	.LVL152:
 1592              		.loc 2 695 0
 1593 004a 4FF47A71 		mov	r1, #1000
 1594 004e FFF7FEFF 		bl	chx_timer_insert
 1595              	.LVL153:
 1596              	.L141:
ARM GAS  /tmp/ccYjC7Ok.s 			page 29


 1597              		.loc 2 699 0
 1598              		.syntax unified
 1599              	@ 699 "../chopstx/chopstx-cortex-m.c" 1
 1600 0052 08B1     		cbz	r0, 0f
 1601 0054 0169     		ldr	r1, [r0, #16]
 1602 0056 0091     		str	r1, [sp]
 1603              		0:
 1604 0058 00F02CB8 		b	.L_CONTEXT_SWITCH
 1605              	@ 0 "" 2
 1606              		.loc 2 706 0
 1607              		.thumb
 1608              		.syntax unified
 1609              	.L149:
 1610              		.align	2
 1611              	.L148:
 1612 005c 00000000 		.word	.LANCHOR0
 1613 0060 00000000 		.word	.LANCHOR1
 1614              		.cfi_endproc
 1615              	.LFE31:
 1616              		.size	svc, .-svc
 1617              		.section	.text.chx_timer_expired,"ax",%progbits
 1618              		.align	1
 1619              		.global	chx_timer_expired
 1620              		.syntax unified
 1621              		.thumb
 1622              		.thumb_func
 1623              		.fpu softvfp
 1624              		.type	chx_timer_expired, %function
 1625              	chx_timer_expired:
 1626              	.LFB35:
 1627              		.loc 1 376 0
 1628              		.cfi_startproc
 1629              		@ args = 0, pretend = 0, frame = 0
 1630              		@ frame_needed = 0, uses_anonymous_args = 0
 1631              	.LVL154:
 1632 0000 2DE9F843 		push	{r3, r4, r5, r6, r7, r8, r9, lr}
 1633              		.cfi_def_cfa_offset 32
 1634              		.cfi_offset 3, -32
 1635              		.cfi_offset 4, -28
 1636              		.cfi_offset 5, -24
 1637              		.cfi_offset 6, -20
 1638              		.cfi_offset 7, -16
 1639              		.cfi_offset 8, -12
 1640              		.cfi_offset 9, -8
 1641              		.cfi_offset 14, -4
 1642              		.loc 1 381 0
 1643 0004 2348     		ldr	r0, .L167
 1644 0006 FFF7FEFF 		bl	ll_pop
 1645              	.LVL155:
 1646 000a DFF89880 		ldr	r8, .L167+16
 1647 000e 0446     		mov	r4, r0
 1648 0010 68B1     		cbz	r0, .L151
 1649              	.LBB333:
 1650              		.loc 1 383 0
 1651 0012 0769     		ldr	r7, [r0, #16]
 1652              	.LVL156:
 1653              		.loc 1 385 0
ARM GAS  /tmp/ccYjC7Ok.s 			page 30


 1654 0014 FFF7FEFF 		bl	chx_ready_enqueue
 1655              	.LVL157:
 1656              		.loc 1 386 0
 1657 0018 D8F80030 		ldr	r3, [r8]
 1658 001c 8342     		cmp	r3, r0
 1659 001e 12D0     		beq	.L160
 1660              		.loc 1 389 0
 1661 0020 C47A     		ldrb	r4, [r0, #11]	@ zero_extendqisi2
 1662 0022 04B1     		cbz	r4, .L152
 1663 0024 A4B2     		uxth	r4, r4
 1664              	.L152:
 1665              	.LVL158:
 1666              	.LBB334:
 1667              	.LBB335:
 1668              		.loc 1 182 0
 1669 0026 1B4E     		ldr	r6, .L167
 1670 0028 3568     		ldr	r5, [r6]
 1671              	.LVL159:
 1672              	.LBE335:
 1673              	.LBE334:
 1674              		.loc 1 392 0
 1675 002a B542     		cmp	r5, r6
 1676 002c 22D1     		bne	.L153
 1677              	.LVL160:
 1678              	.L151:
 1679              	.LBE333:
 1680              	.LBB340:
 1681              	.LBB341:
 1682              		.loc 2 278 0
 1683 002e D8F80030 		ldr	r3, [r8]
 1684 0032 13B1     		cbz	r3, .L157
 1685 0034 DB7A     		ldrb	r3, [r3, #11]	@ zero_extendqisi2
 1686 0036 A342     		cmp	r3, r4
 1687 0038 03D2     		bcs	.L150
 1688              	.L157:
 1689              		.loc 2 280 0
 1690 003a 4FF08052 		mov	r2, #268435456
 1691 003e 164B     		ldr	r3, .L167+4
 1692 0040 1A60     		str	r2, [r3]
 1693              		.loc 2 281 0
 1694              	.LVL161:
 1695              	.L150:
 1696              	.LBE341:
 1697              	.LBE340:
 1698              		.loc 1 418 0
 1699 0042 BDE8F883 		pop	{r3, r4, r5, r6, r7, r8, r9, pc}
 1700              	.LVL162:
 1701              	.L160:
 1702              	.LBB342:
 1703              		.loc 1 387 0
 1704 0046 4FF48074 		mov	r4, #256
 1705 004a ECE7     		b	.L152
 1706              	.LVL163:
 1707              	.L156:
 1708              	.LBB336:
 1709              		.loc 1 402 0
 1710 004c 2846     		mov	r0, r5
ARM GAS  /tmp/ccYjC7Ok.s 			page 31


 1711              		.loc 1 400 0
 1712 004e 2F69     		ldr	r7, [r5, #16]
 1713              	.LVL164:
 1714              		.loc 1 401 0
 1715 0050 D5F80090 		ldr	r9, [r5]
 1716              	.LVL165:
 1717              		.loc 1 402 0
 1718 0054 FFF7FEFF 		bl	ll_dequeue
 1719              	.LVL166:
 1720              		.loc 1 403 0
 1721 0058 2846     		mov	r0, r5
 1722 005a FFF7FEFF 		bl	chx_ready_enqueue
 1723              	.LVL167:
 1724              		.loc 1 404 0
 1725 005e D8F80030 		ldr	r3, [r8]
 1726 0062 AB42     		cmp	r3, r5
 1727 0064 12D0     		beq	.L162
 1728              	.LVL168:
 1729 0066 EB7A     		ldrb	r3, [r5, #11]	@ zero_extendqisi2
 1730 0068 9C42     		cmp	r4, r3
 1731 006a 38BF     		it	cc
 1732 006c 1C46     		movcc	r4, r3
 1733              	.LVL169:
 1734              	.L154:
 1735              		.loc 1 396 0 discriminator 1
 1736 006e B145     		cmp	r9, r6
 1737 0070 4D46     		mov	r5, r9
 1738 0072 01D0     		beq	.L155
 1739              	.LVL170:
 1740              	.L153:
 1741              		.loc 1 397 0
 1742 0074 002F     		cmp	r7, #0
 1743 0076 E9D0     		beq	.L156
 1744              	.L155:
 1745              		.loc 1 411 0
 1746 0078 3368     		ldr	r3, [r6]
 1747 007a B342     		cmp	r3, r6
 1748 007c D7D0     		beq	.L151
 1749              	.LVL171:
 1750              	.LBB337:
 1751              	.LBB338:
 1752              	.LBB339:
 1753              		.loc 2 118 0
 1754 007e 0022     		movs	r2, #0
 1755              		.loc 2 117 0
 1756 0080 064B     		ldr	r3, .L167+8
 1757              		.loc 2 118 0
 1758 0082 0749     		ldr	r1, .L167+12
 1759              		.loc 2 117 0
 1760 0084 1F60     		str	r7, [r3]
 1761              		.loc 2 118 0
 1762 0086 0A60     		str	r2, [r1]
 1763              		.loc 2 119 0
 1764 0088 1A60     		str	r2, [r3]
 1765 008a D0E7     		b	.L151
 1766              	.LVL172:
 1767              	.L162:
ARM GAS  /tmp/ccYjC7Ok.s 			page 32


 1768              	.LBE339:
 1769              	.LBE338:
 1770              	.LBE337:
 1771              		.loc 1 405 0
 1772 008c 4FF48074 		mov	r4, #256
 1773              	.LVL173:
 1774 0090 EDE7     		b	.L154
 1775              	.L168:
 1776 0092 00BF     		.align	2
 1777              	.L167:
 1778 0094 00000000 		.word	.LANCHOR2
 1779 0098 04ED00E0 		.word	-536810236
 1780 009c 14E000E0 		.word	-536813548
 1781 00a0 18E000E0 		.word	-536813544
 1782 00a4 00000000 		.word	.LANCHOR0
 1783              	.LBE336:
 1784              	.LBE342:
 1785              		.cfi_endproc
 1786              	.LFE35:
 1787              		.size	chx_timer_expired, .-chx_timer_expired
 1788              		.section	.text.chx_systick_init,"ax",%progbits
 1789              		.align	1
 1790              		.global	chx_systick_init
 1791              		.syntax unified
 1792              		.thumb
 1793              		.thumb_func
 1794              		.fpu softvfp
 1795              		.type	chx_systick_init, %function
 1796              	chx_systick_init:
 1797              	.LFB36:
 1798              		.loc 1 423 0
 1799              		.cfi_startproc
 1800              		@ args = 0, pretend = 0, frame = 0
 1801              		@ frame_needed = 0, uses_anonymous_args = 0
 1802              		@ link register save eliminated.
 1803              	.LBB345:
 1804              	.LBB346:
 1805              		.loc 2 109 0
 1806 0000 0023     		movs	r3, #0
 1807 0002 034A     		ldr	r2, .L170
 1808 0004 1360     		str	r3, [r2]
 1809              		.loc 2 110 0
 1810 0006 5360     		str	r3, [r2, #4]
 1811              		.loc 2 111 0
 1812 0008 0722     		movs	r2, #7
 1813 000a 024B     		ldr	r3, .L170+4
 1814 000c 1A60     		str	r2, [r3]
 1815              	.LBE346:
 1816              	.LBE345:
 1817              		.loc 1 434 0
 1818 000e 7047     		bx	lr
 1819              	.L171:
 1820              		.align	2
 1821              	.L170:
 1822 0010 14E000E0 		.word	-536813548
 1823 0014 10E000E0 		.word	-536813552
 1824              		.cfi_endproc
ARM GAS  /tmp/ccYjC7Ok.s 			page 33


 1825              	.LFE36:
 1826              		.size	chx_systick_init, .-chx_systick_init
 1827              		.section	.text.chx_init,"ax",%progbits
 1828              		.align	1
 1829              		.global	chx_init
 1830              		.syntax unified
 1831              		.thumb
 1832              		.thumb_func
 1833              		.fpu softvfp
 1834              		.type	chx_init, %function
 1835              	chx_init:
 1836              	.LFB37:
 1837              		.loc 1 440 0
 1838              		.cfi_startproc
 1839              		@ args = 0, pretend = 0, frame = 0
 1840              		@ frame_needed = 0, uses_anonymous_args = 0
 1841              	.LVL174:
 1842 0000 10B5     		push	{r4, lr}
 1843              		.cfi_def_cfa_offset 8
 1844              		.cfi_offset 4, -8
 1845              		.cfi_offset 14, -4
 1846              		.loc 1 440 0
 1847 0002 0446     		mov	r4, r0
 1848              	.LBB351:
 1849              	.LBB352:
 1850              		.loc 2 198 0
 1851 0004 4FF04050 		mov	r0, #805306368
 1852              	.LVL175:
 1853              		.loc 2 196 0
 1854 0008 194B     		ldr	r3, .L173
 1855 000a 1A4A     		ldr	r2, .L173+4
 1856              	.LBE352:
 1857              	.LBE351:
 1858              	.LBB354:
 1859              	.LBB355:
 1860              		.loc 2 272 0
 1861 000c 0021     		movs	r1, #0
 1862              	.LBE355:
 1863              	.LBE354:
 1864              	.LBB357:
 1865              	.LBB353:
 1866              		.loc 2 196 0
 1867 000e 1A60     		str	r2, [r3]
 1868              		.loc 2 198 0
 1869 0010 194A     		ldr	r2, .L173+8
 1870 0012 C3E90402 		strd	r0, r2, [r3, #16]
 1871              	.LVL176:
 1872              	.LBE353:
 1873              	.LBE357:
 1874              	.LBB358:
 1875              	.LBB356:
 1876              		.loc 2 272 0
 1877 0016 2422     		movs	r2, #36
 1878 0018 04F11400 		add	r0, r4, #20
 1879 001c FFF7FEFF 		bl	memset
 1880              	.LVL177:
 1881              	.LBE356:
ARM GAS  /tmp/ccYjC7Ok.s 			page 34


 1882              	.LBE358:
 1883              		.loc 1 444 0
 1884 0020 164B     		ldr	r3, .L173+12
 1885              		.loc 1 455 0
 1886 0022 217A     		ldrb	r1, [r4, #8]	@ zero_extendqisi2
 1887              		.loc 1 444 0
 1888 0024 C3E90033 		strd	r3, r3, [r3]
 1889              	.LVL178:
 1890              		.loc 1 446 0
 1891 0028 154B     		ldr	r3, .L173+16
 1892              		.loc 1 459 0
 1893 002a 01F01001 		and	r1, r1, #16
 1894              		.loc 1 446 0
 1895 002e C3E90033 		strd	r3, r3, [r3]
 1896              	.LVL179:
 1897              		.loc 1 448 0
 1898 0032 144B     		ldr	r3, .L173+20
 1899 0034 C3E90033 		strd	r3, r3, [r3]
 1900              	.LVL180:
 1901              		.loc 1 450 0
 1902 0038 134B     		ldr	r3, .L173+24
 1903 003a C3E90033 		strd	r3, r3, [r3]
 1904              	.LVL181:
 1905              		.loc 1 453 0
 1906 003e 0023     		movs	r3, #0
 1907              		.loc 1 457 0
 1908 0040 627A     		ldrb	r2, [r4, #9]	@ zero_extendqisi2
 1909              		.loc 1 459 0
 1910 0042 63F30411 		bfi	r1, r3, #4, #1
 1911              		.loc 1 460 0
 1912 0046 42F00102 		orr	r2, r2, #1
 1913 004a 63F3C712 		bfi	r2, r3, #7, #1
 1914 004e 6272     		strb	r2, [r4, #9]
 1915              		.loc 1 461 0
 1916 0050 0122     		movs	r2, #1
 1917              		.loc 1 454 0
 1918 0052 C4E90E33 		strd	r3, r3, [r4, #56]
 1919              		.loc 1 464 0
 1920 0056 C4E90333 		strd	r3, r3, [r4, #12]
 1921              		.loc 1 465 0
 1922 005a 0C4B     		ldr	r3, .L173+28
 1923              		.loc 1 452 0
 1924 005c C4E90044 		strd	r4, r4, [r4]
 1925              		.loc 1 465 0
 1926 0060 1C60     		str	r4, [r3]
 1927              		.loc 1 472 0
 1928 0062 0B4B     		ldr	r3, .L173+32
 1929              		.loc 1 459 0
 1930 0064 2172     		strb	r1, [r4, #8]
 1931              		.loc 1 461 0
 1932 0066 A272     		strb	r2, [r4, #10]
 1933              		.loc 1 470 0
 1934 0068 E272     		strb	r2, [r4, #11]
 1935              		.loc 1 472 0
 1936 006a 1C60     		str	r4, [r3]
 1937              		.loc 1 473 0
 1938 006c 10BD     		pop	{r4, pc}
ARM GAS  /tmp/ccYjC7Ok.s 			page 35


 1939              	.LVL182:
 1940              	.L174:
 1941 006e 00BF     		.align	2
 1942              	.L173:
 1943 0070 0CED00E0 		.word	-536810228
 1944 0074 0005FA05 		.word	100271360
 1945 0078 0000C0B0 		.word	-1329594368
 1946 007c 00000000 		.word	.LANCHOR1
 1947 0080 00000000 		.word	.LANCHOR2
 1948 0084 00000000 		.word	.LANCHOR3
 1949 0088 00000000 		.word	.LANCHOR4
 1950 008c 00000000 		.word	.LANCHOR0
 1951 0090 00000000 		.word	.LANCHOR5
 1952              		.cfi_endproc
 1953              	.LFE37:
 1954              		.size	chx_init, .-chx_init
 1955              		.section	.text.chopstx_create,"ax",%progbits
 1956              		.align	1
 1957              		.global	chopstx_create
 1958              		.syntax unified
 1959              		.thumb
 1960              		.thumb_func
 1961              		.fpu softvfp
 1962              		.type	chopstx_create, %function
 1963              	chopstx_create:
 1964              	.LFB41:
 1965              		.loc 1 605 0
 1966              		.cfi_startproc
 1967              		@ args = 4, pretend = 0, frame = 0
 1968              		@ frame_needed = 0, uses_anonymous_args = 0
 1969              	.LVL183:
 1970              	.LBB361:
 1971              	.LBB362:
 1972              		.loc 2 480 0
 1973 0000 5F2A     		cmp	r2, #95
 1974              	.LBE362:
 1975              	.LBE361:
 1976              		.loc 1 605 0
 1977 0002 2DE9F047 		push	{r4, r5, r6, r7, r8, r9, r10, lr}
 1978              		.cfi_def_cfa_offset 32
 1979              		.cfi_offset 4, -32
 1980              		.cfi_offset 5, -28
 1981              		.cfi_offset 6, -24
 1982              		.cfi_offset 7, -20
 1983              		.cfi_offset 8, -16
 1984              		.cfi_offset 9, -12
 1985              		.cfi_offset 10, -8
 1986              		.cfi_offset 14, -4
 1987              		.loc 1 605 0
 1988 0006 0546     		mov	r5, r0
 1989 0008 8946     		mov	r9, r1
 1990 000a 9A46     		mov	r10, r3
 1991              		.loc 1 607 0
 1992 000c C7B2     		uxtb	r7, r0
 1993              	.LVL184:
 1994              	.LBB366:
 1995              	.LBB363:
ARM GAS  /tmp/ccYjC7Ok.s 			page 36


 1996              		.loc 2 480 0
 1997 000e 02D8     		bhi	.L176
 1998              		.loc 2 481 0
 1999 0010 0120     		movs	r0, #1
 2000              	.LVL185:
 2001 0012 FFF7FEFF 		bl	chx_fatal
 2002              	.LVL186:
 2003              	.L176:
 2004              		.loc 2 484 0
 2005 0016 A2F16008 		sub	r8, r2, #96
 2006 001a 08EB0104 		add	r4, r8, r1
 2007              	.LVL187:
 2008              		.loc 2 485 0
 2009 001e 1022     		movs	r2, #16
 2010              	.LVL188:
 2011 0020 0021     		movs	r1, #0
 2012              	.LVL189:
 2013 0022 201D     		adds	r0, r4, #4
 2014              	.LVL190:
 2015 0024 FFF7FEFF 		bl	memset
 2016              	.LVL191:
 2017              		.loc 2 488 0
 2018 0028 089B     		ldr	r3, [sp, #32]
 2019              		.loc 2 493 0
 2020 002a 2022     		movs	r2, #32
 2021              		.loc 2 488 0
 2022 002c 48F80930 		str	r3, [r8, r9]
 2023              		.loc 2 489 0
 2024 0030 224B     		ldr	r3, .L179
 2025              		.loc 2 493 0
 2026 0032 0021     		movs	r1, #0
 2027              		.loc 2 490 0
 2028 0034 C4E9053A 		strd	r3, r10, [r4, #20]
 2029              		.loc 2 491 0
 2030 0038 4FF08073 		mov	r3, #16777216
 2031              		.loc 2 493 0
 2032 003c 04F13400 		add	r0, r4, #52
 2033              		.loc 2 491 0
 2034 0040 E361     		str	r3, [r4, #28]
 2035              		.loc 2 493 0
 2036 0042 FFF7FEFF 		bl	memset
 2037              	.LVL192:
 2038              	.LBE363:
 2039              	.LBE366:
 2040              		.loc 1 614 0
 2041 0046 0E21     		movs	r1, #14
 2042              		.loc 1 612 0
 2043 0048 0022     		movs	r2, #0
 2044              		.loc 1 614 0
 2045 004a 94F82830 		ldrb	r3, [r4, #40]	@ zero_extendqisi2
 2046              		.loc 1 617 0
 2047 004e 680C     		lsrs	r0, r5, #17
 2048              		.loc 1 614 0
 2049 0050 61F30303 		bfi	r3, r1, #0, #4
 2050              		.loc 1 617 0
 2051 0054 03F09F03 		and	r3, r3, #159
 2052              		.loc 1 616 0
ARM GAS  /tmp/ccYjC7Ok.s 			page 37


 2053 0058 94F82910 		ldrb	r1, [r4, #41]	@ zero_extendqisi2
 2054              		.loc 1 617 0
 2055 005c 60F3C713 		bfi	r3, r0, #7, #1
 2056              		.loc 1 618 0
 2057 0060 2D0C     		lsrs	r5, r5, #16
 2058              	.LVL193:
 2059 0062 65F30413 		bfi	r3, r5, #4, #1
 2060 0066 84F82830 		strb	r3, [r4, #40]
 2061              		.loc 1 619 0
 2062 006a 41F00103 		orr	r3, r1, #1
 2063 006e 62F3C713 		bfi	r3, r2, #7, #1
 2064              	.LBB367:
 2065              	.LBB364:
 2066              		.loc 2 486 0
 2067 0072 04F12006 		add	r6, r4, #32
 2068              	.LVL194:
 2069              	.LBE364:
 2070              	.LBE367:
 2071              		.loc 1 613 0
 2072 0076 C4E91622 		strd	r2, r2, [r4, #88]
 2073              		.loc 1 619 0
 2074 007a 84F82930 		strb	r3, [r4, #41]
 2075              	.LVL195:
 2076              		.loc 1 622 0
 2077 007e C4E90B22 		strd	r2, r2, [r4, #44]
 2078              	.LBB368:
 2079              	.LBB365:
 2080              		.loc 2 494 0
 2081 0082 6465     		str	r4, [r4, #84]
 2082              	.LVL196:
 2083              	.LBE365:
 2084              	.LBE368:
 2085              		.loc 1 611 0
 2086 0084 C4E90866 		strd	r6, r6, [r4, #32]
 2087              		.loc 1 620 0
 2088 0088 84F82B70 		strb	r7, [r4, #43]
 2089 008c 84F82A70 		strb	r7, [r4, #42]
 2090              		.loc 1 624 0
 2091 0090 FFF7FEFF 		bl	chx_cpu_sched_lock
 2092              	.LVL197:
 2093              		.loc 1 625 0
 2094 0094 3046     		mov	r0, r6
 2095 0096 FFF7FEFF 		bl	chx_ready_enqueue
 2096              	.LVL198:
 2097              		.loc 1 626 0
 2098 009a 094B     		ldr	r3, .L179+4
 2099 009c 94F82B20 		ldrb	r2, [r4, #43]	@ zero_extendqisi2
 2100 00a0 1B68     		ldr	r3, [r3]
 2101 00a2 DB7A     		ldrb	r3, [r3, #11]	@ zero_extendqisi2
 2102 00a4 9A42     		cmp	r2, r3
 2103 00a6 05D9     		bls	.L177
 2104              		.loc 1 627 0
 2105 00a8 0120     		movs	r0, #1
 2106 00aa FFF7FEFF 		bl	chx_sched
 2107              	.LVL199:
 2108              	.L178:
 2109              		.loc 1 632 0
ARM GAS  /tmp/ccYjC7Ok.s 			page 38


 2110 00ae 3046     		mov	r0, r6
 2111 00b0 BDE8F087 		pop	{r4, r5, r6, r7, r8, r9, r10, pc}
 2112              	.LVL200:
 2113              	.L177:
 2114              		.loc 1 629 0
 2115 00b4 FFF7FEFF 		bl	chx_cpu_sched_unlock
 2116              	.LVL201:
 2117 00b8 F9E7     		b	.L178
 2118              	.L180:
 2119 00ba 00BF     		.align	2
 2120              	.L179:
 2121 00bc 00000000 		.word	chopstx_exit
 2122 00c0 00000000 		.word	.LANCHOR0
 2123              		.cfi_endproc
 2124              	.LFE41:
 2125              		.size	chopstx_create, .-chopstx_create
 2126              		.section	.text.chopstx_mutex_init,"ax",%progbits
 2127              		.align	1
 2128              		.global	chopstx_mutex_init
 2129              		.syntax unified
 2130              		.thumb
 2131              		.thumb_func
 2132              		.fpu softvfp
 2133              		.type	chopstx_mutex_init, %function
 2134              	chopstx_mutex_init:
 2135              	.LFB45:
 2136              		.loc 1 715 0
 2137              		.cfi_startproc
 2138              		@ args = 0, pretend = 0, frame = 0
 2139              		@ frame_needed = 0, uses_anonymous_args = 0
 2140              		@ link register save eliminated.
 2141              	.LVL202:
 2142              		.loc 1 718 0
 2143 0000 0023     		movs	r3, #0
 2144              		.loc 1 717 0
 2145 0002 C0E90000 		strd	r0, r0, [r0]
 2146              		.loc 1 719 0
 2147 0006 C0E90233 		strd	r3, r3, [r0, #8]
 2148              		.loc 1 720 0
 2149 000a 7047     		bx	lr
 2150              		.cfi_endproc
 2151              	.LFE45:
 2152              		.size	chopstx_mutex_init, .-chopstx_mutex_init
 2153              		.section	.text.chopstx_mutex_lock,"ax",%progbits
 2154              		.align	1
 2155              		.global	chopstx_mutex_lock
 2156              		.syntax unified
 2157              		.thumb
 2158              		.thumb_func
 2159              		.fpu softvfp
 2160              		.type	chopstx_mutex_lock, %function
 2161              	chopstx_mutex_lock:
 2162              	.LFB47:
 2163              		.loc 1 769 0
 2164              		.cfi_startproc
 2165              		@ args = 0, pretend = 0, frame = 0
 2166              		@ frame_needed = 0, uses_anonymous_args = 0
ARM GAS  /tmp/ccYjC7Ok.s 			page 39


 2167              	.LVL203:
 2168 0000 2DE9F843 		push	{r3, r4, r5, r6, r7, r8, r9, lr}
 2169              		.cfi_def_cfa_offset 32
 2170              		.cfi_offset 3, -32
 2171              		.cfi_offset 4, -28
 2172              		.cfi_offset 5, -24
 2173              		.cfi_offset 6, -20
 2174              		.cfi_offset 7, -16
 2175              		.cfi_offset 8, -12
 2176              		.cfi_offset 9, -8
 2177              		.cfi_offset 14, -4
 2178              		.loc 1 769 0
 2179 0004 0646     		mov	r6, r0
 2180              	.LBB369:
 2181              		.loc 1 798 0
 2182 0006 4FF00108 		mov	r8, #1
 2183              		.loc 1 812 0
 2184 000a 0227     		movs	r7, #2
 2185              	.LBE369:
 2186              		.loc 1 770 0
 2187 000c 1E4B     		ldr	r3, .L193
 2188              	.LBB370:
 2189              		.loc 1 799 0
 2190 000e DFF87C90 		ldr	r9, .L193+4
 2191              	.LBE370:
 2192              		.loc 1 770 0
 2193 0012 1D68     		ldr	r5, [r3]
 2194              	.LVL204:
 2195              	.L190:
 2196              	.LBB371:
 2197              		.loc 1 777 0
 2198 0014 FFF7FEFF 		bl	chx_cpu_sched_lock
 2199              	.LVL205:
 2200              		.loc 1 779 0
 2201 0018 B468     		ldr	r4, [r6, #8]
 2202 001a 64B9     		cbnz	r4, .L183
 2203              		.loc 1 783 0
 2204 001c AB6B     		ldr	r3, [r5, #56]
 2205              		.loc 1 782 0
 2206 001e B560     		str	r5, [r6, #8]
 2207              		.loc 1 783 0
 2208 0020 F360     		str	r3, [r6, #12]
 2209              		.loc 1 784 0
 2210 0022 AE63     		str	r6, [r5, #56]
 2211              	.LVL206:
 2212              	.LBE371:
 2213              		.loc 1 816 0
 2214 0024 BDE8F843 		pop	{r3, r4, r5, r6, r7, r8, r9, lr}
 2215              		.cfi_remember_state
 2216              		.cfi_restore 14
 2217              		.cfi_restore 9
 2218              		.cfi_restore 8
 2219              		.cfi_restore 7
 2220              		.cfi_restore 6
 2221              		.cfi_restore 5
 2222              		.cfi_restore 4
 2223              		.cfi_restore 3
ARM GAS  /tmp/ccYjC7Ok.s 			page 40


 2224              		.cfi_def_cfa_offset 0
 2225              	.LVL207:
 2226              	.LBB372:
 2227              		.loc 1 786 0
 2228 0028 FFF7FEBF 		b	chx_cpu_sched_unlock
 2229              	.LVL208:
 2230              	.L184:
 2231              		.cfi_restore_state
 2232              		.loc 1 806 0
 2233 002c 2046     		mov	r0, r4
 2234 002e FFF7FEFF 		bl	requeue
 2235              	.LVL209:
 2236              		.loc 1 792 0
 2237 0032 0446     		mov	r4, r0
 2238 0034 A0B1     		cbz	r0, .L186
 2239              	.LVL210:
 2240              	.L183:
 2241              		.loc 1 792 0 is_stmt 0 discriminator 1
 2242 0036 EB7A     		ldrb	r3, [r5, #11]	@ zero_extendqisi2
 2243 0038 E27A     		ldrb	r2, [r4, #11]	@ zero_extendqisi2
 2244 003a 9A42     		cmp	r2, r3
 2245 003c 10D2     		bcs	.L186
 2246              		.loc 1 794 0 is_stmt 1
 2247 003e E372     		strb	r3, [r4, #11]
 2248              		.loc 1 795 0
 2249 0040 237A     		ldrb	r3, [r4, #8]	@ zero_extendqisi2
 2250 0042 03F00D03 		and	r3, r3, #13
 2251 0046 042B     		cmp	r3, #4
 2252 0048 F0D1     		bne	.L184
 2253              		.loc 1 799 0
 2254 004a E368     		ldr	r3, [r4, #12]
 2255              		.loc 1 798 0
 2256 004c C4F81080 		str	r8, [r4, #16]
 2257              		.loc 1 799 0
 2258 0050 4B45     		cmp	r3, r9
 2259 0052 02D1     		bne	.L185
 2260              		.loc 1 800 0
 2261 0054 2046     		mov	r0, r4
 2262 0056 FFF7FEFF 		bl	chx_timer_dequeue
 2263              	.LVL211:
 2264              	.L185:
 2265              		.loc 1 802 0
 2266 005a 2046     		mov	r0, r4
 2267 005c FFF7FEFF 		bl	chx_ready_enqueue
 2268              	.LVL212:
 2269              	.L186:
 2270              		.loc 1 809 0
 2271 0060 95F90830 		ldrsb	r3, [r5, #8]
 2272 0064 002B     		cmp	r3, #0
 2273 0066 02DA     		bge	.L189
 2274              		.loc 1 810 0
 2275 0068 2846     		mov	r0, r5
 2276 006a FFF7FEFF 		bl	chx_timer_dequeue
 2277              	.LVL213:
 2278              	.L189:
 2279              		.loc 1 811 0
 2280 006e 2846     		mov	r0, r5
ARM GAS  /tmp/ccYjC7Ok.s 			page 41


 2281 0070 3146     		mov	r1, r6
 2282 0072 FFF7FEFF 		bl	ll_prio_enqueue
 2283              	.LVL214:
 2284              		.loc 1 812 0
 2285 0076 2B7A     		ldrb	r3, [r5, #8]	@ zero_extendqisi2
 2286              		.loc 1 814 0
 2287 0078 0020     		movs	r0, #0
 2288              		.loc 1 812 0
 2289 007a 67F30303 		bfi	r3, r7, #0, #4
 2290 007e 2B72     		strb	r3, [r5, #8]
 2291              	.LVL215:
 2292              		.loc 1 814 0
 2293 0080 FFF7FEFF 		bl	chx_sched
 2294              	.LVL216:
 2295              	.LBE372:
 2296              		.loc 1 773 0
 2297 0084 C6E7     		b	.L190
 2298              	.L194:
 2299 0086 00BF     		.align	2
 2300              	.L193:
 2301 0088 00000000 		.word	.LANCHOR0
 2302 008c 00000000 		.word	.LANCHOR2
 2303              		.cfi_endproc
 2304              	.LFE47:
 2305              		.size	chopstx_mutex_lock, .-chopstx_mutex_lock
 2306              		.section	.text.chopstx_mutex_unlock,"ax",%progbits
 2307              		.align	1
 2308              		.global	chopstx_mutex_unlock
 2309              		.syntax unified
 2310              		.thumb
 2311              		.thumb_func
 2312              		.fpu softvfp
 2313              		.type	chopstx_mutex_unlock, %function
 2314              	chopstx_mutex_unlock:
 2315              	.LFB48:
 2316              		.loc 1 827 0
 2317              		.cfi_startproc
 2318              		@ args = 0, pretend = 0, frame = 0
 2319              		@ frame_needed = 0, uses_anonymous_args = 0
 2320              	.LVL217:
 2321 0000 08B5     		push	{r3, lr}
 2322              		.cfi_def_cfa_offset 8
 2323              		.cfi_offset 3, -8
 2324              		.cfi_offset 14, -4
 2325              		.loc 1 830 0
 2326 0002 FFF7FEFF 		bl	chx_cpu_sched_lock
 2327              	.LVL218:
 2328              		.loc 1 832 0
 2329 0006 FFF7FEFF 		bl	chx_mutex_unlock
 2330              	.LVL219:
 2331              		.loc 1 834 0
 2332 000a 074B     		ldr	r3, .L197
 2333 000c 1B68     		ldr	r3, [r3]
 2334 000e DB7A     		ldrb	r3, [r3, #11]	@ zero_extendqisi2
 2335 0010 8342     		cmp	r3, r0
 2336 0012 04D2     		bcs	.L196
 2337              		.loc 1 838 0
ARM GAS  /tmp/ccYjC7Ok.s 			page 42


 2338 0014 BDE80840 		pop	{r3, lr}
 2339              		.cfi_remember_state
 2340              		.cfi_restore 14
 2341              		.cfi_restore 3
 2342              		.cfi_def_cfa_offset 0
 2343              		.loc 1 835 0
 2344 0018 0120     		movs	r0, #1
 2345              	.LVL220:
 2346 001a FFF7FEBF 		b	chx_sched
 2347              	.LVL221:
 2348              	.L196:
 2349              		.cfi_restore_state
 2350              		.loc 1 838 0
 2351 001e BDE80840 		pop	{r3, lr}
 2352              		.cfi_restore 14
 2353              		.cfi_restore 3
 2354              		.cfi_def_cfa_offset 0
 2355              		.loc 1 837 0
 2356 0022 FFF7FEBF 		b	chx_cpu_sched_unlock
 2357              	.LVL222:
 2358              	.L198:
 2359 0026 00BF     		.align	2
 2360              	.L197:
 2361 0028 00000000 		.word	.LANCHOR0
 2362              		.cfi_endproc
 2363              	.LFE48:
 2364              		.size	chopstx_mutex_unlock, .-chopstx_mutex_unlock
 2365              		.section	.text.chopstx_cond_init,"ax",%progbits
 2366              		.align	1
 2367              		.global	chopstx_cond_init
 2368              		.syntax unified
 2369              		.thumb
 2370              		.thumb_func
 2371              		.fpu softvfp
 2372              		.type	chopstx_cond_init, %function
 2373              	chopstx_cond_init:
 2374              	.LFB49:
 2375              		.loc 1 849 0
 2376              		.cfi_startproc
 2377              		@ args = 0, pretend = 0, frame = 0
 2378              		@ frame_needed = 0, uses_anonymous_args = 0
 2379              		@ link register save eliminated.
 2380              	.LVL223:
 2381              		.loc 1 851 0
 2382 0000 C0E90000 		strd	r0, r0, [r0]
 2383              		.loc 1 852 0
 2384 0004 7047     		bx	lr
 2385              		.cfi_endproc
 2386              	.LFE49:
 2387              		.size	chopstx_cond_init, .-chopstx_cond_init
 2388              		.section	.text.chopstx_cond_signal,"ax",%progbits
 2389              		.align	1
 2390              		.global	chopstx_cond_signal
 2391              		.syntax unified
 2392              		.thumb
 2393              		.thumb_func
 2394              		.fpu softvfp
ARM GAS  /tmp/ccYjC7Ok.s 			page 43


 2395              		.type	chopstx_cond_signal, %function
 2396              	chopstx_cond_signal:
 2397              	.LFB51:
 2398              		.loc 1 902 0
 2399              		.cfi_startproc
 2400              		@ args = 0, pretend = 0, frame = 0
 2401              		@ frame_needed = 0, uses_anonymous_args = 0
 2402              	.LVL224:
 2403 0000 08B5     		push	{r3, lr}
 2404              		.cfi_def_cfa_offset 8
 2405              		.cfi_offset 3, -8
 2406              		.cfi_offset 14, -4
 2407              		.loc 1 906 0
 2408 0002 FFF7FEFF 		bl	chx_cpu_sched_lock
 2409              	.LVL225:
 2410              		.loc 1 908 0
 2411 0006 FFF7FEFF 		bl	ll_pop
 2412              	.LVL226:
 2413              		.loc 1 909 0
 2414 000a 38B1     		cbz	r0, .L201
 2415              		.loc 1 910 0
 2416 000c FFF7FEFF 		bl	chx_wakeup
 2417              	.LVL227:
 2418              		.loc 1 912 0
 2419 0010 20B1     		cbz	r0, .L201
 2420              		.loc 1 916 0
 2421 0012 BDE80840 		pop	{r3, lr}
 2422              		.cfi_remember_state
 2423              		.cfi_restore 14
 2424              		.cfi_restore 3
 2425              		.cfi_def_cfa_offset 0
 2426              		.loc 1 913 0
 2427 0016 0120     		movs	r0, #1
 2428              	.LVL228:
 2429 0018 FFF7FEBF 		b	chx_sched
 2430              	.LVL229:
 2431              	.L201:
 2432              		.cfi_restore_state
 2433              		.loc 1 916 0
 2434 001c BDE80840 		pop	{r3, lr}
 2435              		.cfi_restore 14
 2436              		.cfi_restore 3
 2437              		.cfi_def_cfa_offset 0
 2438              		.loc 1 915 0
 2439 0020 FFF7FEBF 		b	chx_cpu_sched_unlock
 2440              	.LVL230:
 2441              		.cfi_endproc
 2442              	.LFE51:
 2443              		.size	chopstx_cond_signal, .-chopstx_cond_signal
 2444              		.section	.text.chopstx_cond_broadcast,"ax",%progbits
 2445              		.align	1
 2446              		.global	chopstx_cond_broadcast
 2447              		.syntax unified
 2448              		.thumb
 2449              		.thumb_func
 2450              		.fpu softvfp
 2451              		.type	chopstx_cond_broadcast, %function
ARM GAS  /tmp/ccYjC7Ok.s 			page 44


 2452              	chopstx_cond_broadcast:
 2453              	.LFB52:
 2454              		.loc 1 927 0
 2455              		.cfi_startproc
 2456              		@ args = 0, pretend = 0, frame = 0
 2457              		@ frame_needed = 0, uses_anonymous_args = 0
 2458              	.LVL231:
 2459 0000 38B5     		push	{r3, r4, r5, lr}
 2460              		.cfi_def_cfa_offset 16
 2461              		.cfi_offset 3, -16
 2462              		.cfi_offset 4, -12
 2463              		.cfi_offset 5, -8
 2464              		.cfi_offset 14, -4
 2465              		.loc 1 927 0
 2466 0002 0546     		mov	r5, r0
 2467              		.loc 1 929 0
 2468 0004 0024     		movs	r4, #0
 2469              		.loc 1 931 0
 2470 0006 FFF7FEFF 		bl	chx_cpu_sched_lock
 2471              	.LVL232:
 2472              	.L209:
 2473              		.loc 1 933 0
 2474 000a 2846     		mov	r0, r5
 2475 000c FFF7FEFF 		bl	ll_pop
 2476              	.LVL233:
 2477 0010 28B9     		cbnz	r0, .L210
 2478              	.LVL234:
 2479              		.loc 1 936 0
 2480 0012 44B1     		cbz	r4, .L211
 2481              		.loc 1 940 0
 2482 0014 BDE83840 		pop	{r3, r4, r5, lr}
 2483              		.cfi_remember_state
 2484              		.cfi_restore 14
 2485              		.cfi_restore 5
 2486              		.cfi_restore 4
 2487              		.cfi_restore 3
 2488              		.cfi_def_cfa_offset 0
 2489              	.LVL235:
 2490              		.loc 1 937 0
 2491 0018 0120     		movs	r0, #1
 2492              	.LVL236:
 2493 001a FFF7FEBF 		b	chx_sched
 2494              	.LVL237:
 2495              	.L210:
 2496              		.cfi_restore_state
 2497              		.loc 1 934 0
 2498 001e FFF7FEFF 		bl	chx_wakeup
 2499              	.LVL238:
 2500 0022 0443     		orrs	r4, r4, r0
 2501              	.LVL239:
 2502 0024 F1E7     		b	.L209
 2503              	.LVL240:
 2504              	.L211:
 2505              		.loc 1 940 0
 2506 0026 BDE83840 		pop	{r3, r4, r5, lr}
 2507              		.cfi_restore 14
 2508              		.cfi_restore 5
ARM GAS  /tmp/ccYjC7Ok.s 			page 45


 2509              		.cfi_restore 4
 2510              		.cfi_restore 3
 2511              		.cfi_def_cfa_offset 0
 2512              	.LVL241:
 2513              		.loc 1 939 0
 2514 002a FFF7FEBF 		b	chx_cpu_sched_unlock
 2515              	.LVL242:
 2516              		.cfi_endproc
 2517              	.LFE52:
 2518              		.size	chopstx_cond_broadcast, .-chopstx_cond_broadcast
 2519              		.section	.text.chopstx_claim_irq,"ax",%progbits
 2520              		.align	1
 2521              		.global	chopstx_claim_irq
 2522              		.syntax unified
 2523              		.thumb
 2524              		.thumb_func
 2525              		.fpu softvfp
 2526              		.type	chopstx_claim_irq, %function
 2527              	chopstx_claim_irq:
 2528              	.LFB54:
 2529              		.loc 1 985 0
 2530              		.cfi_startproc
 2531              		@ args = 0, pretend = 0, frame = 0
 2532              		@ frame_needed = 0, uses_anonymous_args = 0
 2533              	.LVL243:
 2534 0000 08B5     		push	{r3, lr}
 2535              		.cfi_def_cfa_offset 8
 2536              		.cfi_offset 3, -8
 2537              		.cfi_offset 14, -4
 2538              		.loc 1 986 0
 2539 0002 0122     		movs	r2, #1
 2540              		.loc 1 987 0
 2541 0004 0023     		movs	r3, #0
 2542              		.loc 1 986 0
 2543 0006 0280     		strh	r2, [r0]	@ movhi
 2544              		.loc 1 987 0
 2545 0008 4380     		strh	r3, [r0, #2]	@ movhi
 2546              		.loc 1 988 0
 2547 000a 0171     		strb	r1, [r0, #4]
 2548              		.loc 1 990 0
 2549 000c FFF7FEFF 		bl	chx_cpu_sched_lock
 2550              	.LVL244:
 2551              	.LBB377:
 2552              	.LBB378:
 2553              		.loc 2 174 0
 2554 0010 01F01F00 		and	r0, r1, #31
 2555              	.LVL245:
 2556 0014 8240     		lsls	r2, r2, r0
 2557 0016 4B09     		lsrs	r3, r1, #5
 2558 0018 0E48     		ldr	r0, .L213
 2559 001a 2033     		adds	r3, r3, #32
 2560 001c 40F82320 		str	r2, [r0, r3, lsl #2]
 2561              	.LVL246:
 2562              	.LBE378:
 2563              	.LBE377:
 2564              	.LBB379:
 2565              	.LBB380:
ARM GAS  /tmp/ccYjC7Ok.s 			page 46


 2566              		.loc 2 182 0
 2567 0020 FF20     		movs	r0, #255
 2568              		.loc 2 180 0
 2569 0022 CA00     		lsls	r2, r1, #3
 2570 0024 01F0FC01 		and	r1, r1, #252
 2571              	.LVL247:
 2572 0028 01F16041 		add	r1, r1, #-536870912
 2573 002c 01F56141 		add	r1, r1, #57600
 2574 0030 02F01802 		and	r2, r2, #24
 2575              	.LVL248:
 2576              		.loc 2 182 0
 2577 0034 D1F80033 		ldr	r3, [r1, #768]
 2578 0038 9040     		lsls	r0, r0, r2
 2579 003a 23EA0003 		bic	r3, r3, r0
 2580              		.loc 2 183 0
 2581 003e B020     		movs	r0, #176
 2582 0040 00FA02F2 		lsl	r2, r0, r2
 2583              	.LVL249:
 2584 0044 1343     		orrs	r3, r3, r2
 2585              		.loc 2 182 0
 2586 0046 C1F80033 		str	r3, [r1, #768]
 2587              	.LVL250:
 2588              	.LBE380:
 2589              	.LBE379:
 2590              		.loc 1 996 0
 2591 004a BDE80840 		pop	{r3, lr}
 2592              		.cfi_restore 14
 2593              		.cfi_restore 3
 2594              		.cfi_def_cfa_offset 0
 2595              		.loc 1 995 0
 2596 004e FFF7FEBF 		b	chx_cpu_sched_unlock
 2597              	.LVL251:
 2598              	.L214:
 2599 0052 00BF     		.align	2
 2600              	.L213:
 2601 0054 00E100E0 		.word	-536813312
 2602              		.cfi_endproc
 2603              	.LFE54:
 2604              		.size	chopstx_claim_irq, .-chopstx_claim_irq
 2605              		.section	.text.chopstx_cleanup_push,"ax",%progbits
 2606              		.align	1
 2607              		.global	chopstx_cleanup_push
 2608              		.syntax unified
 2609              		.thumb
 2610              		.thumb_func
 2611              		.fpu softvfp
 2612              		.type	chopstx_cleanup_push, %function
 2613              	chopstx_cleanup_push:
 2614              	.LFB57:
 2615              		.loc 1 1037 0
 2616              		.cfi_startproc
 2617              		@ args = 0, pretend = 0, frame = 0
 2618              		@ frame_needed = 0, uses_anonymous_args = 0
 2619              		@ link register save eliminated.
 2620              	.LVL252:
 2621              		.loc 1 1038 0
 2622 0000 024B     		ldr	r3, .L216
ARM GAS  /tmp/ccYjC7Ok.s 			page 47


 2623 0002 1B68     		ldr	r3, [r3]
 2624 0004 DA6B     		ldr	r2, [r3, #60]
 2625 0006 0260     		str	r2, [r0]
 2626              		.loc 1 1039 0
 2627 0008 D863     		str	r0, [r3, #60]
 2628              		.loc 1 1040 0
 2629 000a 7047     		bx	lr
 2630              	.L217:
 2631              		.align	2
 2632              	.L216:
 2633 000c 00000000 		.word	.LANCHOR0
 2634              		.cfi_endproc
 2635              	.LFE57:
 2636              		.size	chopstx_cleanup_push, .-chopstx_cleanup_push
 2637              		.section	.text.chopstx_cleanup_pop,"ax",%progbits
 2638              		.align	1
 2639              		.global	chopstx_cleanup_pop
 2640              		.syntax unified
 2641              		.thumb
 2642              		.thumb_func
 2643              		.fpu softvfp
 2644              		.type	chopstx_cleanup_pop, %function
 2645              	chopstx_cleanup_pop:
 2646              	.LFB58:
 2647              		.loc 1 1051 0
 2648              		.cfi_startproc
 2649              		@ args = 0, pretend = 0, frame = 0
 2650              		@ frame_needed = 0, uses_anonymous_args = 0
 2651              		@ link register save eliminated.
 2652              	.LVL253:
 2653              		.loc 1 1052 0
 2654 0000 054B     		ldr	r3, .L225
 2655 0002 1A68     		ldr	r2, [r3]
 2656 0004 D36B     		ldr	r3, [r2, #60]
 2657              	.LVL254:
 2658              		.loc 1 1054 0
 2659 0006 2BB1     		cbz	r3, .L218
 2660              		.loc 1 1056 0
 2661 0008 1968     		ldr	r1, [r3]
 2662 000a D163     		str	r1, [r2, #60]
 2663              		.loc 1 1057 0
 2664 000c 10B1     		cbz	r0, .L218
 2665              		.loc 1 1058 0
 2666 000e D3E90120 		ldrd	r2, r0, [r3, #4]
 2667              	.LVL255:
 2668 0012 1047     		bx	r2	@ indirect register sibling call
 2669              	.LVL256:
 2670              	.L218:
 2671              		.loc 1 1060 0
 2672 0014 7047     		bx	lr
 2673              	.L226:
 2674 0016 00BF     		.align	2
 2675              	.L225:
 2676 0018 00000000 		.word	.LANCHOR0
 2677              		.cfi_endproc
 2678              	.LFE58:
 2679              		.size	chopstx_cleanup_pop, .-chopstx_cleanup_pop
ARM GAS  /tmp/ccYjC7Ok.s 			page 48


 2680              		.section	.text.chopstx_cancel,"ax",%progbits
 2681              		.align	1
 2682              		.global	chopstx_cancel
 2683              		.syntax unified
 2684              		.thumb
 2685              		.thumb_func
 2686              		.fpu softvfp
 2687              		.type	chopstx_cancel, %function
 2688              	chopstx_cancel:
 2689              	.LFB62:
 2690              		.loc 1 1212 0
 2691              		.cfi_startproc
 2692              		@ args = 0, pretend = 0, frame = 0
 2693              		@ frame_needed = 0, uses_anonymous_args = 0
 2694              	.LVL257:
 2695 0000 10B5     		push	{r4, lr}
 2696              		.cfi_def_cfa_offset 8
 2697              		.cfi_offset 4, -8
 2698              		.cfi_offset 14, -4
 2699              		.loc 1 1212 0
 2700 0002 0446     		mov	r4, r0
 2701              		.loc 1 1215 0
 2702 0004 FFF7FEFF 		bl	chx_cpu_sched_lock
 2703              	.LVL258:
 2704              		.loc 1 1216 0
 2705 0008 037A     		ldrb	r3, [r0, #8]	@ zero_extendqisi2
 2706 000a 43F02003 		orr	r3, r3, #32
 2707 000e 0372     		strb	r3, [r0, #8]
 2708              		.loc 1 1217 0
 2709 0010 437A     		ldrb	r3, [r0, #9]	@ zero_extendqisi2
 2710 0012 DB07     		lsls	r3, r3, #31
 2711 0014 03D4     		bmi	.L228
 2712              	.L233:
 2713              		.loc 1 1257 0
 2714 0016 BDE81040 		pop	{r4, lr}
 2715              		.cfi_remember_state
 2716              		.cfi_restore 14
 2717              		.cfi_restore 4
 2718              		.cfi_def_cfa_offset 0
 2719              		.loc 1 1219 0
 2720 001a FFF7FEBF 		b	chx_cpu_sched_unlock
 2721              	.LVL259:
 2722              	.L228:
 2723              		.cfi_restore_state
 2724              		.loc 1 1224 0
 2725 001e 037A     		ldrb	r3, [r0, #8]	@ zero_extendqisi2
 2726 0020 03F00F03 		and	r3, r3, #15
 2727 0024 032B     		cmp	r3, #3
 2728 0026 13D1     		bne	.L229
 2729              	.L234:
 2730              	.LVL260:
 2731              		.loc 1 1237 0
 2732 0028 2046     		mov	r0, r4
 2733              	.LVL261:
 2734 002a FFF7FEFF 		bl	ll_dequeue
 2735              	.LVL262:
 2736              	.L230:
ARM GAS  /tmp/ccYjC7Ok.s 			page 49


 2737              		.loc 1 1251 0
 2738 002e 4FF0FF33 		mov	r3, #-1
 2739              		.loc 1 1252 0
 2740 0032 2046     		mov	r0, r4
 2741              		.loc 1 1251 0
 2742 0034 2361     		str	r3, [r4, #16]
 2743              		.loc 1 1252 0
 2744 0036 FFF7FEFF 		bl	chx_ready_enqueue
 2745              	.LVL263:
 2746              		.loc 1 1253 0
 2747 003a 0D4B     		ldr	r3, .L236
 2748 003c E27A     		ldrb	r2, [r4, #11]	@ zero_extendqisi2
 2749 003e 1B68     		ldr	r3, [r3]
 2750 0040 DB7A     		ldrb	r3, [r3, #11]	@ zero_extendqisi2
 2751 0042 9A42     		cmp	r2, r3
 2752 0044 E7D9     		bls	.L233
 2753              	.LVL264:
 2754              		.loc 1 1257 0
 2755 0046 BDE81040 		pop	{r4, lr}
 2756              		.cfi_remember_state
 2757              		.cfi_restore 14
 2758              		.cfi_restore 4
 2759              		.cfi_def_cfa_offset 0
 2760              		.loc 1 1254 0
 2761 004a 0120     		movs	r0, #1
 2762              	.LVL265:
 2763 004c FFF7FEBF 		b	chx_sched
 2764              	.LVL266:
 2765              	.L229:
 2766              		.cfi_restore_state
 2767              		.loc 1 1232 0
 2768 0050 042B     		cmp	r3, #4
 2769 0052 03D1     		bne	.L231
 2770              	.L235:
 2771              		.loc 1 1243 0
 2772 0054 2046     		mov	r0, r4
 2773              	.LVL267:
 2774 0056 FFF7FEFF 		bl	chx_timer_dequeue
 2775              	.LVL268:
 2776 005a E8E7     		b	.L230
 2777              	.LVL269:
 2778              	.L231:
 2779              		.loc 1 1234 0
 2780 005c 052B     		cmp	r3, #5
 2781 005e E3D0     		beq	.L234
 2782              		.loc 1 1240 0
 2783 0060 062B     		cmp	r3, #6
 2784 0062 D8D1     		bne	.L233
 2785              		.loc 1 1242 0
 2786 0064 C268     		ldr	r2, [r0, #12]
 2787 0066 034B     		ldr	r3, .L236+4
 2788 0068 9A42     		cmp	r2, r3
 2789 006a E0D1     		bne	.L230
 2790 006c F2E7     		b	.L235
 2791              	.L237:
 2792 006e 00BF     		.align	2
 2793              	.L236:
ARM GAS  /tmp/ccYjC7Ok.s 			page 50


 2794 0070 00000000 		.word	.LANCHOR0
 2795 0074 00000000 		.word	.LANCHOR2
 2796              		.cfi_endproc
 2797              	.LFE62:
 2798              		.size	chopstx_cancel, .-chopstx_cancel
 2799              		.section	.text.chopstx_testcancel,"ax",%progbits
 2800              		.align	1
 2801              		.global	chopstx_testcancel
 2802              		.syntax unified
 2803              		.thumb
 2804              		.thumb_func
 2805              		.fpu softvfp
 2806              		.type	chopstx_testcancel, %function
 2807              	chopstx_testcancel:
 2808              	.LFB63:
 2809              		.loc 1 1269 0
 2810              		.cfi_startproc
 2811              		@ args = 0, pretend = 0, frame = 0
 2812              		@ frame_needed = 0, uses_anonymous_args = 0
 2813 0000 08B5     		push	{r3, lr}
 2814              		.cfi_def_cfa_offset 8
 2815              		.cfi_offset 3, -8
 2816              		.cfi_offset 14, -4
 2817              		.loc 1 1270 0
 2818 0002 064B     		ldr	r3, .L240
 2819 0004 1B68     		ldr	r3, [r3]
 2820 0006 1B89     		ldrh	r3, [r3, #8]
 2821 0008 03F49073 		and	r3, r3, #288
 2822 000c B3F5907F 		cmp	r3, #288
 2823 0010 03D1     		bne	.L238
 2824              		.loc 1 1271 0
 2825 0012 4FF0FF30 		mov	r0, #-1
 2826 0016 FFF7FEFF 		bl	chopstx_exit
 2827              	.LVL270:
 2828              	.L238:
 2829              		.loc 1 1272 0
 2830 001a 08BD     		pop	{r3, pc}
 2831              	.L241:
 2832              		.align	2
 2833              	.L240:
 2834 001c 00000000 		.word	.LANCHOR0
 2835              		.cfi_endproc
 2836              	.LFE63:
 2837              		.size	chopstx_testcancel, .-chopstx_testcancel
 2838              		.section	.text.chopstx_usec_wait,"ax",%progbits
 2839              		.align	1
 2840              		.global	chopstx_usec_wait
 2841              		.syntax unified
 2842              		.thumb
 2843              		.thumb_func
 2844              		.fpu softvfp
 2845              		.type	chopstx_usec_wait, %function
 2846              	chopstx_usec_wait:
 2847              	.LFB44:
 2848              		.loc 1 702 0
 2849              		.cfi_startproc
 2850              		@ args = 0, pretend = 0, frame = 8
ARM GAS  /tmp/ccYjC7Ok.s 			page 51


 2851              		@ frame_needed = 0, uses_anonymous_args = 0
 2852              	.LVL271:
 2853 0000 13B5     		push	{r0, r1, r4, lr}
 2854              		.cfi_def_cfa_offset 16
 2855              		.cfi_offset 4, -8
 2856              		.cfi_offset 14, -4
 2857 0002 02AC     		add	r4, sp, #8
 2858 0004 44F8040D 		str	r0, [r4, #-4]!
 2859              	.LVL272:
 2860              	.L243:
 2861              	.LBB383:
 2862              	.LBB384:
 2863              		.loc 1 686 0
 2864 0008 FFF7FEFF 		bl	chopstx_testcancel
 2865              	.LVL273:
 2866              		.loc 1 687 0
 2867 000c FFF7FEFF 		bl	chx_cpu_sched_lock
 2868              	.LVL274:
 2869              		.loc 1 688 0
 2870 0010 2146     		mov	r1, r4
 2871 0012 0420     		movs	r0, #4
 2872 0014 FFF7FEFF 		bl	chx_snooze
 2873              	.LVL275:
 2874              		.loc 1 690 0
 2875 0018 0028     		cmp	r0, #0
 2876 001a F5D0     		beq	.L243
 2877              	.LBE384:
 2878              	.LBE383:
 2879              		.loc 1 704 0
 2880 001c 02B0     		add	sp, sp, #8
 2881              		.cfi_def_cfa_offset 8
 2882              		@ sp needed
 2883 001e 10BD     		pop	{r4, pc}
 2884              		.cfi_endproc
 2885              	.LFE44:
 2886              		.size	chopstx_usec_wait, .-chopstx_usec_wait
 2887              		.section	.text.chopstx_cond_wait,"ax",%progbits
 2888              		.align	1
 2889              		.global	chopstx_cond_wait
 2890              		.syntax unified
 2891              		.thumb
 2892              		.thumb_func
 2893              		.fpu softvfp
 2894              		.type	chopstx_cond_wait, %function
 2895              	chopstx_cond_wait:
 2896              	.LFB50:
 2897              		.loc 1 864 0
 2898              		.cfi_startproc
 2899              		@ args = 0, pretend = 0, frame = 0
 2900              		@ frame_needed = 0, uses_anonymous_args = 0
 2901              	.LVL276:
 2902 0000 70B5     		push	{r4, r5, r6, lr}
 2903              		.cfi_def_cfa_offset 16
 2904              		.cfi_offset 4, -16
 2905              		.cfi_offset 5, -12
 2906              		.cfi_offset 6, -8
 2907              		.cfi_offset 14, -4
ARM GAS  /tmp/ccYjC7Ok.s 			page 52


 2908              		.loc 1 864 0
 2909 0002 0D46     		mov	r5, r1
 2910              		.loc 1 865 0
 2911 0004 144B     		ldr	r3, .L257
 2912              		.loc 1 864 0
 2913 0006 0646     		mov	r6, r0
 2914              		.loc 1 865 0
 2915 0008 1C68     		ldr	r4, [r3]
 2916              	.LVL277:
 2917              		.loc 1 868 0
 2918 000a FFF7FEFF 		bl	chopstx_testcancel
 2919              	.LVL278:
 2920              		.loc 1 869 0
 2921 000e FFF7FEFF 		bl	chx_cpu_sched_lock
 2922              	.LVL279:
 2923              		.loc 1 871 0
 2924 0012 15B1     		cbz	r5, .L247
 2925              	.LVL280:
 2926              		.loc 1 874 0
 2927 0014 2846     		mov	r0, r5
 2928 0016 FFF7FEFF 		bl	chx_mutex_unlock
 2929              	.LVL281:
 2930              	.L247:
 2931              		.loc 1 878 0
 2932 001a 94F90830 		ldrsb	r3, [r4, #8]
 2933 001e 002B     		cmp	r3, #0
 2934 0020 02DA     		bge	.L248
 2935              		.loc 1 879 0
 2936 0022 2046     		mov	r0, r4
 2937 0024 FFF7FEFF 		bl	chx_timer_dequeue
 2938              	.LVL282:
 2939              	.L248:
 2940              		.loc 1 881 0
 2941 0028 2046     		mov	r0, r4
 2942 002a 3146     		mov	r1, r6
 2943 002c FFF7FEFF 		bl	ll_prio_enqueue
 2944              	.LVL283:
 2945              		.loc 1 882 0
 2946 0030 0322     		movs	r2, #3
 2947 0032 237A     		ldrb	r3, [r4, #8]	@ zero_extendqisi2
 2948              		.loc 1 884 0
 2949 0034 0020     		movs	r0, #0
 2950              		.loc 1 882 0
 2951 0036 62F30303 		bfi	r3, r2, #0, #4
 2952 003a 2372     		strb	r3, [r4, #8]
 2953              	.LVL284:
 2954              		.loc 1 884 0
 2955 003c FFF7FEFF 		bl	chx_sched
 2956              	.LVL285:
 2957 0040 0446     		mov	r4, r0
 2958              	.LVL286:
 2959              		.loc 1 886 0
 2960 0042 15B1     		cbz	r5, .L249
 2961              	.LVL287:
 2962              		.loc 1 887 0
 2963 0044 2846     		mov	r0, r5
 2964              	.LVL288:
ARM GAS  /tmp/ccYjC7Ok.s 			page 53


 2965 0046 FFF7FEFF 		bl	chopstx_mutex_lock
 2966              	.LVL289:
 2967              	.L249:
 2968              		.loc 1 889 0
 2969 004a 002C     		cmp	r4, #0
 2970 004c 03DA     		bge	.L246
 2971              		.loc 1 890 0
 2972 004e 4FF0FF30 		mov	r0, #-1
 2973 0052 FFF7FEFF 		bl	chopstx_exit
 2974              	.LVL290:
 2975              	.L246:
 2976              		.loc 1 891 0
 2977 0056 70BD     		pop	{r4, r5, r6, pc}
 2978              	.LVL291:
 2979              	.L258:
 2980              		.align	2
 2981              	.L257:
 2982 0058 00000000 		.word	.LANCHOR0
 2983              		.cfi_endproc
 2984              	.LFE50:
 2985              		.size	chopstx_cond_wait, .-chopstx_cond_wait
 2986              		.section	.text.chopstx_join,"ax",%progbits
 2987              		.align	1
 2988              		.global	chopstx_join
 2989              		.syntax unified
 2990              		.thumb
 2991              		.thumb_func
 2992              		.fpu softvfp
 2993              		.type	chopstx_join, %function
 2994              	chopstx_join:
 2995              	.LFB60:
 2996              		.loc 1 1111 0
 2997              		.cfi_startproc
 2998              		@ args = 0, pretend = 0, frame = 0
 2999              		@ frame_needed = 0, uses_anonymous_args = 0
 3000              	.LVL292:
 3001 0000 70B5     		push	{r4, r5, r6, lr}
 3002              		.cfi_def_cfa_offset 16
 3003              		.cfi_offset 4, -16
 3004              		.cfi_offset 5, -12
 3005              		.cfi_offset 6, -8
 3006              		.cfi_offset 14, -4
 3007              		.loc 1 1111 0
 3008 0002 0446     		mov	r4, r0
 3009              	.LVL293:
 3010 0004 0E46     		mov	r6, r1
 3011              		.loc 1 1119 0
 3012 0006 FFF7FEFF 		bl	chopstx_testcancel
 3013              	.LVL294:
 3014              		.loc 1 1121 0
 3015 000a FFF7FEFF 		bl	chx_cpu_sched_lock
 3016              	.LVL295:
 3017              		.loc 1 1122 0
 3018 000e 237A     		ldrb	r3, [r4, #8]	@ zero_extendqisi2
 3019 0010 DA06     		lsls	r2, r3, #27
 3020 0012 04D5     		bpl	.L260
 3021              		.loc 1 1124 0
ARM GAS  /tmp/ccYjC7Ok.s 			page 54


 3022 0014 FFF7FEFF 		bl	chx_cpu_sched_unlock
 3023              	.LVL296:
 3024              		.loc 1 1125 0
 3025 0018 0220     		movs	r0, #2
 3026 001a FFF7FEFF 		bl	chx_fatal
 3027              	.LVL297:
 3028              	.L260:
 3029              		.loc 1 1128 0
 3030 001e 03F00F03 		and	r3, r3, #15
 3031 0022 0E2B     		cmp	r3, #14
 3032 0024 2AD0     		beq	.L261
 3033              	.LVL298:
 3034              	.LBB385:
 3035              		.loc 1 1132 0
 3036 0026 1D4D     		ldr	r5, .L273
 3037 0028 2868     		ldr	r0, [r5]
 3038 002a 90F90830 		ldrsb	r3, [r0, #8]
 3039 002e 002B     		cmp	r3, #0
 3040 0030 01DA     		bge	.L262
 3041              		.loc 1 1133 0
 3042 0032 FFF7FEFF 		bl	chx_timer_dequeue
 3043              	.LVL299:
 3044              	.L262:
 3045              		.loc 1 1135 0
 3046 0036 1A49     		ldr	r1, .L273+4
 3047 0038 2868     		ldr	r0, [r5]
 3048 003a FFF7FEFF 		bl	ll_prio_enqueue
 3049              	.LVL300:
 3050              		.loc 1 1137 0
 3051 003e 0521     		movs	r1, #5
 3052              		.loc 1 1138 0
 3053 0040 2046     		mov	r0, r4
 3054              		.loc 1 1136 0
 3055 0042 2B68     		ldr	r3, [r5]
 3056              		.loc 1 1137 0
 3057 0044 1A7A     		ldrb	r2, [r3, #8]	@ zero_extendqisi2
 3058              		.loc 1 1136 0
 3059 0046 1C61     		str	r4, [r3, #16]
 3060              		.loc 1 1137 0
 3061 0048 61F30302 		bfi	r2, r1, #0, #4
 3062 004c 1A72     		strb	r2, [r3, #8]
 3063              		.loc 1 1138 0
 3064 004e 237A     		ldrb	r3, [r4, #8]	@ zero_extendqisi2
 3065 0050 43F04003 		orr	r3, r3, #64
 3066 0054 2372     		strb	r3, [r4, #8]
 3067              	.LVL301:
 3068              	.L263:
 3069              		.loc 1 1142 0 discriminator 1
 3070 0056 2B68     		ldr	r3, [r5]
 3071 0058 C27A     		ldrb	r2, [r0, #11]	@ zero_extendqisi2
 3072 005a DB7A     		ldrb	r3, [r3, #11]	@ zero_extendqisi2
 3073 005c 9A42     		cmp	r2, r3
 3074 005e 04D2     		bcs	.L267
 3075              		.loc 1 1144 0
 3076 0060 C372     		strb	r3, [r0, #11]
 3077              		.loc 1 1145 0
 3078 0062 FFF7FEFF 		bl	requeue
ARM GAS  /tmp/ccYjC7Ok.s 			page 55


 3079              	.LVL302:
 3080              		.loc 1 1142 0
 3081 0066 0028     		cmp	r0, #0
 3082 0068 F5D1     		bne	.L263
 3083              	.L267:
 3084              	.LVL303:
 3085              		.loc 1 1148 0
 3086 006a 0020     		movs	r0, #0
 3087              	.LVL304:
 3088 006c FFF7FEFF 		bl	chx_sched
 3089              	.LVL305:
 3090              	.LBE385:
 3091              		.loc 1 1153 0
 3092 0070 0028     		cmp	r0, #0
 3093 0072 0EDA     		bge	.L272
 3094              		.loc 1 1154 0
 3095 0074 4FF0FF30 		mov	r0, #-1
 3096              	.LVL306:
 3097 0078 FFF7FEFF 		bl	chopstx_exit
 3098              	.LVL307:
 3099              	.L261:
 3100              		.loc 1 1151 0
 3101 007c FFF7FEFF 		bl	chx_cpu_sched_unlock
 3102              	.LVL308:
 3103              	.L268:
 3104              		.loc 1 1158 0
 3105 0080 237A     		ldrb	r3, [r4, #8]	@ zero_extendqisi2
 3106 0082 43F00F03 		orr	r3, r3, #15
 3107 0086 2372     		strb	r3, [r4, #8]
 3108              		.loc 1 1159 0
 3109 0088 2EB1     		cbz	r6, .L270
 3110              		.loc 1 1160 0
 3111 008a 2369     		ldr	r3, [r4, #16]
 3112 008c 0020     		movs	r0, #0
 3113 008e 3360     		str	r3, [r6]
 3114 0090 00E0     		b	.L259
 3115              	.LVL309:
 3116              	.L272:
 3117              		.loc 1 1156 0
 3118 0092 F5D0     		beq	.L268
 3119              	.LVL310:
 3120              	.L259:
 3121              		.loc 1 1164 0
 3122 0094 70BD     		pop	{r4, r5, r6, pc}
 3123              	.LVL311:
 3124              	.L270:
 3125 0096 3046     		mov	r0, r6
 3126              		.loc 1 1163 0
 3127 0098 FCE7     		b	.L259
 3128              	.L274:
 3129 009a 00BF     		.align	2
 3130              	.L273:
 3131 009c 00000000 		.word	.LANCHOR0
 3132 00a0 00000000 		.word	.LANCHOR3
 3133              		.cfi_endproc
 3134              	.LFE60:
 3135              		.size	chopstx_join, .-chopstx_join
ARM GAS  /tmp/ccYjC7Ok.s 			page 56


 3136              		.section	.text.chopstx_setcancelstate,"ax",%progbits
 3137              		.align	1
 3138              		.global	chopstx_setcancelstate
 3139              		.syntax unified
 3140              		.thumb
 3141              		.thumb_func
 3142              		.fpu softvfp
 3143              		.type	chopstx_setcancelstate, %function
 3144              	chopstx_setcancelstate:
 3145              	.LFB64:
 3146              		.loc 1 1285 0
 3147              		.cfi_startproc
 3148              		@ args = 0, pretend = 0, frame = 0
 3149              		@ frame_needed = 0, uses_anonymous_args = 0
 3150              	.LVL312:
 3151              		.loc 1 1286 0
 3152 0000 084B     		ldr	r3, .L276
 3153              		.loc 1 1288 0
 3154 0002 B0FA80F0 		clz	r0, r0
 3155              	.LVL313:
 3156              		.loc 1 1286 0
 3157 0006 1A68     		ldr	r2, [r3]
 3158              		.loc 1 1285 0
 3159 0008 10B5     		push	{r4, lr}
 3160              		.cfi_def_cfa_offset 8
 3161              		.cfi_offset 4, -8
 3162              		.cfi_offset 14, -4
 3163              		.loc 1 1286 0
 3164 000a 537A     		ldrb	r3, [r2, #9]	@ zero_extendqisi2
 3165              		.loc 1 1288 0
 3166 000c 4009     		lsrs	r0, r0, #5
 3167              		.loc 1 1286 0
 3168 000e DC43     		mvns	r4, r3
 3169              		.loc 1 1288 0
 3170 0010 60F30003 		bfi	r3, r0, #0, #1
 3171              		.loc 1 1286 0
 3172 0014 04F00104 		and	r4, r4, #1
 3173              	.LVL314:
 3174              		.loc 1 1288 0
 3175 0018 5372     		strb	r3, [r2, #9]
 3176              		.loc 1 1289 0
 3177 001a FFF7FEFF 		bl	chopstx_testcancel
 3178              	.LVL315:
 3179              		.loc 1 1291 0
 3180 001e 2046     		mov	r0, r4
 3181 0020 10BD     		pop	{r4, pc}
 3182              	.LVL316:
 3183              	.L277:
 3184 0022 00BF     		.align	2
 3185              	.L276:
 3186 0024 00000000 		.word	.LANCHOR0
 3187              		.cfi_endproc
 3188              	.LFE64:
 3189              		.size	chopstx_setcancelstate, .-chopstx_setcancelstate
 3190              		.section	.text.chopstx_poll,"ax",%progbits
 3191              		.align	1
 3192              		.global	chopstx_poll
ARM GAS  /tmp/ccYjC7Ok.s 			page 57


 3193              		.syntax unified
 3194              		.thumb
 3195              		.thumb_func
 3196              		.fpu softvfp
 3197              		.type	chopstx_poll, %function
 3198              	chopstx_poll:
 3199              	.LFB66:
 3200              		.loc 1 1320 0
 3201              		.cfi_startproc
 3202              		@ args = 0, pretend = 0, frame = 16
 3203              		@ frame_needed = 1, uses_anonymous_args = 0
 3204              	.LVL317:
 3205 0000 2DE9F04F 		push	{r4, r5, r6, r7, r8, r9, r10, fp, lr}
 3206              		.cfi_def_cfa_offset 36
 3207              		.cfi_offset 4, -36
 3208              		.cfi_offset 5, -32
 3209              		.cfi_offset 6, -28
 3210              		.cfi_offset 7, -24
 3211              		.cfi_offset 8, -20
 3212              		.cfi_offset 9, -16
 3213              		.cfi_offset 10, -12
 3214              		.cfi_offset 11, -8
 3215              		.cfi_offset 14, -4
 3216              		.loc 1 1321 0
 3217 0004 4FF00008 		mov	r8, #0
 3218              		.loc 1 1320 0
 3219 0008 85B0     		sub	sp, sp, #20
 3220              		.cfi_def_cfa_offset 56
 3221 000a 9346     		mov	fp, r2
 3222              		.loc 1 1323 0
 3223 000c 4A01     		lsls	r2, r1, #5
 3224              	.LVL318:
 3225              		.loc 1 1320 0
 3226              		.loc 1 1323 0
 3227 000e 0832     		adds	r2, r2, #8
 3228              		.loc 1 1320 0
 3229 0010 00AF     		add	r7, sp, #0
 3230              		.cfi_def_cfa_register 7
 3231              		.loc 1 1321 0
 3232 0012 07F11004 		add	r4, r7, #16
 3233              		.loc 1 1323 0
 3234 0016 ADEB020D 		sub	sp, sp, r2
 3235              		.loc 1 1320 0
 3236 001a 7860     		str	r0, [r7, #4]
 3237 001c 8946     		mov	r9, r1
 3238              		.loc 1 1321 0
 3239 001e 44F8048D 		str	r8, [r4, #-4]!
 3240              	.LVL319:
 3241              		.loc 1 1323 0
 3242 0022 6E46     		mov	r6, sp
 3243              	.LVL320:
 3244              		.loc 1 1327 0
 3245 0024 FFF7FEFF 		bl	chopstx_testcancel
 3246              	.LVL321:
 3247              		.loc 1 1329 0
 3248 0028 4346     		mov	r3, r8
 3249              	.LBB403:
ARM GAS  /tmp/ccYjC7Ok.s 			page 58


 3250              	.LBB404:
 3251              		.loc 1 1298 0
 3252 002a 804A     		ldr	r2, .L315
 3253              	.LBE404:
 3254              	.LBE403:
 3255              		.loc 1 1329 0
 3256 002c 3146     		mov	r1, r6
 3257 002e 9046     		mov	r8, r2
 3258              	.LBB408:
 3259              	.LBB405:
 3260              		.loc 1 1299 0
 3261 0030 1846     		mov	r0, r3
 3262              		.loc 1 1298 0
 3263 0032 1568     		ldr	r5, [r2]
 3264              	.LVL322:
 3265              	.L279:
 3266              	.LBE405:
 3267              	.LBE408:
 3268              		.loc 1 1329 0 discriminator 1
 3269 0034 4B45     		cmp	r3, r9
 3270 0036 01F12002 		add	r2, r1, #32
 3271 003a 1ADB     		blt	.L280
 3272 003c 3446     		mov	r4, r6
 3273              	.LVL323:
 3274              		.loc 1 1332 0
 3275 003e 4FF0000A 		mov	r10, #0
 3276              	.LVL324:
 3277              	.L281:
 3278              		.loc 1 1332 0 is_stmt 0 discriminator 1
 3279 0042 CA45     		cmp	r10, r9
 3280 0044 2BDB     		blt	.L291
 3281              		.loc 1 1345 0 is_stmt 1
 3282 0046 FFF7FEFF 		bl	chx_cpu_sched_lock
 3283              	.LVL325:
 3284              		.loc 1 1347 0
 3285 004a FB68     		ldr	r3, [r7, #12]
 3286 004c 002B     		cmp	r3, #0
 3287 004e 00F08D80 		beq	.L292
 3288              	.L296:
 3289              	.LVL326:
 3290              		.loc 1 1350 0
 3291 0052 FFF7FEFF 		bl	chx_cpu_sched_unlock
 3292              	.LVL327:
 3293              		.loc 1 1325 0
 3294 0056 0025     		movs	r5, #0
 3295              	.LVL328:
 3296              	.L293:
 3297              		.loc 1 1379 0
 3298 0058 0024     		movs	r4, #0
 3299              	.LBB409:
 3300              	.LBB410:
 3301              	.LBB411:
 3302              		.loc 2 174 0
 3303 005a DFF8D881 		ldr	r8, .L315+8
 3304              	.LVL329:
 3305              	.L298:
 3306              	.LBE411:
ARM GAS  /tmp/ccYjC7Ok.s 			page 59


 3307              	.LBE410:
 3308              	.LBE409:
 3309              		.loc 1 1379 0 discriminator 1
 3310 005e 4C45     		cmp	r4, r9
 3311 0060 C0F2AC80 		blt	.L303
 3312              		.loc 1 1424 0
 3313 0064 002D     		cmp	r5, #0
 3314 0066 80F2DB80 		bge	.L304
 3315              		.loc 1 1425 0
 3316 006a 4FF0FF30 		mov	r0, #-1
 3317 006e FFF7FEFF 		bl	chopstx_exit
 3318              	.LVL330:
 3319              	.L280:
 3320              	.LBB418:
 3321              	.LBB406:
 3322              		.loc 1 1296 0 discriminator 3
 3323 0072 42E90811 		strd	r1, r1, [r2, #-32]
 3324              		.loc 1 1297 0 discriminator 3
 3325 0076 06EB431C 		add	ip, r6, r3, lsl #5
 3326 007a 9CF80910 		ldrb	r1, [ip, #9]	@ zero_extendqisi2
 3327              	.LVL331:
 3328              	.LBE406:
 3329              	.LBE418:
 3330              		.loc 1 1329 0 discriminator 3
 3331 007e 0133     		adds	r3, r3, #1
 3332              	.LVL332:
 3333              	.LBB419:
 3334              	.LBB407:
 3335              		.loc 1 1297 0 discriminator 3
 3336 0080 41F08001 		orr	r1, r1, #128
 3337 0084 8CF80910 		strb	r1, [ip, #9]
 3338              	.LVL333:
 3339              		.loc 1 1298 0 discriminator 3
 3340 0088 E97A     		ldrb	r1, [r5, #11]	@ zero_extendqisi2
 3341 008a 8CF80B10 		strb	r1, [ip, #11]
 3342              		.loc 1 1300 0 discriminator 3
 3343 008e 42E90500 		strd	r0, r0, [r2, #-20]
 3344              		.loc 1 1302 0 discriminator 3
 3345 0092 42E90354 		strd	r5, r4, [r2, #-12]
 3346              		.loc 1 1303 0 discriminator 3
 3347 0096 42F8040C 		str	r0, [r2, #-4]
 3348              	.LVL334:
 3349              	.LBE407:
 3350              	.LBE419:
 3351              		.loc 1 1329 0 discriminator 3
 3352 009a 1146     		mov	r1, r2
 3353 009c CAE7     		b	.L279
 3354              	.LVL335:
 3355              	.L291:
 3356              		.loc 1 1334 0
 3357 009e 5BF82A50 		ldr	r5, [fp, r10, lsl #2]
 3358              	.LVL336:
 3359              		.loc 1 1335 0
 3360 00a2 0022     		movs	r2, #0
 3361 00a4 2B46     		mov	r3, r5
 3362 00a6 23F8022F 		strh	r2, [r3, #2]!	@ movhi
 3363              		.loc 1 1336 0
ARM GAS  /tmp/ccYjC7Ok.s 			page 60


 3364 00aa E361     		str	r3, [r4, #28]
 3365              		.loc 1 1337 0
 3366 00ac 2B88     		ldrh	r3, [r5]
 3367 00ae 0BBB     		cbnz	r3, .L282
 3368              	.LVL337:
 3369              	.LBB420:
 3370              	.LBB421:
 3371              		.loc 1 948 0
 3372 00b0 FFF7FEFF 		bl	chopstx_testcancel
 3373              	.LVL338:
 3374              		.loc 1 950 0
 3375 00b4 A868     		ldr	r0, [r5, #8]
 3376 00b6 08B1     		cbz	r0, .L283
 3377              		.loc 1 951 0
 3378 00b8 FFF7FEFF 		bl	chopstx_mutex_lock
 3379              	.LVL339:
 3380              	.L283:
 3381              		.loc 1 953 0
 3382 00bc D5E90330 		ldrd	r3, r0, [r5, #12]
 3383 00c0 9847     		blx	r3
 3384              	.LVL340:
 3385 00c2 70B1     		cbz	r0, .L284
 3386              	.LVL341:
 3387              		.loc 1 956 0
 3388 00c4 A269     		ldr	r2, [r4, #24]
 3389 00c6 1368     		ldr	r3, [r2]
 3390 00c8 0133     		adds	r3, r3, #1
 3391 00ca 1360     		str	r3, [r2]
 3392              		.loc 1 957 0
 3393 00cc 0122     		movs	r2, #1
 3394 00ce E369     		ldr	r3, [r4, #28]
 3395 00d0 1A80     		strh	r2, [r3]	@ movhi
 3396              	.L285:
 3397              		.loc 1 971 0
 3398 00d2 A868     		ldr	r0, [r5, #8]
 3399 00d4 08B1     		cbz	r0, .L286
 3400              		.loc 1 972 0
 3401 00d6 FFF7FEFF 		bl	chopstx_mutex_unlock
 3402              	.LVL342:
 3403              	.L286:
 3404              	.LBE421:
 3405              	.LBE420:
 3406              		.loc 1 1332 0 discriminator 2
 3407 00da 0AF1010A 		add	r10, r10, #1
 3408              	.LVL343:
 3409 00de 2034     		adds	r4, r4, #32
 3410 00e0 AFE7     		b	.L281
 3411              	.LVL344:
 3412              	.L284:
 3413              	.LBB423:
 3414              	.LBB422:
 3415              		.loc 1 964 0
 3416 00e2 FFF7FEFF 		bl	chx_cpu_sched_lock
 3417              	.LVL345:
 3418              		.loc 1 966 0
 3419 00e6 6968     		ldr	r1, [r5, #4]
 3420 00e8 2046     		mov	r0, r4
ARM GAS  /tmp/ccYjC7Ok.s 			page 61


 3421 00ea FFF7FEFF 		bl	ll_prio_enqueue
 3422              	.LVL346:
 3423              		.loc 1 968 0
 3424 00ee FFF7FEFF 		bl	chx_cpu_sched_unlock
 3425              	.LVL347:
 3426 00f2 EEE7     		b	.L285
 3427              	.LVL348:
 3428              	.L282:
 3429              	.LBE422:
 3430              	.LBE423:
 3431              		.loc 1 1339 0
 3432 00f4 012B     		cmp	r3, #1
 3433 00f6 16D1     		bne	.L287
 3434 00f8 3B60     		str	r3, [r7]
 3435              	.LVL349:
 3436              	.LBB424:
 3437              	.LBB425:
 3438              		.loc 1 1004 0
 3439 00fa FFF7FEFF 		bl	chopstx_testcancel
 3440              	.LVL350:
 3441              		.loc 1 1005 0
 3442 00fe FFF7FEFF 		bl	chx_cpu_sched_lock
 3443              	.LVL351:
 3444              		.loc 1 1006 0
 3445 0102 2A79     		ldrb	r2, [r5, #4]	@ zero_extendqisi2
 3446              		.loc 1 1008 0
 3447 0104 4A49     		ldr	r1, .L315+4
 3448              		.loc 1 1006 0
 3449 0106 2261     		str	r2, [r4, #16]
 3450              	.LVL352:
 3451              		.loc 1 1008 0
 3452 0108 2046     		mov	r0, r4
 3453 010a FFF7FEFF 		bl	ll_prio_enqueue
 3454              	.LVL353:
 3455              		.loc 1 1009 0
 3456 010e 2A79     		ldrb	r2, [r5, #4]	@ zero_extendqisi2
 3457              	.LVL354:
 3458              	.LBB426:
 3459              	.LBB427:
 3460              		.loc 2 162 0
 3461 0110 3B68     		ldr	r3, [r7]
 3462 0112 5109     		lsrs	r1, r2, #5
 3463 0114 02F01F02 		and	r2, r2, #31
 3464              	.LVL355:
 3465 0118 9340     		lsls	r3, r3, r2
 3466 011a 464A     		ldr	r2, .L315+8
 3467 011c 42F82130 		str	r3, [r2, r1, lsl #2]
 3468              	.LVL356:
 3469              	.L290:
 3470              	.LBE427:
 3471              	.LBE426:
 3472              	.LBE425:
 3473              	.LBE424:
 3474              	.LBB428:
 3475              	.LBB429:
 3476              		.loc 1 1199 0
 3477 0120 FFF7FEFF 		bl	chx_cpu_sched_unlock
ARM GAS  /tmp/ccYjC7Ok.s 			page 62


 3478              	.LVL357:
 3479 0124 D9E7     		b	.L286
 3480              	.LVL358:
 3481              	.L287:
 3482              		.loc 1 1171 0
 3483 0126 6D68     		ldr	r5, [r5, #4]
 3484              	.LVL359:
 3485              		.loc 1 1173 0
 3486 0128 FFF7FEFF 		bl	chopstx_testcancel
 3487              	.LVL360:
 3488              		.loc 1 1174 0
 3489 012c FFF7FEFF 		bl	chx_cpu_sched_lock
 3490              	.LVL361:
 3491              		.loc 1 1176 0
 3492 0130 2B7A     		ldrb	r3, [r5, #8]	@ zero_extendqisi2
 3493 0132 DA06     		lsls	r2, r3, #27
 3494 0134 04D5     		bpl	.L288
 3495              		.loc 1 1178 0
 3496 0136 FFF7FEFF 		bl	chx_cpu_sched_unlock
 3497              	.LVL362:
 3498              		.loc 1 1179 0
 3499 013a 0220     		movs	r0, #2
 3500 013c FFF7FEFF 		bl	chx_fatal
 3501              	.LVL363:
 3502              	.L288:
 3503              		.loc 1 1182 0
 3504 0140 03F00F03 		and	r3, r3, #15
 3505 0144 0E2B     		cmp	r3, #14
 3506 0146 07D1     		bne	.L289
 3507              	.LVL364:
 3508              		.loc 1 1185 0
 3509 0148 A269     		ldr	r2, [r4, #24]
 3510 014a 1368     		ldr	r3, [r2]
 3511 014c 0133     		adds	r3, r3, #1
 3512 014e 1360     		str	r3, [r2]
 3513              		.loc 1 1186 0
 3514 0150 0122     		movs	r2, #1
 3515 0152 E369     		ldr	r3, [r4, #28]
 3516 0154 1A80     		strh	r2, [r3]	@ movhi
 3517 0156 E3E7     		b	.L290
 3518              	.L289:
 3519              		.loc 1 1193 0
 3520 0158 2561     		str	r5, [r4, #16]
 3521              	.LVL365:
 3522              		.loc 1 1195 0
 3523 015a 3749     		ldr	r1, .L315+12
 3524 015c 2046     		mov	r0, r4
 3525 015e FFF7FEFF 		bl	ll_prio_enqueue
 3526              	.LVL366:
 3527              		.loc 1 1197 0
 3528 0162 2B7A     		ldrb	r3, [r5, #8]	@ zero_extendqisi2
 3529 0164 43F04003 		orr	r3, r3, #64
 3530 0168 2B72     		strb	r3, [r5, #8]
 3531 016a D9E7     		b	.L290
 3532              	.LVL367:
 3533              	.L292:
 3534              	.LBE429:
ARM GAS  /tmp/ccYjC7Ok.s 			page 63


 3535              	.LBE428:
 3536              		.loc 1 1352 0
 3537 016c 7B68     		ldr	r3, [r7, #4]
 3538 016e 9BB9     		cbnz	r3, .L294
 3539              		.loc 1 1354 0
 3540 0170 D8F80000 		ldr	r0, [r8]
 3541 0174 90F90830 		ldrsb	r3, [r0, #8]
 3542 0178 002B     		cmp	r3, #0
 3543 017a 01DA     		bge	.L295
 3544              		.loc 1 1355 0
 3545 017c FFF7FEFF 		bl	chx_timer_dequeue
 3546              	.LVL368:
 3547              	.L295:
 3548              		.loc 1 1357 0
 3549 0180 0621     		movs	r1, #6
 3550 0182 D8F80030 		ldr	r3, [r8]
 3551              		.loc 1 1359 0
 3552 0186 0020     		movs	r0, #0
 3553              		.loc 1 1357 0
 3554 0188 1A7A     		ldrb	r2, [r3, #8]	@ zero_extendqisi2
 3555 018a 61F30302 		bfi	r2, r1, #0, #4
 3556 018e 1A72     		strb	r2, [r3, #8]
 3557              	.LVL369:
 3558              		.loc 1 1359 0
 3559 0190 FFF7FEFF 		bl	chx_sched
 3560              	.LVL370:
 3561 0194 0546     		mov	r5, r0
 3562              	.LVL371:
 3563 0196 5FE7     		b	.L293
 3564              	.LVL372:
 3565              	.L294:
 3566              		.loc 1 1364 0
 3567 0198 FFF7FEFF 		bl	chx_cpu_sched_unlock
 3568              	.LVL373:
 3569              	.L297:
 3570              		.loc 1 1367 0
 3571 019c FFF7FEFF 		bl	chopstx_testcancel
 3572              	.LVL374:
 3573              		.loc 1 1368 0
 3574 01a0 FFF7FEFF 		bl	chx_cpu_sched_lock
 3575              	.LVL375:
 3576              		.loc 1 1369 0
 3577 01a4 FB68     		ldr	r3, [r7, #12]
 3578 01a6 002B     		cmp	r3, #0
 3579 01a8 7FF453AF 		bne	.L296
 3580              		.loc 1 1374 0
 3581 01ac 7968     		ldr	r1, [r7, #4]
 3582 01ae 0620     		movs	r0, #6
 3583 01b0 FFF7FEFF 		bl	chx_snooze
 3584              	.LVL376:
 3585              		.loc 1 1376 0
 3586 01b4 0546     		mov	r5, r0
 3587 01b6 0028     		cmp	r0, #0
 3588 01b8 F0D0     		beq	.L297
 3589 01ba 4DE7     		b	.L293
 3590              	.LVL377:
 3591              	.L303:
ARM GAS  /tmp/ccYjC7Ok.s 			page 64


 3592              		.loc 1 1381 0
 3593 01bc 5BF824A0 		ldr	r10, [fp, r4, lsl #2]
 3594              	.LVL378:
 3595              		.loc 1 1382 0
 3596 01c0 FFF7FEFF 		bl	chx_cpu_sched_lock
 3597              	.LVL379:
 3598              		.loc 1 1384 0
 3599 01c4 BAF80030 		ldrh	r3, [r10]
 3600 01c8 3BB9     		cbnz	r3, .L299
 3601              	.LVL380:
 3602              	.LBB430:
 3603              		.loc 1 1388 0
 3604 01ca BAF80230 		ldrh	r3, [r10, #2]
 3605 01ce 9BB9     		cbnz	r3, .L300
 3606              	.LVL381:
 3607              	.L314:
 3608              	.LBE430:
 3609              	.LBB431:
 3610              		.loc 1 1416 0
 3611 01d0 06EB4410 		add	r0, r6, r4, lsl #5
 3612 01d4 FFF7FEFF 		bl	ll_dequeue
 3613              	.LVL382:
 3614 01d8 0EE0     		b	.L300
 3615              	.L299:
 3616              	.LBE431:
 3617              		.loc 1 1395 0
 3618 01da 012B     		cmp	r3, #1
 3619 01dc BAF80220 		ldrh	r2, [r10, #2]
 3620 01e0 1BD1     		bne	.L301
 3621              	.LVL383:
 3622              	.LBB432:
 3623              		.loc 1 1399 0
 3624 01e2 6AB1     		cbz	r2, .L302
 3625              		.loc 1 1400 0
 3626 01e4 9AF80420 		ldrb	r2, [r10, #4]	@ zero_extendqisi2
 3627              	.LVL384:
 3628              	.LBB414:
 3629              	.LBB415:
 3630              		.loc 2 168 0
 3631 01e8 5109     		lsrs	r1, r2, #5
 3632 01ea 02F01F02 		and	r2, r2, #31
 3633              	.LVL385:
 3634 01ee 9340     		lsls	r3, r3, r2
 3635 01f0 01F16002 		add	r2, r1, #96
 3636              	.LVL386:
 3637              	.L313:
 3638              	.LBE415:
 3639              	.LBE414:
 3640              	.LBB416:
 3641              	.LBB412:
 3642              		.loc 2 174 0
 3643 01f4 48F82230 		str	r3, [r8, r2, lsl #2]
 3644              	.LVL387:
 3645              	.L300:
 3646              	.LBE412:
 3647              	.LBE416:
 3648              	.LBE432:
ARM GAS  /tmp/ccYjC7Ok.s 			page 65


 3649              		.loc 1 1421 0 discriminator 2
 3650 01f8 FFF7FEFF 		bl	chx_cpu_sched_unlock
 3651              	.LVL388:
 3652              		.loc 1 1379 0 discriminator 2
 3653 01fc 0134     		adds	r4, r4, #1
 3654              	.LVL389:
 3655 01fe 2EE7     		b	.L298
 3656              	.LVL390:
 3657              	.L302:
 3658              	.LBB433:
 3659              		.loc 1 1404 0
 3660 0200 06EB4410 		add	r0, r6, r4, lsl #5
 3661 0204 FFF7FEFF 		bl	ll_dequeue
 3662              	.LVL391:
 3663              		.loc 1 1406 0
 3664 0208 9AF80420 		ldrb	r2, [r10, #4]	@ zero_extendqisi2
 3665              	.LVL392:
 3666              	.LBB417:
 3667              	.LBB413:
 3668              		.loc 2 174 0
 3669 020c 5109     		lsrs	r1, r2, #5
 3670 020e 02F01F02 		and	r2, r2, #31
 3671              	.LVL393:
 3672 0212 9340     		lsls	r3, r3, r2
 3673 0214 01F12002 		add	r2, r1, #32
 3674 0218 ECE7     		b	.L313
 3675              	.LVL394:
 3676              	.L301:
 3677              	.LBE413:
 3678              	.LBE417:
 3679              	.LBE433:
 3680              	.LBB434:
 3681              		.loc 1 1413 0
 3682 021a 002A     		cmp	r2, #0
 3683 021c ECD1     		bne	.L300
 3684 021e D7E7     		b	.L314
 3685              	.LVL395:
 3686              	.L304:
 3687              	.LBE434:
 3688              		.loc 1 1428 0
 3689 0220 F868     		ldr	r0, [r7, #12]
 3690 0222 1437     		adds	r7, r7, #20
 3691              		.cfi_def_cfa_offset 36
 3692              	.LVL396:
 3693 0224 BD46     		mov	sp, r7
 3694              		.cfi_def_cfa_register 13
 3695              		@ sp needed
 3696 0226 BDE8F08F 		pop	{r4, r5, r6, r7, r8, r9, r10, fp, pc}
 3697              	.LVL397:
 3698              	.L316:
 3699 022a 00BF     		.align	2
 3700              	.L315:
 3701 022c 00000000 		.word	.LANCHOR0
 3702 0230 00000000 		.word	.LANCHOR4
 3703 0234 00E100E0 		.word	-536813312
 3704 0238 00000000 		.word	.LANCHOR3
 3705              		.cfi_endproc
ARM GAS  /tmp/ccYjC7Ok.s 			page 66


 3706              	.LFE66:
 3707              		.size	chopstx_poll, .-chopstx_poll
 3708              		.section	.text.chopstx_intr_wait,"ax",%progbits
 3709              		.align	1
 3710              		.global	chopstx_intr_wait
 3711              		.syntax unified
 3712              		.thumb
 3713              		.thumb_func
 3714              		.fpu softvfp
 3715              		.type	chopstx_intr_wait, %function
 3716              	chopstx_intr_wait:
 3717              	.LFB56:
 3718              		.loc 1 1024 0
 3719              		.cfi_startproc
 3720              		@ args = 0, pretend = 0, frame = 8
 3721              		@ frame_needed = 0, uses_anonymous_args = 0
 3722              	.LVL398:
 3723 0000 07B5     		push	{r0, r1, r2, lr}
 3724              		.cfi_def_cfa_offset 16
 3725              		.cfi_offset 14, -4
 3726              		.loc 1 1024 0
 3727 0002 02AA     		add	r2, sp, #8
 3728 0004 42F8040D 		str	r0, [r2, #-4]!
 3729              		.loc 1 1025 0
 3730 0008 0121     		movs	r1, #1
 3731 000a 0020     		movs	r0, #0
 3732              	.LVL399:
 3733 000c FFF7FEFF 		bl	chopstx_poll
 3734              	.LVL400:
 3735              		.loc 1 1026 0
 3736 0010 03B0     		add	sp, sp, #12
 3737              		.cfi_def_cfa_offset 4
 3738              		@ sp needed
 3739 0012 5DF804FB 		ldr	pc, [sp], #4
 3740              		.cfi_endproc
 3741              	.LFE56:
 3742              		.size	chopstx_intr_wait, .-chopstx_intr_wait
 3743              		.section	.text.chopstx_setpriority,"ax",%progbits
 3744              		.align	1
 3745              		.global	chopstx_setpriority
 3746              		.syntax unified
 3747              		.thumb
 3748              		.thumb_func
 3749              		.fpu softvfp
 3750              		.type	chopstx_setpriority, %function
 3751              	chopstx_setpriority:
 3752              	.LFB67:
 3753              		.loc 1 1446 0
 3754              		.cfi_startproc
 3755              		@ args = 0, pretend = 0, frame = 0
 3756              		@ frame_needed = 0, uses_anonymous_args = 0
 3757              	.LVL401:
 3758 0000 08B5     		push	{r3, lr}
 3759              		.cfi_def_cfa_offset 8
 3760              		.cfi_offset 3, -8
 3761              		.cfi_offset 14, -4
 3762              		.loc 1 1447 0
ARM GAS  /tmp/ccYjC7Ok.s 			page 67


 3763 0002 0D4B     		ldr	r3, .L324
 3764 0004 1A68     		ldr	r2, [r3]
 3765              	.LVL402:
 3766              		.loc 1 1450 0
 3767 0006 FFF7FEFF 		bl	chx_cpu_sched_lock
 3768              	.LVL403:
 3769              		.loc 1 1451 0
 3770 000a 917A     		ldrb	r1, [r2, #10]	@ zero_extendqisi2
 3771              	.LVL404:
 3772              		.loc 1 1452 0
 3773 000c D37A     		ldrb	r3, [r2, #11]	@ zero_extendqisi2
 3774              	.LVL405:
 3775              		.loc 1 1454 0
 3776 000e 9072     		strb	r0, [r2, #10]
 3777              		.loc 1 1455 0
 3778 0010 9942     		cmp	r1, r3
 3779 0012 01D1     		bne	.L319
 3780              	.L323:
 3781              		.loc 1 1463 0
 3782 0014 D072     		strb	r0, [r2, #11]
 3783 0016 01E0     		b	.L320
 3784              	.L319:
 3785              		.loc 1 1462 0
 3786 0018 8342     		cmp	r3, r0
 3787 001a FBD3     		bcc	.L323
 3788              	.L320:
 3789              		.loc 1 1465 0
 3790 001c D27A     		ldrb	r2, [r2, #11]	@ zero_extendqisi2
 3791              	.LVL406:
 3792 001e 9A42     		cmp	r2, r3
 3793 0020 04D2     		bcs	.L321
 3794              		.loc 1 1466 0
 3795 0022 0120     		movs	r0, #1
 3796              	.LVL407:
 3797 0024 FFF7FEFF 		bl	chx_sched
 3798              	.LVL408:
 3799              	.L322:
 3800              		.loc 1 1471 0
 3801 0028 0846     		mov	r0, r1
 3802 002a 08BD     		pop	{r3, pc}
 3803              	.LVL409:
 3804              	.L321:
 3805              		.loc 1 1467 0
 3806 002c F72A     		cmp	r2, #247
 3807 002e FBD8     		bhi	.L322
 3808              		.loc 1 1468 0
 3809 0030 FFF7FEFF 		bl	chx_cpu_sched_unlock
 3810              	.LVL410:
 3811 0034 F8E7     		b	.L322
 3812              	.L325:
 3813 0036 00BF     		.align	2
 3814              	.L324:
 3815 0038 00000000 		.word	.LANCHOR0
 3816              		.cfi_endproc
 3817              	.LFE67:
 3818              		.size	chopstx_setpriority, .-chopstx_setpriority
 3819              		.global	chopstx_main
ARM GAS  /tmp/ccYjC7Ok.s 			page 68


 3820              		.global	running
 3821              		.section	.bss.chopstx_main,"aw",%nobits
 3822              		.align	2
 3823              		.set	.LANCHOR5,. + 0
 3824              		.type	chopstx_main, %object
 3825              		.size	chopstx_main, 4
 3826              	chopstx_main:
 3827 0000 00000000 		.space	4
 3828              		.section	.bss.q_intr,"aw",%nobits
 3829              		.align	2
 3830              		.set	.LANCHOR4,. + 0
 3831              		.type	q_intr, %object
 3832              		.size	q_intr, 8
 3833              	q_intr:
 3834 0000 00000000 		.space	8
 3834      00000000 
 3835              		.section	.bss.q_join,"aw",%nobits
 3836              		.align	2
 3837              		.set	.LANCHOR3,. + 0
 3838              		.type	q_join, %object
 3839              		.size	q_join, 8
 3840              	q_join:
 3841 0000 00000000 		.space	8
 3841      00000000 
 3842              		.section	.bss.q_ready,"aw",%nobits
 3843              		.align	2
 3844              		.set	.LANCHOR1,. + 0
 3845              		.type	q_ready, %object
 3846              		.size	q_ready, 8
 3847              	q_ready:
 3848 0000 00000000 		.space	8
 3848      00000000 
 3849              		.section	.bss.q_timer,"aw",%nobits
 3850              		.align	2
 3851              		.set	.LANCHOR2,. + 0
 3852              		.type	q_timer, %object
 3853              		.size	q_timer, 8
 3854              	q_timer:
 3855 0000 00000000 		.space	8
 3855      00000000 
 3856              		.section	.bss.running,"aw",%nobits
 3857              		.align	2
 3858              		.set	.LANCHOR0,. + 0
 3859              		.type	running, %object
 3860              		.size	running, 4
 3861              	running:
 3862 0000 00000000 		.space	4
 3863              		.text
 3864              	.Letext0:
 3865              		.file 3 "/usr/arm-none-eabi/include/machine/_default_types.h"
 3866              		.file 4 "/usr/arm-none-eabi/include/sys/_stdint.h"
 3867              		.file 5 "/usr/lib/gcc/arm-none-eabi/7.3.1/include/stddef.h"
 3868              		.file 6 "/usr/arm-none-eabi/include/sys/lock.h"
 3869              		.file 7 "/usr/arm-none-eabi/include/sys/_types.h"
 3870              		.file 8 "/usr/arm-none-eabi/include/sys/reent.h"
 3871              		.file 9 "/usr/arm-none-eabi/include/stdlib.h"
 3872              		.file 10 "../chopstx/chopstx.h"
ARM GAS  /tmp/ccYjC7Ok.s 			page 69


 3873              		.file 11 "../chopstx/chopstx-cortex-m.h"
 3874              		.file 12 "<built-in>"