ARM GAS  /tmp/ccYjC7Ok.s 			page 1


   1              		.cpu cortex-m3
   2              		.eabi_attribute 20, 1
   3              		.eabi_attribute 21, 1
   4              		.eabi_attribute 23, 3
   5              		.eabi_attribute 24, 1
   6              		.eabi_attribute 25, 1
   7              		.eabi_attribute 26, 1
   8              		.eabi_attribute 30, 4
   9              		.eabi_attribute 34, 1
  10              		.eabi_attribute 18, 4
  11              		.file	"chopstx.c"
  12              		.text
  13              	.Ltext0:
  14              		.cfi_sections	.debug_frame
  15              		.section	.text.ll_dequeue,"ax",%progbits
  16              		.align	1
  17              		.syntax unified
  18              		.thumb
  19              		.thumb_func
  20              		.fpu softvfp
  21              		.type	ll_dequeue, %function
  22              	ll_dequeue:
  23              	.LFB5:
  24              		.file 1 "../chopstx/chopstx.c"
  25              		.loc 1 187 0
  26              		.cfi_startproc
  27              		@ args = 0, pretend = 0, frame = 0
  28              		@ frame_needed = 0, uses_anonymous_args = 0
  29              		@ link register save eliminated.
  30              	.LVL0:
  31              		.loc 1 188 0
  32 0000 D0E90021 		ldrd	r2, r1, [r0]
  33 0004 5160     		str	r1, [r2, #4]
  34              		.loc 1 189 0
  35 0006 4168     		ldr	r1, [r0, #4]
  36 0008 0A60     		str	r2, [r1]
  37              		.loc 1 190 0
  38 000a C0E90000 		strd	r0, r0, [r0]
  39              		.loc 1 192 0
  40 000e 7047     		bx	lr
  41              		.cfi_endproc
  42              	.LFE5:
  43              		.size	ll_dequeue, .-ll_dequeue
  44              		.section	.text.ll_pop,"ax",%progbits
  45              		.align	1
  46              		.syntax unified
  47              		.thumb
  48              		.thumb_func
  49              		.fpu softvfp
  50              		.type	ll_pop, %function
  51              	ll_pop:
  52              	.LFB7:
  53              		.loc 1 208 0
  54              		.cfi_startproc
  55              		@ args = 0, pretend = 0, frame = 0
  56              		@ frame_needed = 0, uses_anonymous_args = 0
  57              		@ link register save eliminated.
ARM GAS  /tmp/ccYjC7Ok.s 			page 2


  58              	.LVL1:
  59              		.loc 1 209 0
  60 0000 0368     		ldr	r3, [r0]
  61 0002 8342     		cmp	r3, r0
  62 0004 02D0     		beq	.L3
  63              		.loc 1 212 0
  64 0006 1846     		mov	r0, r3
  65              	.LVL2:
  66 0008 FFF7FEBF 		b	ll_dequeue
  67              	.LVL3:
  68              	.L3:
  69              		.loc 1 213 0
  70 000c 0020     		movs	r0, #0
  71              	.LVL4:
  72 000e 7047     		bx	lr
  73              		.cfi_endproc
  74              	.LFE7:
  75              		.size	ll_pop, .-ll_pop
  76              		.section	.text.chx_cpu_sched_lock,"ax",%progbits
  77              		.align	1
  78              		.syntax unified
  79              		.thumb
  80              		.thumb_func
  81              		.fpu softvfp
  82              		.type	chx_cpu_sched_lock, %function
  83              	chx_cpu_sched_lock:
  84              	.LFB22:
  85              		.file 2 "../chopstx/chopstx-cortex-m.c"
  86              		.loc 2 205 0
  87              		.cfi_startproc
  88              		@ args = 0, pretend = 0, frame = 0
  89              		@ frame_needed = 0, uses_anonymous_args = 0
  90              		@ link register save eliminated.
  91              		.loc 2 206 0
  92 0000 044B     		ldr	r3, .L6
  93 0002 1B68     		ldr	r3, [r3]
  94 0004 DB7A     		ldrb	r3, [r3, #11]	@ zero_extendqisi2
  95 0006 F72B     		cmp	r3, #247
  96 0008 02D8     		bhi	.L4
  97              	.LVL5:
  98              	.LBB193:
  99              		.loc 2 212 0
 100 000a 4023     		movs	r3, #64
 101              		.syntax unified
 102              	@ 212 "../chopstx/chopstx-cortex-m.c" 1
 103 000c 83F31188 		msr	BASEPRI, r3
 104              	@ 0 "" 2
 105              	.LVL6:
 106              		.thumb
 107              		.syntax unified
 108              	.L4:
 109              	.LBE193:
 110              		.loc 2 215 0
 111 0010 7047     		bx	lr
 112              	.L7:
 113 0012 00BF     		.align	2
 114              	.L6:
ARM GAS  /tmp/ccYjC7Ok.s 			page 3


 115 0014 00000000 		.word	.LANCHOR0
 116              		.cfi_endproc
 117              	.LFE22:
 118              		.size	chx_cpu_sched_lock, .-chx_cpu_sched_lock
 119              		.section	.text.chx_cpu_sched_unlock,"ax",%progbits
 120              		.align	1
 121              		.syntax unified
 122              		.thumb
 123              		.thumb_func
 124              		.fpu softvfp
 125              		.type	chx_cpu_sched_unlock, %function
 126              	chx_cpu_sched_unlock:
 127              	.LFB23:
 128              		.loc 2 219 0
 129              		.cfi_startproc
 130              		@ args = 0, pretend = 0, frame = 0
 131              		@ frame_needed = 0, uses_anonymous_args = 0
 132              		@ link register save eliminated.
 133              		.loc 2 220 0
 134 0000 044B     		ldr	r3, .L10
 135 0002 1B68     		ldr	r3, [r3]
 136 0004 DB7A     		ldrb	r3, [r3, #11]	@ zero_extendqisi2
 137 0006 F72B     		cmp	r3, #247
 138 0008 02D8     		bhi	.L8
 139              	.LVL7:
 140              	.LBB194:
 141              		.loc 2 226 0
 142 000a 0023     		movs	r3, #0
 143              		.syntax unified
 144              	@ 226 "../chopstx/chopstx-cortex-m.c" 1
 145 000c 83F31188 		msr	BASEPRI, r3
 146              	@ 0 "" 2
 147              	.LVL8:
 148              		.thumb
 149              		.syntax unified
 150              	.L8:
 151              	.LBE194:
 152              		.loc 2 229 0
 153 0010 7047     		bx	lr
 154              	.L11:
 155 0012 00BF     		.align	2
 156              	.L10:
 157 0014 00000000 		.word	.LANCHOR0
 158              		.cfi_endproc
 159              	.LFE23:
 160              		.size	chx_cpu_sched_unlock, .-chx_cpu_sched_unlock
 161              		.section	.text.chx_sched,"ax",%progbits
 162              		.align	1
 163              		.syntax unified
 164              		.thumb
 165              		.thumb_func
 166              		.fpu softvfp
 167              		.type	chx_sched, %function
 168              	chx_sched:
 169              	.LFB28:
 170              		.loc 2 307 0
 171              		.cfi_startproc
ARM GAS  /tmp/ccYjC7Ok.s 			page 4


 172              		@ Naked Function: prologue and epilogue provided by programmer.
 173              		@ args = 0, pretend = 0, frame = 0
 174              		@ frame_needed = 0, uses_anonymous_args = 0
 175              	.LVL9:
 176              		.loc 2 311 0
 177              		.syntax unified
 178              	@ 311 "../chopstx/chopstx-cortex-m.c" 1
 179 0000 00DF     		svc	#0
 180 0002 7047     		bx	lr
 181              	@ 0 "" 2
 182              	.LVL10:
 183              		.loc 2 465 0
 184              		.thumb
 185              		.syntax unified
 186              		.cfi_endproc
 187              	.LFE28:
 188              		.size	chx_sched, .-chx_sched
 189              		.section	.text.ll_prio_enqueue,"ax",%progbits
 190              		.align	1
 191              		.syntax unified
 192              		.thumb
 193              		.thumb_func
 194              		.fpu softvfp
 195              		.type	ll_prio_enqueue, %function
 196              	ll_prio_enqueue:
 197              	.LFB9:
 198              		.loc 1 230 0
 199              		.cfi_startproc
 200              		@ args = 0, pretend = 0, frame = 0
 201              		@ frame_needed = 0, uses_anonymous_args = 0
 202              	.LVL11:
 203 0000 10B5     		push	{r4, lr}
 204              		.cfi_def_cfa_offset 8
 205              		.cfi_offset 4, -8
 206              		.cfi_offset 14, -4
 207              		.loc 1 233 0
 208 0002 0B68     		ldr	r3, [r1]
 209              	.LVL12:
 210              	.L14:
 211              		.loc 1 233 0 is_stmt 0 discriminator 1
 212 0004 8B42     		cmp	r3, r1
 213 0006 03D0     		beq	.L17
 214              		.loc 1 234 0 is_stmt 1
 215 0008 DC7A     		ldrb	r4, [r3, #11]	@ zero_extendqisi2
 216 000a C27A     		ldrb	r2, [r0, #11]	@ zero_extendqisi2
 217 000c 9442     		cmp	r4, r2
 218 000e 07D2     		bcs	.L15
 219              	.L17:
 220              	.LBB197:
 221              	.LBB198:
 222              		.loc 1 200 0
 223 0010 5A68     		ldr	r2, [r3, #4]
 224              	.LBE198:
 225              	.LBE197:
 226              		.loc 1 237 0
 227 0012 C160     		str	r1, [r0, #12]
 228              	.LVL13:
ARM GAS  /tmp/ccYjC7Ok.s 			page 5


 229              	.LBB200:
 230              	.LBB199:
 231              		.loc 1 200 0
 232 0014 4260     		str	r2, [r0, #4]
 233              		.loc 1 201 0
 234 0016 5A68     		ldr	r2, [r3, #4]
 235              		.loc 1 199 0
 236 0018 0360     		str	r3, [r0]
 237              		.loc 1 201 0
 238 001a 1060     		str	r0, [r2]
 239              		.loc 1 202 0
 240 001c 5860     		str	r0, [r3, #4]
 241              	.LVL14:
 242              	.LBE199:
 243              	.LBE200:
 244              		.loc 1 239 0
 245 001e 10BD     		pop	{r4, pc}
 246              	.LVL15:
 247              	.L15:
 248              		.loc 1 233 0 discriminator 2
 249 0020 1B68     		ldr	r3, [r3]
 250              	.LVL16:
 251 0022 EFE7     		b	.L14
 252              		.cfi_endproc
 253              	.LFE9:
 254              		.size	ll_prio_enqueue, .-ll_prio_enqueue
 255              		.section	.text.chx_ready_enqueue,"ax",%progbits
 256              		.align	1
 257              		.syntax unified
 258              		.thumb
 259              		.thumb_func
 260              		.fpu softvfp
 261              		.type	chx_ready_enqueue, %function
 262              	chx_ready_enqueue:
 263              	.LFB12:
 264              		.loc 1 286 0
 265              		.cfi_startproc
 266              		@ args = 0, pretend = 0, frame = 0
 267              		@ frame_needed = 0, uses_anonymous_args = 0
 268              		@ link register save eliminated.
 269              	.LVL17:
 270              		.loc 1 288 0
 271 0000 0121     		movs	r1, #1
 272 0002 027A     		ldrb	r2, [r0, #8]	@ zero_extendqisi2
 273 0004 61F30302 		bfi	r2, r1, #0, #4
 274 0008 0272     		strb	r2, [r0, #8]
 275              		.loc 1 289 0
 276 000a 0149     		ldr	r1, .L20
 277 000c FFF7FEBF 		b	ll_prio_enqueue
 278              	.LVL18:
 279              	.L21:
 280              		.align	2
 281              	.L20:
 282 0010 00000000 		.word	.LANCHOR1
 283              		.cfi_endproc
 284              	.LFE12:
 285              		.size	chx_ready_enqueue, .-chx_ready_enqueue
ARM GAS  /tmp/ccYjC7Ok.s 			page 6


 286              		.section	.text.chx_mutex_unlock,"ax",%progbits
 287              		.align	1
 288              		.syntax unified
 289              		.thumb
 290              		.thumb_func
 291              		.fpu softvfp
 292              		.type	chx_mutex_unlock, %function
 293              	chx_mutex_unlock:
 294              	.LFB40:
 295              		.loc 1 558 0
 296              		.cfi_startproc
 297              		@ args = 0, pretend = 0, frame = 0
 298              		@ frame_needed = 0, uses_anonymous_args = 0
 299              	.LVL19:
 300              		.loc 1 562 0
 301 0000 0022     		movs	r2, #0
 302              		.loc 1 558 0
 303 0002 70B5     		push	{r4, r5, r6, lr}
 304              		.cfi_def_cfa_offset 16
 305              		.cfi_offset 4, -16
 306              		.cfi_offset 5, -12
 307              		.cfi_offset 6, -8
 308              		.cfi_offset 14, -4
 309              		.loc 1 563 0
 310 0004 0E4E     		ldr	r6, .L28
 311 0006 C468     		ldr	r4, [r0, #12]
 312 0008 3168     		ldr	r1, [r6]
 313              		.loc 1 562 0
 314 000a 8260     		str	r2, [r0, #8]
 315              		.loc 1 563 0
 316 000c 8C63     		str	r4, [r1, #56]
 317              		.loc 1 564 0
 318 000e C260     		str	r2, [r0, #12]
 319              		.loc 1 566 0
 320 0010 FFF7FEFF 		bl	ll_pop
 321              	.LVL20:
 322              		.loc 1 567 0
 323 0014 0446     		mov	r4, r0
 324 0016 40B1     		cbz	r0, .L23
 325              	.LBB201:
 326              		.loc 1 569 0
 327 0018 3368     		ldr	r3, [r6]
 328 001a 9D7A     		ldrb	r5, [r3, #10]	@ zero_extendqisi2
 329              	.LVL21:
 330              		.loc 1 572 0
 331 001c FFF7FEFF 		bl	chx_ready_enqueue
 332              	.LVL22:
 333              		.loc 1 575 0
 334 0020 3268     		ldr	r2, [r6]
 335 0022 936B     		ldr	r3, [r2, #56]
 336              	.LVL23:
 337              	.L24:
 338              		.loc 1 575 0 is_stmt 0 discriminator 1
 339 0024 13B9     		cbnz	r3, .L26
 340              		.loc 1 580 0 is_stmt 1
 341 0026 D572     		strb	r5, [r2, #11]
 342              		.loc 1 582 0
ARM GAS  /tmp/ccYjC7Ok.s 			page 7


 343 0028 E07A     		ldrb	r0, [r4, #11]	@ zero_extendqisi2
 344              	.LVL24:
 345              	.L23:
 346              	.LBE201:
 347              		.loc 1 587 0
 348 002a 70BD     		pop	{r4, r5, r6, pc}
 349              	.LVL25:
 350              	.L26:
 351              	.LBB204:
 352              	.LBB202:
 353              	.LBB203:
 354              		.loc 1 182 0
 355 002c 1968     		ldr	r1, [r3]
 356              	.LVL26:
 357              	.LBE203:
 358              	.LBE202:
 359              		.loc 1 576 0
 360 002e 8B42     		cmp	r3, r1
 361 0030 03D0     		beq	.L25
 362 0032 C97A     		ldrb	r1, [r1, #11]	@ zero_extendqisi2
 363 0034 8D42     		cmp	r5, r1
 364 0036 38BF     		it	cc
 365 0038 0D46     		movcc	r5, r1
 366              	.LVL27:
 367              	.L25:
 368              		.loc 1 575 0 discriminator 2
 369 003a DB68     		ldr	r3, [r3, #12]
 370              	.LVL28:
 371 003c F2E7     		b	.L24
 372              	.L29:
 373 003e 00BF     		.align	2
 374              	.L28:
 375 0040 00000000 		.word	.LANCHOR0
 376              	.LBE204:
 377              		.cfi_endproc
 378              	.LFE40:
 379              		.size	chx_mutex_unlock, .-chx_mutex_unlock
 380              		.section	.text.requeue,"ax",%progbits
 381              		.align	1
 382              		.syntax unified
 383              		.thumb
 384              		.thumb_func
 385              		.fpu softvfp
 386              		.type	requeue, %function
 387              	requeue:
 388              	.LFB46:
 389              		.loc 1 729 0
 390              		.cfi_startproc
 391              		@ args = 0, pretend = 0, frame = 0
 392              		@ frame_needed = 0, uses_anonymous_args = 0
 393              	.LVL29:
 394              		.loc 1 730 0
 395 0000 027A     		ldrb	r2, [r0, #8]	@ zero_extendqisi2
 396              		.loc 1 729 0
 397 0002 10B5     		push	{r4, lr}
 398              		.cfi_def_cfa_offset 8
 399              		.cfi_offset 4, -8
ARM GAS  /tmp/ccYjC7Ok.s 			page 8


 400              		.cfi_offset 14, -4
 401              		.loc 1 730 0
 402 0004 02F00F02 		and	r2, r2, #15
 403 0008 012A     		cmp	r2, #1
 404              		.loc 1 729 0
 405 000a 0346     		mov	r3, r0
 406              		.loc 1 730 0
 407 000c 07D1     		bne	.L31
 408              	.L34:
 409              	.LVL30:
 410              		.loc 1 733 0
 411 000e 1846     		mov	r0, r3
 412              	.LVL31:
 413 0010 FFF7FEFF 		bl	ll_dequeue
 414              	.LVL32:
 415 0014 D968     		ldr	r1, [r3, #12]
 416 0016 FFF7FEFF 		bl	ll_prio_enqueue
 417              	.LVL33:
 418              	.L35:
 419              		.loc 1 758 0
 420 001a 0020     		movs	r0, #0
 421 001c 08E0     		b	.L30
 422              	.LVL34:
 423              	.L31:
 424              		.loc 1 736 0
 425 001e 022A     		cmp	r2, #2
 426 0020 07D1     		bne	.L33
 427              	.LBB210:
 428              		.loc 1 738 0
 429 0022 C468     		ldr	r4, [r0, #12]
 430              	.LVL35:
 431              		.loc 1 741 0
 432 0024 FFF7FEFF 		bl	ll_dequeue
 433              	.LVL36:
 434 0028 D968     		ldr	r1, [r3, #12]
 435 002a FFF7FEFF 		bl	ll_prio_enqueue
 436              	.LVL37:
 437              		.loc 1 743 0
 438 002e A068     		ldr	r0, [r4, #8]
 439              	.LVL38:
 440              	.L30:
 441              	.LBE210:
 442              		.loc 1 759 0
 443 0030 10BD     		pop	{r4, pc}
 444              	.LVL39:
 445              	.L33:
 446              		.loc 1 745 0
 447 0032 032A     		cmp	r2, #3
 448 0034 EBD0     		beq	.L34
 449              		.loc 1 754 0
 450 0036 052A     		cmp	r2, #5
 451 0038 EFD1     		bne	.L35
 452              		.loc 1 756 0
 453 003a 0069     		ldr	r0, [r0, #16]
 454              	.LVL40:
 455 003c F8E7     		b	.L30
 456              		.cfi_endproc
ARM GAS  /tmp/ccYjC7Ok.s 			page 9


 457              	.LFE46:
 458              		.size	requeue, .-requeue
 459              		.section	.text.chx_set_timer,"ax",%progbits
 460              		.align	1
 461              		.syntax unified
 462              		.thumb
 463              		.thumb_func
 464              		.fpu softvfp
 465              		.type	chx_set_timer, %function
 466              	chx_set_timer:
 467              	.LFB32:
 468              		.loc 1 305 0
 469              		.cfi_startproc
 470              		@ args = 0, pretend = 0, frame = 0
 471              		@ frame_needed = 0, uses_anonymous_args = 0
 472              		@ link register save eliminated.
 473              	.LVL41:
 474              		.loc 1 306 0
 475 0000 054B     		ldr	r3, .L42
 476 0002 9842     		cmp	r0, r3
 477              	.LVL42:
 478              	.LBB213:
 479              	.LBB214:
 480              		.loc 2 118 0
 481 0004 05BF     		ittet	eq
 482 0006 0022     		moveq	r2, #0
 483              		.loc 2 117 0
 484 0008 044B     		ldreq	r3, .L42+4
 485              	.LBE214:
 486              	.LBE213:
 487              		.loc 1 309 0
 488 000a 0161     		strne	r1, [r0, #16]
 489              	.LBB216:
 490              	.LBB215:
 491              		.loc 2 117 0
 492 000c 1960     		streq	r1, [r3]
 493              		.loc 2 118 0
 494 000e 02BF     		ittt	eq
 495 0010 0349     		ldreq	r1, .L42+8
 496              	.LVL43:
 497 0012 0A60     		streq	r2, [r1]
 498              		.loc 2 119 0
 499 0014 1A60     		streq	r2, [r3]
 500              	.LBE215:
 501              	.LBE216:
 502              		.loc 1 310 0
 503 0016 7047     		bx	lr
 504              	.L43:
 505              		.align	2
 506              	.L42:
 507 0018 00000000 		.word	.LANCHOR2
 508 001c 14E000E0 		.word	-536813548
 509 0020 18E000E0 		.word	-536813544
 510              		.cfi_endproc
 511              	.LFE32:
 512              		.size	chx_set_timer, .-chx_set_timer
 513              		.section	.text.chx_timer_insert,"ax",%progbits
ARM GAS  /tmp/ccYjC7Ok.s 			page 10


 514              		.align	1
 515              		.syntax unified
 516              		.thumb
 517              		.thumb_func
 518              		.fpu softvfp
 519              		.type	chx_timer_insert, %function
 520              	chx_timer_insert:
 521              	.LFB33:
 522              		.loc 1 314 0
 523              		.cfi_startproc
 524              		@ args = 0, pretend = 0, frame = 0
 525              		@ frame_needed = 0, uses_anonymous_args = 0
 526              	.LVL44:
 527 0000 70B5     		push	{r4, r5, r6, lr}
 528              		.cfi_def_cfa_offset 16
 529              		.cfi_offset 4, -16
 530              		.cfi_offset 5, -12
 531              		.cfi_offset 6, -8
 532              		.cfi_offset 14, -4
 533              	.LBB225:
 534              	.LBB226:
 535              		.loc 2 130 0
 536 0002 4825     		movs	r5, #72
 537              	.LBE226:
 538              	.LBE225:
 539              		.loc 1 314 0
 540 0004 0446     		mov	r4, r0
 541              	.LBB228:
 542              	.LBB229:
 543              		.loc 2 125 0
 544 0006 134B     		ldr	r3, .L52
 545              	.LBE229:
 546              	.LBE228:
 547              		.loc 1 319 0
 548 0008 134A     		ldr	r2, .L52+4
 549              	.LBB231:
 550              	.LBB227:
 551              		.loc 2 130 0
 552 000a 4D43     		muls	r5, r1, r5
 553              	.LVL45:
 554              	.LBE227:
 555              	.LBE231:
 556              	.LBB232:
 557              	.LBB230:
 558              		.loc 2 125 0
 559 000c 1E68     		ldr	r6, [r3]
 560              	.LBE230:
 561              	.LBE232:
 562              		.loc 1 319 0
 563 000e 1368     		ldr	r3, [r2]
 564              	.LVL46:
 565              	.L45:
 566              		.loc 1 319 0 is_stmt 0 discriminator 1
 567 0010 9342     		cmp	r3, r2
 568 0012 0AD1     		bne	.L48
 569              	.LBB233:
 570              	.LBB234:
ARM GAS  /tmp/ccYjC7Ok.s 			page 11


 571              		.loc 1 200 0 is_stmt 1
 572 0014 5868     		ldr	r0, [r3, #4]
 573              	.LVL47:
 574              		.loc 1 199 0
 575 0016 2360     		str	r3, [r4]
 576              		.loc 1 200 0
 577 0018 6060     		str	r0, [r4, #4]
 578              	.LBE234:
 579              	.LBE233:
 580              		.loc 1 338 0
 581 001a E360     		str	r3, [r4, #12]
 582              	.LVL48:
 583              		.loc 1 340 0
 584 001c 2946     		mov	r1, r5
 585              	.LVL49:
 586              	.LBB236:
 587              	.LBB235:
 588              		.loc 1 201 0
 589 001e 0460     		str	r4, [r0]
 590              		.loc 1 202 0
 591 0020 5C60     		str	r4, [r3, #4]
 592              	.LVL50:
 593              	.LBE235:
 594              	.LBE236:
 595              		.loc 1 340 0
 596 0022 FFF7FEFF 		bl	chx_set_timer
 597              	.LVL51:
 598              		.loc 1 341 0
 599 0026 0121     		movs	r1, #1
 600 0028 0CE0     		b	.L51
 601              	.LVL52:
 602              	.L48:
 603              		.loc 1 321 0
 604 002a B542     		cmp	r5, r6
 605 002c 0ED2     		bcs	.L46
 606              	.LBB237:
 607              	.LBB238:
 608              		.loc 1 200 0
 609 002e 5868     		ldr	r0, [r3, #4]
 610              	.LVL53:
 611              	.LBE238:
 612              	.LBE237:
 613              		.loc 1 323 0
 614 0030 E260     		str	r2, [r4, #12]
 615              	.LVL54:
 616              	.LBB241:
 617              	.LBB239:
 618              		.loc 1 200 0
 619 0032 6060     		str	r0, [r4, #4]
 620              		.loc 1 201 0
 621 0034 5A68     		ldr	r2, [r3, #4]
 622              		.loc 1 199 0
 623 0036 2360     		str	r3, [r4]
 624              	.LBE239:
 625              	.LBE241:
 626              		.loc 1 325 0
 627 0038 2946     		mov	r1, r5
ARM GAS  /tmp/ccYjC7Ok.s 			page 12


 628              	.LVL55:
 629              	.LBB242:
 630              	.LBB240:
 631              		.loc 1 201 0
 632 003a 1460     		str	r4, [r2]
 633              		.loc 1 202 0
 634 003c 5C60     		str	r4, [r3, #4]
 635              	.LVL56:
 636              	.LBE240:
 637              	.LBE242:
 638              		.loc 1 325 0
 639 003e FFF7FEFF 		bl	chx_set_timer
 640              	.LVL57:
 641              		.loc 1 326 0
 642 0042 711B     		subs	r1, r6, r5
 643              	.L51:
 644              		.loc 1 341 0
 645 0044 2046     		mov	r0, r4
 646 0046 FFF7FEFF 		bl	chx_set_timer
 647              	.LVL58:
 648              		.loc 1 345 0
 649 004a 70BD     		pop	{r4, r5, r6, pc}
 650              	.LVL59:
 651              	.L46:
 652              		.loc 1 331 0 discriminator 2
 653 004c AD1B     		subs	r5, r5, r6
 654              	.LVL60:
 655              		.loc 1 332 0 discriminator 2
 656 004e 1E69     		ldr	r6, [r3, #16]
 657              	.LVL61:
 658              		.loc 1 319 0 discriminator 2
 659 0050 1B68     		ldr	r3, [r3]
 660              	.LVL62:
 661 0052 DDE7     		b	.L45
 662              	.L53:
 663              		.align	2
 664              	.L52:
 665 0054 18E000E0 		.word	-536813544
 666 0058 00000000 		.word	.LANCHOR2
 667              		.cfi_endproc
 668              	.LFE33:
 669              		.size	chx_timer_insert, .-chx_timer_insert
 670              		.section	.text.chx_timer_dequeue,"ax",%progbits
 671              		.align	1
 672              		.syntax unified
 673              		.thumb
 674              		.thumb_func
 675              		.fpu softvfp
 676              		.type	chx_timer_dequeue, %function
 677              	chx_timer_dequeue:
 678              	.LFB34:
 679              		.loc 1 350 0
 680              		.cfi_startproc
 681              		@ args = 0, pretend = 0, frame = 0
 682              		@ frame_needed = 0, uses_anonymous_args = 0
 683              	.LVL63:
 684              		.loc 1 354 0
ARM GAS  /tmp/ccYjC7Ok.s 			page 13


 685 0000 4268     		ldr	r2, [r0, #4]
 686              	.LVL64:
 687              		.loc 1 355 0
 688 0002 1049     		ldr	r1, .L59
 689              		.loc 1 350 0
 690 0004 10B5     		push	{r4, lr}
 691              		.cfi_def_cfa_offset 8
 692              		.cfi_offset 4, -8
 693              		.cfi_offset 14, -4
 694              		.loc 1 355 0
 695 0006 8A42     		cmp	r2, r1
 696              		.loc 1 350 0
 697 0008 0346     		mov	r3, r0
 698              		.loc 1 355 0
 699 000a 15D1     		bne	.L55
 700              		.loc 1 357 0
 701 000c 0168     		ldr	r1, [r0]
 702 000e 9142     		cmp	r1, r2
 703 0010 0D49     		ldr	r1, .L59+4
 704              	.LVL65:
 705              	.LBB254:
 706              		.loc 1 361 0
 707 0012 1CBF     		itt	ne
 708 0014 1C69     		ldrne	r4, [r3, #16]
 709              	.LBB255:
 710              	.LBB256:
 711              		.loc 2 125 0
 712 0016 0868     		ldrne	r0, [r1]
 713              	.LVL66:
 714 0018 0C4A     		ldr	r2, .L59+8
 715              	.LVL67:
 716              	.LBE256:
 717              	.LBE255:
 718              		.loc 1 361 0
 719 001a 17BF     		itett	ne
 720 001c 0019     		addne	r0, r0, r4
 721              	.LBE254:
 722              	.LBB263:
 723              	.LBB264:
 724              	.LBB265:
 725              		.loc 2 117 0
 726 001e 0020     		moveq	r0, #0
 727              	.LVL68:
 728              	.LBE265:
 729              	.LBE264:
 730              	.LBE263:
 731              	.LBB268:
 732              	.LBB257:
 733              	.LBB258:
 734              	.LBB259:
 735 0020 1060     		strne	r0, [r2]
 736              		.loc 2 118 0
 737 0022 0020     		movne	r0, #0
 738              	.LVL69:
 739              	.LBE259:
 740              	.LBE258:
 741              	.LBE257:
ARM GAS  /tmp/ccYjC7Ok.s 			page 14


 742              	.LBE268:
 743              	.LBB269:
 744              	.LBB267:
 745              	.LBB266:
 746              		.loc 2 117 0
 747 0024 08BF     		it	eq
 748 0026 1060     		streq	r0, [r2]
 749              	.LBE266:
 750              	.LBE267:
 751              	.LBE269:
 752              	.LBB270:
 753              	.LBB262:
 754              	.LBB261:
 755              	.LBB260:
 756              		.loc 2 118 0
 757 0028 0860     		str	r0, [r1]
 758              		.loc 2 119 0
 759 002a 1060     		str	r0, [r2]
 760              	.LVL70:
 761              	.L57:
 762              	.LBE260:
 763              	.LBE261:
 764              	.LBE262:
 765              	.LBE270:
 766              		.loc 1 368 0
 767 002c 1846     		mov	r0, r3
 768 002e FFF7FEFF 		bl	ll_dequeue
 769              	.LVL71:
 770              		.loc 1 369 0
 771 0032 0022     		movs	r2, #0
 772 0034 1A61     		str	r2, [r3, #16]
 773              	.LVL72:
 774              		.loc 1 371 0
 775 0036 10BD     		pop	{r4, pc}
 776              	.LVL73:
 777              	.L55:
 778              		.loc 1 367 0
 779 0038 1169     		ldr	r1, [r2, #16]
 780 003a 0069     		ldr	r0, [r0, #16]
 781              	.LVL74:
 782 003c 0144     		add	r1, r1, r0
 783 003e 1161     		str	r1, [r2, #16]
 784 0040 F4E7     		b	.L57
 785              	.L60:
 786 0042 00BF     		.align	2
 787              	.L59:
 788 0044 00000000 		.word	.LANCHOR2
 789 0048 18E000E0 		.word	-536813544
 790 004c 14E000E0 		.word	-536813548
 791              		.cfi_endproc
 792              	.LFE34:
 793              		.size	chx_timer_dequeue, .-chx_timer_dequeue
 794              		.section	.text.chx_wakeup,"ax",%progbits
 795              		.align	1
 796              		.syntax unified
 797              		.thumb
 798              		.thumb_func
ARM GAS  /tmp/ccYjC7Ok.s 			page 15


 799              		.fpu softvfp
 800              		.type	chx_wakeup, %function
 801              	chx_wakeup:
 802              	.LFB38:
 803              		.loc 1 484 0
 804              		.cfi_startproc
 805              		@ args = 0, pretend = 0, frame = 0
 806              		@ frame_needed = 0, uses_anonymous_args = 0
 807              	.LVL75:
 808              		.loc 1 488 0
 809 0000 90F90930 		ldrsb	r3, [r0, #9]
 810              		.loc 1 484 0
 811 0004 10B5     		push	{r4, lr}
 812              		.cfi_def_cfa_offset 8
 813              		.cfi_offset 4, -8
 814              		.cfi_offset 14, -4
 815              		.loc 1 488 0
 816 0006 002B     		cmp	r3, #0
 817              		.loc 1 484 0
 818 0008 0446     		mov	r4, r0
 819              		.loc 1 488 0
 820 000a 1EDA     		bge	.L62
 821              	.LVL76:
 822              	.LBB275:
 823              		.loc 1 493 0
 824 000c 8269     		ldr	r2, [r0, #24]
 825              		.loc 1 495 0
 826 000e 4469     		ldr	r4, [r0, #20]
 827              	.LVL77:
 828              		.loc 1 493 0
 829 0010 1368     		ldr	r3, [r2]
 830 0012 0133     		adds	r3, r3, #1
 831 0014 1360     		str	r3, [r2]
 832              		.loc 1 494 0
 833 0016 0122     		movs	r2, #1
 834 0018 C369     		ldr	r3, [r0, #28]
 835 001a 1A80     		strh	r2, [r3]	@ movhi
 836              		.loc 1 496 0
 837 001c 237A     		ldrb	r3, [r4, #8]	@ zero_extendqisi2
 838 001e 03F00F03 		and	r3, r3, #15
 839 0022 062B     		cmp	r3, #6
 840 0024 01D0     		beq	.L63
 841              	.LVL78:
 842              	.L68:
 843              	.LBE275:
 844              		.loc 1 485 0
 845 0026 0020     		movs	r0, #0
 846              	.L61:
 847              		.loc 1 517 0
 848 0028 10BD     		pop	{r4, pc}
 849              	.LVL79:
 850              	.L63:
 851              	.LBB276:
 852              		.loc 1 498 0
 853 002a 2261     		str	r2, [r4, #16]
 854              		.loc 1 499 0
 855 002c 0B4B     		ldr	r3, .L75
ARM GAS  /tmp/ccYjC7Ok.s 			page 16


 856 002e E268     		ldr	r2, [r4, #12]
 857 0030 9A42     		cmp	r2, r3
 858 0032 02D1     		bne	.L65
 859              		.loc 1 500 0
 860 0034 2046     		mov	r0, r4
 861              	.LVL80:
 862 0036 FFF7FEFF 		bl	chx_timer_dequeue
 863              	.LVL81:
 864              	.L65:
 865              		.loc 1 501 0
 866 003a 2046     		mov	r0, r4
 867              	.LVL82:
 868              	.L74:
 869 003c FFF7FEFF 		bl	chx_ready_enqueue
 870              	.LVL83:
 871              		.loc 1 502 0
 872 0040 074B     		ldr	r3, .L75+4
 873 0042 1B68     		ldr	r3, [r3]
 874 0044 23B9     		cbnz	r3, .L73
 875              	.L67:
 876              		.loc 1 503 0
 877 0046 0120     		movs	r0, #1
 878 0048 EEE7     		b	.L61
 879              	.LVL84:
 880              	.L62:
 881              	.LBE276:
 882              	.LBB277:
 883              	.LBB278:
 884              		.loc 1 510 0
 885 004a 0123     		movs	r3, #1
 886 004c 0361     		str	r3, [r0, #16]
 887 004e F5E7     		b	.L74
 888              	.LVL85:
 889              	.L73:
 890              		.loc 1 512 0
 891 0050 E27A     		ldrb	r2, [r4, #11]	@ zero_extendqisi2
 892 0052 DB7A     		ldrb	r3, [r3, #11]	@ zero_extendqisi2
 893 0054 9A42     		cmp	r2, r3
 894 0056 F6D8     		bhi	.L67
 895 0058 E5E7     		b	.L68
 896              	.L76:
 897 005a 00BF     		.align	2
 898              	.L75:
 899 005c 00000000 		.word	.LANCHOR2
 900 0060 00000000 		.word	.LANCHOR0
 901              	.LBE278:
 902              	.LBE277:
 903              		.cfi_endproc
 904              	.LFE38:
 905              		.size	chx_wakeup, .-chx_wakeup
 906              		.section	.text.chopstx_exit,"ax",%progbits
 907              		.align	1
 908              		.global	chopstx_exit
 909              		.syntax unified
 910              		.thumb
 911              		.thumb_func
 912              		.fpu softvfp
ARM GAS  /tmp/ccYjC7Ok.s 			page 17


 913              		.type	chopstx_exit, %function
 914              	chopstx_exit:
 915              	.LFB59:
 916              		.loc 1 1074 0
 917              		.cfi_startproc
 918              		@ Volatile: function does not return.
 919              		@ args = 0, pretend = 0, frame = 0
 920              		@ frame_needed = 0, uses_anonymous_args = 0
 921              	.LVL86:
 922              		.loc 1 1078 0
 923 0000 0022     		movs	r2, #0
 924              		.loc 1 1074 0
 925 0002 0646     		mov	r6, r0
 926              		.loc 1 1076 0
 927 0004 204C     		ldr	r4, .L94
 928              		.loc 1 1074 0
 929 0006 08B5     		push	{r3, lr}
 930              		.cfi_def_cfa_offset 8
 931              		.cfi_offset 3, -8
 932              		.cfi_offset 14, -4
 933              		.loc 1 1076 0
 934 0008 2368     		ldr	r3, [r4]
 935 000a DD6B     		ldr	r5, [r3, #60]
 936              	.LVL87:
 937              		.loc 1 1078 0
 938 000c DA63     		str	r2, [r3, #60]
 939              	.LVL88:
 940              	.L78:
 941              		.loc 1 1079 0
 942 000e 5DBB     		cbnz	r5, .L79
 943              		.loc 1 1086 0
 944 0010 2368     		ldr	r3, [r4]
 945 0012 986B     		ldr	r0, [r3, #56]
 946              	.LVL89:
 947              	.L80:
 948              		.loc 1 1086 0 is_stmt 0 discriminator 1
 949 0014 68BB     		cbnz	r0, .L81
 950              	.LVL90:
 951              	.LBB281:
 952              	.LBB282:
 953              		.loc 1 526 0 is_stmt 1
 954 0016 FFF7FEFF 		bl	chx_cpu_sched_lock
 955              	.LVL91:
 956              		.loc 1 527 0
 957 001a 2168     		ldr	r1, [r4]
 958 001c 0B7A     		ldrb	r3, [r1, #8]	@ zero_extendqisi2
 959 001e 5806     		lsls	r0, r3, #25
 960              	.LVL92:
 961 0020 0CD5     		bpl	.L82
 962              	.LVL93:
 963              		.loc 1 530 0
 964 0022 1A4A     		ldr	r2, .L94+4
 965 0024 1368     		ldr	r3, [r2]
 966              	.LVL94:
 967              	.L83:
 968 0026 9342     		cmp	r3, r2
 969 0028 08D0     		beq	.L82
ARM GAS  /tmp/ccYjC7Ok.s 			page 18


 970              		.loc 1 531 0
 971 002a 1869     		ldr	r0, [r3, #16]
 972 002c 8142     		cmp	r1, r0
 973 002e 29D1     		bne	.L84
 974              		.loc 1 533 0
 975 0030 1846     		mov	r0, r3
 976 0032 FFF7FEFF 		bl	ll_dequeue
 977              	.LVL95:
 978              		.loc 1 534 0
 979 0036 1846     		mov	r0, r3
 980 0038 FFF7FEFF 		bl	chx_wakeup
 981              	.LVL96:
 982              	.L82:
 983              		.loc 1 540 0
 984 003c 2068     		ldr	r0, [r4]
 985 003e 90F90830 		ldrsb	r3, [r0, #8]
 986 0042 002B     		cmp	r3, #0
 987 0044 01DA     		bge	.L86
 988              		.loc 1 541 0
 989 0046 FFF7FEFF 		bl	chx_timer_dequeue
 990              	.LVL97:
 991              	.L86:
 992              		.loc 1 542 0
 993 004a 2268     		ldr	r2, [r4]
 994              		.loc 1 547 0
 995 004c 0020     		movs	r0, #0
 996              		.loc 1 542 0
 997 004e 137A     		ldrb	r3, [r2, #8]	@ zero_extendqisi2
 998              		.loc 1 546 0
 999 0050 1661     		str	r6, [r2, #16]
 1000              		.loc 1 542 0
 1001 0052 D906     		lsls	r1, r3, #27
 1002              		.loc 1 545 0
 1003 0054 56BF     		itet	pl
 1004 0056 0E21     		movpl	r1, #14
 1005              		.loc 1 543 0
 1006 0058 43F00F03 		orrmi	r3, r3, #15
 1007              		.loc 1 545 0
 1008 005c 61F30303 		bfipl	r3, r1, #0, #4
 1009 0060 1372     		strb	r3, [r2, #8]
 1010              		.loc 1 547 0
 1011 0062 FFF7FEFF 		bl	chx_sched
 1012              	.LVL98:
 1013              	.L89:
 1014 0066 FEE7     		b	.L89
 1015              	.LVL99:
 1016              	.L79:
 1017              	.LBE282:
 1018              	.LBE281:
 1019              		.loc 1 1081 0
 1020 0068 D5E90130 		ldrd	r3, r0, [r5, #4]
 1021 006c 9847     		blx	r3
 1022              	.LVL100:
 1023              		.loc 1 1082 0
 1024 006e 2D68     		ldr	r5, [r5]
 1025              	.LVL101:
 1026 0070 CDE7     		b	.L78
ARM GAS  /tmp/ccYjC7Ok.s 			page 19


 1027              	.LVL102:
 1028              	.L81:
 1029              		.loc 1 1088 0 discriminator 3
 1030 0072 C568     		ldr	r5, [r0, #12]
 1031              	.LVL103:
 1032              		.loc 1 1090 0 discriminator 3
 1033 0074 FFF7FEFF 		bl	chx_cpu_sched_lock
 1034              	.LVL104:
 1035              		.loc 1 1092 0 discriminator 3
 1036 0078 FFF7FEFF 		bl	chx_mutex_unlock
 1037              	.LVL105:
 1038              		.loc 1 1094 0 discriminator 3
 1039 007c FFF7FEFF 		bl	chx_cpu_sched_unlock
 1040              	.LVL106:
 1041              		.loc 1 1086 0 discriminator 3
 1042 0080 2846     		mov	r0, r5
 1043 0082 C7E7     		b	.L80
 1044              	.LVL107:
 1045              	.L84:
 1046              	.LBB284:
 1047              	.LBB283:
 1048              		.loc 1 530 0
 1049 0084 1B68     		ldr	r3, [r3]
 1050              	.LVL108:
 1051 0086 CEE7     		b	.L83
 1052              	.L95:
 1053              		.align	2
 1054              	.L94:
 1055 0088 00000000 		.word	.LANCHOR0
 1056 008c 00000000 		.word	.LANCHOR3
 1057              	.LBE283:
 1058              	.LBE284:
 1059              		.cfi_endproc
 1060              	.LFE59:
 1061              		.size	chopstx_exit, .-chopstx_exit
 1062              		.section	.text.chx_snooze,"ax",%progbits
 1063              		.align	1
 1064              		.syntax unified
 1065              		.thumb
 1066              		.thumb_func
 1067              		.fpu softvfp
 1068              		.type	chx_snooze, %function
 1069              	chx_snooze:
 1070              	.LFB42:
 1071              		.loc 1 652 0
 1072              		.cfi_startproc
 1073              		@ args = 0, pretend = 0, frame = 0
 1074              		@ frame_needed = 0, uses_anonymous_args = 0
 1075              	.LVL109:
 1076 0000 F8B5     		push	{r3, r4, r5, r6, r7, lr}
 1077              		.cfi_def_cfa_offset 24
 1078              		.cfi_offset 3, -24
 1079              		.cfi_offset 4, -20
 1080              		.cfi_offset 5, -16
 1081              		.cfi_offset 6, -12
 1082              		.cfi_offset 7, -8
 1083              		.cfi_offset 14, -4
ARM GAS  /tmp/ccYjC7Ok.s 			page 20


 1084              		.loc 1 653 0
 1085 0002 0C68     		ldr	r4, [r1]
 1086              	.LVL110:
 1087              		.loc 1 652 0
 1088 0004 0746     		mov	r7, r0
 1089 0006 0E46     		mov	r6, r1
 1090              		.loc 1 657 0
 1091 0008 1CB9     		cbnz	r4, .L97
 1092              		.loc 1 659 0
 1093 000a FFF7FEFF 		bl	chx_cpu_sched_unlock
 1094              	.LVL111:
 1095              		.loc 1 660 0
 1096 000e 0120     		movs	r0, #1
 1097              	.LVL112:
 1098              	.L96:
 1099              		.loc 1 676 0
 1100 0010 F8BD     		pop	{r3, r4, r5, r6, r7, pc}
 1101              	.LVL113:
 1102              	.L97:
 1103              		.loc 1 664 0
 1104 0012 0E4D     		ldr	r5, .L100
 1105              		.loc 1 663 0
 1106 0014 0E4B     		ldr	r3, .L100+4
 1107              		.loc 1 664 0
 1108 0016 2868     		ldr	r0, [r5]
 1109              	.LVL114:
 1110              		.loc 1 663 0
 1111 0018 9C42     		cmp	r4, r3
 1112              		.loc 1 664 0
 1113 001a 90F90820 		ldrsb	r2, [r0, #8]
 1114              		.loc 1 663 0
 1115 001e 28BF     		it	cs
 1116 0020 1C46     		movcs	r4, r3
 1117              	.LVL115:
 1118              		.loc 1 664 0
 1119 0022 002A     		cmp	r2, #0
 1120 0024 01DA     		bge	.L99
 1121              		.loc 1 665 0
 1122 0026 FFF7FEFF 		bl	chx_timer_dequeue
 1123              	.LVL116:
 1124              	.L99:
 1125              		.loc 1 668 0
 1126 002a 2868     		ldr	r0, [r5]
 1127              		.loc 1 669 0
 1128 002c 2146     		mov	r1, r4
 1129              		.loc 1 668 0
 1130 002e 037A     		ldrb	r3, [r0, #8]	@ zero_extendqisi2
 1131 0030 67F30303 		bfi	r3, r7, #0, #4
 1132 0034 0372     		strb	r3, [r0, #8]
 1133              		.loc 1 669 0
 1134 0036 FFF7FEFF 		bl	chx_timer_insert
 1135              	.LVL117:
 1136              		.loc 1 671 0
 1137 003a 0020     		movs	r0, #0
 1138 003c FFF7FEFF 		bl	chx_sched
 1139              	.LVL118:
 1140              		.loc 1 672 0
ARM GAS  /tmp/ccYjC7Ok.s 			page 21


 1141 0040 0028     		cmp	r0, #0
 1142 0042 E5D1     		bne	.L96
 1143              		.loc 1 673 0
 1144 0044 3368     		ldr	r3, [r6]
 1145 0046 1C1B     		subs	r4, r3, r4
 1146              	.LVL119:
 1147 0048 3460     		str	r4, [r6]
 1148 004a E1E7     		b	.L96
 1149              	.L101:
 1150              		.align	2
 1151              	.L100:
 1152 004c 00000000 		.word	.LANCHOR0
 1153 0050 388E0300 		.word	233016
 1154              		.cfi_endproc
 1155              	.LFE42:
 1156              		.size	chx_snooze, .-chx_snooze
 1157              		.section	.text.chx_fatal,"ax",%progbits
 1158              		.align	1
 1159              		.weak	chx_fatal
 1160              		.syntax unified
 1161              		.thumb
 1162              		.thumb_func
 1163              		.fpu softvfp
 1164              		.type	chx_fatal, %function
 1165              	chx_fatal:
 1166              	.LFB0:
 1167              		.loc 1 70 0
 1168              		.cfi_startproc
 1169              		@ Volatile: function does not return.
 1170              		@ args = 0, pretend = 0, frame = 0
 1171              		@ frame_needed = 0, uses_anonymous_args = 0
 1172              		@ link register save eliminated.
 1173              	.LVL120:
 1174              	.L103:
 1175 0000 FEE7     		b	.L103
 1176              		.cfi_endproc
 1177              	.LFE0:
 1178              		.size	chx_fatal, .-chx_fatal
 1179              		.section	.text.idle,"ax",%progbits
 1180              		.align	1
 1181              		.syntax unified
 1182              		.thumb
 1183              		.thumb_func
 1184              		.fpu softvfp
 1185              		.type	idle, %function
 1186              	idle:
 1187              	.LFB24:
 1188              		.loc 2 234 0
 1189              		.cfi_startproc
 1190              		@ Naked Function: prologue and epilogue provided by programmer.
 1191              		@ Volatile: function does not return.
 1192              		@ args = 0, pretend = 0, frame = 0
 1193              		@ frame_needed = 0, uses_anonymous_args = 0
 1194              	.L105:
 1195 0000 FEE7     		b	.L105
 1196              		.cfi_endproc
 1197              	.LFE24:
ARM GAS  /tmp/ccYjC7Ok.s 			page 22


 1198              		.size	idle, .-idle
 1199              		.section	.text.chx_handle_intr,"ax",%progbits
 1200              		.align	1
 1201              		.global	chx_handle_intr
 1202              		.syntax unified
 1203              		.thumb
 1204              		.thumb_func
 1205              		.fpu softvfp
 1206              		.type	chx_handle_intr, %function
 1207              	chx_handle_intr:
 1208              	.LFB25:
 1209              		.loc 2 246 0
 1210              		.cfi_startproc
 1211              		@ args = 0, pretend = 0, frame = 0
 1212              		@ frame_needed = 0, uses_anonymous_args = 0
 1213              		.loc 2 246 0
 1214 0000 10B5     		push	{r4, lr}
 1215              		.cfi_def_cfa_offset 8
 1216              		.cfi_offset 4, -8
 1217              		.cfi_offset 14, -4
 1218              		.loc 2 250 0
 1219              		.syntax unified
 1220              	@ 250 "../chopstx/chopstx-cortex-m.c" 1
 1221 0002 EFF30580 		mrs	r0, IPSR
 1222 0006 A0F11000 		sub	r0, #16
 1223              	@ 0 "" 2
 1224              	.LVL121:
 1225              		.thumb
 1226              		.syntax unified
 1227              	.LBB290:
 1228              	.LBB291:
 1229              		.loc 2 174 0
 1230 000a 0121     		movs	r1, #1
 1231              	.LBE291:
 1232              	.LBE290:
 1233              		.loc 2 254 0
 1234 000c C3B2     		uxtb	r3, r0
 1235              	.LVL122:
 1236              	.LBB293:
 1237              	.LBB292:
 1238              		.loc 2 174 0
 1239 000e 5A09     		lsrs	r2, r3, #5
 1240 0010 03F01F03 		and	r3, r3, #31
 1241              	.LVL123:
 1242 0014 01FA03F3 		lsl	r3, r1, r3
 1243 0018 0F49     		ldr	r1, .L116
 1244 001a 2032     		adds	r2, r2, #32
 1245 001c 41F82230 		str	r3, [r1, r2, lsl #2]
 1246              	.LVL124:
 1247              	.LBE292:
 1248              	.LBE293:
 1249              		.loc 2 256 0
 1250 0020 0E4B     		ldr	r3, .L116+4
 1251 0022 1C68     		ldr	r4, [r3]
 1252              	.LVL125:
 1253              	.L107:
 1254              		.loc 2 256 0 is_stmt 0 discriminator 1
ARM GAS  /tmp/ccYjC7Ok.s 			page 23


 1255 0024 9C42     		cmp	r4, r3
 1256 0026 14D0     		beq	.L106
 1257              		.loc 2 257 0 is_stmt 1
 1258 0028 2269     		ldr	r2, [r4, #16]
 1259 002a 8242     		cmp	r2, r0
 1260 002c 12D1     		bne	.L108
 1261              	.LVL126:
 1262              	.LBB294:
 1263              		.loc 2 261 0
 1264 002e 2046     		mov	r0, r4
 1265              	.LVL127:
 1266 0030 FFF7FEFF 		bl	ll_dequeue
 1267              	.LVL128:
 1268              		.loc 2 262 0
 1269 0034 2046     		mov	r0, r4
 1270 0036 FFF7FEFF 		bl	chx_wakeup
 1271              	.LVL129:
 1272              	.LBB295:
 1273              	.LBB296:
 1274              		.loc 2 278 0
 1275 003a 094B     		ldr	r3, .L116+8
 1276 003c 1B68     		ldr	r3, [r3]
 1277 003e 23B1     		cbz	r3, .L109
 1278              	.LBE296:
 1279              	.LBE295:
 1280              		.loc 2 263 0
 1281 0040 6269     		ldr	r2, [r4, #20]
 1282              	.LBB298:
 1283              	.LBB297:
 1284              		.loc 2 278 0
 1285 0042 DB7A     		ldrb	r3, [r3, #11]	@ zero_extendqisi2
 1286 0044 D27A     		ldrb	r2, [r2, #11]	@ zero_extendqisi2
 1287 0046 9A42     		cmp	r2, r3
 1288 0048 03D9     		bls	.L106
 1289              	.L109:
 1290              		.loc 2 280 0
 1291 004a 4FF08052 		mov	r2, #268435456
 1292 004e 054B     		ldr	r3, .L116+12
 1293 0050 1A60     		str	r2, [r3]
 1294              	.LVL130:
 1295              		.loc 2 281 0
 1296              	.LVL131:
 1297              	.L106:
 1298              	.LBE297:
 1299              	.LBE298:
 1300              	.LBE294:
 1301              		.loc 2 267 0
 1302 0052 10BD     		pop	{r4, pc}
 1303              	.LVL132:
 1304              	.L108:
 1305              		.loc 2 256 0 discriminator 2
 1306 0054 2468     		ldr	r4, [r4]
 1307              	.LVL133:
 1308 0056 E5E7     		b	.L107
 1309              	.L117:
 1310              		.align	2
 1311              	.L116:
ARM GAS  /tmp/ccYjC7Ok.s 			page 24


 1312 0058 00E100E0 		.word	-536813312
 1313 005c 00000000 		.word	.LANCHOR4
 1314 0060 00000000 		.word	.LANCHOR0
 1315 0064 04ED00E0 		.word	-536810236
 1316              		.cfi_endproc
 1317              	.LFE25:
 1318              		.size	chx_handle_intr, .-chx_handle_intr
 1319              		.section	.text.preempt,"ax",%progbits
 1320              		.align	1
 1321              		.global	preempt
 1322              		.syntax unified
 1323              		.thumb
 1324              		.thumb_func
 1325              		.fpu softvfp
 1326              		.type	preempt, %function
 1327              	preempt:
 1328              	.LFB30:
 1329              		.loc 2 506 0
 1330              		.cfi_startproc
 1331              		@ Naked Function: prologue and epilogue provided by programmer.
 1332              		@ args = 0, pretend = 0, frame = 0
 1333              		@ frame_needed = 0, uses_anonymous_args = 0
 1334              		.loc 2 510 0
 1335 0000 4020     		movs	r0, #64
 1336              		.syntax unified
 1337              	@ 510 "../chopstx/chopstx-cortex-m.c" 1
 1338 0002 80F31188 		msr	BASEPRI, r0
 1339 0006 3D4A     		ldr	r2, =running
 1340 0008 1068     		ldr	r0, [r2]
 1341 000a 0146     		mov	r1, r0
 1342              	@ 0 "" 2
 1343              		.loc 2 523 0
 1344              		.thumb
 1345              		.syntax unified
 1346 000c C1B1     		cbz	r1, .L120
 1347              		.loc 2 529 0
 1348              		.syntax unified
 1349              	@ 529 "../chopstx/chopstx-cortex-m.c" 1
 1350 000e 01F11401 		add	r1, #20
 1351 0012 F0C1     		stm	r1!, {r4, r5, r6, r7}
 1352 0014 4246     		mov	r2, r8
 1353 0016 4B46     		mov	r3, r9
 1354 0018 5446     		mov	r4, r10
 1355 001a 5D46     		mov	r5, r11
 1356 001c EFF30986 		mrs	r6, PSP
 1357 0020 7CC1     		stm	r1!, {r2, r3, r4, r5, r6}
 1358              	@ 0 "" 2
 1359              		.loc 2 547 0
 1360              		.thumb
 1361              		.syntax unified
 1362 0022 0446     		mov	r4, r0
 1363 0024 60B1     		cbz	r0, .L120
 1364              		.loc 2 549 0
 1365 0026 037A     		ldrb	r3, [r0, #8]	@ zero_extendqisi2
 1366 0028 1906     		lsls	r1, r3, #24
 1367 002a 4DD5     		bpl	.L122
 1368              		.loc 2 551 0
ARM GAS  /tmp/ccYjC7Ok.s 			page 25


 1369 002c 1A07     		lsls	r2, r3, #28
 1370 002e 04D1     		bne	.L123
 1371              		.loc 2 553 0
 1372 0030 FFF7FEFF 		bl	chx_timer_dequeue
 1373              	.LVL134:
 1374              		.loc 2 554 0
 1375 0034 2046     		mov	r0, r4
 1376 0036 FFF7FEFF 		bl	chx_ready_enqueue
 1377              	.LVL135:
 1378              	.L123:
 1379              		.loc 2 563 0
 1380 003a 0022     		movs	r2, #0
 1381 003c 2D4B     		ldr	r3, .L135
 1382 003e 1A60     		str	r2, [r3]
 1383              	.L120:
 1384              	.LVL136:
 1385              	.LBB307:
 1386              	.LBB308:
 1387              		.loc 1 265 0
 1388 0040 2D48     		ldr	r0, .L135+4
 1389 0042 FFF7FEFF 		bl	ll_pop
 1390              	.LVL137:
 1391              		.loc 1 266 0
 1392 0046 48B1     		cbz	r0, .L128
 1393              		.loc 1 267 0
 1394 0048 037A     		ldrb	r3, [r0, #8]	@ zero_extendqisi2
 1395 004a 6FF30303 		bfc	r3, #0, #4
 1396 004e 0372     		strb	r3, [r0, #8]
 1397              	.LVL138:
 1398              	.LBE308:
 1399              	.LBE307:
 1400              		.loc 2 570 0
 1401 0050 1B06     		lsls	r3, r3, #24
 1402 0052 03D5     		bpl	.L128
 1403              	.LVL139:
 1404              		.loc 2 573 0
 1405 0054 4FF47A71 		mov	r1, #1000
 1406 0058 FFF7FEFF 		bl	chx_timer_insert
 1407              	.LVL140:
 1408              	.L128:
 1409              		.loc 2 577 0
 1410              		.syntax unified
 1411              	@ 577 "../chopstx/chopstx-cortex-m.c" 1
 1412              		.L_CONTEXT_SWITCH:
 1413 005c 2749     		ldr	r1, =running
 1414 005e 0860     		str	r0, [r1]
 1415 0060 D0B1     		cbz	r0, 1f
 1416 0062 00F11400 		add	r0, #20
 1417 0066 F0C8     		ldm	r0!, {r4, r5, r6, r7}
 1418 0068 50F8048B 		ldr	r8, [r0], #4
 1419 006c 50F8049B 		ldr	r9, [r0], #4
 1420 0070 50F804AB 		ldr	r10, [r0], #4
 1421 0074 50F804BB 		ldr	r11, [r0], #4
 1422 0078 50F8041B 		ldr	r1, [r0], #4
 1423 007c 81F30988 		msr	PSP, r1
 1424 0080 A0F12D00 		sub	r0, #45
 1425 0084 0178     		ldrb	r1, [r0]
ARM GAS  /tmp/ccYjC7Ok.s 			page 26


 1426 0086 4FF00000 		mov	r0, #0
 1427 008a F729     		cmp	r1, #247
 1428 008c 01D8     		bhi	0f
 1429 008e 80F31188 		msr	BASEPRI, r0
 1430              	0:
 1431 0092 A0F10300 		sub	r0, #3
 1432 0096 0047     		bx	r0
 1433              	1:
 1434 0098 1948     		ldr	r0, =__main_stack_end__-32
 1435 009a 80F30988 		msr	PSP, r0
 1436 009e 4FF00001 		mov	r1, #0
 1437 00a2 4FF00002 		mov	r2, #0
 1438 00a6 4FF00003 		mov	r3, #0
 1439 00aa 0EC0     		stm	r0!, {r1, r2, r3}
 1440 00ac 0EC0     		stm	r0!, {r1, r2, r3}
 1441 00ae 1549     		ldr	r1, =idle
 1442 00b0 4FF01002 		mov	r2, #0x010
 1443 00b4 4FEA0252 		lsl	r2, r2, #20
 1444 00b8 06C0     		stm	r0!, {r1, r2}
 1445 00ba 4FF00000 		mov	r0, #0
 1446 00be 80F31188 		msr	BASEPRI, r0
 1447 00c2 A0F10300 	sub	r0, #3
 1448 00c6 0047     		bx	r0
 1449              	@ 0 "" 2
 1450              		.loc 2 650 0
 1451              		.thumb
 1452              		.syntax unified
 1453              	.L122:
 1454              	.LVL141:
 1455              	.LBB309:
 1456              	.LBB310:
 1457              		.loc 1 278 0
 1458 00c8 0122     		movs	r2, #1
 1459 00ca 62F30303 		bfi	r3, r2, #0, #4
 1460              	.LBB311:
 1461              	.LBB312:
 1462              		.loc 1 220 0
 1463 00ce 0A4A     		ldr	r2, .L135+4
 1464              	.LBE312:
 1465              	.LBE311:
 1466              		.loc 1 278 0
 1467 00d0 0372     		strb	r3, [r0, #8]
 1468              	.LVL142:
 1469              	.LBB316:
 1470              	.LBB315:
 1471              		.loc 1 220 0
 1472 00d2 1368     		ldr	r3, [r2]
 1473              	.LVL143:
 1474              	.L124:
 1475 00d4 9342     		cmp	r3, r2
 1476 00d6 07D1     		bne	.L126
 1477              	.L125:
 1478              		.loc 1 224 0
 1479 00d8 E260     		str	r2, [r4, #12]
 1480              	.LVL144:
 1481              	.LBB313:
 1482              	.LBB314:
ARM GAS  /tmp/ccYjC7Ok.s 			page 27


 1483              		.loc 1 200 0
 1484 00da 5A68     		ldr	r2, [r3, #4]
 1485              		.loc 1 199 0
 1486 00dc 2360     		str	r3, [r4]
 1487              		.loc 1 200 0
 1488 00de 6260     		str	r2, [r4, #4]
 1489              		.loc 1 201 0
 1490 00e0 5A68     		ldr	r2, [r3, #4]
 1491 00e2 1460     		str	r4, [r2]
 1492              		.loc 1 202 0
 1493 00e4 5C60     		str	r4, [r3, #4]
 1494 00e6 A8E7     		b	.L123
 1495              	.LVL145:
 1496              	.L126:
 1497              	.LBE314:
 1498              	.LBE313:
 1499              		.loc 1 221 0
 1500 00e8 D87A     		ldrb	r0, [r3, #11]	@ zero_extendqisi2
 1501 00ea E17A     		ldrb	r1, [r4, #11]	@ zero_extendqisi2
 1502 00ec 8842     		cmp	r0, r1
 1503 00ee F3D9     		bls	.L125
 1504              		.loc 1 220 0
 1505 00f0 1B68     		ldr	r3, [r3]
 1506              	.LVL146:
 1507 00f2 EFE7     		b	.L124
 1508              	.L136:
 1509              		.align	2
 1510              	.L135:
 1511 00f4 00000000 		.word	.LANCHOR0
 1512 00f8 00000000 		.word	.LANCHOR1
 1513              	.LBE315:
 1514              	.LBE316:
 1515              	.LBE310:
 1516              	.LBE309:
 1517              		.cfi_endproc
 1518              	.LFE30:
 1519              		.size	preempt, .-preempt
 1520              		.section	.text.svc,"ax",%progbits
 1521              		.align	1
 1522              		.global	svc
 1523              		.syntax unified
 1524              		.thumb
 1525              		.thumb_func
 1526              		.fpu softvfp
 1527              		.type	svc, %function
 1528              	svc:
 1529              	.LFB31:
 1530              		.loc 2 663 0
 1531              		.cfi_startproc
 1532              		@ Naked Function: prologue and epilogue provided by programmer.
 1533              		@ args = 0, pretend = 0, frame = 0
 1534              		@ frame_needed = 0, uses_anonymous_args = 0
 1535              		.loc 2 667 0
 1536              		.syntax unified
 1537              	@ 667 "../chopstx/chopstx-cortex-m.c" 1
 1538 0000 1849     		ldr	r1, =running
 1539 0002 0868     		ldr	r0, [r1]
ARM GAS  /tmp/ccYjC7Ok.s 			page 28


 1540 0004 00F11401 		add	r1, r0, #20
 1541 0008 F0C1     		stm	r1!, {r4, r5, r6, r7}
 1542 000a 4246     		mov	r2, r8
 1543 000c 4B46     		mov	r3, r9
 1544 000e 5446     		mov	r4, r10
 1545 0010 5D46     		mov	r5, r11
 1546 0012 EFF30986 		mrs	r6, PSP
 1547 0016 7CC1     		stm	r1!, {r2, r3, r4, r5, r6}
 1548 0018 3168     		ldr	r1, [r6]
 1549              	@ 0 "" 2
 1550              		.loc 2 683 0
 1551              		.thumb
 1552              		.syntax unified
 1553 001a 61B1     		cbz	r1, .L138
 1554              		.loc 2 685 0
 1555 001c 90F90830 		ldrsb	r3, [r0, #8]
 1556 0020 0446     		mov	r4, r0
 1557 0022 002B     		cmp	r3, #0
 1558 0024 01DA     		bge	.L139
 1559              		.loc 2 686 0
 1560 0026 FFF7FEFF 		bl	chx_timer_dequeue
 1561              	.LVL147:
 1562              	.L139:
 1563              		.loc 2 687 0
 1564 002a 2046     		mov	r0, r4
 1565 002c FFF7FEFF 		bl	chx_ready_enqueue
 1566              	.LVL148:
 1567              		.loc 2 688 0
 1568 0030 0022     		movs	r2, #0
 1569 0032 0A4B     		ldr	r3, .L148
 1570 0034 1A60     		str	r2, [r3]
 1571              	.L138:
 1572              	.LVL149:
 1573              	.LBB319:
 1574              	.LBB320:
 1575              		.loc 1 265 0
 1576 0036 0A48     		ldr	r0, .L148+4
 1577 0038 FFF7FEFF 		bl	ll_pop
 1578              	.LVL150:
 1579              		.loc 1 266 0
 1580 003c 48B1     		cbz	r0, .L141
 1581              		.loc 1 267 0
 1582 003e 037A     		ldrb	r3, [r0, #8]	@ zero_extendqisi2
 1583 0040 6FF30303 		bfc	r3, #0, #4
 1584 0044 0372     		strb	r3, [r0, #8]
 1585              	.LVL151:
 1586              	.LBE320:
 1587              	.LBE319:
 1588              		.loc 2 692 0
 1589 0046 1B06     		lsls	r3, r3, #24
 1590 0048 03D5     		bpl	.L141
 1591              	.LVL152:
 1592              		.loc 2 695 0
 1593 004a 4FF47A71 		mov	r1, #1000
 1594 004e FFF7FEFF 		bl	chx_timer_insert
 1595              	.LVL153:
 1596              	.L141:
ARM GAS  /tmp/ccYjC7Ok.s 			page 29


 1597              		.loc 2 699 0
 1598              		.syntax unified
 1599              	@ 699 "../chopstx/chopstx-cortex-m.c" 1
 1600 0052 08B1     		cbz	r0, 0f
 1601 0054 0169     		ldr	r1, [r0, #16]
 1602 0056 0091     		str	r1, [sp]
 1603              		0:
 1604 0058 00F02CB8 		b	.L_CONTEXT_SWITCH
 1605              	@ 0 "" 2
 1606              		.loc 2 706 0
 1607              		.thumb
 1608              		.syntax unified
 1609              	.L149:
 1610              		.align	2
 1611              	.L148:
 1612 005c 00000000 		.word	.LANCHOR0
 1613 0060 00000000 		.word	.LANCHOR1
 1614              		.cfi_endproc
 1615              	.LFE31:
 1616              		.size	svc, .-svc
 1617              		.section	.text.chx_timer_expired,"ax",%progbits
 1618              		.align	1
 1619              		.global	chx_timer_expired
 1620              		.syntax unified
 1621              		.thumb
 1622              		.thumb_func
 1623              		.fpu softvfp
 1624              		.type	chx_timer_expired, %function
 1625              	chx_timer_expired:
 1626              	.LFB35:
 1627              		.loc 1 376 0
 1628              		.cfi_startproc
 1629              		@ args = 0, pretend = 0, frame = 0
 1630              		@ frame_needed = 0, uses_anonymous_args = 0
 1631              	.LVL154:
 1632 0000 2DE9F843 		push	{r3, r4, r5, r6, r7, r8, r9, lr}
 1633              		.cfi_def_cfa_offset 32
 1634              		.cfi_offset 3, -32
 1635              		.cfi_offset 4, -28
 1636              		.cfi_offset 5, -24
 1637              		.cfi_offset 6, -20
 1638              		.cfi_offset 7, -16
 1639              		.cfi_offset 8, -12
 1640              		.cfi_offset 9, -8
 1641              		.cfi_offset 14, -4
 1642              		.loc 1 381 0
 1643 0004 2348     		ldr	r0, .L167
 1644 0006 FFF7FEFF 		bl	ll_pop
 1645              	.LVL155:
 1646 000a DFF89880 		ldr	r8, .L167+16
 1647 000e 0446     		mov	r4, r0
 1648 0010 68B1     		cbz	r0, .L151
 1649              	.LBB333:
 1650              		.loc 1 383 0
 1651 0012 0769     		ldr	r7, [r0, #16]
 1652              	.LVL156:
 1653              		.loc 1 385 0
ARM GAS  /tmp/ccYjC7Ok.s 			page 30


 1654 0014 FFF7FEFF 		bl	chx_ready_enqueue
 1655              	.LVL157:
 1656              		.loc 1 386 0
 1657 0018 D8F80030 		ldr	r3, [r8]
 1658 001c 8342     		cmp	r3, r0
 1659 001e 12D0     		beq	.L160
 1660              		.loc 1 389 0
 1661 0020 C47A     		ldrb	r4, [r0, #11]	@ zero_extendqisi2
 1662 0022 04B1     		cbz	r4, .L152
 1663 0024 A4B2     		uxth	r4, r4
 1664              	.L152:
 1665              	.LVL158:
 1666              	.LBB334:
 1667              	.LBB335:
 1668              		.loc 1 182 0
 1669 0026 1B4E     		ldr	r6, .L167
 1670 0028 3568     		ldr	r5, [r6]
 1671              	.LVL159:
 1672              	.LBE335:
 1673              	.LBE334:
 1674              		.loc 1 392 0
 1675 002a B542     		cmp	r5, r6
 1676 002c 22D1     		bne	.L153
 1677              	.LVL160:
 1678              	.L151:
 1679              	.LBE333:
 1680              	.LBB340:
 1681              	.LBB341:
 1682              		.loc 2 278 0
 1683 002e D8F80030 		ldr	r3, [r8]
 1684 0032 13B1     		cbz	r3, .L157
 1685 0034 DB7A     		ldrb	r3, [r3, #11]	@ zero_extendqisi2
 1686 0036 A342     		cmp	r3, r4
 1687 0038 03D2     		bcs	.L150
 1688              	.L157:
 1689              		.loc 2 280 0
 1690 003a 4FF08052 		mov	r2, #268435456
 1691 003e 164B     		ldr	r3, .L167+4
 1692 0040 1A60     		str	r2, [r3]
 1693              		.loc 2 281 0
 1694              	.LVL161:
 1695              	.L150:
 1696              	.LBE341:
 1697              	.LBE340:
 1698              		.loc 1 418 0
 1699 0042 BDE8F883 		pop	{r3, r4, r5, r6, r7, r8, r9, pc}
 1700              	.LVL162:
 1701              	.L160:
 1702              	.LBB342:
 1703              		.loc 1 387 0
 1704 0046 4FF48074 		mov	r4, #256
 1705 004a ECE7     		b	.L152
 1706              	.LVL163:
 1707              	.L156:
 1708              	.LBB336:
 1709              		.loc 1 402 0
 1710 004c 2846     		mov	r0, r5
ARM GAS  /tmp/ccYjC7Ok.s 			page 31


 1711              		.loc 1 400 0
 1712 004e 2F69     		ldr	r7, [r5, #16]
 1713              	.LVL164:
 1714              		.loc 1 401 0
 1715 0050 D5F80090 		ldr	r9, [r5]
 1716              	.LVL165:
 1717              		.loc 1 402 0
 1718 0054 FFF7FEFF 		bl	ll_dequeue
 1719              	.LVL166:
 1720              		.loc 1 403 0
 1721 0058 2846     		mov	r0, r5
 1722 005a FFF7FEFF 		bl	chx_ready_enqueue
 1723              	.LVL167:
 1724              		.loc 1 404 0
 1725 005e D8F80030 		ldr	r3, [r8]
 1726 0062 AB42     		cmp	r3, r5
 1727 0064 12D0     		beq	.L162
 1728              	.LVL168:
 1729 0066 EB7A     		ldrb	r3, [r5, #11]	@ zero_extendqisi2
 1730 0068 9C42     		cmp	r4, r3
 1731 006a 38BF     		it	cc
 1732 006c 1C46     		movcc	r4, r3
 1733              	.LVL169:
 1734              	.L154:
 1735              		.loc 1 396 0 discriminator 1
 1736 006e B145     		cmp	r9, r6
 1737 0070 4D46     		mov	r5, r9
 1738 0072 01D0     		beq	.L155
 1739              	.LVL170:
 1740              	.L153:
 1741              		.loc 1 397 0
 1742 0074 002F     		cmp	r7, #0
 1743 0076 E9D0     		beq	.L156
 1744              	.L155:
 1745              		.loc 1 411 0
 1746 0078 3368     		ldr	r3, [r6]
 1747 007a B342     		cmp	r3, r6
 1748 007c D7D0     		beq	.L151
 1749              	.LVL171:
 1750              	.LBB337:
 1751              	.LBB338:
 1752              	.LBB339:
 1753              		.loc 2 118 0
 1754 007e 0022     		movs	r2, #0
 1755              		.loc 2 117 0
 1756 0080 064B     		ldr	r3, .L167+8
 1757              		.loc 2 118 0
 1758 0082 0749     		ldr	r1, .L167+12
 1759              		.loc 2 117 0
 1760 0084 1F60     		str	r7, [r3]
 1761              		.loc 2 118 0
 1762 0086 0A60     		str	r2, [r1]
 1763              		.loc 2 119 0
 1764 0088 1A60     		str	r2, [r3]
 1765 008a D0E7     		b	.L151
 1766              	.LVL172:
 1767              	.L162:
ARM GAS  /tmp/ccYjC7Ok.s 			page 32


 1768              	.LBE339:
 1769              	.LBE338:
 1770              	.LBE337:
 1771              		.loc 1 405 0
 1772 008c 4FF48074 		mov	r4, #256
 1773              	.LVL173:
 1774 0090 EDE7     		b	.L154
 1775              	.L168:
 1776 0092 00BF     		.align	2
 1777              	.L167:
 1778 0094 00000000 		.word	.LANCHOR2
 1779 0098 04ED00E0 		.word	-536810236
 1780 009c 14E000E0 		.word	-536813548
 1781 00a0 18E000E0 		.word	-536813544
 1782 00a4 00000000 		.word	.LANCHOR0
 1783              	.LBE336:
 1784              	.LBE342:
 1785              		.cfi_endproc
 1786              	.LFE35:
 1787              		.size	chx_timer_expired, .-chx_timer_expired
 1788              		.section	.text.chx_systick_init,"ax",%progbits
 1789              		.align	1
 1790              		.global	chx_systick_init
 1791              		.syntax unified
 1792              		.thumb
 1793              		.thumb_func
 1794              		.fpu softvfp
 1795              		.type	chx_systick_init, %function
 1796              	chx_systick_init:
 1797              	.LFB36:
 1798              		.loc 1 423 0
 1799              		.cfi_startproc
 1800              		@ args = 0, pretend = 0, frame = 0
 1801              		@ frame_needed = 0, uses_anonymous_args = 0
 1802              		@ link register save eliminated.
 1803              	.LBB345:
 1804              	.LBB346:
 1805              		.loc 2 109 0
 1806 0000 0023     		movs	r3, #0
 1807 0002 034A     		ldr	r2, .L170
 1808 0004 1360     		str	r3, [r2]
 1809              		.loc 2 110 0
 1810 0006 5360     		str	r3, [r2, #4]
 1811              		.loc 2 111 0
 1812 0008 0722     		movs	r2, #7
 1813 000a 024B     		ldr	r3, .L170+4
 1814 000c 1A60     		str	r2, [r3]
 1815              	.LBE346:
 1816              	.LBE345:
 1817              		.loc 1 434 0
 1818 000e 7047     		bx	lr
 1819              	.L171:
 1820              		.align	2
 1821              	.L170:
 1822 0010 14E000E0 		.word	-536813548
 1823 0014 10E000E0 		.word	-536813552
 1824              		.cfi_endproc
ARM GAS  /tmp/ccYjC7Ok.s 			page 33


 1825              	.LFE36:
 1826              		.size	chx_systick_init, .-chx_systick_init
 1827              		.section	.text.chx_init,"ax",%progbits
 1828              		.align	1
 1829              		.global	chx_init
 1830              		.syntax unified
 1831              		.thumb
 1832              		.thumb_func
 1833              		.fpu softvfp
 1834              		.type	chx_init, %function
 1835              	chx_init:
 1836              	.LFB37:
 1837              		.loc 1 440 0
 1838              		.cfi_startproc
 1839              		@ args = 0, pretend = 0, frame = 0
 1840              		@ frame_needed = 0, uses_anonymous_args = 0
 1841              	.LVL174:
 1842 0000 10B5     		push	{r4, lr}
 1843              		.cfi_def_cfa_offset 8
 1844              		.cfi_offset 4, -8
 1845              		.cfi_offset 14, -4
 1846              		.loc 1 440 0
 1847 0002 0446     		mov	r4, r0
 1848              	.LBB351:
 1849              	.LBB352:
 1850              		.loc 2 198 0
 1851 0004 4FF04050 		mov	r0, #805306368
 1852              	.LVL175:
 1853              		.loc 2 196 0
 1854 0008 194B     		ldr	r3, .L173
 1855 000a 1A4A     		ldr	r2, .L173+4
 1856              	.LBE352:
 1857              	.LBE351:
 1858              	.LBB354:
 1859              	.LBB355:
 1860              		.loc 2 272 0
 1861 000c 0021     		movs	r1, #0
 1862              	.LBE355:
 1863              	.LBE354:
 1864              	.LBB357:
 1865              	.LBB353:
 1866              		.loc 2 196 0
 1867 000e 1A60     		str	r2, [r3]
 1868              		.loc 2 198 0
 1869 0010 194A     		ldr	r2, .L173+8
 1870 0012 C3E90402 		strd	r0, r2, [r3, #16]
 1871              	.LVL176:
 1872              	.LBE353:
 1873              	.LBE357:
 1874              	.LBB358:
 1875              	.LBB356:
 1876              		.loc 2 272 0
 1877 0016 2422     		movs	r2, #36
 1878 0018 04F11400 		add	r0, r4, #20
 1879 001c FFF7FEFF 		bl	memset
 1880              	.LVL177:
 1881              	.LBE356:
ARM GAS  /tmp/ccYjC7Ok.s 			page 34


 1882              	.LBE358:
 1883              		.loc 1 444 0
 1884 0020 164B     		ldr	r3, .L173+12
 1885              		.loc 1 455 0
 1886 0022 217A     		ldrb	r1, [r4, #8]	@ zero_extendqisi2
 1887              		.loc 1 444 0
 1888 0024 C3E90033 		strd	r3, r3, [r3]
 1889              	.LVL178:
 1890              		.loc 1 446 0
 1891 0028 154B     		ldr	r3, .L173+16
 1892              		.loc 1 459 0
 1893 002a 01F01001 		and	r1, r1, #16
 1894              		.loc 1 446 0
 1895 002e C3E90033 		strd	r3, r3, [r3]
 1896              	.LVL179:
 1897              		.loc 1 448 0
 1898 0032 144B     		ldr	r3, .L173+20
 1899 0034 C3E90033 		strd	r3, r3, [r3]
 1900              	.LVL180:
 1901              		.loc 1 450 0
 1902 0038 134B     		ldr	r3, .L173+24
 1903 003a C3E90033 		strd	r3, r3, [r3]
 1904              	.LVL181:
 1905              		.loc 1 453 0
 1906 003e 0023     		movs	r3, #0
 1907              		.loc 1 457 0
 1908 0040 627A     		ldrb	r2, [r4, #9]	@ zero_extendqisi2
 1909              		.loc 1 459 0
 1910 0042 63F30411 		bfi	r1, r3, #4, #1
 1911              		.loc 1 460 0
 1912 0046 42F00102 		orr	r2, r2, #1
 1913 004a 63F3C712 		bfi	r2, r3, #7, #1
 1914 004e 6272     		strb	r2, [r4, #9]
 1915              		.loc 1 461 0
 1916 0050 0122     		movs	r2, #1
 1917              		.loc 1 454 0
 1918 0052 C4E90E33 		strd	r3, r3, [r4, #56]
 1919              		.loc 1 464 0
 1920 0056 C4E90333 		strd	r3, r3, [r4, #12]
 1921              		.loc 1 465 0
 1922 005a 0C4B     		ldr	r3, .L173+28
 1923              		.loc 1 452 0
 1924 005c C4E90044 		strd	r4, r4, [r4]
 1925              		.loc 1 465 0
 1926 0060 1C60     		str	r4, [r3]
 1927              		.loc 1 472 0
 1928 0062 0B4B     		ldr	r3, .L173+32
 1929              		.loc 1 459 0
 1930 0064 2172     		strb	r1, [r4, #8]
 1931              		.loc 1 461 0
 1932 0066 A272     		strb	r2, [r4, #10]
 1933              		.loc 1 470 0
 1934 0068 E272     		strb	r2, [r4, #11]
 1935              		.loc 1 472 0
 1936 006a 1C60     		str	r4, [r3]
 1937              		.loc 1 473 0
 1938 006c 10BD     		pop	{r4, pc}
ARM GAS  /tmp/ccYjC7Ok.s 			page 35


 1939              	.LVL182:
 1940              	.L174:
 1941 006e 00BF     		.align	2
 1942              	.L173:
 1943 0070 0CED00E0 		.word	-536810228
 1944 0074 0005FA05 		.word	100271360
 1945 0078 0000C0B0 		.word	-1329594368
 1946 007c 00000000 		.word	.LANCHOR1
 1947 0080 00000000 		.word	.LANCHOR2
 1948 0084 00000000 		.word	.LANCHOR3
 1949 0088 00000000 		.word	.LANCHOR4
 1950 008c 00000000 		.word	.LANCHOR0
 1951 0090 00000000 		.word	.LANCHOR5
 1952              		.cfi_endproc
 1953              	.LFE37:
 1954              		.size	chx_init, .-chx_init
 1955              		.section	.text.chopstx_create,"ax",%progbits
 1956              		.align	1
 1957              		.global	chopstx_create
 1958              		.syntax unified
 1959              		.thumb
 1960              		.thumb_func
 1961              		.fpu softvfp
 1962              		.type	chopstx_create, %function
 1963              	chopstx_create:
 1964              	.LFB41:
 1965              		.loc 1 605 0
 1966              		.cfi_startproc
 1967              		@ args = 4, pretend = 0, frame = 0
 1968              		@ frame_needed = 0, uses_anonymous_args = 0
 1969              	.LVL183:
 1970              	.LBB361:
 1971              	.LBB362:
 1972              		.loc 2 480 0
 1973 0000 5F2A     		cmp	r2, #95
 1974              	.LBE362:
 1975              	.LBE361:
 1976              		.loc 1 605 0
 1977 0002 2DE9F047 		push	{r4, r5, r6, r7, r8, r9, r10, lr}
 1978              		.cfi_def_cfa_offset 32
 1979              		.cfi_offset 4, -32
 1980              		.cfi_offset 5, -28
 1981              		.cfi_offset 6, -24
 1982              		.cfi_offset 7, -20
 1983              		.cfi_offset 8, -16
 1984              		.cfi_offset 9, -12
 1985              		.cfi_offset 10, -8
 1986              		.cfi_offset 14, -4
 1987              		.loc 1 605 0
 1988 0006 0546     		mov	r5, r0
 1989 0008 8946     		mov	r9, r1
 1990 000a 9A46     		mov	r10, r3
 1991              		.loc 1 607 0
 1992 000c C7B2     		uxtb	r7, r0
 1993              	.LVL184:
 1994              	.LBB366:
 1995              	.LBB363:
ARM GAS  /tmp/ccYjC7Ok.s 			page 36


 1996              		.loc 2 480 0
 1997 000e 02D8     		bhi	.L176
 1998              		.loc 2 481 0
 1999 0010 0120     		movs	r0, #1
 2000              	.LVL185:
 2001 0012 FFF7FEFF 		bl	chx_fatal
 2002              	.LVL186:
 2003              	.L176:
 2004              		.loc 2 484 0
 2005 0016 A2F16008 		sub	r8, r2, #96
 2006 001a 08EB0104 		add	r4, r8, r1
 2007              	.LVL187:
 2008              		.loc 2 485 0
 2009 001e 1022     		movs	r2, #16
 2010              	.LVL188:
 2011 0020 0021     		movs	r1, #0
 2012              	.LVL189:
 2013 0022 201D     		adds	r0, r4, #4
 2014              	.LVL190:
 2015 0024 FFF7FEFF 		bl	memset
 2016              	.LVL191:
 2017              		.loc 2 488 0
 2018 0028 089B     		ldr	r3, [sp, #32]
 2019              		.loc 2 493 0
 2020 002a 2022     		movs	r2, #32
 2021              		.loc 2 488 0
 2022 002c 48F80930 		str	r3, [r8, r9]
 2023              		.loc 2 489 0
 2024 0030 224B     		ldr	r3, .L179
 2025              		.loc 2 493 0
 2026 0032 0021     		movs	r1, #0
 2027              		.loc 2 490 0
 2028 0034 C4E9053A 		strd	r3, r10, [r4, #20]
 2029              		.loc 2 491 0
 2030 0038 4FF08073 		mov	r3, #16777216
 2031              		.loc 2 493 0
 2032 003c 04F13400 		add	r0, r4, #52
 2033              		.loc 2 491 0
 2034 0040 E361     		str	r3, [r4, #28]
 2035              		.loc 2 493 0
 2036 0042 FFF7FEFF 		bl	memset
 2037              	.LVL192:
 2038              	.LBE363:
 2039              	.LBE366:
 2040              		.loc 1 614 0
 2041 0046 0E21     		movs	r1, #14
 2042              		.loc 1 612 0
 2043 0048 0022     		movs	r2, #0
 2044              		.loc 1 614 0
 2045 004a 94F82830 		ldrb	r3, [r4, #40]	@ zero_extendqisi2
 2046              		.loc 1 617 0
 2047 004e 680C     		lsrs	r0, r5, #17
 2048              		.loc 1 614 0
 2049 0050 61F30303 		bfi	r3, r1, #0, #4
 2050              		.loc 1 617 0
 2051 0054 03F09F03 		and	r3, r3, #159
 2052              		.loc 1 616 0
ARM GAS  /tmp/ccYjC7Ok.s 			page 37


 2053 0058 94F82910 		ldrb	r1, [r4, #41]	@ zero_extendqisi2
 2054              		.loc 1 617 0
 2055 005c 60F3C713 		bfi	r3, r0, #7, #1
 2056              		.loc 1 618 0
 2057 0060 2D0C     		lsrs	r5, r5, #16
 2058              	.LVL193:
 2059 0062 65F30413 		bfi	r3, r5, #4, #1
 2060 0066 84F82830 		strb	r3, [r4, #40]
 2061              		.loc 1 619 0
 2062 006a 41F00103 		orr	r3, r1, #1
 2063 006e 62F3C713 		bfi	r3, r2, #7, #1
 2064              	.LBB367:
 2065              	.LBB364:
 2066              		.loc 2 486 0
 2067 0072 04F12006 		add	r6, r4, #32
 2068              	.LVL194:
 2069              	.LBE364:
 2070              	.LBE367:
 2071              		.loc 1 613 0
 2072 0076 C4E91622 		strd	r2, r2, [r4, #88]
 2073              		.loc 1 619 0
 2074 007a 84F82930 		strb	r3, [r4, #41]
 2075              	.LVL195:
 2076              		.loc 1 622 0
 2077 007e C4E90B22 		strd	r2, r2, [r4, #44]
 2078              	.LBB368:
 2079              	.LBB365:
 2080              		.loc 2 494 0
 2081 0082 6465     		str	r4, [r4, #84]
 2082              	.LVL196:
 2083              	.LBE365:
 2084              	.LBE368:
 2085              		.loc 1 611 0
 2086 0084 C4E90866 		strd	r6, r6, [r4, #32]
 2087              		.loc 1 620 0
 2088 0088 84F82B70 		strb	r7, [r4, #43]
 2089 008c 84F82A70 		strb	r7, [r4, #42]
 2090              		.loc 1 624 0
 2091 0090 FFF7FEFF 		bl	chx_cpu_sched_lock
 2092              	.LVL197:
 2093              		.loc 1 625 0
 2094 0094 3046     		mov	r0, r6
 2095 0096 FFF7FEFF 		bl	chx_ready_enqueue
 2096              	.LVL198:
 2097              		.loc 1 626 0
 2098 009a 094B     		ldr	r3, .L179+4
 2099 009c 94F82B20 		ldrb	r2, [r4, #43]	@ zero_extendqisi2
 2100 00a0 1B68     		ldr	r3, [r3]
 2101 00a2 DB7A     		ldrb	r3, [r3, #11]	@ zero_extendqisi2
 2102 00a4 9A42     		cmp	r2, r3
 2103 00a6 05D9     		bls	.L177
 2104              		.loc 1 627 0
 2105 00a8 0120     		movs	r0, #1
 2106 00aa FFF7FEFF 		bl	chx_sched
 2107              	.LVL199:
 2108              	.L178:
 2109              		.loc 1 632 0
ARM GAS  /tmp/ccYjC7Ok.s 			page 38


 2110 00ae 3046     		mov	r0, r6
 2111 00b0 BDE8F087 		pop	{r4, r5, r6, r7, r8, r9, r10, pc}
 2112              	.LVL200:
 2113              	.L177:
 2114              		.loc 1 629 0
 2115 00b4 FFF7FEFF 		bl	chx_cpu_sched_unlock
 2116              	.LVL201:
 2117 00b8 F9E7     		b	.L178
 2118              	.L180:
 2119 00ba 00BF     		.align	2
 2120              	.L179:
 2121 00bc 00000000 		.word	chopstx_exit
 2122 00c0 00000000 		.word	.LANCHOR0
 2123              		.cfi_endproc
 2124              	.LFE41:
 2125              		.size	chopstx_create, .-chopstx_create
 2126              		.section	.text.chopstx_mutex_init,"ax",%progbits
 2127              		.align	1
 2128              		.global	chopstx_mutex_init
 2129              		.syntax unified
 2130              		.thumb
 2131              		.thumb_func
 2132              		.fpu softvfp
 2133              		.type	chopstx_mutex_init, %function
 2134              	chopstx_mutex_init:
 2135              	.LFB45:
 2136              		.loc 1 715 0
 2137              		.cfi_startproc
 2138              		@ args = 0, pretend = 0, frame = 0
 2139              		@ frame_needed = 0, uses_anonymous_args = 0
 2140              		@ link register save eliminated.
 2141              	.LVL202:
 2142              		.loc 1 718 0
 2143 0000 0023     		movs	r3, #0
 2144              		.loc 1 717 0
 2145 0002 C0E90000 		strd	r0, r0, [r0]
 2146              		.loc 1 719 0
 2147 0006 C0E90233 		strd	r3, r3, [r0, #8]
 2148              		.loc 1 720 0
 2149 000a 7047     		bx	lr
 2150              		.cfi_endproc
 2151              	.LFE45:
 2152              		.size	chopstx_mutex_init, .-chopstx_mutex_init
 2153              		.section	.text.chopstx_mutex_lock,"ax",%progbits
 2154              		.align	1
 2155              		.global	chopstx_mutex_lock
 2156              		.syntax unified
 2157              		.thumb
 2158              		.thumb_func
 2159              		.fpu softvfp
 2160              		.type	chopstx_mutex_lock, %function
 2161              	chopstx_mutex_lock:
 2162              	.LFB47:
 2163              		.loc 1 769 0
 2164              		.cfi_startproc
 2165              		@ args = 0, pretend = 0, frame = 0
 2166              		@ frame_needed = 0, uses_anonymous_args = 0
ARM GAS  /tmp/ccYjC7Ok.s 			page 39


 2167              	.LVL203:
 2168 0000 2DE9F843 		push	{r3, r4, r5, r6, r7, r8, r9, lr}
 2169              		.cfi_def_cfa_offset 32
 2170              		.cfi_offset 3, -32
 2171              		.cfi_offset 4, -28
 2172              		.cfi_offset 5, -24
 2173              		.cfi_offset 6, -20
 2174              		.cfi_offset 7, -16
 2175              		.cfi_offset 8, -12
 2176              		.cfi_offset 9, -8
 2177              		.cfi_offset 14, -4
 2178              		.loc 1 769 0
 2179 0004 0646     		mov	r6, r0
 2180              	.LBB369:
 2181              		.loc 1 798 0
 2182 0006 4FF00108 		mov	r8, #1
 2183              		.loc 1 812 0
 2184 000a 0227     		movs	r7, #2
 2185              	.LBE369:
 2186              		.loc 1 770 0
 2187 000c 1E4B     		ldr	r3, .L193
 2188              	.LBB370:
 2189              		.loc 1 799 0
 2190 000e DFF87C90 		ldr	r9, .L193+4
 2191              	.LBE370:
 2192              		.loc 1 770 0
 2193 0012 1D68     		ldr	r5, [r3]
 2194              	.LVL204:
 2195              	.L190:
 2196              	.LBB371:
 2197              		.loc 1 777 0
 2198 0014 FFF7FEFF 		bl	chx_cpu_sched_lock
 2199              	.LVL205:
 2200              		.loc 1 779 0
 2201 0018 B468     		ldr	r4, [r6, #8]
 2202 001a 64B9     		cbnz	r4, .L183
 2203              		.loc 1 783 0
 2204 001c AB6B     		ldr	r3, [r5, #56]
 2205              		.loc 1 782 0
 2206 001e B560     		str	r5, [r6, #8]
 2207              		.loc 1 783 0
 2208 0020 F360     		str	r3, [r6, #12]
 2209              		.loc 1 784 0
 2210 0022 AE63     		str	r6, [r5, #56]
 2211              	.LVL206:
 2212              	.LBE371:
 2213              		.loc 1 816 0
 2214 0024 BDE8F843 		pop	{r3, r4, r5, r6, r7, r8, r9, lr}
 2215              		.cfi_remember_state
 2216              		.cfi_restore 14
 2217              		.cfi_restore 9
 2218              		.cfi_restore 8
 2219              		.cfi_restore 7
 2220              		.cfi_restore 6
 2221              		.cfi_restore 5
 2222              		.cfi_restore 4
 2223              		.cfi_restore 3
ARM GAS  /tmp/ccYjC7Ok.s 			page 40


 2224              		.cfi_def_cfa_offset 0
 2225              	.LVL207:
 2226              	.LBB372:
 2227              		.loc 1 786 0
 2228 0028 FFF7FEBF 		b	chx_cpu_sched_unlock
 2229              	.LVL208:
 2230              	.L184:
 2231              		.cfi_restore_state
 2232              		.loc 1 806 0
 2233 002c 2046     		mov	r0, r4
 2234 002e FFF7FEFF 		bl	requeue
 2235              	.LVL209:
 2236              		.loc 1 792 0
 2237 0032 0446     		mov	r4, r0
 2238 0034 A0B1     		cbz	r0, .L186
 2239              	.LVL210:
 2240              	.L183:
 2241              		.loc 1 792 0 is_stmt 0 discriminator 1
 2242 0036 EB7A     		ldrb	r3, [r5, #11]	@ zero_extendqisi2
 2243 0038 E27A     		ldrb	r2, [r4, #11]	@ zero_extendqisi2
 2244 003a 9A42     		cmp	r2, r3
 2245 003c 10D2     		bcs	.L186
 2246              		.loc 1 794 0 is_stmt 1
 2247 003e E372     		strb	r3, [r4, #11]
 2248              		.loc 1 795 0
 2249 0040 237A     		ldrb	r3, [r4, #8]	@ zero_extendqisi2
 2250 0042 03F00D03 		and	r3, r3, #13
 2251 0046 042B     		cmp	r3, #4
 2252 0048 F0D1     		bne	.L184
 2253              		.loc 1 799 0
 2254 004a E368     		ldr	r3, [r4, #12]
 2255              		.loc 1 798 0
 2256 004c C4F81080 		str	r8, [r4, #16]
 2257              		.loc 1 799 0
 2258 0050 4B45     		cmp	r3, r9
 2259 0052 02D1     		bne	.L185
 2260              		.loc 1 800 0
 2261 0054 2046     		mov	r0, r4
 2262 0056 FFF7FEFF 		bl	chx_timer_dequeue
 2263              	.LVL211:
 2264              	.L185:
 2265              		.loc 1 802 0
 2266 005a 2046     		mov	r0, r4
 2267 005c FFF7FEFF 		bl	chx_ready_enqueue
 2268              	.LVL212:
 2269              	.L186:
 2270              		.loc 1 809 0
 2271 0060 95F90830 		ldrsb	r3, [r5, #8]
 2272 0064 002B     		cmp	r3, #0
 2273 0066 02DA     		bge	.L189
 2274              		.loc 1 810 0
 2275 0068 2846     		mov	r0, r5
 2276 006a FFF7FEFF 		bl	chx_timer_dequeue
 2277              	.LVL213:
 2278              	.L189:
 2279              		.loc 1 811 0
 2280 006e 2846     		mov	r0, r5
ARM GAS  /tmp/ccYjC7Ok.s 			page 41


 2281 0070 3146     		mov	r1, r6
 2282 0072 FFF7FEFF 		bl	ll_prio_enqueue
 2283              	.LVL214:
 2284              		.loc 1 812 0
 2285 0076 2B7A     		ldrb	r3, [r5, #8]	@ zero_extendqisi2
 2286              		.loc 1 814 0
 2287 0078 0020     		movs	r0, #0
 2288              		.loc 1 812 0
 2289 007a 67F30303 		bfi	r3, r7, #0, #4
 2290 007e 2B72     		strb	r3, [r5, #8]
 2291              	.LVL215:
 2292              		.loc 1 814 0
 2293 0080 FFF7FEFF 		bl	chx_sched
 2294              	.LVL216:
 2295              	.LBE372:
 2296              		.loc 1 773 0
 2297 0084 C6E7     		b	.L190
 2298              	.L194:
 2299 0086 00BF     		.align	2
 2300              	.L193:
 2301 0088 00000000 		.word	.LANCHOR0
 2302 008c 00000000 		.word	.LANCHOR2
 2303              		.cfi_endproc
 2304              	.LFE47:
 2305              		.size	chopstx_mutex_lock, .-chopstx_mutex_lock
 2306              		.section	.text.chopstx_mutex_unlock,"ax",%progbits
 2307              		.align	1
 2308              		.global	chopstx_mutex_unlock
 2309              		.syntax unified
 2310              		.thumb
 2311              		.thumb_func
 2312              		.fpu softvfp
 2313              		.type	chopstx_mutex_unlock, %function
 2314              	chopstx_mutex_unlock:
 2315              	.LFB48:
 2316              		.loc 1 827 0
 2317              		.cfi_startproc
 2318              		@ args = 0, pretend = 0, frame = 0
 2319              		@ frame_needed = 0, uses_anonymous_args = 0
 2320              	.LVL217:
 2321 0000 08B5     		push	{r3, lr}
 2322              		.cfi_def_cfa_offset 8
 2323              		.cfi_offset 3, -8
 2324              		.cfi_offset 14, -4
 2325              		.loc 1 830 0
 2326 0002 FFF7FEFF 		bl	chx_cpu_sched_lock
 2327              	.LVL218:
 2328              		.loc 1 832 0
 2329 0006 FFF7FEFF 		bl	chx_mutex_unlock
 2330              	.LVL219:
 2331              		.loc 1 834 0
 2332 000a 074B     		ldr	r3, .L197
 2333 000c 1B68     		ldr	r3, [r3]
 2334 000e DB7A     		ldrb	r3, [r3, #11]	@ zero_extendqisi2
 2335 0010 8342     		cmp	r3, r0
 2336 0012 04D2     		bcs	.L196
 2337              		.loc 1 838 0
ARM GAS  /tmp/ccYjC7Ok.s 			page 42


 2338 0014 BDE80840 		pop	{r3, lr}
 2339              		.cfi_remember_state
 2340              		.cfi_restore 14
 2341              		.cfi_restore 3
 2342              		.cfi_def_cfa_offset 0
 2343              		.loc 1 835 0
 2344 0018 0120     		movs	r0, #1
 2345              	.LVL220:
 2346 001a FFF7FEBF 		b	chx_sched
 2347              	.LVL221:
 2348              	.L196:
 2349              		.cfi_restore_state
 2350              		.loc 1 838 0
 2351 001e BDE80840 		pop	{r3, lr}
 2352              		.cfi_restore 14
 2353              		.cfi_restore 3
 2354              		.cfi_def_cfa_offset 0
 2355              		.loc 1 837 0
 2356 0022 FFF7FEBF 		b	chx_cpu_sched_unlock
 2357              	.LVL222:
 2358              	.L198:
 2359 0026 00BF     		.align	2
 2360              	.L197:
 2361 0028 00000000 		.word	.LANCHOR0
 2362              		.cfi_endproc
 2363              	.LFE48:
 2364              		.size	chopstx_mutex_unlock, .-chopstx_mutex_unlock
 2365              		.section	.text.chopstx_cond_init,"ax",%progbits
 2366              		.align	1
 2367              		.global	chopstx_cond_init
 2368              		.syntax unified
 2369              		.thumb
 2370              		.thumb_func
 2371              		.fpu softvfp
 2372              		.type	chopstx_cond_init, %function
 2373              	chopstx_cond_init:
 2374              	.LFB49:
 2375              		.loc 1 849 0
 2376              		.cfi_startproc
 2377              		@ args = 0, pretend = 0, frame = 0
 2378              		@ frame_needed = 0, uses_anonymous_args = 0
 2379              		@ link register save eliminated.
 2380              	.LVL223:
 2381              		.loc 1 851 0
 2382 0000 C0E90000 		strd	r0, r0, [r0]
 2383              		.loc 1 852 0
 2384 0004 7047     		bx	lr
 2385              		.cfi_endproc
 2386              	.LFE49:
 2387              		.size	chopstx_cond_init, .-chopstx_cond_init
 2388              		.section	.text.chopstx_cond_signal,"ax",%progbits
 2389              		.align	1
 2390              		.global	chopstx_cond_signal
 2391              		.syntax unified
 2392              		.thumb
 2393              		.thumb_func
 2394              		.fpu softvfp
ARM GAS  /tmp/ccYjC7Ok.s 			page 43


 2395              		.type	chopstx_cond_signal, %function
 2396              	chopstx_cond_signal:
 2397              	.LFB51:
 2398              		.loc 1 902 0
 2399              		.cfi_startproc
 2400              		@ args = 0, pretend = 0, frame = 0
 2401              		@ frame_needed = 0, uses_anonymous_args = 0
 2402              	.LVL224:
 2403 0000 08B5     		push	{r3, lr}
 2404              		.cfi_def_cfa_offset 8
 2405              		.cfi_offset 3, -8
 2406              		.cfi_offset 14, -4
 2407              		.loc 1 906 0
 2408 0002 FFF7FEFF 		bl	chx_cpu_sched_lock
 2409              	.LVL225:
 2410              		.loc 1 908 0
 2411 0006 FFF7FEFF 		bl	ll_pop
 2412              	.LVL226:
 2413              		.loc 1 909 0
 2414 000a 38B1     		cbz	r0, .L201
 2415              		.loc 1 910 0
 2416 000c FFF7FEFF 		bl	chx_wakeup
 2417              	.LVL227:
 2418              		.loc 1 912 0
 2419 0010 20B1     		cbz	r0, .L201
 2420              		.loc 1 916 0
 2421 0012 BDE80840 		pop	{r3, lr}
 2422              		.cfi_remember_state
 2423              		.cfi_restore 14
 2424              		.cfi_restore 3
 2425              		.cfi_def_cfa_offset 0
 2426              		.loc 1 913 0
 2427 0016 0120     		movs	r0, #1
 2428              	.LVL228:
 2429 0018 FFF7FEBF 		b	chx_sched
 2430              	.LVL229:
 2431              	.L201:
 2432              		.cfi_restore_state
 2433              		.loc 1 916 0
 2434 001c BDE80840 		pop	{r3, lr}
 2435              		.cfi_restore 14
 2436              		.cfi_restore 3
 2437              		.cfi_def_cfa_offset 0
 2438              		.loc 1 915 0
 2439 0020 FFF7FEBF 		b	chx_cpu_sched_unlock
 2440              	.LVL230:
 2441              		.cfi_endproc
 2442              	.LFE51:
 2443              		.size	chopstx_cond_signal, .-chopstx_cond_signal
 2444              		.section	.text.chopstx_cond_broadcast,"ax",%progbits
 2445              		.align	1
 2446              		.global	chopstx_cond_broadcast
 2447              		.syntax unified
 2448              		.thumb
 2449              		.thumb_func
 2450              		.fpu softvfp
 2451              		.type	chopstx_cond_broadcast, %function
ARM GAS  /tmp/ccYjC7Ok.s 			page 44


 2452              	chopstx_cond_broadcast:
 2453              	.LFB52:
 2454              		.loc 1 927 0
 2455              		.cfi_startproc
 2456              		@ args = 0, pretend = 0, frame = 0
 2457              		@ frame_needed = 0, uses_anonymous_args = 0
 2458              	.LVL231:
 2459 0000 38B5     		push	{r3, r4, r5, lr}
 2460              		.cfi_def_cfa_offset 16
 2461              		.cfi_offset 3, -16
 2462              		.cfi_offset 4, -12
 2463              		.cfi_offset 5, -8
 2464              		.cfi_offset 14, -4
 2465              		.loc 1 927 0
 2466 0002 0546     		mov	r5, r0
 2467              		.loc 1 929 0
 2468 0004 0024     		movs	r4, #0
 2469              		.loc 1 931 0
 2470 0006 FFF7FEFF 		bl	chx_cpu_sched_lock
 2471              	.LVL232:
 2472              	.L209:
 2473              		.loc 1 933 0
 2474 000a 2846     		mov	r0, r5
 2475 000c FFF7FEFF 		bl	ll_pop
 2476              	.LVL233:
 2477 0010 28B9     		cbnz	r0, .L210
 2478              	.LVL234:
 2479              		.loc 1 936 0
 2480 0012 44B1     		cbz	r4, .L211
 2481              		.loc 1 940 0
 2482 0014 BDE83840 		pop	{r3, r4, r5, lr}
 2483              		.cfi_remember_state
 2484              		.cfi_restore 14
 2485              		.cfi_restore 5
 2486              		.cfi_restore 4
 2487              		.cfi_restore 3
 2488              		.cfi_def_cfa_offset 0
 2489              	.LVL235:
 2490              		.loc 1 937 0
 2491 0018 0120     		movs	r0, #1
 2492              	.LVL236:
 2493 001a FFF7FEBF 		b	chx_sched
 2494              	.LVL237:
 2495              	.L210:
 2496              		.cfi_restore_state
 2497              		.loc 1 934 0
 2498 001e FFF7FEFF 		bl	chx_wakeup
 2499              	.LVL238:
 2500 0022 0443     		orrs	r4, r4, r0
 2501              	.LVL239:
 2502 0024 F1E7     		b	.L209
 2503              	.LVL240:
 2504              	.L211:
 2505              		.loc 1 940 0
 2506 0026 BDE83840 		pop	{r3, r4, r5, lr}
 2507              		.cfi_restore 14
 2508              		.cfi_restore 5
ARM GAS  /tmp/ccYjC7Ok.s 			page 45


 2509              		.cfi_restore 4
 2510              		.cfi_restore 3
 2511              		.cfi_def_cfa_offset 0
 2512              	.LVL241:
 2513              		.loc 1 939 0
 2514 002a FFF7FEBF 		b	chx_cpu_sched_unlock
 2515              	.LVL242:
 2516              		.cfi_endproc
 2517              	.LFE52:
 2518              		.size	chopstx_cond_broadcast, .-chopstx_cond_broadcast
 2519              		.section	.text.chopstx_claim_irq,"ax",%progbits
 2520              		.align	1
 2521              		.global	chopstx_claim_irq
 2522              		.syntax unified
 2523              		.thumb
 2524              		.thumb_func
 2525              		.fpu softvfp
 2526              		.type	chopstx_claim_irq, %function
 2527              	chopstx_claim_irq:
 2528              	.LFB54:
 2529              		.loc 1 985 0
 2530              		.cfi_startproc
 2531              		@ args = 0, pretend = 0, frame = 0
 2532              		@ frame_needed = 0, uses_anonymous_args = 0
 2533              	.LVL243:
 2534 0000 08B5     		push	{r3, lr}
 2535              		.cfi_def_cfa_offset 8
 2536              		.cfi_offset 3, -8
 2537              		.cfi_offset 14, -4
 2538              		.loc 1 986 0
 2539 0002 0122     		movs	r2, #1
 2540              		.loc 1 987 0
 2541 0004 0023     		movs	r3, #0
 2542              		.loc 1 986 0
 2543 0006 0280     		strh	r2, [r0]	@ movhi
 2544              		.loc 1 987 0
 2545 0008 4380     		strh	r3, [r0, #2]	@ movhi
 2546              		.loc 1 988 0
 2547 000a 0171     		strb	r1, [r0, #4]
 2548              		.loc 1 990 0
 2549 000c FFF7FEFF 		bl	chx_cpu_sched_lock
 2550              	.LVL244:
 2551              	.LBB377:
 2552              	.LBB378:
 2553              		.loc 2 174 0
 2554 0010 01F01F00 		and	r0, r1, #31
 2555              	.LVL245:
 2556 0014 8240     		lsls	r2, r2, r0
 2557 0016 4B09     		lsrs	r3, r1, #5
 2558 0018 0E48     		ldr	r0, .L213
 2559 001a 2033     		adds	r3, r3, #32
 2560 001c 40F82320 		str	r2, [r0, r3, lsl #2]
 2561              	.LVL246:
 2562              	.LBE378:
 2563              	.LBE377:
 2564              	.LBB379:
 2565              	.LBB380:
ARM GAS  /tmp/ccYjC7Ok.s 			page 46


 2566              		.loc 2 182 0
 2567 0020 FF20     		movs	r0, #255
 2568              		.loc 2 180 0
 2569 0022 CA00     		lsls	r2, r1, #3
 2570 0024 01F0FC01 		and	r1, r1, #252
 2571              	.LVL247:
 2572 0028 01F16041 		add	r1, r1, #-536870912
 2573 002c 01F56141 		add	r1, r1, #57600
 2574 0030 02F01802 		and	r2, r2, #24
 2575              	.LVL248:
 2576              		.loc 2 182 0
 2577 0034 D1F80033 		ldr	r3, [r1, #768]
 2578 0038 9040     		lsls	r0, r0, r2
 2579 003a 23EA0003 		bic	r3, r3, r0
 2580              		.loc 2 183 0
 2581 003e B020     		movs	r0, #176
 2582 0040 00FA02F2 		lsl	r2, r0, r2
 2583              	.LVL249:
 2584 0044 1343     		orrs	r3, r3, r2
 2585              		.loc 2 182 0
 2586 0046 C1F80033 		str	r3, [r1, #768]
 2587              	.LVL250:
 2588              	.LBE380:
 2589              	.LBE379:
 2590              		.loc 1 996 0
 2591 004a BDE80840 		pop	{r3, lr}
 2592              		.cfi_restore 14
 2593              		.cfi_restore 3
 2594              		.cfi_def_cfa_offset 0
 2595              		.loc 1 995 0
 2596 004e FFF7FEBF 		b	chx_cpu_sched_unlock
 2597              	.LVL251:
 2598              	.L214:
 2599 0052 00BF     		.align	2
 2600              	.L213:
 2601 0054 00E100E0 		.word	-536813312
 2602              		.cfi_endproc
 2603              	.LFE54:
 2604              		.size	chopstx_claim_irq, .-chopstx_claim_irq
 2605              		.section	.text.chopstx_cleanup_push,"ax",%progbits
 2606              		.align	1
 2607              		.global	chopstx_cleanup_push
 2608              		.syntax unified
 2609              		.thumb
 2610              		.thumb_func
 2611              		.fpu softvfp
 2612              		.type	chopstx_cleanup_push, %function
 2613              	chopstx_cleanup_push:
 2614              	.LFB57:
 2615              		.loc 1 1037 0
 2616              		.cfi_startproc
 2617              		@ args = 0, pretend = 0, frame = 0
 2618              		@ frame_needed = 0, uses_anonymous_args = 0
 2619              		@ link register save eliminated.
 2620              	.LVL252:
 2621              		.loc 1 1038 0
 2622 0000 024B     		ldr	r3, .L216
ARM GAS  /tmp/ccYjC7Ok.s 			page 47


 2623 0002 1B68     		ldr	r3, [r3]
 2624 0004 DA6B     		ldr	r2, [r3, #60]
 2625 0006 0260     		str	r2, [r0]
 2626              		.loc 1 1039 0
 2627 0008 D863     		str	r0, [r3, #60]
 2628              		.loc 1 1040 0
 2629 000a 7047     		bx	lr
 2630              	.L217:
 2631              		.align	2
 2632              	.L216:
 2633 000c 00000000 		.word	.LANCHOR0
 2634              		.cfi_endproc
 2635              	.LFE57:
 2636              		.size	chopstx_cleanup_push, .-chopstx_cleanup_push
 2637              		.section	.text.chopstx_cleanup_pop,"ax",%progbits
 2638              		.align	1
 2639              		.global	chopstx_cleanup_pop
 2640              		.syntax unified
 2641              		.thumb
 2642              		.thumb_func
 2643              		.fpu softvfp
 2644              		.type	chopstx_cleanup_pop, %function
 2645              	chopstx_cleanup_pop:
 2646              	.LFB58:
 2647              		.loc 1 1051 0
 2648              		.cfi_startproc
 2649              		@ args = 0, pretend = 0, frame = 0
 2650              		@ frame_needed = 0, uses_anonymous_args = 0
 2651              		@ link register save eliminated.
 2652              	.LVL253:
 2653              		.loc 1 1052 0
 2654 0000 054B     		ldr	r3, .L225
 2655 0002 1A68     		ldr	r2, [r3]
 2656 0004 D36B     		ldr	r3, [r2, #60]
 2657              	.LVL254:
 2658              		.loc 1 1054 0
 2659 0006 2BB1     		cbz	r3, .L218
 2660              		.loc 1 1056 0
 2661 0008 1968     		ldr	r1, [r3]
 2662 000a D163     		str	r1, [r2, #60]
 2663              		.loc 1 1057 0
 2664 000c 10B1     		cbz	r0, .L218
 2665              		.loc 1 1058 0
 2666 000e D3E90120 		ldrd	r2, r0, [r3, #4]
 2667              	.LVL255:
 2668 0012 1047     		bx	r2	@ indirect register sibling call
 2669              	.LVL256:
 2670              	.L218:
 2671              		.loc 1 1060 0
 2672 0014 7047     		bx	lr
 2673              	.L226:
 2674 0016 00BF     		.align	2
 2675              	.L225:
 2676 0018 00000000 		.word	.LANCHOR0
 2677              		.cfi_endproc
 2678              	.LFE58:
 2679              		.size	chopstx_cleanup_pop, .-chopstx_cleanup_pop
ARM GAS  /tmp/ccYjC7Ok.s 			page 48


 2680              		.section	.text.chopstx_cancel,"ax",%progbits
 2681              		.align	1
 2682              		.global	chopstx_cancel
 2683              		.syntax unified
 2684              		.thumb
 2685              		.thumb_func
 2686              		.fpu softvfp
 2687              		.type	chopstx_cancel, %function
 2688              	chopstx_cancel:
 2689              	.LFB62:
 2690              		.loc 1 1212 0
 2691              		.cfi_startproc
 2692              		@ args = 0, pretend = 0, frame = 0
 2693              		@ frame_needed = 0, uses_anonymous_args = 0
 2694              	.LVL257:
 2695 0000 10B5     		push	{r4, lr}
 2696              		.cfi_def_cfa_offset 8
 2697              		.cfi_offset 4, -8
 2698              		.cfi_offset 14, -4
 2699              		.loc 1 1212 0
 2700 0002 0446     		mov	r4, r0
 2701              		.loc 1 1215 0
 2702 0004 FFF7FEFF 		bl	chx_cpu_sched_lock
 2703              	.LVL258:
 2704              		.loc 1 1216 0
 2705 0008 037A     		ldrb	r3, [r0, #8]	@ zero_extendqisi2
 2706 000a 43F02003 		orr	r3, r3, #32
 2707 000e 0372     		strb	r3, [r0, #8]
 2708              		.loc 1 1217 0
 2709 0010 437A     		ldrb	r3, [r0, #9]	@ zero_extendqisi2
 2710 0012 DB07     		lsls	r3, r3, #31
 2711 0014 03D4     		bmi	.L228
 2712              	.L233:
 2713              		.loc 1 1257 0
 2714 0016 BDE81040 		pop	{r4, lr}
 2715              		.cfi_remember_state
 2716              		.cfi_restore 14
 2717              		.cfi_restore 4
 2718              		.cfi_def_cfa_offset 0
 2719              		.loc 1 1219 0
 2720 001a FFF7FEBF 		b	chx_cpu_sched_unlock
 2721              	.LVL259:
 2722              	.L228:
 2723              		.cfi_restore_state
 2724              		.loc 1 1224 0
 2725 001e 037A     		ldrb	r3, [r0, #8]	@ zero_extendqisi2
 2726 0020 03F00F03 		and	r3, r3, #15
 2727 0024 032B     		cmp	r3, #3
 2728 0026 13D1     		bne	.L229
 2729              	.L234:
 2730              	.LVL260:
 2731              		.loc 1 1237 0
 2732 0028 2046     		mov	r0, r4
 2733              	.LVL261:
 2734 002a FFF7FEFF 		bl	ll_dequeue
 2735              	.LVL262:
 2736              	.L230:
ARM GAS  /tmp/ccYjC7Ok.s 			page 49


 2737              		.loc 1 1251 0
 2738 002e 4FF0FF33 		mov	r3, #-1
 2739              		.loc 1 1252 0
 2740 0032 2046     		mov	r0, r4
 2741              		.loc 1 1251 0
 2742 0034 2361     		str	r3, [r4, #16]
 2743              		.loc 1 1252 0
 2744 0036 FFF7FEFF 		bl	chx_ready_enqueue
 2745              	.LVL263:
 2746              		.loc 1 1253 0
 2747 003a 0D4B     		ldr	r3, .L236
 2748 003c E27A     		ldrb	r2, [r4, #11]	@ zero_extendqisi2
 2749 003e 1B68     		ldr	r3, [r3]
 2750 0040 DB7A     		ldrb	r3, [r3, #11]	@ zero_extendqisi2
 2751 0042 9A42     		cmp	r2, r3
 2752 0044 E7D9     		bls	.L233
 2753              	.LVL264:
 2754              		.loc 1 1257 0
 2755 0046 BDE81040 		pop	{r4, lr}
 2756              		.cfi_remember_state
 2757              		.cfi_restore 14
 2758              		.cfi_restore 4
 2759              		.cfi_def_cfa_offset 0
 2760              		.loc 1 1254 0
 2761 004a 0120     		movs	r0, #1
 2762              	.LVL265:
 2763 004c FFF7FEBF 		b	chx_sched
 2764              	.LVL266:
 2765              	.L229:
 2766              		.cfi_restore_state
 2767              		.loc 1 1232 0
 2768 0050 042B     		cmp	r3, #4
 2769 0052 03D1     		bne	.L231
 2770              	.L235:
 2771              		.loc 1 1243 0
 2772 0054 2046     		mov	r0, r4
 2773              	.LVL267:
 2774 0056 FFF7FEFF 		bl	chx_timer_dequeue
 2775              	.LVL268:
 2776 005a E8E7     		b	.L230
 2777              	.LVL269:
 2778              	.L231:
 2779              		.loc 1 1234 0
 2780 005c 052B     		cmp	r3, #5
 2781 005e E3D0     		beq	.L234
 2782              		.loc 1 1240 0
 2783 0060 062B     		cmp	r3, #6
 2784 0062 D8D1     		bne	.L233
 2785              		.loc 1 1242 0
 2786 0064 C268     		ldr	r2, [r0, #12]
 2787 0066 034B     		ldr	r3, .L236+4
 2788 0068 9A42     		cmp	r2, r3
 2789 006a E0D1     		bne	.L230
 2790 006c F2E7     		b	.L235
 2791              	.L237:
 2792 006e 00BF     		.align	2
 2793              	.L236:
ARM GAS  /tmp/ccYjC7Ok.s 			page 50


 2794 0070 00000000 		.word	.LANCHOR0
 2795 0074 00000000 		.word	.LANCHOR2
 2796              		.cfi_endproc
 2797              	.LFE62:
 2798              		.size	chopstx_cancel, .-chopstx_cancel
 2799              		.section	.text.chopstx_testcancel,"ax",%progbits
 2800              		.align	1
 2801              		.global	chopstx_testcancel
 2802              		.syntax unified
 2803              		.thumb
 2804              		.thumb_func
 2805              		.fpu softvfp
 2806              		.type	chopstx_testcancel, %function
 2807              	chopstx_testcancel:
 2808              	.LFB63:
 2809              		.loc 1 1269 0
 2810              		.cfi_startproc
 2811              		@ args = 0, pretend = 0, frame = 0
 2812              		@ frame_needed = 0, uses_anonymous_args = 0
 2813 0000 08B5     		push	{r3, lr}
 2814              		.cfi_def_cfa_offset 8
 2815              		.cfi_offset 3, -8
 2816              		.cfi_offset 14, -4
 2817              		.loc 1 1270 0
 2818 0002 064B     		ldr	r3, .L240
 2819 0004 1B68     		ldr	r3, [r3]
 2820 0006 1B89     		ldrh	r3, [r3, #8]
 2821 0008 03F49073 		and	r3, r3, #288
 2822 000c B3F5907F 		cmp	r3, #288
 2823 0010 03D1     		bne	.L238
 2824              		.loc 1 1271 0
 2825 0012 4FF0FF30 		mov	r0, #-1
 2826 0016 FFF7FEFF 		bl	chopstx_exit
 2827              	.LVL270:
 2828              	.L238:
 2829              		.loc 1 1272 0
 2830 001a 08BD     		pop	{r3, pc}
 2831              	.L241:
 2832              		.align	2
 2833              	.L240:
 2834 001c 00000000 		.word	.LANCHOR0
 2835              		.cfi_endproc
 2836              	.LFE63:
 2837              		.size	chopstx_testcancel, .-chopstx_testcancel
 2838              		.section	.text.chopstx_usec_wait,"ax",%progbits
 2839              		.align	1
 2840              		.global	chopstx_usec_wait
 2841              		.syntax unified
 2842              		.thumb
 2843              		.thumb_func
 2844              		.fpu softvfp
 2845              		.type	chopstx_usec_wait, %function
 2846              	chopstx_usec_wait:
 2847              	.LFB44:
 2848              		.loc 1 702 0
 2849              		.cfi_startproc
 2850              		@ args = 0, pretend = 0, frame = 8
ARM GAS  /tmp/ccYjC7Ok.s 			page 51


 2851              		@ frame_needed = 0, uses_anonymous_args = 0
 2852              	.LVL271:
 2853 0000 13B5     		push	{r0, r1, r4, lr}
 2854              		.cfi_def_cfa_offset 16
 2855              		.cfi_offset 4, -8
 2856              		.cfi_offset 14, -4
 2857 0002 02AC     		add	r4, sp, #8
 2858 0004 44F8040D 		str	r0, [r4, #-4]!
 2859              	.LVL272:
 2860              	.L243:
 2861              	.LBB383:
 2862              	.LBB384:
 2863              		.loc 1 686 0
 2864 0008 FFF7FEFF 		bl	chopstx_testcancel
 2865              	.LVL273:
 2866              		.loc 1 687 0
 2867 000c FFF7FEFF 		bl	chx_cpu_sched_lock
 2868              	.LVL274:
 2869              		.loc 1 688 0
 2870 0010 2146     		mov	r1, r4
 2871 0012 0420     		movs	r0, #4
 2872 0014 FFF7FEFF 		bl	chx_snooze
 2873              	.LVL275:
 2874              		.loc 1 690 0
 2875 0018 0028     		cmp	r0, #0
 2876 001a F5D0     		beq	.L243
 2877              	.LBE384:
 2878              	.LBE383:
 2879              		.loc 1 704 0
 2880 001c 02B0     		add	sp, sp, #8
 2881              		.cfi_def_cfa_offset 8
 2882              		@ sp needed
 2883 001e 10BD     		pop	{r4, pc}
 2884              		.cfi_endproc
 2885              	.LFE44:
 2886              		.size	chopstx_usec_wait, .-chopstx_usec_wait
 2887              		.section	.text.chopstx_cond_wait,"ax",%progbits
 2888              		.align	1
 2889              		.global	chopstx_cond_wait
 2890              		.syntax unified
 2891              		.thumb
 2892              		.thumb_func
 2893              		.fpu softvfp
 2894              		.type	chopstx_cond_wait, %function
 2895              	chopstx_cond_wait:
 2896              	.LFB50:
 2897              		.loc 1 864 0
 2898              		.cfi_startproc
 2899              		@ args = 0, pretend = 0, frame = 0
 2900              		@ frame_needed = 0, uses_anonymous_args = 0
 2901              	.LVL276:
 2902 0000 70B5     		push	{r4, r5, r6, lr}
 2903              		.cfi_def_cfa_offset 16
 2904              		.cfi_offset 4, -16
 2905              		.cfi_offset 5, -12
 2906              		.cfi_offset 6, -8
 2907              		.cfi_offset 14, -4
ARM GAS  /tmp/ccYjC7Ok.s 			page 52


 2908              		.loc 1 864 0
 2909 0002 0D46     		mov	r5, r1
 2910              		.loc 1 865 0
 2911 0004 144B     		ldr	r3, .L257
 2912              		.loc 1 864 0
 2913 0006 0646     		mov	r6, r0
 2914              		.loc 1 865 0
 2915 0008 1C68     		ldr	r4, [r3]
 2916              	.LVL277:
 2917              		.loc 1 868 0
 2918 000a FFF7FEFF 		bl	chopstx_testcancel
 2919              	.LVL278:
 2920              		.loc 1 869 0
 2921 000e FFF7FEFF 		bl	chx_cpu_sched_lock
 2922              	.LVL279:
 2923              		.loc 1 871 0
 2924 0012 15B1     		cbz	r5, .L247
 2925              	.LVL280:
 2926              		.loc 1 874 0
 2927 0014 2846     		mov	r0, r5
 2928 0016 FFF7FEFF 		bl	chx_mutex_unlock
 2929              	.LVL281:
 2930              	.L247:
 2931              		.loc 1 878 0
 2932 001a 94F90830 		ldrsb	r3, [r4, #8]
 2933 001e 002B     		cmp	r3, #0
 2934 0020 02DA     		bge	.L248
 2935              		.loc 1 879 0
 2936 0022 2046     		mov	r0, r4
 2937 0024 FFF7FEFF 		bl	chx_timer_dequeue
 2938              	.LVL282:
 2939              	.L248:
 2940              		.loc 1 881 0
 2941 0028 2046     		mov	r0, r4
 2942 002a 3146     		mov	r1, r6
 2943 002c FFF7FEFF 		bl	ll_prio_enqueue
 2944              	.LVL283:
 2945              		.loc 1 882 0
 2946 0030 0322     		movs	r2, #3
 2947 0032 237A     		ldrb	r3, [r4, #8]	@ zero_extendqisi2
 2948              		.loc 1 884 0
 2949 0034 0020     		movs	r0, #0
 2950              		.loc 1 882 0
 2951 0036 62F30303 		bfi	r3, r2, #0, #4
 2952 003a 2372     		strb	r3, [r4, #8]
 2953              	.LVL284:
 2954              		.loc 1 884 0
 2955 003c FFF7FEFF 		bl	chx_sched
 2956              	.LVL285:
 2957 0040 0446     		mov	r4, r0
 2958              	.LVL286:
 2959              		.loc 1 886 0
 2960 0042 15B1     		cbz	r5, .L249
 2961              	.LVL287:
 2962              		.loc 1 887 0
 2963 0044 2846     		mov	r0, r5
 2964              	.LVL288:
ARM GAS  /tmp/ccYjC7Ok.s 			page 53


 2965 0046 FFF7FEFF 		bl	chopstx_mutex_lock
 2966              	.LVL289:
 2967              	.L249:
 2968              		.loc 1 889 0
 2969 004a 002C     		cmp	r4, #0
 2970 004c 03DA     		bge	.L246
 2971              		.loc 1 890 0
 2972 004e 4FF0FF30 		mov	r0, #-1
 2973 0052 FFF7FEFF 		bl	chopstx_exit
 2974              	.LVL290:
 2975              	.L246:
 2976              		.loc 1 891 0
 2977 0056 70BD     		pop	{r4, r5, r6, pc}
 2978              	.LVL291:
 2979              	.L258:
 2980              		.align	2
 2981              	.L257:
 2982 0058 00000000 		.word	.LANCHOR0
 2983              		.cfi_endproc
 2984              	.LFE50:
 2985              		.size	chopstx_cond_wait, .-chopstx_cond_wait
 2986              		.section	.text.chopstx_join,"ax",%progbits
 2987              		.align	1
 2988              		.global	chopstx_join
 2989              		.syntax unified
 2990              		.thumb
 2991              		.thumb_func
 2992              		.fpu softvfp
 2993              		.type	chopstx_join, %function
 2994              	chopstx_join:
 2995              	.LFB60:
 2996              		.loc 1 1111 0
 2997              		.cfi_startproc
 2998              		@ args = 0, pretend = 0, frame = 0
 2999              		@ frame_needed = 0, uses_anonymous_args = 0
 3000              	.LVL292:
 3001 0000 70B5     		push	{r4, r5, r6, lr}
 3002              		.cfi_def_cfa_offset 16
 3003              		.cfi_offset 4, -16
 3004              		.cfi_offset 5, -12
 3005              		.cfi_offset 6, -8
 3006              		.cfi_offset 14, -4
 3007              		.loc 1 1111 0
 3008 0002 0446     		mov	r4, r0
 3009              	.LVL293:
 3010 0004 0E46     		mov	r6, r1
 3011              		.loc 1 1119 0
 3012 0006 FFF7FEFF 		bl	chopstx_testcancel
 3013              	.LVL294:
 3014              		.loc 1 1121 0
 3015 000a FFF7FEFF 		bl	chx_cpu_sched_lock
 3016              	.LVL295:
 3017              		.loc 1 1122 0
 3018 000e 237A     		ldrb	r3, [r4, #8]	@ zero_extendqisi2
 3019 0010 DA06     		lsls	r2, r3, #27
 3020 0012 04D5     		bpl	.L260
 3021              		.loc 1 1124 0
ARM GAS  /tmp/ccYjC7Ok.s 			page 54


 3022 0014 FFF7FEFF 		bl	chx_cpu_sched_unlock
 3023              	.LVL296:
 3024              		.loc 1 1125 0
 3025 0018 0220     		movs	r0, #2
 3026 001a FFF7FEFF 		bl	chx_fatal
 3027              	.LVL297:
 3028              	.L260:
 3029              		.loc 1 1128 0
 3030 001e 03F00F03 		and	r3, r3, #15
 3031 0022 0E2B     		cmp	r3, #14
 3032 0024 2AD0     		beq	.L261
 3033              	.LVL298:
 3034              	.LBB385:
 3035              		.loc 1 1132 0
 3036 0026 1D4D     		ldr	r5, .L273
 3037 0028 2868     		ldr	r0, [r5]
 3038 002a 90F90830 		ldrsb	r3, [r0, #8]
 3039 002e 002B     		cmp	r3, #0
 3040 0030 01DA     		bge	.L262
 3041              		.loc 1 1133 0
 3042 0032 FFF7FEFF 		bl	chx_timer_dequeue
 3043              	.LVL299:
 3044              	.L262:
 3045              		.loc 1 1135 0
 3046 0036 1A49     		ldr	r1, .L273+4
 3047 0038 2868     		ldr	r0, [r5]
 3048 003a FFF7FEFF 		bl	ll_prio_enqueue
 3049              	.LVL300:
 3050              		.loc 1 1137 0
 3051 003e 0521     		movs	r1, #5
 3052              		.loc 1 1138 0
 3053 0040 2046     		mov	r0, r4
 3054              		.loc 1 1136 0
 3055 0042 2B68     		ldr	r3, [r5]
 3056              		.loc 1 1137 0
 3057 0044 1A7A     		ldrb	r2, [r3, #8]	@ zero_extendqisi2
 3058              		.loc 1 1136 0
 3059 0046 1C61     		str	r4, [r3, #16]
 3060              		.loc 1 1137 0
 3061 0048 61F30302 		bfi	r2, r1, #0, #4
 3062 004c 1A72     		strb	r2, [r3, #8]
 3063              		.loc 1 1138 0
 3064 004e 237A     		ldrb	r3, [r4, #8]	@ zero_extendqisi2
 3065 0050 43F04003 		orr	r3, r3, #64
 3066 0054 2372     		strb	r3, [r4, #8]
 3067              	.LVL301:
 3068              	.L263:
 3069              		.loc 1 1142 0 discriminator 1
 3070 0056 2B68     		ldr	r3, [r5]
 3071 0058 C27A     		ldrb	r2, [r0, #11]	@ zero_extendqisi2
 3072 005a DB7A     		ldrb	r3, [r3, #11]	@ zero_extendqisi2
 3073 005c 9A42     		cmp	r2, r3
 3074 005e 04D2     		bcs	.L267
 3075              		.loc 1 1144 0
 3076 0060 C372     		strb	r3, [r0, #11]
 3077              		.loc 1 1145 0
 3078 0062 FFF7FEFF 		bl	requeue
ARM GAS  /tmp/ccYjC7Ok.s 			page 55


 3079              	.LVL302:
 3080              		.loc 1 1142 0
 3081 0066 0028     		cmp	r0, #0
 3082 0068 F5D1     		bne	.L263
 3083              	.L267:
 3084              	.LVL303:
 3085              		.loc 1 1148 0
 3086 006a 0020     		movs	r0, #0
 3087              	.LVL304:
 3088 006c FFF7FEFF 		bl	chx_sched
 3089              	.LVL305:
 3090              	.LBE385:
 3091              		.loc 1 1153 0
 3092 0070 0028     		cmp	r0, #0
 3093 0072 0EDA     		bge	.L272
 3094              		.loc 1 1154 0
 3095 0074 4FF0FF30 		mov	r0, #-1
 3096              	.LVL306:
 3097 0078 FFF7FEFF 		bl	chopstx_exit
 3098              	.LVL307:
 3099              	.L261:
 3100              		.loc 1 1151 0
 3101 007c FFF7FEFF 		bl	chx_cpu_sched_unlock
 3102              	.LVL308:
 3103              	.L268:
 3104              		.loc 1 1158 0
 3105 0080 237A     		ldrb	r3, [r4, #8]	@ zero_extendqisi2
 3106 0082 43F00F03 		orr	r3, r3, #15
 3107 0086 2372     		strb	r3, [r4, #8]
 3108              		.loc 1 1159 0
 3109 0088 2EB1     		cbz	r6, .L270
 3110              		.loc 1 1160 0
 3111 008a 2369     		ldr	r3, [r4, #16]
 3112 008c 0020     		movs	r0, #0
 3113 008e 3360     		str	r3, [r6]
 3114 0090 00E0     		b	.L259
 3115              	.LVL309:
 3116              	.L272:
 3117              		.loc 1 1156 0
 3118 0092 F5D0     		beq	.L268
 3119              	.LVL310:
 3120              	.L259:
 3121              		.loc 1 1164 0
 3122 0094 70BD     		pop	{r4, r5, r6, pc}
 3123              	.LVL311:
 3124              	.L270:
 3125 0096 3046     		mov	r0, r6
 3126              		.loc 1 1163 0
 3127 0098 FCE7     		b	.L259
 3128              	.L274:
 3129 009a 00BF     		.align	2
 3130              	.L273:
 3131 009c 00000000 		.word	.LANCHOR0
 3132 00a0 00000000 		.word	.LANCHOR3
 3133              		.cfi_endproc
 3134              	.LFE60:
 3135              		.size	chopstx_join, .-chopstx_join
ARM GAS  /tmp/ccYjC7Ok.s 			page 56


 3136              		.section	.text.chopstx_setcancelstate,"ax",%progbits
 3137              		.align	1
 3138              		.global	chopstx_setcancelstate
 3139              		.syntax unified
 3140              		.thumb
 3141              		.thumb_func
 3142              		.fpu softvfp
 3143              		.type	chopstx_setcancelstate, %function
 3144              	chopstx_setcancelstate:
 3145              	.LFB64:
 3146              		.loc 1 1285 0
 3147              		.cfi_startproc
 3148              		@ args = 0, pretend = 0, frame = 0
 3149              		@ frame_needed = 0, uses_anonymous_args = 0
 3150              	.LVL312:
 3151              		.loc 1 1286 0
 3152 0000 084B     		ldr	r3, .L276
 3153              		.loc 1 1288 0
 3154 0002 B0FA80F0 		clz	r0, r0
 3155              	.LVL313:
 3156              		.loc 1 1286 0
 3157 0006 1A68     		ldr	r2, [r3]
 3158              		.loc 1 1285 0
 3159 0008 10B5     		push	{r4, lr}
 3160              		.cfi_def_cfa_offset 8
 3161              		.cfi_offset 4, -8
 3162              		.cfi_offset 14, -4
 3163              		.loc 1 1286 0
 3164 000a 537A     		ldrb	r3, [r2, #9]	@ zero_extendqisi2
 3165              		.loc 1 1288 0
 3166 000c 4009     		lsrs	r0, r0, #5
 3167              		.loc 1 1286 0
 3168 000e DC43     		mvns	r4, r3
 3169              		.loc 1 1288 0
 3170 0010 60F30003 		bfi	r3, r0, #0, #1
 3171              		.loc 1 1286 0
 3172 0014 04F00104 		and	r4, r4, #1
 3173              	.LVL314:
 3174              		.loc 1 1288 0
 3175 0018 5372     		strb	r3, [r2, #9]
 3176              		.loc 1 1289 0
 3177 001a FFF7FEFF 		bl	chopstx_testcancel
 3178              	.LVL315:
 3179              		.loc 1 1291 0
 3180 001e 2046     		mov	r0, r4
 3181 0020 10BD     		pop	{r4, pc}
 3182              	.LVL316:
 3183              	.L277:
 3184 0022 00BF     		.align	2
 3185              	.L276:
 3186 0024 00000000 		.word	.LANCHOR0
 3187              		.cfi_endproc
 3188              	.LFE64:
 3189              		.size	chopstx_setcancelstate, .-chopstx_setcancelstate
 3190              		.section	.text.chopstx_poll,"ax",%progbits
 3191              		.align	1
 3192              		.global	chopstx_poll
ARM GAS  /tmp/ccYjC7Ok.s 			page 57


 3193              		.syntax unified
 3194              		.thumb
 3195              		.thumb_func
 3196              		.fpu softvfp
 3197              		.type	chopstx_poll, %function
 3198              	chopstx_poll:
 3199              	.LFB66:
 3200              		.loc 1 1320 0
 3201              		.cfi_startproc
 3202              		@ args = 0, pretend = 0, frame = 16
 3203              		@ frame_needed = 1, uses_anonymous_args = 0
 3204              	.LVL317:
 3205 0000 2DE9F04F 		push	{r4, r5, r6, r7, r8, r9, r10, fp, lr}
 3206              		.cfi_def_cfa_offset 36
 3207              		.cfi_offset 4, -36
 3208              		.cfi_offset 5, -32
 3209              		.cfi_offset 6, -28
 3210              		.cfi_offset 7, -24
 3211              		.cfi_offset 8, -20
 3212              		.cfi_offset 9, -16
 3213              		.cfi_offset 10, -12
 3214              		.cfi_offset 11, -8
 3215              		.cfi_offset 14, -4
 3216              		.loc 1 1321 0
 3217 0004 4FF00008 		mov	r8, #0
 3218              		.loc 1 1320 0
 3219 0008 85B0     		sub	sp, sp, #20
 3220              		.cfi_def_cfa_offset 56
 3221 000a 9346     		mov	fp, r2
 3222              		.loc 1 1323 0
 3223 000c 4A01     		lsls	r2, r1, #5
 3224              	.LVL318:
 3225              		.loc 1 1320 0
 3226              		.loc 1 1323 0
 3227 000e 0832     		adds	r2, r2, #8
 3228              		.loc 1 1320 0
 3229 0010 00AF     		add	r7, sp, #0
 3230              		.cfi_def_cfa_register 7
 3231              		.loc 1 1321 0
 3232 0012 07F11004 		add	r4, r7, #16
 3233              		.loc 1 1323 0
 3234 0016 ADEB020D 		sub	sp, sp, r2
 3235              		.loc 1 1320 0
 3236 001a 7860     		str	r0, [r7, #4]
 3237 001c 8946     		mov	r9, r1
 3238              		.loc 1 1321 0
 3239 001e 44F8048D 		str	r8, [r4, #-4]!
 3240              	.LVL319:
 3241              		.loc 1 1323 0
 3242 0022 6E46     		mov	r6, sp
 3243              	.LVL320:
 3244              		.loc 1 1327 0
 3245 0024 FFF7FEFF 		bl	chopstx_testcancel
 3246              	.LVL321:
 3247              		.loc 1 1329 0
 3248 0028 4346     		mov	r3, r8
 3249              	.LBB403:
ARM GAS  /tmp/ccYjC7Ok.s 			page 58


 3250              	.LBB404:
 3251              		.loc 1 1298 0
 3252 002a 804A     		ldr	r2, .L315
 3253              	.LBE404:
 3254              	.LBE403:
 3255              		.loc 1 1329 0
 3256 002c 3146     		mov	r1, r6
 3257 002e 9046     		mov	r8, r2
 3258              	.LBB408:
 3259              	.LBB405:
 3260              		.loc 1 1299 0
 3261 0030 1846     		mov	r0, r3
 3262              		.loc 1 1298 0
 3263 0032 1568     		ldr	r5, [r2]
 3264              	.LVL322:
 3265              	.L279:
 3266              	.LBE405:
 3267              	.LBE408:
 3268              		.loc 1 1329 0 discriminator 1
 3269 0034 4B45     		cmp	r3, r9
 3270 0036 01F12002 		add	r2, r1, #32
 3271 003a 1ADB     		blt	.L280
 3272 003c 3446     		mov	r4, r6
 3273              	.LVL323:
 3274              		.loc 1 1332 0
 3275 003e 4FF0000A 		mov	r10, #0
 3276              	.LVL324:
 3277              	.L281:
 3278              		.loc 1 1332 0 is_stmt 0 discriminator 1
 3279 0042 CA45     		cmp	r10, r9
 3280 0044 2BDB     		blt	.L291
 3281              		.loc 1 1345 0 is_stmt 1
 3282 0046 FFF7FEFF 		bl	chx_cpu_sched_lock
 3283              	.LVL325:
 3284              		.loc 1 1347 0
 3285 004a FB68     		ldr	r3, [r7, #12]
 3286 004c 002B     		cmp	r3, #0
 3287 004e 00F08D80 		beq	.L292
 3288              	.L296:
 3289              	.LVL326:
 3290              		.loc 1 1350 0
 3291 0052 FFF7FEFF 		bl	chx_cpu_sched_unlock
 3292              	.LVL327:
 3293              		.loc 1 1325 0
 3294 0056 0025     		movs	r5, #0
 3295              	.LVL328:
 3296              	.L293:
 3297              		.loc 1 1379 0
 3298 0058 0024     		movs	r4, #0
 3299              	.LBB409:
 3300              	.LBB410:
 3301              	.LBB411:
 3302              		.loc 2 174 0
 3303 005a DFF8D881 		ldr	r8, .L315+8
 3304              	.LVL329:
 3305              	.L298:
 3306              	.LBE411:
ARM GAS  /tmp/ccYjC7Ok.s 			page 59


 3307              	.LBE410:
 3308              	.LBE409:
 3309              		.loc 1 1379 0 discriminator 1
 3310 005e 4C45     		cmp	r4, r9
 3311 0060 C0F2AC80 		blt	.L303
 3312              		.loc 1 1424 0
 3313 0064 002D     		cmp	r5, #0
 3314 0066 80F2DB80 		bge	.L304
 3315              		.loc 1 1425 0
 3316 006a 4FF0FF30 		mov	r0, #-1
 3317 006e FFF7FEFF 		bl	chopstx_exit
 3318              	.LVL330:
 3319              	.L280:
 3320              	.LBB418:
 3321              	.LBB406:
 3322              		.loc 1 1296 0 discriminator 3
 3323 0072 42E90811 		strd	r1, r1, [r2, #-32]
 3324              		.loc 1 1297 0 discriminator 3
 3325 0076 06EB431C 		add	ip, r6, r3, lsl #5
 3326 007a 9CF80910 		ldrb	r1, [ip, #9]	@ zero_extendqisi2
 3327              	.LVL331:
 3328              	.LBE406:
 3329              	.LBE418:
 3330              		.loc 1 1329 0 discriminator 3
 3331 007e 0133     		adds	r3, r3, #1
 3332              	.LVL332:
 3333              	.LBB419:
 3334              	.LBB407:
 3335              		.loc 1 1297 0 discriminator 3
 3336 0080 41F08001 		orr	r1, r1, #128
 3337 0084 8CF80910 		strb	r1, [ip, #9]
 3338              	.LVL333:
 3339              		.loc 1 1298 0 discriminator 3
 3340 0088 E97A     		ldrb	r1, [r5, #11]	@ zero_extendqisi2
 3341 008a 8CF80B10 		strb	r1, [ip, #11]
 3342              		.loc 1 1300 0 discriminator 3
 3343 008e 42E90500 		strd	r0, r0, [r2, #-20]
 3344              		.loc 1 1302 0 discriminator 3
 3345 0092 42E90354 		strd	r5, r4, [r2, #-12]
 3346              		.loc 1 1303 0 discriminator 3
 3347 0096 42F8040C 		str	r0, [r2, #-4]
 3348              	.LVL334:
 3349              	.LBE407:
 3350              	.LBE419:
 3351              		.loc 1 1329 0 discriminator 3
 3352 009a 1146     		mov	r1, r2
 3353 009c CAE7     		b	.L279
 3354              	.LVL335:
 3355              	.L291:
 3356              		.loc 1 1334 0
 3357 009e 5BF82A50 		ldr	r5, [fp, r10, lsl #2]
 3358              	.LVL336:
 3359              		.loc 1 1335 0
 3360 00a2 0022     		movs	r2, #0
 3361 00a4 2B46     		mov	r3, r5
 3362 00a6 23F8022F 		strh	r2, [r3, #2]!	@ movhi
 3363              		.loc 1 1336 0
ARM GAS  /tmp/ccYjC7Ok.s 			page 60


 3364 00aa E361     		str	r3, [r4, #28]
 3365              		.loc 1 1337 0
 3366 00ac 2B88     		ldrh	r3, [r5]
 3367 00ae 0BBB     		cbnz	r3, .L282
 3368              	.LVL337:
 3369              	.LBB420:
 3370              	.LBB421:
 3371              		.loc 1 948 0
 3372 00b0 FFF7FEFF 		bl	chopstx_testcancel
 3373              	.LVL338:
 3374              		.loc 1 950 0
 3375 00b4 A868     		ldr	r0, [r5, #8]
 3376 00b6 08B1     		cbz	r0, .L283
 3377              		.loc 1 951 0
 3378 00b8 FFF7FEFF 		bl	chopstx_mutex_lock
 3379              	.LVL339:
 3380              	.L283:
 3381              		.loc 1 953 0
 3382 00bc D5E90330 		ldrd	r3, r0, [r5, #12]
 3383 00c0 9847     		blx	r3
 3384              	.LVL340:
 3385 00c2 70B1     		cbz	r0, .L284
 3386              	.LVL341:
 3387              		.loc 1 956 0
 3388 00c4 A269     		ldr	r2, [r4, #24]
 3389 00c6 1368     		ldr	r3, [r2]
 3390 00c8 0133     		adds	r3, r3, #1
 3391 00ca 1360     		str	r3, [r2]
 3392              		.loc 1 957 0
 3393 00cc 0122     		movs	r2, #1
 3394 00ce E369     		ldr	r3, [r4, #28]
 3395 00d0 1A80     		strh	r2, [r3]	@ movhi
 3396              	.L285:
 3397              		.loc 1 971 0
 3398 00d2 A868     		ldr	r0, [r5, #8]
 3399 00d4 08B1     		cbz	r0, .L286
 3400              		.loc 1 972 0
 3401 00d6 FFF7FEFF 		bl	chopstx_mutex_unlock
 3402              	.LVL342:
 3403              	.L286:
 3404              	.LBE421:
 3405              	.LBE420:
 3406              		.loc 1 1332 0 discriminator 2
 3407 00da 0AF1010A 		add	r10, r10, #1
 3408              	.LVL343:
 3409 00de 2034     		adds	r4, r4, #32
 3410 00e0 AFE7     		b	.L281
 3411              	.LVL344:
 3412              	.L284:
 3413              	.LBB423:
 3414              	.LBB422:
 3415              		.loc 1 964 0
 3416 00e2 FFF7FEFF 		bl	chx_cpu_sched_lock
 3417              	.LVL345:
 3418              		.loc 1 966 0
 3419 00e6 6968     		ldr	r1, [r5, #4]
 3420 00e8 2046     		mov	r0, r4
ARM GAS  /tmp/ccYjC7Ok.s 			page 61


 3421 00ea FFF7FEFF 		bl	ll_prio_enqueue
 3422              	.LVL346:
 3423              		.loc 1 968 0
 3424 00ee FFF7FEFF 		bl	chx_cpu_sched_unlock
 3425              	.LVL347:
 3426 00f2 EEE7     		b	.L285
 3427              	.LVL348:
 3428              	.L282:
 3429              	.LBE422:
 3430              	.LBE423:
 3431              		.loc 1 1339 0
 3432 00f4 012B     		cmp	r3, #1
 3433 00f6 16D1     		bne	.L287
 3434 00f8 3B60     		str	r3, [r7]
 3435              	.LVL349:
 3436              	.LBB424:
 3437              	.LBB425:
 3438              		.loc 1 1004 0
 3439 00fa FFF7FEFF 		bl	chopstx_testcancel
 3440              	.LVL350:
 3441              		.loc 1 1005 0
 3442 00fe FFF7FEFF 		bl	chx_cpu_sched_lock
 3443              	.LVL351:
 3444              		.loc 1 1006 0
 3445 0102 2A79     		ldrb	r2, [r5, #4]	@ zero_extendqisi2
 3446              		.loc 1 1008 0
 3447 0104 4A49     		ldr	r1, .L315+4
 3448              		.loc 1 1006 0
 3449 0106 2261     		str	r2, [r4, #16]
 3450              	.LVL352:
 3451              		.loc 1 1008 0
 3452 0108 2046     		mov	r0, r4
 3453 010a FFF7FEFF 		bl	ll_prio_enqueue
 3454              	.LVL353:
 3455              		.loc 1 1009 0
 3456 010e 2A79     		ldrb	r2, [r5, #4]	@ zero_extendqisi2
 3457              	.LVL354:
 3458              	.LBB426:
 3459              	.LBB427:
 3460              		.loc 2 162 0
 3461 0110 3B68     		ldr	r3, [r7]
 3462 0112 5109     		lsrs	r1, r2, #5
 3463 0114 02F01F02 		and	r2, r2, #31
 3464              	.LVL355:
 3465 0118 9340     		lsls	r3, r3, r2
 3466 011a 464A     		ldr	r2, .L315+8
 3467 011c 42F82130 		str	r3, [r2, r1, lsl #2]
 3468              	.LVL356:
 3469              	.L290:
 3470              	.LBE427:
 3471              	.LBE426:
 3472              	.LBE425:
 3473              	.LBE424:
 3474              	.LBB428:
 3475              	.LBB429:
 3476              		.loc 1 1199 0
 3477 0120 FFF7FEFF 		bl	chx_cpu_sched_unlock
ARM GAS  /tmp/ccYjC7Ok.s 			page 62


 3478              	.LVL357:
 3479 0124 D9E7     		b	.L286
 3480              	.LVL358:
 3481              	.L287:
 3482              		.loc 1 1171 0
 3483 0126 6D68     		ldr	r5, [r5, #4]
 3484              	.LVL359:
 3485              		.loc 1 1173 0
 3486 0128 FFF7FEFF 		bl	chopstx_testcancel
 3487              	.LVL360:
 3488              		.loc 1 1174 0
 3489 012c FFF7FEFF 		bl	chx_cpu_sched_lock
 3490              	.LVL361:
 3491              		.loc 1 1176 0
 3492 0130 2B7A     		ldrb	r3, [r5, #8]	@ zero_extendqisi2
 3493 0132 DA06     		lsls	r2, r3, #27
 3494 0134 04D5     		bpl	.L288
 3495              		.loc 1 1178 0
 3496 0136 FFF7FEFF 		bl	chx_cpu_sched_unlock
 3497              	.LVL362:
 3498              		.loc 1 1179 0
 3499 013a 0220     		movs	r0, #2
 3500 013c FFF7FEFF 		bl	chx_fatal
 3501              	.LVL363:
 3502              	.L288:
 3503              		.loc 1 1182 0
 3504 0140 03F00F03 		and	r3, r3, #15
 3505 0144 0E2B     		cmp	r3, #14
 3506 0146 07D1     		bne	.L289
 3507              	.LVL364:
 3508              		.loc 1 1185 0
 3509 0148 A269     		ldr	r2, [r4, #24]
 3510 014a 1368     		ldr	r3, [r2]
 3511 014c 0133     		adds	r3, r3, #1
 3512 014e 1360     		str	r3, [r2]
 3513              		.loc 1 1186 0
 3514 0150 0122     		movs	r2, #1
 3515 0152 E369     		ldr	r3, [r4, #28]
 3516 0154 1A80     		strh	r2, [r3]	@ movhi
 3517 0156 E3E7     		b	.L290
 3518              	.L289:
 3519              		.loc 1 1193 0
 3520 0158 2561     		str	r5, [r4, #16]
 3521              	.LVL365:
 3522              		.loc 1 1195 0
 3523 015a 3749     		ldr	r1, .L315+12
 3524 015c 2046     		mov	r0, r4
 3525 015e FFF7FEFF 		bl	ll_prio_enqueue
 3526              	.LVL366:
 3527              		.loc 1 1197 0
 3528 0162 2B7A     		ldrb	r3, [r5, #8]	@ zero_extendqisi2
 3529 0164 43F04003 		orr	r3, r3, #64
 3530 0168 2B72     		strb	r3, [r5, #8]
 3531 016a D9E7     		b	.L290
 3532              	.LVL367:
 3533              	.L292:
 3534              	.LBE429:
ARM GAS  /tmp/ccYjC7Ok.s 			page 63


 3535              	.LBE428:
 3536              		.loc 1 1352 0
 3537 016c 7B68     		ldr	r3, [r7, #4]
 3538 016e 9BB9     		cbnz	r3, .L294
 3539              		.loc 1 1354 0
 3540 0170 D8F80000 		ldr	r0, [r8]
 3541 0174 90F90830 		ldrsb	r3, [r0, #8]
 3542 0178 002B     		cmp	r3, #0
 3543 017a 01DA     		bge	.L295
 3544              		.loc 1 1355 0
 3545 017c FFF7FEFF 		bl	chx_timer_dequeue
 3546              	.LVL368:
 3547              	.L295:
 3548              		.loc 1 1357 0
 3549 0180 0621     		movs	r1, #6
 3550 0182 D8F80030 		ldr	r3, [r8]
 3551              		.loc 1 1359 0
 3552 0186 0020     		movs	r0, #0
 3553              		.loc 1 1357 0
 3554 0188 1A7A     		ldrb	r2, [r3, #8]	@ zero_extendqisi2
 3555 018a 61F30302 		bfi	r2, r1, #0, #4
 3556 018e 1A72     		strb	r2, [r3, #8]
 3557              	.LVL369:
 3558              		.loc 1 1359 0
 3559 0190 FFF7FEFF 		bl	chx_sched
 3560              	.LVL370:
 3561 0194 0546     		mov	r5, r0
 3562              	.LVL371:
 3563 0196 5FE7     		b	.L293
 3564              	.LVL372:
 3565              	.L294:
 3566              		.loc 1 1364 0
 3567 0198 FFF7FEFF 		bl	chx_cpu_sched_unlock
 3568              	.LVL373:
 3569              	.L297:
 3570              		.loc 1 1367 0
 3571 019c FFF7FEFF 		bl	chopstx_testcancel
 3572              	.LVL374:
 3573              		.loc 1 1368 0
 3574 01a0 FFF7FEFF 		bl	chx_cpu_sched_lock
 3575              	.LVL375:
 3576              		.loc 1 1369 0
 3577 01a4 FB68     		ldr	r3, [r7, #12]
 3578 01a6 002B     		cmp	r3, #0
 3579 01a8 7FF453AF 		bne	.L296
 3580              		.loc 1 1374 0
 3581 01ac 7968     		ldr	r1, [r7, #4]
 3582 01ae 0620     		movs	r0, #6
 3583 01b0 FFF7FEFF 		bl	chx_snooze
 3584              	.LVL376:
 3585              		.loc 1 1376 0
 3586 01b4 0546     		mov	r5, r0
 3587 01b6 0028     		cmp	r0, #0
 3588 01b8 F0D0     		beq	.L297
 3589 01ba 4DE7     		b	.L293
 3590              	.LVL377:
 3591              	.L303:
ARM GAS  /tmp/ccYjC7Ok.s 			page 64


 3592              		.loc 1 1381 0
 3593 01bc 5BF824A0 		ldr	r10, [fp, r4, lsl #2]
 3594              	.LVL378:
 3595              		.loc 1 1382 0
 3596 01c0 FFF7FEFF 		bl	chx_cpu_sched_lock
 3597              	.LVL379:
 3598              		.loc 1 1384 0
 3599 01c4 BAF80030 		ldrh	r3, [r10]
 3600 01c8 3BB9     		cbnz	r3, .L299
 3601              	.LVL380:
 3602              	.LBB430:
 3603              		.loc 1 1388 0
 3604 01ca BAF80230 		ldrh	r3, [r10, #2]
 3605 01ce 9BB9     		cbnz	r3, .L300
 3606              	.LVL381:
 3607              	.L314:
 3608              	.LBE430:
 3609              	.LBB431:
 3610              		.loc 1 1416 0
 3611 01d0 06EB4410 		add	r0, r6, r4, lsl #5
 3612 01d4 FFF7FEFF 		bl	ll_dequeue
 3613              	.LVL382:
 3614 01d8 0EE0     		b	.L300
 3615              	.L299:
 3616              	.LBE431:
 3617              		.loc 1 1395 0
 3618 01da 012B     		cmp	r3, #1
 3619 01dc BAF80220 		ldrh	r2, [r10, #2]
 3620 01e0 1BD1     		bne	.L301
 3621              	.LVL383:
 3622              	.LBB432:
 3623              		.loc 1 1399 0
 3624 01e2 6AB1     		cbz	r2, .L302
 3625              		.loc 1 1400 0
 3626 01e4 9AF80420 		ldrb	r2, [r10, #4]	@ zero_extendqisi2
 3627              	.LVL384:
 3628              	.LBB414:
 3629              	.LBB415:
 3630              		.loc 2 168 0
 3631 01e8 5109     		lsrs	r1, r2, #5
 3632 01ea 02F01F02 		and	r2, r2, #31
 3633              	.LVL385:
 3634 01ee 9340     		lsls	r3, r3, r2
 3635 01f0 01F16002 		add	r2, r1, #96
 3636              	.LVL386:
 3637              	.L313:
 3638              	.LBE415:
 3639              	.LBE414:
 3640              	.LBB416:
 3641              	.LBB412:
 3642              		.loc 2 174 0
 3643 01f4 48F82230 		str	r3, [r8, r2, lsl #2]
 3644              	.LVL387:
 3645              	.L300:
 3646              	.LBE412:
 3647              	.LBE416:
 3648              	.LBE432:
ARM GAS  /tmp/ccYjC7Ok.s 			page 65


 3649              		.loc 1 1421 0 discriminator 2
 3650 01f8 FFF7FEFF 		bl	chx_cpu_sched_unlock
 3651              	.LVL388:
 3652              		.loc 1 1379 0 discriminator 2
 3653 01fc 0134     		adds	r4, r4, #1
 3654              	.LVL389:
 3655 01fe 2EE7     		b	.L298
 3656              	.LVL390:
 3657              	.L302:
 3658              	.LBB433:
 3659              		.loc 1 1404 0
 3660 0200 06EB4410 		add	r0, r6, r4, lsl #5
 3661 0204 FFF7FEFF 		bl	ll_dequeue
 3662              	.LVL391:
 3663              		.loc 1 1406 0
 3664 0208 9AF80420 		ldrb	r2, [r10, #4]	@ zero_extendqisi2
 3665              	.LVL392:
 3666              	.LBB417:
 3667              	.LBB413:
 3668              		.loc 2 174 0
 3669 020c 5109     		lsrs	r1, r2, #5
 3670 020e 02F01F02 		and	r2, r2, #31
 3671              	.LVL393:
 3672 0212 9340     		lsls	r3, r3, r2
 3673 0214 01F12002 		add	r2, r1, #32
 3674 0218 ECE7     		b	.L313
 3675              	.LVL394:
 3676              	.L301:
 3677              	.LBE413:
 3678              	.LBE417:
 3679              	.LBE433:
 3680              	.LBB434:
 3681              		.loc 1 1413 0
 3682 021a 002A     		cmp	r2, #0
 3683 021c ECD1     		bne	.L300
 3684 021e D7E7     		b	.L314
 3685              	.LVL395:
 3686              	.L304:
 3687              	.LBE434:
 3688              		.loc 1 1428 0
 3689 0220 F868     		ldr	r0, [r7, #12]
 3690 0222 1437     		adds	r7, r7, #20
 3691              		.cfi_def_cfa_offset 36
 3692              	.LVL396:
 3693 0224 BD46     		mov	sp, r7
 3694              		.cfi_def_cfa_register 13
 3695              		@ sp needed
 3696 0226 BDE8F08F 		pop	{r4, r5, r6, r7, r8, r9, r10, fp, pc}
 3697              	.LVL397:
 3698              	.L316:
 3699 022a 00BF     		.align	2
 3700              	.L315:
 3701 022c 00000000 		.word	.LANCHOR0
 3702 0230 00000000 		.word	.LANCHOR4
 3703 0234 00E100E0 		.word	-536813312
 3704 0238 00000000 		.word	.LANCHOR3
 3705              		.cfi_endproc
ARM GAS  /tmp/ccYjC7Ok.s 			page 66


 3706              	.LFE66:
 3707              		.size	chopstx_poll, .-chopstx_poll
 3708              		.section	.text.chopstx_intr_wait,"ax",%progbits
 3709              		.align	1
 3710              		.global	chopstx_intr_wait
 3711              		.syntax unified
 3712              		.thumb
 3713              		.thumb_func
 3714              		.fpu softvfp
 3715              		.type	chopstx_intr_wait, %function
 3716              	chopstx_intr_wait:
 3717              	.LFB56:
 3718              		.loc 1 1024 0
 3719              		.cfi_startproc
 3720              		@ args = 0, pretend = 0, frame = 8
 3721              		@ frame_needed = 0, uses_anonymous_args = 0
 3722              	.LVL398:
 3723 0000 07B5     		push	{r0, r1, r2, lr}
 3724              		.cfi_def_cfa_offset 16
 3725              		.cfi_offset 14, -4
 3726              		.loc 1 1024 0
 3727 0002 02AA     		add	r2, sp, #8
 3728 0004 42F8040D 		str	r0, [r2, #-4]!
 3729              		.loc 1 1025 0
 3730 0008 0121     		movs	r1, #1
 3731 000a 0020     		movs	r0, #0
 3732              	.LVL399:
 3733 000c FFF7FEFF 		bl	chopstx_poll
 3734              	.LVL400:
 3735              		.loc 1 1026 0
 3736 0010 03B0     		add	sp, sp, #12
 3737              		.cfi_def_cfa_offset 4
 3738              		@ sp needed
 3739 0012 5DF804FB 		ldr	pc, [sp], #4
 3740              		.cfi_endproc
 3741              	.LFE56:
 3742              		.size	chopstx_intr_wait, .-chopstx_intr_wait
 3743              		.section	.text.chopstx_setpriority,"ax",%progbits
 3744              		.align	1
 3745              		.global	chopstx_setpriority
 3746              		.syntax unified
 3747              		.thumb
 3748              		.thumb_func
 3749              		.fpu softvfp
 3750              		.type	chopstx_setpriority, %function
 3751              	chopstx_setpriority:
 3752              	.LFB67:
 3753              		.loc 1 1446 0
 3754              		.cfi_startproc
 3755              		@ args = 0, pretend = 0, frame = 0
 3756              		@ frame_needed = 0, uses_anonymous_args = 0
 3757              	.LVL401:
 3758 0000 08B5     		push	{r3, lr}
 3759              		.cfi_def_cfa_offset 8
 3760              		.cfi_offset 3, -8
 3761              		.cfi_offset 14, -4
 3762              		.loc 1 1447 0
ARM GAS  /tmp/ccYjC7Ok.s 			page 67


 3763 0002 0D4B     		ldr	r3, .L324
 3764 0004 1A68     		ldr	r2, [r3]
 3765              	.LVL402:
 3766              		.loc 1 1450 0
 3767 0006 FFF7FEFF 		bl	chx_cpu_sched_lock
 3768              	.LVL403:
 3769              		.loc 1 1451 0
 3770 000a 917A     		ldrb	r1, [r2, #10]	@ zero_extendqisi2
 3771              	.LVL404:
 3772              		.loc 1 1452 0
 3773 000c D37A     		ldrb	r3, [r2, #11]	@ zero_extendqisi2
 3774              	.LVL405:
 3775              		.loc 1 1454 0
 3776 000e 9072     		strb	r0, [r2, #10]
 3777              		.loc 1 1455 0
 3778 0010 9942     		cmp	r1, r3
 3779 0012 01D1     		bne	.L319
 3780              	.L323:
 3781              		.loc 1 1463 0
 3782 0014 D072     		strb	r0, [r2, #11]
 3783 0016 01E0     		b	.L320
 3784              	.L319:
 3785              		.loc 1 1462 0
 3786 0018 8342     		cmp	r3, r0
 3787 001a FBD3     		bcc	.L323
 3788              	.L320:
 3789              		.loc 1 1465 0
 3790 001c D27A     		ldrb	r2, [r2, #11]	@ zero_extendqisi2
 3791              	.LVL406:
 3792 001e 9A42     		cmp	r2, r3
 3793 0020 04D2     		bcs	.L321
 3794              		.loc 1 1466 0
 3795 0022 0120     		movs	r0, #1
 3796              	.LVL407:
 3797 0024 FFF7FEFF 		bl	chx_sched
 3798              	.LVL408:
 3799              	.L322:
 3800              		.loc 1 1471 0
 3801 0028 0846     		mov	r0, r1
 3802 002a 08BD     		pop	{r3, pc}
 3803              	.LVL409:
 3804              	.L321:
 3805              		.loc 1 1467 0
 3806 002c F72A     		cmp	r2, #247
 3807 002e FBD8     		bhi	.L322
 3808              		.loc 1 1468 0
 3809 0030 FFF7FEFF 		bl	chx_cpu_sched_unlock
 3810              	.LVL410:
 3811 0034 F8E7     		b	.L322
 3812              	.L325:
 3813 0036 00BF     		.align	2
 3814              	.L324:
 3815 0038 00000000 		.word	.LANCHOR0
 3816              		.cfi_endproc
 3817              	.LFE67:
 3818              		.size	chopstx_setpriority, .-chopstx_setpriority
 3819              		.global	chopstx_main
ARM GAS  /tmp/ccYjC7Ok.s 			page 68


 3820              		.global	running
 3821              		.section	.bss.chopstx_main,"aw",%nobits
 3822              		.align	2
 3823              		.set	.LANCHOR5,. + 0
 3824              		.type	chopstx_main, %object
 3825              		.size	chopstx_main, 4
 3826              	chopstx_main:
 3827 0000 00000000 		.space	4
 3828              		.section	.bss.q_intr,"aw",%nobits
 3829              		.align	2
 3830              		.set	.LANCHOR4,. + 0
 3831              		.type	q_intr, %object
 3832              		.size	q_intr, 8
 3833              	q_intr:
 3834 0000 00000000 		.space	8
 3834      00000000 
 3835              		.section	.bss.q_join,"aw",%nobits
 3836              		.align	2
 3837              		.set	.LANCHOR3,. + 0
 3838              		.type	q_join, %object
 3839              		.size	q_join, 8
 3840              	q_join:
 3841 0000 00000000 		.space	8
 3841      00000000 
 3842              		.section	.bss.q_ready,"aw",%nobits
 3843              		.align	2
 3844              		.set	.LANCHOR1,. + 0
 3845              		.type	q_ready, %object
 3846              		.size	q_ready, 8
 3847              	q_ready:
 3848 0000 00000000 		.space	8
 3848      00000000 
 3849              		.section	.bss.q_timer,"aw",%nobits
 3850              		.align	2
 3851              		.set	.LANCHOR2,. + 0
 3852              		.type	q_timer, %object
 3853              		.size	q_timer, 8
 3854              	q_timer:
 3855 0000 00000000 		.space	8
 3855      00000000 
 3856              		.section	.bss.running,"aw",%nobits
 3857              		.align	2
 3858              		.set	.LANCHOR0,. + 0
 3859              		.type	running, %object
 3860              		.size	running, 4
 3861              	running:
 3862 0000 00000000 		.space	4
 3863              		.text
 3864              	.Letext0:
 3865              		.file 3 "/usr/arm-none-eabi/include/machine/_default_types.h"
 3866              		.file 4 "/usr/arm-none-eabi/include/sys/_stdint.h"
 3867              		.file 5 "/usr/lib/gcc/arm-none-eabi/7.3.1/include/stddef.h"
 3868              		.file 6 "/usr/arm-none-eabi/include/sys/lock.h"
 3869              		.file 7 "/usr/arm-none-eabi/include/sys/_types.h"
 3870              		.file 8 "/usr/arm-none-eabi/include/sys/reent.h"
 3871              		.file 9 "/usr/arm-none-eabi/include/stdlib.h"
 3872              		.file 10 "../chopstx/chopstx.h"
ARM GAS  /tmp/ccYjC7Ok.s 			page 69


 3873              		.file 11 "../chopstx/chopstx-cortex-m.h"
 3874              		.file 12 "<built-in>"
 3875              		.section	.debug_info,"",%progbits
 3876              	.Ldebug_info0:
 3877 0000 7B2C0000 		.4byte	0x2c7b
 3878 0004 0400     		.2byte	0x4
 3879 0006 00000000 		.4byte	.Ldebug_abbrev0
 3880 000a 04       		.byte	0x4
 3881 000b 01       		.uleb128 0x1
 3882 000c 79030000 		.4byte	.LASF308
 3883 0010 0C       		.byte	0xc
 3884 0011 83000000 		.4byte	.LASF309
 3885 0015 EA010000 		.4byte	.LASF310
 3886 0019 90020000 		.4byte	.Ldebug_ranges0+0x290
 3887 001d 00000000 		.4byte	0
 3888 0021 00000000 		.4byte	.Ldebug_line0
 3889 0025 02       		.uleb128 0x2
 3890 0026 04       		.byte	0x4
 3891 0027 03       		.uleb128 0x3
 3892 0028 01       		.byte	0x1
 3893 0029 06       		.byte	0x6
 3894 002a F40C0000 		.4byte	.LASF0
 3895 002e 04       		.uleb128 0x4
 3896 002f 6A0A0000 		.4byte	.LASF3
 3897 0033 03       		.byte	0x3
 3898 0034 2B       		.byte	0x2b
 3899 0035 39000000 		.4byte	0x39
 3900 0039 03       		.uleb128 0x3
 3901 003a 01       		.byte	0x1
 3902 003b 08       		.byte	0x8
 3903 003c C90B0000 		.4byte	.LASF1
 3904 0040 03       		.uleb128 0x3
 3905 0041 02       		.byte	0x2
 3906 0042 05       		.byte	0x5
 3907 0043 58090000 		.4byte	.LASF2
 3908 0047 04       		.uleb128 0x4
 3909 0048 10030000 		.4byte	.LASF4
 3910 004c 03       		.byte	0x3
 3911 004d 39       		.byte	0x39
 3912 004e 52000000 		.4byte	0x52
 3913 0052 03       		.uleb128 0x3
 3914 0053 02       		.byte	0x2
 3915 0054 07       		.byte	0x7
 3916 0055 100D0000 		.4byte	.LASF5
 3917 0059 03       		.uleb128 0x3
 3918 005a 04       		.byte	0x4
 3919 005b 05       		.byte	0x5
 3920 005c 86090000 		.4byte	.LASF6
 3921 0060 04       		.uleb128 0x4
 3922 0061 DE0B0000 		.4byte	.LASF7
 3923 0065 03       		.byte	0x3
 3924 0066 4F       		.byte	0x4f
 3925 0067 6B000000 		.4byte	0x6b
 3926 006b 03       		.uleb128 0x3
 3927 006c 04       		.byte	0x4
 3928 006d 07       		.byte	0x7
 3929 006e 2D0B0000 		.4byte	.LASF8
ARM GAS  /tmp/ccYjC7Ok.s 			page 70


 3930 0072 03       		.uleb128 0x3
 3931 0073 08       		.byte	0x8
 3932 0074 05       		.byte	0x5
 3933 0075 03070000 		.4byte	.LASF9
 3934 0079 03       		.uleb128 0x3
 3935 007a 08       		.byte	0x8
 3936 007b 07       		.byte	0x7
 3937 007c D6020000 		.4byte	.LASF10
 3938 0080 05       		.uleb128 0x5
 3939 0081 04       		.byte	0x4
 3940 0082 05       		.byte	0x5
 3941 0083 696E7400 		.ascii	"int\000"
 3942 0087 04       		.uleb128 0x4
 3943 0088 EA080000 		.4byte	.LASF11
 3944 008c 03       		.byte	0x3
 3945 008d E8       		.byte	0xe8
 3946 008e 92000000 		.4byte	0x92
 3947 0092 03       		.uleb128 0x3
 3948 0093 04       		.byte	0x4
 3949 0094 07       		.byte	0x7
 3950 0095 76000000 		.4byte	.LASF12
 3951 0099 04       		.uleb128 0x4
 3952 009a 85060000 		.4byte	.LASF13
 3953 009e 04       		.byte	0x4
 3954 009f 18       		.byte	0x18
 3955 00a0 2E000000 		.4byte	0x2e
 3956 00a4 04       		.uleb128 0x4
 3957 00a5 B0080000 		.4byte	.LASF14
 3958 00a9 04       		.byte	0x4
 3959 00aa 24       		.byte	0x24
 3960 00ab 47000000 		.4byte	0x47
 3961 00af 04       		.uleb128 0x4
 3962 00b0 11020000 		.4byte	.LASF15
 3963 00b4 04       		.byte	0x4
 3964 00b5 30       		.byte	0x30
 3965 00b6 60000000 		.4byte	0x60
 3966 00ba 06       		.uleb128 0x6
 3967 00bb AF000000 		.4byte	0xaf
 3968 00bf 04       		.uleb128 0x4
 3969 00c0 FB0A0000 		.4byte	.LASF16
 3970 00c4 04       		.byte	0x4
 3971 00c5 52       		.byte	0x52
 3972 00c6 87000000 		.4byte	0x87
 3973 00ca 04       		.uleb128 0x4
 3974 00cb 43040000 		.4byte	.LASF17
 3975 00cf 05       		.byte	0x5
 3976 00d0 D8       		.byte	0xd8
 3977 00d1 92000000 		.4byte	0x92
 3978 00d5 03       		.uleb128 0x3
 3979 00d6 08       		.byte	0x8
 3980 00d7 04       		.byte	0x4
 3981 00d8 9C080000 		.4byte	.LASF18
 3982 00dc 04       		.uleb128 0x4
 3983 00dd A8080000 		.4byte	.LASF19
 3984 00e1 06       		.byte	0x6
 3985 00e2 22       		.byte	0x22
 3986 00e3 E7000000 		.4byte	0xe7
ARM GAS  /tmp/ccYjC7Ok.s 			page 71


 3987 00e7 07       		.uleb128 0x7
 3988 00e8 04       		.byte	0x4
 3989 00e9 ED000000 		.4byte	0xed
 3990 00ed 08       		.uleb128 0x8
 3991 00ee 830B0000 		.4byte	.LASF126
 3992 00f2 04       		.uleb128 0x4
 3993 00f3 8F0D0000 		.4byte	.LASF20
 3994 00f7 07       		.byte	0x7
 3995 00f8 2C       		.byte	0x2c
 3996 00f9 59000000 		.4byte	0x59
 3997 00fd 04       		.uleb128 0x4
 3998 00fe AB010000 		.4byte	.LASF21
 3999 0102 07       		.byte	0x7
 4000 0103 72       		.byte	0x72
 4001 0104 59000000 		.4byte	0x59
 4002 0108 09       		.uleb128 0x9
 4003 0109 520B0000 		.4byte	.LASF22
 4004 010d 05       		.byte	0x5
 4005 010e 6501     		.2byte	0x165
 4006 0110 92000000 		.4byte	0x92
 4007 0114 0A       		.uleb128 0xa
 4008 0115 04       		.byte	0x4
 4009 0116 07       		.byte	0x7
 4010 0117 A6       		.byte	0xa6
 4011 0118 33010000 		.4byte	0x133
 4012 011c 0B       		.uleb128 0xb
 4013 011d 79060000 		.4byte	.LASF23
 4014 0121 07       		.byte	0x7
 4015 0122 A8       		.byte	0xa8
 4016 0123 08010000 		.4byte	0x108
 4017 0127 0B       		.uleb128 0xb
 4018 0128 E6090000 		.4byte	.LASF24
 4019 012c 07       		.byte	0x7
 4020 012d A9       		.byte	0xa9
 4021 012e 33010000 		.4byte	0x133
 4022 0132 00       		.byte	0
 4023 0133 0C       		.uleb128 0xc
 4024 0134 39000000 		.4byte	0x39
 4025 0138 43010000 		.4byte	0x143
 4026 013c 0D       		.uleb128 0xd
 4027 013d 92000000 		.4byte	0x92
 4028 0141 03       		.byte	0x3
 4029 0142 00       		.byte	0
 4030 0143 0E       		.uleb128 0xe
 4031 0144 08       		.byte	0x8
 4032 0145 07       		.byte	0x7
 4033 0146 A3       		.byte	0xa3
 4034 0147 64010000 		.4byte	0x164
 4035 014b 0F       		.uleb128 0xf
 4036 014c 2F020000 		.4byte	.LASF25
 4037 0150 07       		.byte	0x7
 4038 0151 A5       		.byte	0xa5
 4039 0152 80000000 		.4byte	0x80
 4040 0156 00       		.byte	0
 4041 0157 0F       		.uleb128 0xf
 4042 0158 39050000 		.4byte	.LASF26
 4043 015c 07       		.byte	0x7
ARM GAS  /tmp/ccYjC7Ok.s 			page 72


 4044 015d AA       		.byte	0xaa
 4045 015e 14010000 		.4byte	0x114
 4046 0162 04       		.byte	0x4
 4047 0163 00       		.byte	0
 4048 0164 04       		.uleb128 0x4
 4049 0165 DA070000 		.4byte	.LASF27
 4050 0169 07       		.byte	0x7
 4051 016a AB       		.byte	0xab
 4052 016b 43010000 		.4byte	0x143
 4053 016f 04       		.uleb128 0x4
 4054 0170 5E060000 		.4byte	.LASF28
 4055 0174 07       		.byte	0x7
 4056 0175 AF       		.byte	0xaf
 4057 0176 DC000000 		.4byte	0xdc
 4058 017a 07       		.uleb128 0x7
 4059 017b 04       		.byte	0x4
 4060 017c 80010000 		.4byte	0x180
 4061 0180 03       		.uleb128 0x3
 4062 0181 01       		.byte	0x1
 4063 0182 08       		.byte	0x8
 4064 0183 BD050000 		.4byte	.LASF29
 4065 0187 10       		.uleb128 0x10
 4066 0188 80010000 		.4byte	0x180
 4067 018c 04       		.uleb128 0x4
 4068 018d 37070000 		.4byte	.LASF30
 4069 0191 08       		.byte	0x8
 4070 0192 16       		.byte	0x16
 4071 0193 6B000000 		.4byte	0x6b
 4072 0197 11       		.uleb128 0x11
 4073 0198 C0010000 		.4byte	.LASF35
 4074 019c 18       		.byte	0x18
 4075 019d 08       		.byte	0x8
 4076 019e 2F       		.byte	0x2f
 4077 019f EA010000 		.4byte	0x1ea
 4078 01a3 0F       		.uleb128 0xf
 4079 01a4 E3040000 		.4byte	.LASF31
 4080 01a8 08       		.byte	0x8
 4081 01a9 31       		.byte	0x31
 4082 01aa EA010000 		.4byte	0x1ea
 4083 01ae 00       		.byte	0
 4084 01af 12       		.uleb128 0x12
 4085 01b0 5F6B00   		.ascii	"_k\000"
 4086 01b3 08       		.byte	0x8
 4087 01b4 32       		.byte	0x32
 4088 01b5 80000000 		.4byte	0x80
 4089 01b9 04       		.byte	0x4
 4090 01ba 0F       		.uleb128 0xf
 4091 01bb 810A0000 		.4byte	.LASF32
 4092 01bf 08       		.byte	0x8
 4093 01c0 32       		.byte	0x32
 4094 01c1 80000000 		.4byte	0x80
 4095 01c5 08       		.byte	0x8
 4096 01c6 0F       		.uleb128 0xf
 4097 01c7 C3090000 		.4byte	.LASF33
 4098 01cb 08       		.byte	0x8
 4099 01cc 32       		.byte	0x32
 4100 01cd 80000000 		.4byte	0x80
ARM GAS  /tmp/ccYjC7Ok.s 			page 73


 4101 01d1 0C       		.byte	0xc
 4102 01d2 0F       		.uleb128 0xf
 4103 01d3 02030000 		.4byte	.LASF34
 4104 01d7 08       		.byte	0x8
 4105 01d8 32       		.byte	0x32
 4106 01d9 80000000 		.4byte	0x80
 4107 01dd 10       		.byte	0x10
 4108 01de 12       		.uleb128 0x12
 4109 01df 5F7800   		.ascii	"_x\000"
 4110 01e2 08       		.byte	0x8
 4111 01e3 33       		.byte	0x33
 4112 01e4 F0010000 		.4byte	0x1f0
 4113 01e8 14       		.byte	0x14
 4114 01e9 00       		.byte	0
 4115 01ea 07       		.uleb128 0x7
 4116 01eb 04       		.byte	0x4
 4117 01ec 97010000 		.4byte	0x197
 4118 01f0 0C       		.uleb128 0xc
 4119 01f1 8C010000 		.4byte	0x18c
 4120 01f5 00020000 		.4byte	0x200
 4121 01f9 0D       		.uleb128 0xd
 4122 01fa 92000000 		.4byte	0x92
 4123 01fe 00       		.byte	0
 4124 01ff 00       		.byte	0
 4125 0200 11       		.uleb128 0x11
 4126 0201 050B0000 		.4byte	.LASF36
 4127 0205 24       		.byte	0x24
 4128 0206 08       		.byte	0x8
 4129 0207 37       		.byte	0x37
 4130 0208 79020000 		.4byte	0x279
 4131 020c 0F       		.uleb128 0xf
 4132 020d 67040000 		.4byte	.LASF37
 4133 0211 08       		.byte	0x8
 4134 0212 39       		.byte	0x39
 4135 0213 80000000 		.4byte	0x80
 4136 0217 00       		.byte	0
 4137 0218 0F       		.uleb128 0xf
 4138 0219 70020000 		.4byte	.LASF38
 4139 021d 08       		.byte	0x8
 4140 021e 3A       		.byte	0x3a
 4141 021f 80000000 		.4byte	0x80
 4142 0223 04       		.byte	0x4
 4143 0224 0F       		.uleb128 0xf
 4144 0225 1A020000 		.4byte	.LASF39
 4145 0229 08       		.byte	0x8
 4146 022a 3B       		.byte	0x3b
 4147 022b 80000000 		.4byte	0x80
 4148 022f 08       		.byte	0x8
 4149 0230 0F       		.uleb128 0xf
 4150 0231 C2050000 		.4byte	.LASF40
 4151 0235 08       		.byte	0x8
 4152 0236 3C       		.byte	0x3c
 4153 0237 80000000 		.4byte	0x80
 4154 023b 0C       		.byte	0xc
 4155 023c 0F       		.uleb128 0xf
 4156 023d 7A080000 		.4byte	.LASF41
 4157 0241 08       		.byte	0x8
ARM GAS  /tmp/ccYjC7Ok.s 			page 74


 4158 0242 3D       		.byte	0x3d
 4159 0243 80000000 		.4byte	0x80
 4160 0247 10       		.byte	0x10
 4161 0248 0F       		.uleb128 0xf
 4162 0249 220A0000 		.4byte	.LASF42
 4163 024d 08       		.byte	0x8
 4164 024e 3E       		.byte	0x3e
 4165 024f 80000000 		.4byte	0x80
 4166 0253 14       		.byte	0x14
 4167 0254 0F       		.uleb128 0xf
 4168 0255 C8010000 		.4byte	.LASF43
 4169 0259 08       		.byte	0x8
 4170 025a 3F       		.byte	0x3f
 4171 025b 80000000 		.4byte	0x80
 4172 025f 18       		.byte	0x18
 4173 0260 0F       		.uleb128 0xf
 4174 0261 89040000 		.4byte	.LASF44
 4175 0265 08       		.byte	0x8
 4176 0266 40       		.byte	0x40
 4177 0267 80000000 		.4byte	0x80
 4178 026b 1C       		.byte	0x1c
 4179 026c 0F       		.uleb128 0xf
 4180 026d 01080000 		.4byte	.LASF45
 4181 0271 08       		.byte	0x8
 4182 0272 41       		.byte	0x41
 4183 0273 80000000 		.4byte	0x80
 4184 0277 20       		.byte	0x20
 4185 0278 00       		.byte	0
 4186 0279 13       		.uleb128 0x13
 4187 027a 21000000 		.4byte	.LASF46
 4188 027e 0801     		.2byte	0x108
 4189 0280 08       		.byte	0x8
 4190 0281 4A       		.byte	0x4a
 4191 0282 B9020000 		.4byte	0x2b9
 4192 0286 0F       		.uleb128 0xf
 4193 0287 EC0C0000 		.4byte	.LASF47
 4194 028b 08       		.byte	0x8
 4195 028c 4B       		.byte	0x4b
 4196 028d B9020000 		.4byte	0x2b9
 4197 0291 00       		.byte	0
 4198 0292 0F       		.uleb128 0xf
 4199 0293 6C0B0000 		.4byte	.LASF48
 4200 0297 08       		.byte	0x8
 4201 0298 4C       		.byte	0x4c
 4202 0299 B9020000 		.4byte	0x2b9
 4203 029d 80       		.byte	0x80
 4204 029e 14       		.uleb128 0x14
 4205 029f 3C0D0000 		.4byte	.LASF49
 4206 02a3 08       		.byte	0x8
 4207 02a4 4E       		.byte	0x4e
 4208 02a5 8C010000 		.4byte	0x18c
 4209 02a9 0001     		.2byte	0x100
 4210 02ab 14       		.uleb128 0x14
 4211 02ac E00D0000 		.4byte	.LASF50
 4212 02b0 08       		.byte	0x8
 4213 02b1 51       		.byte	0x51
 4214 02b2 8C010000 		.4byte	0x18c
ARM GAS  /tmp/ccYjC7Ok.s 			page 75


 4215 02b6 0401     		.2byte	0x104
 4216 02b8 00       		.byte	0
 4217 02b9 0C       		.uleb128 0xc
 4218 02ba 25000000 		.4byte	0x25
 4219 02be C9020000 		.4byte	0x2c9
 4220 02c2 0D       		.uleb128 0xd
 4221 02c3 92000000 		.4byte	0x92
 4222 02c7 1F       		.byte	0x1f
 4223 02c8 00       		.byte	0
 4224 02c9 13       		.uleb128 0x13
 4225 02ca F6080000 		.4byte	.LASF51
 4226 02ce 9001     		.2byte	0x190
 4227 02d0 08       		.byte	0x8
 4228 02d1 5D       		.byte	0x5d
 4229 02d2 07030000 		.4byte	0x307
 4230 02d6 0F       		.uleb128 0xf
 4231 02d7 E3040000 		.4byte	.LASF31
 4232 02db 08       		.byte	0x8
 4233 02dc 5E       		.byte	0x5e
 4234 02dd 07030000 		.4byte	0x307
 4235 02e1 00       		.byte	0
 4236 02e2 0F       		.uleb128 0xf
 4237 02e3 98040000 		.4byte	.LASF52
 4238 02e7 08       		.byte	0x8
 4239 02e8 5F       		.byte	0x5f
 4240 02e9 80000000 		.4byte	0x80
 4241 02ed 04       		.byte	0x4
 4242 02ee 0F       		.uleb128 0xf
 4243 02ef B3010000 		.4byte	.LASF53
 4244 02f3 08       		.byte	0x8
 4245 02f4 61       		.byte	0x61
 4246 02f5 0D030000 		.4byte	0x30d
 4247 02f9 08       		.byte	0x8
 4248 02fa 0F       		.uleb128 0xf
 4249 02fb 21000000 		.4byte	.LASF46
 4250 02ff 08       		.byte	0x8
 4251 0300 62       		.byte	0x62
 4252 0301 79020000 		.4byte	0x279
 4253 0305 88       		.byte	0x88
 4254 0306 00       		.byte	0
 4255 0307 07       		.uleb128 0x7
 4256 0308 04       		.byte	0x4
 4257 0309 C9020000 		.4byte	0x2c9
 4258 030d 0C       		.uleb128 0xc
 4259 030e 1D030000 		.4byte	0x31d
 4260 0312 1D030000 		.4byte	0x31d
 4261 0316 0D       		.uleb128 0xd
 4262 0317 92000000 		.4byte	0x92
 4263 031b 1F       		.byte	0x1f
 4264 031c 00       		.byte	0
 4265 031d 07       		.uleb128 0x7
 4266 031e 04       		.byte	0x4
 4267 031f 23030000 		.4byte	0x323
 4268 0323 15       		.uleb128 0x15
 4269 0324 11       		.uleb128 0x11
 4270 0325 6C0C0000 		.4byte	.LASF54
 4271 0329 08       		.byte	0x8
ARM GAS  /tmp/ccYjC7Ok.s 			page 76


 4272 032a 08       		.byte	0x8
 4273 032b 75       		.byte	0x75
 4274 032c 49030000 		.4byte	0x349
 4275 0330 0F       		.uleb128 0xf
 4276 0331 1C070000 		.4byte	.LASF55
 4277 0335 08       		.byte	0x8
 4278 0336 76       		.byte	0x76
 4279 0337 49030000 		.4byte	0x349
 4280 033b 00       		.byte	0
 4281 033c 0F       		.uleb128 0xf
 4282 033d 680D0000 		.4byte	.LASF56
 4283 0341 08       		.byte	0x8
 4284 0342 77       		.byte	0x77
 4285 0343 80000000 		.4byte	0x80
 4286 0347 04       		.byte	0x4
 4287 0348 00       		.byte	0
 4288 0349 07       		.uleb128 0x7
 4289 034a 04       		.byte	0x4
 4290 034b 39000000 		.4byte	0x39
 4291 034f 11       		.uleb128 0x11
 4292 0350 FA020000 		.4byte	.LASF57
 4293 0354 68       		.byte	0x68
 4294 0355 08       		.byte	0x8
 4295 0356 B5       		.byte	0xb5
 4296 0357 79040000 		.4byte	0x479
 4297 035b 12       		.uleb128 0x12
 4298 035c 5F7000   		.ascii	"_p\000"
 4299 035f 08       		.byte	0x8
 4300 0360 B6       		.byte	0xb6
 4301 0361 49030000 		.4byte	0x349
 4302 0365 00       		.byte	0
 4303 0366 12       		.uleb128 0x12
 4304 0367 5F7200   		.ascii	"_r\000"
 4305 036a 08       		.byte	0x8
 4306 036b B7       		.byte	0xb7
 4307 036c 80000000 		.4byte	0x80
 4308 0370 04       		.byte	0x4
 4309 0371 12       		.uleb128 0x12
 4310 0372 5F7700   		.ascii	"_w\000"
 4311 0375 08       		.byte	0x8
 4312 0376 B8       		.byte	0xb8
 4313 0377 80000000 		.4byte	0x80
 4314 037b 08       		.byte	0x8
 4315 037c 0F       		.uleb128 0xf
 4316 037d C6000000 		.4byte	.LASF58
 4317 0381 08       		.byte	0x8
 4318 0382 B9       		.byte	0xb9
 4319 0383 40000000 		.4byte	0x40
 4320 0387 0C       		.byte	0xc
 4321 0388 0F       		.uleb128 0xf
 4322 0389 6E070000 		.4byte	.LASF59
 4323 038d 08       		.byte	0x8
 4324 038e BA       		.byte	0xba
 4325 038f 40000000 		.4byte	0x40
 4326 0393 0E       		.byte	0xe
 4327 0394 12       		.uleb128 0x12
 4328 0395 5F626600 		.ascii	"_bf\000"
ARM GAS  /tmp/ccYjC7Ok.s 			page 77


 4329 0399 08       		.byte	0x8
 4330 039a BB       		.byte	0xbb
 4331 039b 24030000 		.4byte	0x324
 4332 039f 10       		.byte	0x10
 4333 03a0 0F       		.uleb128 0xf
 4334 03a1 BD000000 		.4byte	.LASF60
 4335 03a5 08       		.byte	0x8
 4336 03a6 BC       		.byte	0xbc
 4337 03a7 80000000 		.4byte	0x80
 4338 03ab 18       		.byte	0x18
 4339 03ac 0F       		.uleb128 0xf
 4340 03ad B8010000 		.4byte	.LASF61
 4341 03b1 08       		.byte	0x8
 4342 03b2 C3       		.byte	0xc3
 4343 03b3 25000000 		.4byte	0x25
 4344 03b7 1C       		.byte	0x1c
 4345 03b8 0F       		.uleb128 0xf
 4346 03b9 48010000 		.4byte	.LASF62
 4347 03bd 08       		.byte	0x8
 4348 03be C5       		.byte	0xc5
 4349 03bf D4050000 		.4byte	0x5d4
 4350 03c3 20       		.byte	0x20
 4351 03c4 0F       		.uleb128 0xf
 4352 03c5 B9080000 		.4byte	.LASF63
 4353 03c9 08       		.byte	0x8
 4354 03ca C7       		.byte	0xc7
 4355 03cb FE050000 		.4byte	0x5fe
 4356 03cf 24       		.byte	0x24
 4357 03d0 0F       		.uleb128 0xf
 4358 03d1 160E0000 		.4byte	.LASF64
 4359 03d5 08       		.byte	0x8
 4360 03d6 CA       		.byte	0xca
 4361 03d7 22060000 		.4byte	0x622
 4362 03db 28       		.byte	0x28
 4363 03dc 0F       		.uleb128 0xf
 4364 03dd 9E060000 		.4byte	.LASF65
 4365 03e1 08       		.byte	0x8
 4366 03e2 CB       		.byte	0xcb
 4367 03e3 3C060000 		.4byte	0x63c
 4368 03e7 2C       		.byte	0x2c
 4369 03e8 12       		.uleb128 0x12
 4370 03e9 5F756200 		.ascii	"_ub\000"
 4371 03ed 08       		.byte	0x8
 4372 03ee CE       		.byte	0xce
 4373 03ef 24030000 		.4byte	0x324
 4374 03f3 30       		.byte	0x30
 4375 03f4 12       		.uleb128 0x12
 4376 03f5 5F757000 		.ascii	"_up\000"
 4377 03f9 08       		.byte	0x8
 4378 03fa CF       		.byte	0xcf
 4379 03fb 49030000 		.4byte	0x349
 4380 03ff 38       		.byte	0x38
 4381 0400 12       		.uleb128 0x12
 4382 0401 5F757200 		.ascii	"_ur\000"
 4383 0405 08       		.byte	0x8
 4384 0406 D0       		.byte	0xd0
 4385 0407 80000000 		.4byte	0x80
ARM GAS  /tmp/ccYjC7Ok.s 			page 78


 4386 040b 3C       		.byte	0x3c
 4387 040c 0F       		.uleb128 0xf
 4388 040d 2D0E0000 		.4byte	.LASF66
 4389 0411 08       		.byte	0x8
 4390 0412 D3       		.byte	0xd3
 4391 0413 42060000 		.4byte	0x642
 4392 0417 40       		.byte	0x40
 4393 0418 0F       		.uleb128 0xf
 4394 0419 960D0000 		.4byte	.LASF67
 4395 041d 08       		.byte	0x8
 4396 041e D4       		.byte	0xd4
 4397 041f 52060000 		.4byte	0x652
 4398 0423 43       		.byte	0x43
 4399 0424 12       		.uleb128 0x12
 4400 0425 5F6C6200 		.ascii	"_lb\000"
 4401 0429 08       		.byte	0x8
 4402 042a D7       		.byte	0xd7
 4403 042b 24030000 		.4byte	0x324
 4404 042f 44       		.byte	0x44
 4405 0430 0F       		.uleb128 0xf
 4406 0431 F20A0000 		.4byte	.LASF68
 4407 0435 08       		.byte	0x8
 4408 0436 DA       		.byte	0xda
 4409 0437 80000000 		.4byte	0x80
 4410 043b 4C       		.byte	0x4c
 4411 043c 0F       		.uleb128 0xf
 4412 043d 3B030000 		.4byte	.LASF69
 4413 0441 08       		.byte	0x8
 4414 0442 DB       		.byte	0xdb
 4415 0443 F2000000 		.4byte	0xf2
 4416 0447 50       		.byte	0x50
 4417 0448 0F       		.uleb128 0xf
 4418 0449 E0090000 		.4byte	.LASF70
 4419 044d 08       		.byte	0x8
 4420 044e DE       		.byte	0xde
 4421 044f 97040000 		.4byte	0x497
 4422 0453 54       		.byte	0x54
 4423 0454 0F       		.uleb128 0xf
 4424 0455 0A0B0000 		.4byte	.LASF71
 4425 0459 08       		.byte	0x8
 4426 045a E2       		.byte	0xe2
 4427 045b 6F010000 		.4byte	0x16f
 4428 045f 58       		.byte	0x58
 4429 0460 0F       		.uleb128 0xf
 4430 0461 07010000 		.4byte	.LASF72
 4431 0465 08       		.byte	0x8
 4432 0466 E4       		.byte	0xe4
 4433 0467 64010000 		.4byte	0x164
 4434 046b 5C       		.byte	0x5c
 4435 046c 0F       		.uleb128 0xf
 4436 046d D80D0000 		.4byte	.LASF73
 4437 0471 08       		.byte	0x8
 4438 0472 E5       		.byte	0xe5
 4439 0473 80000000 		.4byte	0x80
 4440 0477 64       		.byte	0x64
 4441 0478 00       		.byte	0
 4442 0479 16       		.uleb128 0x16
ARM GAS  /tmp/ccYjC7Ok.s 			page 79


 4443 047a 80000000 		.4byte	0x80
 4444 047e 97040000 		.4byte	0x497
 4445 0482 17       		.uleb128 0x17
 4446 0483 97040000 		.4byte	0x497
 4447 0487 17       		.uleb128 0x17
 4448 0488 25000000 		.4byte	0x25
 4449 048c 17       		.uleb128 0x17
 4450 048d 7A010000 		.4byte	0x17a
 4451 0491 17       		.uleb128 0x17
 4452 0492 80000000 		.4byte	0x80
 4453 0496 00       		.byte	0
 4454 0497 07       		.uleb128 0x7
 4455 0498 04       		.byte	0x4
 4456 0499 A2040000 		.4byte	0x4a2
 4457 049d 10       		.uleb128 0x10
 4458 049e 97040000 		.4byte	0x497
 4459 04a2 18       		.uleb128 0x18
 4460 04a3 000D0000 		.4byte	.LASF74
 4461 04a7 2804     		.2byte	0x428
 4462 04a9 08       		.byte	0x8
 4463 04aa 6002     		.2byte	0x260
 4464 04ac D4050000 		.4byte	0x5d4
 4465 04b0 19       		.uleb128 0x19
 4466 04b1 D4000000 		.4byte	.LASF75
 4467 04b5 08       		.byte	0x8
 4468 04b6 6202     		.2byte	0x262
 4469 04b8 80000000 		.4byte	0x80
 4470 04bc 00       		.byte	0
 4471 04bd 19       		.uleb128 0x19
 4472 04be ED060000 		.4byte	.LASF76
 4473 04c2 08       		.byte	0x8
 4474 04c3 6702     		.2byte	0x267
 4475 04c5 A9060000 		.4byte	0x6a9
 4476 04c9 04       		.byte	0x4
 4477 04ca 19       		.uleb128 0x19
 4478 04cb 89010000 		.4byte	.LASF77
 4479 04cf 08       		.byte	0x8
 4480 04d0 6702     		.2byte	0x267
 4481 04d2 A9060000 		.4byte	0x6a9
 4482 04d6 08       		.byte	0x8
 4483 04d7 19       		.uleb128 0x19
 4484 04d8 1C0E0000 		.4byte	.LASF78
 4485 04dc 08       		.byte	0x8
 4486 04dd 6702     		.2byte	0x267
 4487 04df A9060000 		.4byte	0x6a9
 4488 04e3 0C       		.byte	0xc
 4489 04e4 19       		.uleb128 0x19
 4490 04e5 93040000 		.4byte	.LASF79
 4491 04e9 08       		.byte	0x8
 4492 04ea 6902     		.2byte	0x269
 4493 04ec 80000000 		.4byte	0x80
 4494 04f0 10       		.byte	0x10
 4495 04f1 19       		.uleb128 0x19
 4496 04f2 58030000 		.4byte	.LASF80
 4497 04f6 08       		.byte	0x8
 4498 04f7 6A02     		.2byte	0x26a
 4499 04f9 8B080000 		.4byte	0x88b
ARM GAS  /tmp/ccYjC7Ok.s 			page 80


 4500 04fd 14       		.byte	0x14
 4501 04fe 19       		.uleb128 0x19
 4502 04ff B10D0000 		.4byte	.LASF81
 4503 0503 08       		.byte	0x8
 4504 0504 6D02     		.2byte	0x26d
 4505 0506 80000000 		.4byte	0x80
 4506 050a 30       		.byte	0x30
 4507 050b 19       		.uleb128 0x19
 4508 050c DD0C0000 		.4byte	.LASF82
 4509 0510 08       		.byte	0x8
 4510 0511 6E02     		.2byte	0x26e
 4511 0513 A0080000 		.4byte	0x8a0
 4512 0517 34       		.byte	0x34
 4513 0518 19       		.uleb128 0x19
 4514 0519 B6060000 		.4byte	.LASF83
 4515 051d 08       		.byte	0x8
 4516 051e 7002     		.2byte	0x270
 4517 0520 80000000 		.4byte	0x80
 4518 0524 38       		.byte	0x38
 4519 0525 19       		.uleb128 0x19
 4520 0526 D0070000 		.4byte	.LASF84
 4521 052a 08       		.byte	0x8
 4522 052b 7202     		.2byte	0x272
 4523 052d B1080000 		.4byte	0x8b1
 4524 0531 3C       		.byte	0x3c
 4525 0532 19       		.uleb128 0x19
 4526 0533 E2010000 		.4byte	.LASF85
 4527 0537 08       		.byte	0x8
 4528 0538 7502     		.2byte	0x275
 4529 053a EA010000 		.4byte	0x1ea
 4530 053e 40       		.byte	0x40
 4531 053f 19       		.uleb128 0x19
 4532 0540 CC020000 		.4byte	.LASF86
 4533 0544 08       		.byte	0x8
 4534 0545 7602     		.2byte	0x276
 4535 0547 80000000 		.4byte	0x80
 4536 054b 44       		.byte	0x44
 4537 054c 19       		.uleb128 0x19
 4538 054d 56050000 		.4byte	.LASF87
 4539 0551 08       		.byte	0x8
 4540 0552 7702     		.2byte	0x277
 4541 0554 EA010000 		.4byte	0x1ea
 4542 0558 48       		.byte	0x48
 4543 0559 19       		.uleb128 0x19
 4544 055a 27070000 		.4byte	.LASF88
 4545 055e 08       		.byte	0x8
 4546 055f 7802     		.2byte	0x278
 4547 0561 B7080000 		.4byte	0x8b7
 4548 0565 4C       		.byte	0x4c
 4549 0566 19       		.uleb128 0x19
 4550 0567 790A0000 		.4byte	.LASF89
 4551 056b 08       		.byte	0x8
 4552 056c 7B02     		.2byte	0x27b
 4553 056e 80000000 		.4byte	0x80
 4554 0572 50       		.byte	0x50
 4555 0573 19       		.uleb128 0x19
 4556 0574 B30B0000 		.4byte	.LASF90
ARM GAS  /tmp/ccYjC7Ok.s 			page 81


 4557 0578 08       		.byte	0x8
 4558 0579 7C02     		.2byte	0x27c
 4559 057b 7A010000 		.4byte	0x17a
 4560 057f 54       		.byte	0x54
 4561 0580 19       		.uleb128 0x19
 4562 0581 740A0000 		.4byte	.LASF91
 4563 0585 08       		.byte	0x8
 4564 0586 9F02     		.2byte	0x29f
 4565 0588 69080000 		.4byte	0x869
 4566 058c 58       		.byte	0x58
 4567 058d 1A       		.uleb128 0x1a
 4568 058e F6080000 		.4byte	.LASF51
 4569 0592 08       		.byte	0x8
 4570 0593 A302     		.2byte	0x2a3
 4571 0595 07030000 		.4byte	0x307
 4572 0599 4801     		.2byte	0x148
 4573 059b 1A       		.uleb128 0x1a
 4574 059c E5050000 		.4byte	.LASF92
 4575 05a0 08       		.byte	0x8
 4576 05a1 A402     		.2byte	0x2a4
 4577 05a3 C9020000 		.4byte	0x2c9
 4578 05a7 4C01     		.2byte	0x14c
 4579 05a9 1A       		.uleb128 0x1a
 4580 05aa CC050000 		.4byte	.LASF93
 4581 05ae 08       		.byte	0x8
 4582 05af A802     		.2byte	0x2a8
 4583 05b1 C8080000 		.4byte	0x8c8
 4584 05b5 DC02     		.2byte	0x2dc
 4585 05b7 1A       		.uleb128 0x1a
 4586 05b8 9E0C0000 		.4byte	.LASF94
 4587 05bc 08       		.byte	0x8
 4588 05bd AD02     		.2byte	0x2ad
 4589 05bf 6E060000 		.4byte	0x66e
 4590 05c3 E002     		.2byte	0x2e0
 4591 05c5 1A       		.uleb128 0x1a
 4592 05c6 BE090000 		.4byte	.LASF95
 4593 05ca 08       		.byte	0x8
 4594 05cb AF02     		.2byte	0x2af
 4595 05cd D4080000 		.4byte	0x8d4
 4596 05d1 EC02     		.2byte	0x2ec
 4597 05d3 00       		.byte	0
 4598 05d4 07       		.uleb128 0x7
 4599 05d5 04       		.byte	0x4
 4600 05d6 79040000 		.4byte	0x479
 4601 05da 16       		.uleb128 0x16
 4602 05db 80000000 		.4byte	0x80
 4603 05df F8050000 		.4byte	0x5f8
 4604 05e3 17       		.uleb128 0x17
 4605 05e4 97040000 		.4byte	0x497
 4606 05e8 17       		.uleb128 0x17
 4607 05e9 25000000 		.4byte	0x25
 4608 05ed 17       		.uleb128 0x17
 4609 05ee F8050000 		.4byte	0x5f8
 4610 05f2 17       		.uleb128 0x17
 4611 05f3 80000000 		.4byte	0x80
 4612 05f7 00       		.byte	0
 4613 05f8 07       		.uleb128 0x7
ARM GAS  /tmp/ccYjC7Ok.s 			page 82


 4614 05f9 04       		.byte	0x4
 4615 05fa 87010000 		.4byte	0x187
 4616 05fe 07       		.uleb128 0x7
 4617 05ff 04       		.byte	0x4
 4618 0600 DA050000 		.4byte	0x5da
 4619 0604 16       		.uleb128 0x16
 4620 0605 FD000000 		.4byte	0xfd
 4621 0609 22060000 		.4byte	0x622
 4622 060d 17       		.uleb128 0x17
 4623 060e 97040000 		.4byte	0x497
 4624 0612 17       		.uleb128 0x17
 4625 0613 25000000 		.4byte	0x25
 4626 0617 17       		.uleb128 0x17
 4627 0618 FD000000 		.4byte	0xfd
 4628 061c 17       		.uleb128 0x17
 4629 061d 80000000 		.4byte	0x80
 4630 0621 00       		.byte	0
 4631 0622 07       		.uleb128 0x7
 4632 0623 04       		.byte	0x4
 4633 0624 04060000 		.4byte	0x604
 4634 0628 16       		.uleb128 0x16
 4635 0629 80000000 		.4byte	0x80
 4636 062d 3C060000 		.4byte	0x63c
 4637 0631 17       		.uleb128 0x17
 4638 0632 97040000 		.4byte	0x497
 4639 0636 17       		.uleb128 0x17
 4640 0637 25000000 		.4byte	0x25
 4641 063b 00       		.byte	0
 4642 063c 07       		.uleb128 0x7
 4643 063d 04       		.byte	0x4
 4644 063e 28060000 		.4byte	0x628
 4645 0642 0C       		.uleb128 0xc
 4646 0643 39000000 		.4byte	0x39
 4647 0647 52060000 		.4byte	0x652
 4648 064b 0D       		.uleb128 0xd
 4649 064c 92000000 		.4byte	0x92
 4650 0650 02       		.byte	0x2
 4651 0651 00       		.byte	0
 4652 0652 0C       		.uleb128 0xc
 4653 0653 39000000 		.4byte	0x39
 4654 0657 62060000 		.4byte	0x662
 4655 065b 0D       		.uleb128 0xd
 4656 065c 92000000 		.4byte	0x92
 4657 0660 00       		.byte	0
 4658 0661 00       		.byte	0
 4659 0662 09       		.uleb128 0x9
 4660 0663 34030000 		.4byte	.LASF96
 4661 0667 08       		.byte	0x8
 4662 0668 1F01     		.2byte	0x11f
 4663 066a 4F030000 		.4byte	0x34f
 4664 066e 1B       		.uleb128 0x1b
 4665 066f 8A0C0000 		.4byte	.LASF97
 4666 0673 0C       		.byte	0xc
 4667 0674 08       		.byte	0x8
 4668 0675 2301     		.2byte	0x123
 4669 0677 A3060000 		.4byte	0x6a3
 4670 067b 19       		.uleb128 0x19
ARM GAS  /tmp/ccYjC7Ok.s 			page 83


 4671 067c E3040000 		.4byte	.LASF31
 4672 0680 08       		.byte	0x8
 4673 0681 2501     		.2byte	0x125
 4674 0683 A3060000 		.4byte	0x6a3
 4675 0687 00       		.byte	0
 4676 0688 19       		.uleb128 0x19
 4677 0689 4B0B0000 		.4byte	.LASF98
 4678 068d 08       		.byte	0x8
 4679 068e 2601     		.2byte	0x126
 4680 0690 80000000 		.4byte	0x80
 4681 0694 04       		.byte	0x4
 4682 0695 19       		.uleb128 0x19
 4683 0696 7F060000 		.4byte	.LASF99
 4684 069a 08       		.byte	0x8
 4685 069b 2701     		.2byte	0x127
 4686 069d A9060000 		.4byte	0x6a9
 4687 06a1 08       		.byte	0x8
 4688 06a2 00       		.byte	0
 4689 06a3 07       		.uleb128 0x7
 4690 06a4 04       		.byte	0x4
 4691 06a5 6E060000 		.4byte	0x66e
 4692 06a9 07       		.uleb128 0x7
 4693 06aa 04       		.byte	0x4
 4694 06ab 62060000 		.4byte	0x662
 4695 06af 1B       		.uleb128 0x1b
 4696 06b0 C4020000 		.4byte	.LASF100
 4697 06b4 0E       		.byte	0xe
 4698 06b5 08       		.byte	0x8
 4699 06b6 3F01     		.2byte	0x13f
 4700 06b8 E4060000 		.4byte	0x6e4
 4701 06bc 19       		.uleb128 0x19
 4702 06bd FA0D0000 		.4byte	.LASF101
 4703 06c1 08       		.byte	0x8
 4704 06c2 4001     		.2byte	0x140
 4705 06c4 E4060000 		.4byte	0x6e4
 4706 06c8 00       		.byte	0
 4707 06c9 19       		.uleb128 0x19
 4708 06ca 31070000 		.4byte	.LASF102
 4709 06ce 08       		.byte	0x8
 4710 06cf 4101     		.2byte	0x141
 4711 06d1 E4060000 		.4byte	0x6e4
 4712 06d5 06       		.byte	0x6
 4713 06d6 19       		.uleb128 0x19
 4714 06d7 290C0000 		.4byte	.LASF103
 4715 06db 08       		.byte	0x8
 4716 06dc 4201     		.2byte	0x142
 4717 06de 52000000 		.4byte	0x52
 4718 06e2 0C       		.byte	0xc
 4719 06e3 00       		.byte	0
 4720 06e4 0C       		.uleb128 0xc
 4721 06e5 52000000 		.4byte	0x52
 4722 06e9 F4060000 		.4byte	0x6f4
 4723 06ed 0D       		.uleb128 0xd
 4724 06ee 92000000 		.4byte	0x92
 4725 06f2 02       		.byte	0x2
 4726 06f3 00       		.byte	0
 4727 06f4 1C       		.uleb128 0x1c
ARM GAS  /tmp/ccYjC7Ok.s 			page 84


 4728 06f5 D0       		.byte	0xd0
 4729 06f6 08       		.byte	0x8
 4730 06f7 8002     		.2byte	0x280
 4731 06f9 F5070000 		.4byte	0x7f5
 4732 06fd 19       		.uleb128 0x19
 4733 06fe 9C0D0000 		.4byte	.LASF104
 4734 0702 08       		.byte	0x8
 4735 0703 8202     		.2byte	0x282
 4736 0705 92000000 		.4byte	0x92
 4737 0709 00       		.byte	0
 4738 070a 19       		.uleb128 0x19
 4739 070b B40C0000 		.4byte	.LASF105
 4740 070f 08       		.byte	0x8
 4741 0710 8302     		.2byte	0x283
 4742 0712 7A010000 		.4byte	0x17a
 4743 0716 04       		.byte	0x4
 4744 0717 19       		.uleb128 0x19
 4745 0718 ED020000 		.4byte	.LASF106
 4746 071c 08       		.byte	0x8
 4747 071d 8402     		.2byte	0x284
 4748 071f F5070000 		.4byte	0x7f5
 4749 0723 08       		.byte	0x8
 4750 0724 19       		.uleb128 0x19
 4751 0725 530A0000 		.4byte	.LASF107
 4752 0729 08       		.byte	0x8
 4753 072a 8502     		.2byte	0x285
 4754 072c 00020000 		.4byte	0x200
 4755 0730 24       		.byte	0x24
 4756 0731 19       		.uleb128 0x19
 4757 0732 F4060000 		.4byte	.LASF108
 4758 0736 08       		.byte	0x8
 4759 0737 8602     		.2byte	0x286
 4760 0739 80000000 		.4byte	0x80
 4761 073d 48       		.byte	0x48
 4762 073e 19       		.uleb128 0x19
 4763 073f 000E0000 		.4byte	.LASF109
 4764 0743 08       		.byte	0x8
 4765 0744 8702     		.2byte	0x287
 4766 0746 79000000 		.4byte	0x79
 4767 074a 50       		.byte	0x50
 4768 074b 19       		.uleb128 0x19
 4769 074c 65000000 		.4byte	.LASF110
 4770 0750 08       		.byte	0x8
 4771 0751 8802     		.2byte	0x288
 4772 0753 AF060000 		.4byte	0x6af
 4773 0757 58       		.byte	0x58
 4774 0758 19       		.uleb128 0x19
 4775 0759 8E050000 		.4byte	.LASF111
 4776 075d 08       		.byte	0x8
 4777 075e 8902     		.2byte	0x289
 4778 0760 64010000 		.4byte	0x164
 4779 0764 68       		.byte	0x68
 4780 0765 19       		.uleb128 0x19
 4781 0766 C10C0000 		.4byte	.LASF112
 4782 076a 08       		.byte	0x8
 4783 076b 8A02     		.2byte	0x28a
 4784 076d 64010000 		.4byte	0x164
ARM GAS  /tmp/ccYjC7Ok.s 			page 85


 4785 0771 70       		.byte	0x70
 4786 0772 19       		.uleb128 0x19
 4787 0773 38000000 		.4byte	.LASF113
 4788 0777 08       		.byte	0x8
 4789 0778 8B02     		.2byte	0x28b
 4790 077a 64010000 		.4byte	0x164
 4791 077e 78       		.byte	0x78
 4792 077f 19       		.uleb128 0x19
 4793 0780 890A0000 		.4byte	.LASF114
 4794 0784 08       		.byte	0x8
 4795 0785 8C02     		.2byte	0x28c
 4796 0787 05080000 		.4byte	0x805
 4797 078b 80       		.byte	0x80
 4798 078c 19       		.uleb128 0x19
 4799 078d 6A000000 		.4byte	.LASF115
 4800 0791 08       		.byte	0x8
 4801 0792 8D02     		.2byte	0x28d
 4802 0794 15080000 		.4byte	0x815
 4803 0798 88       		.byte	0x88
 4804 0799 19       		.uleb128 0x19
 4805 079a 0C0C0000 		.4byte	.LASF116
 4806 079e 08       		.byte	0x8
 4807 079f 8E02     		.2byte	0x28e
 4808 07a1 80000000 		.4byte	0x80
 4809 07a5 A0       		.byte	0xa0
 4810 07a6 19       		.uleb128 0x19
 4811 07a7 4E010000 		.4byte	.LASF117
 4812 07ab 08       		.byte	0x8
 4813 07ac 8F02     		.2byte	0x28f
 4814 07ae 64010000 		.4byte	0x164
 4815 07b2 A4       		.byte	0xa4
 4816 07b3 19       		.uleb128 0x19
 4817 07b4 D6050000 		.4byte	.LASF118
 4818 07b8 08       		.byte	0x8
 4819 07b9 9002     		.2byte	0x290
 4820 07bb 64010000 		.4byte	0x164
 4821 07bf AC       		.byte	0xac
 4822 07c0 19       		.uleb128 0x19
 4823 07c1 F9040000 		.4byte	.LASF119
 4824 07c5 08       		.byte	0x8
 4825 07c6 9102     		.2byte	0x291
 4826 07c8 64010000 		.4byte	0x164
 4827 07cc B4       		.byte	0xb4
 4828 07cd 19       		.uleb128 0x19
 4829 07ce 56070000 		.4byte	.LASF120
 4830 07d2 08       		.byte	0x8
 4831 07d3 9202     		.2byte	0x292
 4832 07d5 64010000 		.4byte	0x164
 4833 07d9 BC       		.byte	0xbc
 4834 07da 19       		.uleb128 0x19
 4835 07db 7D050000 		.4byte	.LASF121
 4836 07df 08       		.byte	0x8
 4837 07e0 9302     		.2byte	0x293
 4838 07e2 64010000 		.4byte	0x164
 4839 07e6 C4       		.byte	0xc4
 4840 07e7 19       		.uleb128 0x19
 4841 07e8 43080000 		.4byte	.LASF122
ARM GAS  /tmp/ccYjC7Ok.s 			page 86


 4842 07ec 08       		.byte	0x8
 4843 07ed 9402     		.2byte	0x294
 4844 07ef 80000000 		.4byte	0x80
 4845 07f3 CC       		.byte	0xcc
 4846 07f4 00       		.byte	0
 4847 07f5 0C       		.uleb128 0xc
 4848 07f6 80010000 		.4byte	0x180
 4849 07fa 05080000 		.4byte	0x805
 4850 07fe 0D       		.uleb128 0xd
 4851 07ff 92000000 		.4byte	0x92
 4852 0803 19       		.byte	0x19
 4853 0804 00       		.byte	0
 4854 0805 0C       		.uleb128 0xc
 4855 0806 80010000 		.4byte	0x180
 4856 080a 15080000 		.4byte	0x815
 4857 080e 0D       		.uleb128 0xd
 4858 080f 92000000 		.4byte	0x92
 4859 0813 07       		.byte	0x7
 4860 0814 00       		.byte	0
 4861 0815 0C       		.uleb128 0xc
 4862 0816 80010000 		.4byte	0x180
 4863 081a 25080000 		.4byte	0x825
 4864 081e 0D       		.uleb128 0xd
 4865 081f 92000000 		.4byte	0x92
 4866 0823 17       		.byte	0x17
 4867 0824 00       		.byte	0
 4868 0825 1C       		.uleb128 0x1c
 4869 0826 F0       		.byte	0xf0
 4870 0827 08       		.byte	0x8
 4871 0828 9902     		.2byte	0x299
 4872 082a 49080000 		.4byte	0x849
 4873 082e 19       		.uleb128 0x19
 4874 082f 93020000 		.4byte	.LASF123
 4875 0833 08       		.byte	0x8
 4876 0834 9C02     		.2byte	0x29c
 4877 0836 49080000 		.4byte	0x849
 4878 083a 00       		.byte	0
 4879 083b 19       		.uleb128 0x19
 4880 083c 240E0000 		.4byte	.LASF124
 4881 0840 08       		.byte	0x8
 4882 0841 9D02     		.2byte	0x29d
 4883 0843 59080000 		.4byte	0x859
 4884 0847 78       		.byte	0x78
 4885 0848 00       		.byte	0
 4886 0849 0C       		.uleb128 0xc
 4887 084a 49030000 		.4byte	0x349
 4888 084e 59080000 		.4byte	0x859
 4889 0852 0D       		.uleb128 0xd
 4890 0853 92000000 		.4byte	0x92
 4891 0857 1D       		.byte	0x1d
 4892 0858 00       		.byte	0
 4893 0859 0C       		.uleb128 0xc
 4894 085a 92000000 		.4byte	0x92
 4895 085e 69080000 		.4byte	0x869
 4896 0862 0D       		.uleb128 0xd
 4897 0863 92000000 		.4byte	0x92
 4898 0867 1D       		.byte	0x1d
ARM GAS  /tmp/ccYjC7Ok.s 			page 87


 4899 0868 00       		.byte	0
 4900 0869 1D       		.uleb128 0x1d
 4901 086a F0       		.byte	0xf0
 4902 086b 08       		.byte	0x8
 4903 086c 7E02     		.2byte	0x27e
 4904 086e 8B080000 		.4byte	0x88b
 4905 0872 1E       		.uleb128 0x1e
 4906 0873 000D0000 		.4byte	.LASF74
 4907 0877 08       		.byte	0x8
 4908 0878 9502     		.2byte	0x295
 4909 087a F4060000 		.4byte	0x6f4
 4910 087e 1E       		.uleb128 0x1e
 4911 087f 620A0000 		.4byte	.LASF125
 4912 0883 08       		.byte	0x8
 4913 0884 9E02     		.2byte	0x29e
 4914 0886 25080000 		.4byte	0x825
 4915 088a 00       		.byte	0
 4916 088b 0C       		.uleb128 0xc
 4917 088c 80010000 		.4byte	0x180
 4918 0890 9B080000 		.4byte	0x89b
 4919 0894 0D       		.uleb128 0xd
 4920 0895 92000000 		.4byte	0x92
 4921 0899 18       		.byte	0x18
 4922 089a 00       		.byte	0
 4923 089b 08       		.uleb128 0x8
 4924 089c 0B0E0000 		.4byte	.LASF127
 4925 08a0 07       		.uleb128 0x7
 4926 08a1 04       		.byte	0x4
 4927 08a2 9B080000 		.4byte	0x89b
 4928 08a6 1F       		.uleb128 0x1f
 4929 08a7 B1080000 		.4byte	0x8b1
 4930 08ab 17       		.uleb128 0x17
 4931 08ac 97040000 		.4byte	0x497
 4932 08b0 00       		.byte	0
 4933 08b1 07       		.uleb128 0x7
 4934 08b2 04       		.byte	0x4
 4935 08b3 A6080000 		.4byte	0x8a6
 4936 08b7 07       		.uleb128 0x7
 4937 08b8 04       		.byte	0x4
 4938 08b9 EA010000 		.4byte	0x1ea
 4939 08bd 1F       		.uleb128 0x1f
 4940 08be C8080000 		.4byte	0x8c8
 4941 08c2 17       		.uleb128 0x17
 4942 08c3 80000000 		.4byte	0x80
 4943 08c7 00       		.byte	0
 4944 08c8 07       		.uleb128 0x7
 4945 08c9 04       		.byte	0x4
 4946 08ca CE080000 		.4byte	0x8ce
 4947 08ce 07       		.uleb128 0x7
 4948 08cf 04       		.byte	0x4
 4949 08d0 BD080000 		.4byte	0x8bd
 4950 08d4 0C       		.uleb128 0xc
 4951 08d5 62060000 		.4byte	0x662
 4952 08d9 E4080000 		.4byte	0x8e4
 4953 08dd 0D       		.uleb128 0xd
 4954 08de 92000000 		.4byte	0x92
 4955 08e2 02       		.byte	0x2
ARM GAS  /tmp/ccYjC7Ok.s 			page 88


 4956 08e3 00       		.byte	0
 4957 08e4 20       		.uleb128 0x20
 4958 08e5 79020000 		.4byte	.LASF128
 4959 08e9 08       		.byte	0x8
 4960 08ea 2E03     		.2byte	0x32e
 4961 08ec 97040000 		.4byte	0x497
 4962 08f0 20       		.uleb128 0x20
 4963 08f1 ED090000 		.4byte	.LASF129
 4964 08f5 08       		.byte	0x8
 4965 08f6 2F03     		.2byte	0x32f
 4966 08f8 9D040000 		.4byte	0x49d
 4967 08fc 21       		.uleb128 0x21
 4968 08fd 7F040000 		.4byte	.LASF130
 4969 0901 09       		.byte	0x9
 4970 0902 63       		.byte	0x63
 4971 0903 7A010000 		.4byte	0x17a
 4972 0907 11       		.uleb128 0x11
 4973 0908 D70B0000 		.4byte	.LASF131
 4974 090c 08       		.byte	0x8
 4975 090d 0A       		.byte	0xa
 4976 090e 1D       		.byte	0x1d
 4977 090f 2C090000 		.4byte	0x92c
 4978 0913 0F       		.uleb128 0xf
 4979 0914 98000000 		.4byte	.LASF132
 4980 0918 0A       		.byte	0xa
 4981 0919 1E       		.byte	0x1e
 4982 091a 85090000 		.4byte	0x985
 4983 091e 00       		.byte	0
 4984 091f 0F       		.uleb128 0xf
 4985 0920 64010000 		.4byte	.LASF133
 4986 0924 0A       		.byte	0xa
 4987 0925 1E       		.byte	0x1e
 4988 0926 85090000 		.4byte	0x985
 4989 092a 04       		.byte	0x4
 4990 092b 00       		.byte	0
 4991 092c 11       		.uleb128 0x11
 4992 092d F3070000 		.4byte	.LASF134
 4993 0931 14       		.byte	0x14
 4994 0932 01       		.byte	0x1
 4995 0933 7F       		.byte	0x7f
 4996 0934 85090000 		.4byte	0x985
 4997 0938 0F       		.uleb128 0xf
 4998 0939 98000000 		.4byte	.LASF132
 4999 093d 01       		.byte	0x1
 5000 093e 80       		.byte	0x80
 5001 093f 85090000 		.4byte	0x985
 5002 0943 00       		.byte	0
 5003 0944 0F       		.uleb128 0xf
 5004 0945 64010000 		.4byte	.LASF133
 5005 0949 01       		.byte	0x1
 5006 094a 80       		.byte	0x80
 5007 094b 85090000 		.4byte	0x985
 5008 094f 04       		.byte	0x4
 5009 0950 22       		.uleb128 0x22
 5010 0951 57000000 		.4byte	.LASF135
 5011 0955 01       		.byte	0x1
 5012 0956 84       		.byte	0x84
ARM GAS  /tmp/ccYjC7Ok.s 			page 89


 5013 0957 AF000000 		.4byte	0xaf
 5014 095b 04       		.byte	0x4
 5015 095c 01       		.byte	0x1
 5016 095d 10       		.byte	0x10
 5017 095e 08       		.byte	0x8
 5018 095f 22       		.uleb128 0x22
 5019 0960 69050000 		.4byte	.LASF136
 5020 0964 01       		.byte	0x1
 5021 0965 86       		.byte	0x86
 5022 0966 AF000000 		.4byte	0xaf
 5023 096a 04       		.byte	0x4
 5024 096b 08       		.byte	0x8
 5025 096c 00       		.byte	0
 5026 096d 08       		.byte	0x8
 5027 096e 0F       		.uleb128 0xf
 5028 096f 51090000 		.4byte	.LASF137
 5029 0973 01       		.byte	0x1
 5030 0974 87       		.byte	0x87
 5031 0975 6F0D0000 		.4byte	0xd6f
 5032 0979 0C       		.byte	0xc
 5033 097a 12       		.uleb128 0x12
 5034 097b 7600     		.ascii	"v\000"
 5035 097d 01       		.byte	0x1
 5036 097e 88       		.byte	0x88
 5037 097f BF000000 		.4byte	0xbf
 5038 0983 10       		.byte	0x10
 5039 0984 00       		.byte	0
 5040 0985 07       		.uleb128 0x7
 5041 0986 04       		.byte	0x4
 5042 0987 2C090000 		.4byte	0x92c
 5043 098b 04       		.uleb128 0x4
 5044 098c 7C090000 		.4byte	.LASF138
 5045 0990 0A       		.byte	0xa
 5046 0991 21       		.byte	0x21
 5047 0992 BF000000 		.4byte	0xbf
 5048 0996 04       		.uleb128 0x4
 5049 0997 18090000 		.4byte	.LASF139
 5050 099b 0A       		.byte	0xa
 5051 099c 22       		.byte	0x22
 5052 099d 99000000 		.4byte	0x99
 5053 09a1 21       		.uleb128 0x21
 5054 09a2 D3090000 		.4byte	.LASF140
 5055 09a6 0A       		.byte	0xa
 5056 09a7 24       		.byte	0x24
 5057 09a8 8B090000 		.4byte	0x98b
 5058 09ac 23       		.uleb128 0x23
 5059 09ad 51080000 		.4byte	.LASF311
 5060 09b1 00       		.byte	0
 5061 09b2 0A       		.byte	0xa
 5062 09b3 34       		.byte	0x34
 5063 09b4 11       		.uleb128 0x11
 5064 09b5 0C080000 		.4byte	.LASF141
 5065 09b9 10       		.byte	0x10
 5066 09ba 0A       		.byte	0xa
 5067 09bb 38       		.byte	0x38
 5068 09bc EF090000 		.4byte	0x9ef
 5069 09c0 12       		.uleb128 0x12
ARM GAS  /tmp/ccYjC7Ok.s 			page 90


 5070 09c1 7100     		.ascii	"q\000"
 5071 09c3 0A       		.byte	0xa
 5072 09c4 39       		.byte	0x39
 5073 09c5 07090000 		.4byte	0x907
 5074 09c9 00       		.byte	0
 5075 09ca 0F       		.uleb128 0xf
 5076 09cb 22070000 		.4byte	.LASF142
 5077 09cf 0A       		.byte	0xa
 5078 09d0 3A       		.byte	0x3a
 5079 09d1 AC090000 		.4byte	0x9ac
 5080 09d5 08       		.byte	0x8
 5081 09d6 0F       		.uleb128 0xf
 5082 09d7 52030000 		.4byte	.LASF143
 5083 09db 0A       		.byte	0xa
 5084 09dc 3B       		.byte	0x3b
 5085 09dd D40A0000 		.4byte	0xad4
 5086 09e1 08       		.byte	0x8
 5087 09e2 0F       		.uleb128 0xf
 5088 09e3 3F0B0000 		.4byte	.LASF144
 5089 09e7 0A       		.byte	0xa
 5090 09e8 3C       		.byte	0x3c
 5091 09e9 DA0A0000 		.4byte	0xada
 5092 09ed 0C       		.byte	0xc
 5093 09ee 00       		.byte	0
 5094 09ef 11       		.uleb128 0x11
 5095 09f0 B2050000 		.4byte	.LASF145
 5096 09f4 40       		.byte	0x40
 5097 09f5 01       		.byte	0x1
 5098 09f6 9B       		.byte	0x9b
 5099 09f7 D40A0000 		.4byte	0xad4
 5100 09fb 0F       		.uleb128 0xf
 5101 09fc 98000000 		.4byte	.LASF132
 5102 0a00 01       		.byte	0x1
 5103 0a01 9C       		.byte	0x9c
 5104 0a02 85090000 		.4byte	0x985
 5105 0a06 00       		.byte	0
 5106 0a07 0F       		.uleb128 0xf
 5107 0a08 64010000 		.4byte	.LASF133
 5108 0a0c 01       		.byte	0x1
 5109 0a0d 9C       		.byte	0x9c
 5110 0a0e 85090000 		.4byte	0x985
 5111 0a12 04       		.byte	0x4
 5112 0a13 22       		.uleb128 0x22
 5113 0a14 930A0000 		.4byte	.LASF146
 5114 0a18 01       		.byte	0x1
 5115 0a19 9D       		.byte	0x9d
 5116 0a1a AF000000 		.4byte	0xaf
 5117 0a1e 04       		.byte	0x4
 5118 0a1f 04       		.byte	0x4
 5119 0a20 1C       		.byte	0x1c
 5120 0a21 08       		.byte	0x8
 5121 0a22 22       		.uleb128 0x22
 5122 0a23 9F090000 		.4byte	.LASF147
 5123 0a27 01       		.byte	0x1
 5124 0a28 9E       		.byte	0x9e
 5125 0a29 AF000000 		.4byte	0xaf
 5126 0a2d 04       		.byte	0x4
ARM GAS  /tmp/ccYjC7Ok.s 			page 91


 5127 0a2e 01       		.byte	0x1
 5128 0a2f 1B       		.byte	0x1b
 5129 0a30 08       		.byte	0x8
 5130 0a31 22       		.uleb128 0x22
 5131 0a32 8F090000 		.4byte	.LASF148
 5132 0a36 01       		.byte	0x1
 5133 0a37 9F       		.byte	0x9f
 5134 0a38 AF000000 		.4byte	0xaf
 5135 0a3c 04       		.byte	0x4
 5136 0a3d 01       		.byte	0x1
 5137 0a3e 1A       		.byte	0x1a
 5138 0a3f 08       		.byte	0x8
 5139 0a40 22       		.uleb128 0x22
 5140 0a41 BB0B0000 		.4byte	.LASF149
 5141 0a45 01       		.byte	0x1
 5142 0a46 A0       		.byte	0xa0
 5143 0a47 AF000000 		.4byte	0xaf
 5144 0a4b 04       		.byte	0x4
 5145 0a4c 01       		.byte	0x1
 5146 0a4d 19       		.byte	0x19
 5147 0a4e 08       		.byte	0x8
 5148 0a4f 22       		.uleb128 0x22
 5149 0a50 85020000 		.4byte	.LASF150
 5150 0a54 01       		.byte	0x1
 5151 0a55 A1       		.byte	0xa1
 5152 0a56 AF000000 		.4byte	0xaf
 5153 0a5a 04       		.byte	0x4
 5154 0a5b 01       		.byte	0x1
 5155 0a5c 18       		.byte	0x18
 5156 0a5d 08       		.byte	0x8
 5157 0a5e 22       		.uleb128 0x22
 5158 0a5f 08090000 		.4byte	.LASF151
 5159 0a63 01       		.byte	0x1
 5160 0a64 A2       		.byte	0xa2
 5161 0a65 AF000000 		.4byte	0xaf
 5162 0a69 04       		.byte	0x4
 5163 0a6a 01       		.byte	0x1
 5164 0a6b 17       		.byte	0x17
 5165 0a6c 08       		.byte	0x8
 5166 0a6d 22       		.uleb128 0x22
 5167 0a6e 57000000 		.4byte	.LASF135
 5168 0a72 01       		.byte	0x1
 5169 0a73 A4       		.byte	0xa4
 5170 0a74 AF000000 		.4byte	0xaf
 5171 0a78 04       		.byte	0x4
 5172 0a79 01       		.byte	0x1
 5173 0a7a 10       		.byte	0x10
 5174 0a7b 08       		.byte	0x8
 5175 0a7c 22       		.uleb128 0x22
 5176 0a7d E0080000 		.4byte	.LASF152
 5177 0a81 01       		.byte	0x1
 5178 0a82 A5       		.byte	0xa5
 5179 0a83 AF000000 		.4byte	0xaf
 5180 0a87 04       		.byte	0x4
 5181 0a88 08       		.byte	0x8
 5182 0a89 08       		.byte	0x8
 5183 0a8a 08       		.byte	0x8
ARM GAS  /tmp/ccYjC7Ok.s 			page 92


 5184 0a8b 22       		.uleb128 0x22
 5185 0a8c 69050000 		.4byte	.LASF136
 5186 0a90 01       		.byte	0x1
 5187 0a91 A6       		.byte	0xa6
 5188 0a92 AF000000 		.4byte	0xaf
 5189 0a96 04       		.byte	0x4
 5190 0a97 08       		.byte	0x8
 5191 0a98 00       		.byte	0
 5192 0a99 08       		.byte	0x8
 5193 0a9a 0F       		.uleb128 0xf
 5194 0a9b 51090000 		.4byte	.LASF137
 5195 0a9f 01       		.byte	0x1
 5196 0aa0 A7       		.byte	0xa7
 5197 0aa1 6F0D0000 		.4byte	0xd6f
 5198 0aa5 0C       		.byte	0xc
 5199 0aa6 12       		.uleb128 0x12
 5200 0aa7 7600     		.ascii	"v\000"
 5201 0aa9 01       		.byte	0x1
 5202 0aaa A8       		.byte	0xa8
 5203 0aab BF000000 		.4byte	0xbf
 5204 0aaf 10       		.byte	0x10
 5205 0ab0 12       		.uleb128 0x12
 5206 0ab1 746300   		.ascii	"tc\000"
 5207 0ab4 01       		.byte	0x1
 5208 0ab5 A9       		.byte	0xa9
 5209 0ab6 EC0C0000 		.4byte	0xcec
 5210 0aba 14       		.byte	0x14
 5211 0abb 0F       		.uleb128 0xf
 5212 0abc 24020000 		.4byte	.LASF153
 5213 0ac0 01       		.byte	0x1
 5214 0ac1 AA       		.byte	0xaa
 5215 0ac2 DA0A0000 		.4byte	0xada
 5216 0ac6 38       		.byte	0x38
 5217 0ac7 12       		.uleb128 0x12
 5218 0ac8 636C7000 		.ascii	"clp\000"
 5219 0acc 01       		.byte	0x1
 5220 0acd AB       		.byte	0xab
 5221 0ace 6A0B0000 		.4byte	0xb6a
 5222 0ad2 3C       		.byte	0x3c
 5223 0ad3 00       		.byte	0
 5224 0ad4 07       		.uleb128 0x7
 5225 0ad5 04       		.byte	0x4
 5226 0ad6 EF090000 		.4byte	0x9ef
 5227 0ada 07       		.uleb128 0x7
 5228 0adb 04       		.byte	0x4
 5229 0adc B4090000 		.4byte	0x9b4
 5230 0ae0 04       		.uleb128 0x4
 5231 0ae1 BC040000 		.4byte	.LASF154
 5232 0ae5 0A       		.byte	0xa
 5233 0ae6 3D       		.byte	0x3d
 5234 0ae7 B4090000 		.4byte	0x9b4
 5235 0aeb 11       		.uleb128 0x11
 5236 0aec 70060000 		.4byte	.LASF155
 5237 0af0 08       		.byte	0x8
 5238 0af1 0A       		.byte	0xa
 5239 0af2 46       		.byte	0x46
 5240 0af3 0E0B0000 		.4byte	0xb0e
ARM GAS  /tmp/ccYjC7Ok.s 			page 93


 5241 0af7 12       		.uleb128 0x12
 5242 0af8 7100     		.ascii	"q\000"
 5243 0afa 0A       		.byte	0xa
 5244 0afb 47       		.byte	0x47
 5245 0afc 07090000 		.4byte	0x907
 5246 0b00 00       		.byte	0
 5247 0b01 0F       		.uleb128 0xf
 5248 0b02 22070000 		.4byte	.LASF142
 5249 0b06 0A       		.byte	0xa
 5250 0b07 48       		.byte	0x48
 5251 0b08 AC090000 		.4byte	0x9ac
 5252 0b0c 08       		.byte	0x8
 5253 0b0d 00       		.byte	0
 5254 0b0e 04       		.uleb128 0x4
 5255 0b0f D4040000 		.4byte	.LASF156
 5256 0b13 0A       		.byte	0xa
 5257 0b14 49       		.byte	0x49
 5258 0b15 EB0A0000 		.4byte	0xaeb
 5259 0b19 24       		.uleb128 0x24
 5260 0b1a 07       		.byte	0x7
 5261 0b1b 01       		.byte	0x1
 5262 0b1c 39000000 		.4byte	0x39
 5263 0b20 0A       		.byte	0xa
 5264 0b21 5C       		.byte	0x5c
 5265 0b22 390B0000 		.4byte	0xb39
 5266 0b26 25       		.uleb128 0x25
 5267 0b27 37020000 		.4byte	.LASF157
 5268 0b2b 00       		.byte	0
 5269 0b2c 25       		.uleb128 0x25
 5270 0b2d 91010000 		.4byte	.LASF158
 5271 0b31 01       		.byte	0x1
 5272 0b32 25       		.uleb128 0x25
 5273 0b33 32080000 		.4byte	.LASF159
 5274 0b37 02       		.byte	0x2
 5275 0b38 00       		.byte	0
 5276 0b39 11       		.uleb128 0x11
 5277 0b3a 7D010000 		.4byte	.LASF160
 5278 0b3e 0C       		.byte	0xc
 5279 0b3f 0A       		.byte	0xa
 5280 0b40 6A       		.byte	0x6a
 5281 0b41 6A0B0000 		.4byte	0xb6a
 5282 0b45 0F       		.uleb128 0xf
 5283 0b46 98000000 		.4byte	.LASF132
 5284 0b4a 0A       		.byte	0xa
 5285 0b4b 6B       		.byte	0x6b
 5286 0b4c 6A0B0000 		.4byte	0xb6a
 5287 0b50 00       		.byte	0
 5288 0b51 0F       		.uleb128 0xf
 5289 0b52 CC040000 		.4byte	.LASF161
 5290 0b56 0A       		.byte	0xa
 5291 0b57 6C       		.byte	0x6c
 5292 0b58 7B0B0000 		.4byte	0xb7b
 5293 0b5c 04       		.byte	0x4
 5294 0b5d 12       		.uleb128 0x12
 5295 0b5e 61726700 		.ascii	"arg\000"
 5296 0b62 0A       		.byte	0xa
 5297 0b63 6D       		.byte	0x6d
ARM GAS  /tmp/ccYjC7Ok.s 			page 94


 5298 0b64 25000000 		.4byte	0x25
 5299 0b68 08       		.byte	0x8
 5300 0b69 00       		.byte	0
 5301 0b6a 07       		.uleb128 0x7
 5302 0b6b 04       		.byte	0x4
 5303 0b6c 390B0000 		.4byte	0xb39
 5304 0b70 1F       		.uleb128 0x1f
 5305 0b71 7B0B0000 		.4byte	0xb7b
 5306 0b75 17       		.uleb128 0x17
 5307 0b76 25000000 		.4byte	0x25
 5308 0b7a 00       		.byte	0
 5309 0b7b 07       		.uleb128 0x7
 5310 0b7c 04       		.byte	0x4
 5311 0b7d 700B0000 		.4byte	0xb70
 5312 0b81 24       		.uleb128 0x24
 5313 0b82 07       		.byte	0x7
 5314 0b83 01       		.byte	0x1
 5315 0b84 39000000 		.4byte	0x39
 5316 0b88 0A       		.byte	0xa
 5317 0b89 76       		.byte	0x76
 5318 0b8a A10B0000 		.4byte	0xba1
 5319 0b8e 25       		.uleb128 0x25
 5320 0b8f 780C0000 		.4byte	.LASF162
 5321 0b93 00       		.byte	0
 5322 0b94 25       		.uleb128 0x25
 5323 0b95 000A0000 		.4byte	.LASF163
 5324 0b99 01       		.byte	0x1
 5325 0b9a 25       		.uleb128 0x25
 5326 0b9b E80D0000 		.4byte	.LASF164
 5327 0b9f 02       		.byte	0x2
 5328 0ba0 00       		.byte	0
 5329 0ba1 11       		.uleb128 0x11
 5330 0ba2 CA0D0000 		.4byte	.LASF165
 5331 0ba6 04       		.byte	0x4
 5332 0ba7 0A       		.byte	0xa
 5333 0ba8 7C       		.byte	0x7c
 5334 0ba9 C60B0000 		.4byte	0xbc6
 5335 0bad 0F       		.uleb128 0xf
 5336 0bae 9C0B0000 		.4byte	.LASF166
 5337 0bb2 0A       		.byte	0xa
 5338 0bb3 7D       		.byte	0x7d
 5339 0bb4 A4000000 		.4byte	0xa4
 5340 0bb8 00       		.byte	0
 5341 0bb9 0F       		.uleb128 0xf
 5342 0bba A1070000 		.4byte	.LASF167
 5343 0bbe 0A       		.byte	0xa
 5344 0bbf 7E       		.byte	0x7e
 5345 0bc0 A4000000 		.4byte	0xa4
 5346 0bc4 02       		.byte	0x2
 5347 0bc5 00       		.byte	0
 5348 0bc6 11       		.uleb128 0x11
 5349 0bc7 CF0C0000 		.4byte	.LASF168
 5350 0bcb 14       		.byte	0x14
 5351 0bcc 0A       		.byte	0xa
 5352 0bcd 81       		.byte	0x81
 5353 0bce 1B0C0000 		.4byte	0xc1b
 5354 0bd2 0F       		.uleb128 0xf
ARM GAS  /tmp/ccYjC7Ok.s 			page 95


 5355 0bd3 9C0B0000 		.4byte	.LASF166
 5356 0bd7 0A       		.byte	0xa
 5357 0bd8 82       		.byte	0x82
 5358 0bd9 A4000000 		.4byte	0xa4
 5359 0bdd 00       		.byte	0
 5360 0bde 0F       		.uleb128 0xf
 5361 0bdf A1070000 		.4byte	.LASF167
 5362 0be3 0A       		.byte	0xa
 5363 0be4 83       		.byte	0x83
 5364 0be5 A4000000 		.4byte	0xa4
 5365 0be9 02       		.byte	0x2
 5366 0bea 0F       		.uleb128 0xf
 5367 0beb 1C000000 		.4byte	.LASF169
 5368 0bef 0A       		.byte	0xa
 5369 0bf0 85       		.byte	0x85
 5370 0bf1 1B0C0000 		.4byte	0xc1b
 5371 0bf5 04       		.byte	0x4
 5372 0bf6 0F       		.uleb128 0xf
 5373 0bf7 48020000 		.4byte	.LASF170
 5374 0bfb 0A       		.byte	0xa
 5375 0bfc 86       		.byte	0x86
 5376 0bfd 210C0000 		.4byte	0xc21
 5377 0c01 08       		.byte	0x8
 5378 0c02 0F       		.uleb128 0xf
 5379 0c03 F0000000 		.4byte	.LASF171
 5380 0c07 0A       		.byte	0xa
 5381 0c08 87       		.byte	0x87
 5382 0c09 360C0000 		.4byte	0xc36
 5383 0c0d 0C       		.byte	0xc
 5384 0c0e 12       		.uleb128 0x12
 5385 0c0f 61726700 		.ascii	"arg\000"
 5386 0c13 0A       		.byte	0xa
 5387 0c14 88       		.byte	0x88
 5388 0c15 25000000 		.4byte	0x25
 5389 0c19 10       		.byte	0x10
 5390 0c1a 00       		.byte	0
 5391 0c1b 07       		.uleb128 0x7
 5392 0c1c 04       		.byte	0x4
 5393 0c1d 0E0B0000 		.4byte	0xb0e
 5394 0c21 07       		.uleb128 0x7
 5395 0c22 04       		.byte	0x4
 5396 0c23 E00A0000 		.4byte	0xae0
 5397 0c27 16       		.uleb128 0x16
 5398 0c28 80000000 		.4byte	0x80
 5399 0c2c 360C0000 		.4byte	0xc36
 5400 0c30 17       		.uleb128 0x17
 5401 0c31 25000000 		.4byte	0x25
 5402 0c35 00       		.byte	0
 5403 0c36 07       		.uleb128 0x7
 5404 0c37 04       		.byte	0x4
 5405 0c38 270C0000 		.4byte	0xc27
 5406 0c3c 11       		.uleb128 0x11
 5407 0c3d 83080000 		.4byte	.LASF172
 5408 0c41 08       		.byte	0x8
 5409 0c42 0A       		.byte	0xa
 5410 0c43 8C       		.byte	0x8c
 5411 0c44 6D0C0000 		.4byte	0xc6d
ARM GAS  /tmp/ccYjC7Ok.s 			page 96


 5412 0c48 0F       		.uleb128 0xf
 5413 0c49 9C0B0000 		.4byte	.LASF166
 5414 0c4d 0A       		.byte	0xa
 5415 0c4e 8D       		.byte	0x8d
 5416 0c4f A4000000 		.4byte	0xa4
 5417 0c53 00       		.byte	0
 5418 0c54 0F       		.uleb128 0xf
 5419 0c55 A1070000 		.4byte	.LASF167
 5420 0c59 0A       		.byte	0xa
 5421 0c5a 8E       		.byte	0x8e
 5422 0c5b A4000000 		.4byte	0xa4
 5423 0c5f 02       		.byte	0x2
 5424 0c60 12       		.uleb128 0x12
 5425 0c61 74686400 		.ascii	"thd\000"
 5426 0c65 0A       		.byte	0xa
 5427 0c66 90       		.byte	0x90
 5428 0c67 8B090000 		.4byte	0x98b
 5429 0c6b 04       		.byte	0x4
 5430 0c6c 00       		.byte	0
 5431 0c6d 11       		.uleb128 0x11
 5432 0c6e 070D0000 		.4byte	.LASF173
 5433 0c72 06       		.byte	0x6
 5434 0c73 0A       		.byte	0xa
 5435 0c74 94       		.byte	0x94
 5436 0c75 9E0C0000 		.4byte	0xc9e
 5437 0c79 0F       		.uleb128 0xf
 5438 0c7a 9C0B0000 		.4byte	.LASF166
 5439 0c7e 0A       		.byte	0xa
 5440 0c7f 95       		.byte	0x95
 5441 0c80 A4000000 		.4byte	0xa4
 5442 0c84 00       		.byte	0
 5443 0c85 0F       		.uleb128 0xf
 5444 0c86 A1070000 		.4byte	.LASF167
 5445 0c8a 0A       		.byte	0xa
 5446 0c8b 96       		.byte	0x96
 5447 0c8c A4000000 		.4byte	0xa4
 5448 0c90 02       		.byte	0x2
 5449 0c91 0F       		.uleb128 0xf
 5450 0c92 5C010000 		.4byte	.LASF174
 5451 0c96 0A       		.byte	0xa
 5452 0c97 98       		.byte	0x98
 5453 0c98 99000000 		.4byte	0x99
 5454 0c9c 04       		.byte	0x4
 5455 0c9d 00       		.byte	0
 5456 0c9e 04       		.uleb128 0x4
 5457 0c9f 70040000 		.4byte	.LASF175
 5458 0ca3 0A       		.byte	0xa
 5459 0ca4 9A       		.byte	0x9a
 5460 0ca5 6D0C0000 		.4byte	0xc6d
 5461 0ca9 04       		.uleb128 0x4
 5462 0caa 65070000 		.4byte	.LASF176
 5463 0cae 01       		.byte	0x1
 5464 0caf 39       		.byte	0x39
 5465 0cb0 B40C0000 		.4byte	0xcb4
 5466 0cb4 16       		.uleb128 0x16
 5467 0cb5 25000000 		.4byte	0x25
 5468 0cb9 C30C0000 		.4byte	0xcc3
ARM GAS  /tmp/ccYjC7Ok.s 			page 97


 5469 0cbd 17       		.uleb128 0x17
 5470 0cbe 25000000 		.4byte	0x25
 5471 0cc2 00       		.byte	0
 5472 0cc3 11       		.uleb128 0x11
 5473 0cc4 CD080000 		.4byte	.LASF177
 5474 0cc8 24       		.byte	0x24
 5475 0cc9 0B       		.byte	0xb
 5476 0cca 08       		.byte	0x8
 5477 0ccb DC0C0000 		.4byte	0xcdc
 5478 0ccf 12       		.uleb128 0x12
 5479 0cd0 72656700 		.ascii	"reg\000"
 5480 0cd4 0B       		.byte	0xb
 5481 0cd5 09       		.byte	0x9
 5482 0cd6 DC0C0000 		.4byte	0xcdc
 5483 0cda 00       		.byte	0
 5484 0cdb 00       		.byte	0
 5485 0cdc 0C       		.uleb128 0xc
 5486 0cdd AF000000 		.4byte	0xaf
 5487 0ce1 EC0C0000 		.4byte	0xcec
 5488 0ce5 0D       		.uleb128 0xd
 5489 0ce6 92000000 		.4byte	0x92
 5490 0cea 08       		.byte	0x8
 5491 0ceb 00       		.byte	0
 5492 0cec 04       		.uleb128 0x4
 5493 0ced 0A050000 		.4byte	.LASF178
 5494 0cf1 0B       		.byte	0xb
 5495 0cf2 0C       		.byte	0xc
 5496 0cf3 C30C0000 		.4byte	0xcc3
 5497 0cf7 26       		.uleb128 0x26
 5498 0cf8 870D0000 		.4byte	.LASF179
 5499 0cfc 01       		.byte	0x1
 5500 0cfd 53       		.byte	0x53
 5501 0cfe D40A0000 		.4byte	0xad4
 5502 0d02 05       		.uleb128 0x5
 5503 0d03 03       		.byte	0x3
 5504 0d04 00000000 		.4byte	running
 5505 0d08 11       		.uleb128 0x11
 5506 0d09 C9090000 		.4byte	.LASF180
 5507 0d0d 08       		.byte	0x8
 5508 0d0e 01       		.byte	0x1
 5509 0d0f 55       		.byte	0x55
 5510 0d10 2B0D0000 		.4byte	0xd2b
 5511 0d14 12       		.uleb128 0x12
 5512 0d15 7100     		.ascii	"q\000"
 5513 0d17 01       		.byte	0x1
 5514 0d18 56       		.byte	0x56
 5515 0d19 07090000 		.4byte	0x907
 5516 0d1d 00       		.byte	0
 5517 0d1e 0F       		.uleb128 0xf
 5518 0d1f 22070000 		.4byte	.LASF142
 5519 0d23 01       		.byte	0x1
 5520 0d24 57       		.byte	0x57
 5521 0d25 AC090000 		.4byte	0x9ac
 5522 0d29 08       		.byte	0x8
 5523 0d2a 00       		.byte	0
 5524 0d2b 27       		.uleb128 0x27
 5525 0d2c 62090000 		.4byte	.LASF181
ARM GAS  /tmp/ccYjC7Ok.s 			page 98


 5526 0d30 01       		.byte	0x1
 5527 0d31 5B       		.byte	0x5b
 5528 0d32 080D0000 		.4byte	0xd08
 5529 0d36 05       		.uleb128 0x5
 5530 0d37 03       		.byte	0x3
 5531 0d38 00000000 		.4byte	q_ready
 5532 0d3c 27       		.uleb128 0x27
 5533 0d3d E8000000 		.4byte	.LASF182
 5534 0d41 01       		.byte	0x1
 5535 0d42 5E       		.byte	0x5e
 5536 0d43 080D0000 		.4byte	0xd08
 5537 0d47 05       		.uleb128 0x5
 5538 0d48 03       		.byte	0x3
 5539 0d49 00000000 		.4byte	q_timer
 5540 0d4d 27       		.uleb128 0x27
 5541 0d4e 15000000 		.4byte	.LASF183
 5542 0d52 01       		.byte	0x1
 5543 0d53 61       		.byte	0x61
 5544 0d54 080D0000 		.4byte	0xd08
 5545 0d58 05       		.uleb128 0x5
 5546 0d59 03       		.byte	0x3
 5547 0d5a 00000000 		.4byte	q_join
 5548 0d5e 27       		.uleb128 0x27
 5549 0d5f 00000000 		.4byte	.LASF184
 5550 0d63 01       		.byte	0x1
 5551 0d64 64       		.byte	0x64
 5552 0d65 080D0000 		.4byte	0xd08
 5553 0d69 05       		.uleb128 0x5
 5554 0d6a 03       		.byte	0x3
 5555 0d6b 00000000 		.4byte	q_intr
 5556 0d6f 07       		.uleb128 0x7
 5557 0d70 04       		.byte	0x4
 5558 0d71 07090000 		.4byte	0x907
 5559 0d75 11       		.uleb128 0x11
 5560 0d76 FA070000 		.4byte	.LASF185
 5561 0d7a 20       		.byte	0x20
 5562 0d7b 01       		.byte	0x1
 5563 0d7c 8B       		.byte	0x8b
 5564 0d7d FE0D0000 		.4byte	0xdfe
 5565 0d81 0F       		.uleb128 0xf
 5566 0d82 98000000 		.4byte	.LASF132
 5567 0d86 01       		.byte	0x1
 5568 0d87 8C       		.byte	0x8c
 5569 0d88 85090000 		.4byte	0x985
 5570 0d8c 00       		.byte	0
 5571 0d8d 0F       		.uleb128 0xf
 5572 0d8e 64010000 		.4byte	.LASF133
 5573 0d92 01       		.byte	0x1
 5574 0d93 8C       		.byte	0x8c
 5575 0d94 85090000 		.4byte	0x985
 5576 0d98 04       		.byte	0x4
 5577 0d99 22       		.uleb128 0x22
 5578 0d9a 57000000 		.4byte	.LASF135
 5579 0d9e 01       		.byte	0x1
 5580 0d9f 90       		.byte	0x90
 5581 0da0 AF000000 		.4byte	0xaf
 5582 0da4 04       		.byte	0x4
ARM GAS  /tmp/ccYjC7Ok.s 			page 99


 5583 0da5 01       		.byte	0x1
 5584 0da6 10       		.byte	0x10
 5585 0da7 08       		.byte	0x8
 5586 0da8 22       		.uleb128 0x22
 5587 0da9 69050000 		.4byte	.LASF136
 5588 0dad 01       		.byte	0x1
 5589 0dae 92       		.byte	0x92
 5590 0daf AF000000 		.4byte	0xaf
 5591 0db3 04       		.byte	0x4
 5592 0db4 08       		.byte	0x8
 5593 0db5 00       		.byte	0
 5594 0db6 08       		.byte	0x8
 5595 0db7 0F       		.uleb128 0xf
 5596 0db8 51090000 		.4byte	.LASF137
 5597 0dbc 01       		.byte	0x1
 5598 0dbd 93       		.byte	0x93
 5599 0dbe 6F0D0000 		.4byte	0xd6f
 5600 0dc2 0C       		.byte	0xc
 5601 0dc3 12       		.uleb128 0x12
 5602 0dc4 7600     		.ascii	"v\000"
 5603 0dc6 01       		.byte	0x1
 5604 0dc7 94       		.byte	0x94
 5605 0dc8 BF000000 		.4byte	0xbf
 5606 0dcc 10       		.byte	0x10
 5607 0dcd 0F       		.uleb128 0xf
 5608 0dce 440B0000 		.4byte	.LASF186
 5609 0dd2 01       		.byte	0x1
 5610 0dd3 95       		.byte	0x95
 5611 0dd4 D40A0000 		.4byte	0xad4
 5612 0dd8 14       		.byte	0x14
 5613 0dd9 0F       		.uleb128 0xf
 5614 0dda 230D0000 		.4byte	.LASF187
 5615 0dde 01       		.byte	0x1
 5616 0ddf 96       		.byte	0x96
 5617 0de0 FE0D0000 		.4byte	0xdfe
 5618 0de4 18       		.byte	0x18
 5619 0de5 0F       		.uleb128 0xf
 5620 0de6 61050000 		.4byte	.LASF188
 5621 0dea 01       		.byte	0x1
 5622 0deb 97       		.byte	0x97
 5623 0dec 090E0000 		.4byte	0xe09
 5624 0df0 1C       		.byte	0x1c
 5625 0df1 0F       		.uleb128 0xf
 5626 0df2 22070000 		.4byte	.LASF142
 5627 0df6 01       		.byte	0x1
 5628 0df7 98       		.byte	0x98
 5629 0df8 AC090000 		.4byte	0x9ac
 5630 0dfc 20       		.byte	0x20
 5631 0dfd 00       		.byte	0
 5632 0dfe 07       		.uleb128 0x7
 5633 0dff 04       		.byte	0x4
 5634 0e00 AF000000 		.4byte	0xaf
 5635 0e04 10       		.uleb128 0x10
 5636 0e05 FE0D0000 		.4byte	0xdfe
 5637 0e09 07       		.uleb128 0x7
 5638 0e0a 04       		.byte	0x4
 5639 0e0b A4000000 		.4byte	0xa4
ARM GAS  /tmp/ccYjC7Ok.s 			page 100


 5640 0e0f 24       		.uleb128 0x24
 5641 0e10 07       		.byte	0x7
 5642 0e11 01       		.byte	0x1
 5643 0e12 39000000 		.4byte	0x39
 5644 0e16 01       		.byte	0x1
 5645 0e17 F5       		.byte	0xf5
 5646 0e18 530E0000 		.4byte	0xe53
 5647 0e1c 25       		.uleb128 0x25
 5648 0e1d 5D0C0000 		.4byte	.LASF189
 5649 0e21 00       		.byte	0
 5650 0e22 25       		.uleb128 0x25
 5651 0e23 DB000000 		.4byte	.LASF190
 5652 0e27 01       		.byte	0x1
 5653 0e28 25       		.uleb128 0x25
 5654 0e29 120A0000 		.4byte	.LASF191
 5655 0e2d 02       		.byte	0x2
 5656 0e2e 25       		.uleb128 0x25
 5657 0e2f 580D0000 		.4byte	.LASF192
 5658 0e33 03       		.byte	0x3
 5659 0e34 25       		.uleb128 0x25
 5660 0e35 8D060000 		.4byte	.LASF193
 5661 0e39 04       		.byte	0x4
 5662 0e3a 25       		.uleb128 0x25
 5663 0e3b E90B0000 		.4byte	.LASF194
 5664 0e3f 05       		.byte	0x5
 5665 0e40 25       		.uleb128 0x25
 5666 0e41 A5060000 		.4byte	.LASF195
 5667 0e45 06       		.byte	0x6
 5668 0e46 25       		.uleb128 0x25
 5669 0e47 900C0000 		.4byte	.LASF196
 5670 0e4b 0E       		.byte	0xe
 5671 0e4c 25       		.uleb128 0x25
 5672 0e4d 14080000 		.4byte	.LASF197
 5673 0e51 0F       		.byte	0xf
 5674 0e52 00       		.byte	0
 5675 0e53 11       		.uleb128 0x11
 5676 0e54 330E0000 		.4byte	.LASF198
 5677 0e58 20       		.byte	0x20
 5678 0e59 02       		.byte	0x2
 5679 0e5a 20       		.byte	0x20
 5680 0e5b 6C0E0000 		.4byte	0xe6c
 5681 0e5f 12       		.uleb128 0x12
 5682 0e60 72656700 		.ascii	"reg\000"
 5683 0e64 02       		.byte	0x2
 5684 0e65 21       		.byte	0x21
 5685 0e66 6C0E0000 		.4byte	0xe6c
 5686 0e6a 00       		.byte	0
 5687 0e6b 00       		.byte	0
 5688 0e6c 0C       		.uleb128 0xc
 5689 0e6d AF000000 		.4byte	0xaf
 5690 0e71 7C0E0000 		.4byte	0xe7c
 5691 0e75 0D       		.uleb128 0xd
 5692 0e76 92000000 		.4byte	0x92
 5693 0e7a 07       		.byte	0x7
 5694 0e7b 00       		.byte	0
 5695 0e7c 28       		.uleb128 0x28
 5696 0e7d F6000000 		.4byte	.LASF199
ARM GAS  /tmp/ccYjC7Ok.s 			page 101


 5697 0e81 02       		.byte	0x2
 5698 0e82 66       		.byte	0x66
 5699 0e83 920E0000 		.4byte	0xe92
 5700 0e87 90C08380 		.sleb128 -536813552
 5700      7E
 5701 0e8c 07       		.uleb128 0x7
 5702 0e8d 04       		.byte	0x4
 5703 0e8e BA000000 		.4byte	0xba
 5704 0e92 10       		.uleb128 0x10
 5705 0e93 8C0E0000 		.4byte	0xe8c
 5706 0e97 28       		.uleb128 0x28
 5707 0e98 07030000 		.4byte	.LASF200
 5708 0e9c 02       		.byte	0x2
 5709 0e9d 67       		.byte	0x67
 5710 0e9e 920E0000 		.4byte	0xe92
 5711 0ea2 94C08380 		.sleb128 -536813548
 5711      7E
 5712 0ea7 28       		.uleb128 0x28
 5713 0ea8 3A040000 		.4byte	.LASF201
 5714 0eac 02       		.byte	0x2
 5715 0ead 68       		.byte	0x68
 5716 0eae 920E0000 		.4byte	0xe92
 5717 0eb2 98C08380 		.sleb128 -536813544
 5717      7E
 5718 0eb7 13       		.uleb128 0x13
 5719 0eb8 9C070000 		.4byte	.LASF202
 5720 0ebc F003     		.2byte	0x3f0
 5721 0ebe 02       		.byte	0x2
 5722 0ebf 8A       		.byte	0x8a
 5723 0ec0 500F0000 		.4byte	0xf50
 5724 0ec4 0F       		.uleb128 0xf
 5725 0ec5 EE050000 		.4byte	.LASF203
 5726 0ec9 02       		.byte	0x2
 5727 0eca 8B       		.byte	0x8b
 5728 0ecb 600F0000 		.4byte	0xf60
 5729 0ecf 00       		.byte	0
 5730 0ed0 0F       		.uleb128 0xf
 5731 0ed1 74070000 		.4byte	.LASF204
 5732 0ed5 02       		.byte	0x2
 5733 0ed6 8C       		.byte	0x8c
 5734 0ed7 650F0000 		.4byte	0xf65
 5735 0edb 20       		.byte	0x20
 5736 0edc 0F       		.uleb128 0xf
 5737 0edd 580C0000 		.4byte	.LASF205
 5738 0ee1 02       		.byte	0x2
 5739 0ee2 8D       		.byte	0x8d
 5740 0ee3 600F0000 		.4byte	0xf60
 5741 0ee7 80       		.byte	0x80
 5742 0ee8 0F       		.uleb128 0xf
 5743 0ee9 7C070000 		.4byte	.LASF206
 5744 0eed 02       		.byte	0x2
 5745 0eee 8E       		.byte	0x8e
 5746 0eef 650F0000 		.4byte	0xf65
 5747 0ef3 A0       		.byte	0xa0
 5748 0ef4 14       		.uleb128 0x14
 5749 0ef5 370D0000 		.4byte	.LASF207
 5750 0ef9 02       		.byte	0x2
ARM GAS  /tmp/ccYjC7Ok.s 			page 102


 5751 0efa 8F       		.byte	0x8f
 5752 0efb 600F0000 		.4byte	0xf60
 5753 0eff 0001     		.2byte	0x100
 5754 0f01 14       		.uleb128 0x14
 5755 0f02 84070000 		.4byte	.LASF208
 5756 0f06 02       		.byte	0x2
 5757 0f07 90       		.byte	0x90
 5758 0f08 650F0000 		.4byte	0xf65
 5759 0f0c 2001     		.2byte	0x120
 5760 0f0e 14       		.uleb128 0x14
 5761 0f0f 4C080000 		.4byte	.LASF209
 5762 0f13 02       		.byte	0x2
 5763 0f14 91       		.byte	0x91
 5764 0f15 600F0000 		.4byte	0xf60
 5765 0f19 8001     		.2byte	0x180
 5766 0f1b 14       		.uleb128 0x14
 5767 0f1c 8C070000 		.4byte	.LASF210
 5768 0f20 02       		.byte	0x2
 5769 0f21 92       		.byte	0x92
 5770 0f22 650F0000 		.4byte	0xf65
 5771 0f26 A001     		.2byte	0x1a0
 5772 0f28 14       		.uleb128 0x14
 5773 0f29 730C0000 		.4byte	.LASF211
 5774 0f2d 02       		.byte	0x2
 5775 0f2e 93       		.byte	0x93
 5776 0f2f 600F0000 		.4byte	0xf60
 5777 0f33 0002     		.2byte	0x200
 5778 0f35 14       		.uleb128 0x14
 5779 0f36 94070000 		.4byte	.LASF212
 5780 0f3a 02       		.byte	0x2
 5781 0f3b 94       		.byte	0x94
 5782 0f3c 750F0000 		.4byte	0xf75
 5783 0f40 2002     		.2byte	0x220
 5784 0f42 29       		.uleb128 0x29
 5785 0f43 49505200 		.ascii	"IPR\000"
 5786 0f47 02       		.byte	0x2
 5787 0f48 95       		.byte	0x95
 5788 0f49 950F0000 		.4byte	0xf95
 5789 0f4d 0003     		.2byte	0x300
 5790 0f4f 00       		.byte	0
 5791 0f50 0C       		.uleb128 0xc
 5792 0f51 BA000000 		.4byte	0xba
 5793 0f55 600F0000 		.4byte	0xf60
 5794 0f59 0D       		.uleb128 0xd
 5795 0f5a 92000000 		.4byte	0x92
 5796 0f5e 07       		.byte	0x7
 5797 0f5f 00       		.byte	0
 5798 0f60 06       		.uleb128 0x6
 5799 0f61 500F0000 		.4byte	0xf50
 5800 0f65 0C       		.uleb128 0xc
 5801 0f66 AF000000 		.4byte	0xaf
 5802 0f6a 750F0000 		.4byte	0xf75
 5803 0f6e 0D       		.uleb128 0xd
 5804 0f6f 92000000 		.4byte	0x92
 5805 0f73 17       		.byte	0x17
 5806 0f74 00       		.byte	0
 5807 0f75 0C       		.uleb128 0xc
ARM GAS  /tmp/ccYjC7Ok.s 			page 103


 5808 0f76 AF000000 		.4byte	0xaf
 5809 0f7a 850F0000 		.4byte	0xf85
 5810 0f7e 0D       		.uleb128 0xd
 5811 0f7f 92000000 		.4byte	0x92
 5812 0f83 37       		.byte	0x37
 5813 0f84 00       		.byte	0
 5814 0f85 0C       		.uleb128 0xc
 5815 0f86 BA000000 		.4byte	0xba
 5816 0f8a 950F0000 		.4byte	0xf95
 5817 0f8e 0D       		.uleb128 0xd
 5818 0f8f 92000000 		.4byte	0x92
 5819 0f93 3B       		.byte	0x3b
 5820 0f94 00       		.byte	0
 5821 0f95 06       		.uleb128 0x6
 5822 0f96 850F0000 		.4byte	0xf85
 5823 0f9a 28       		.uleb128 0x28
 5824 0f9b 9C070000 		.4byte	.LASF202
 5825 0f9f 02       		.byte	0x2
 5826 0fa0 98       		.byte	0x98
 5827 0fa1 B00F0000 		.4byte	0xfb0
 5828 0fa5 80C28380 		.sleb128 -536813312
 5828      7E
 5829 0faa 07       		.uleb128 0x7
 5830 0fab 04       		.byte	0x4
 5831 0fac B70E0000 		.4byte	0xeb7
 5832 0fb0 10       		.uleb128 0x10
 5833 0fb1 AA0F0000 		.4byte	0xfaa
 5834 0fb5 28       		.uleb128 0x28
 5835 0fb6 280B0000 		.4byte	.LASF213
 5836 0fba 02       		.byte	0x2
 5837 0fbb BA       		.byte	0xba
 5838 0fbc 920E0000 		.4byte	0xe92
 5839 0fc0 84DA8380 		.sleb128 -536810236
 5839      7E
 5840 0fc5 28       		.uleb128 0x28
 5841 0fc6 F3050000 		.4byte	.LASF214
 5842 0fca 02       		.byte	0x2
 5843 0fcb BD       		.byte	0xbd
 5844 0fcc 040E0000 		.4byte	0xe04
 5845 0fd0 8CDA8380 		.sleb128 -536810228
 5845      7E
 5846 0fd5 28       		.uleb128 0x28
 5847 0fd6 2C0A0000 		.4byte	.LASF215
 5848 0fda 02       		.byte	0x2
 5849 0fdb BE       		.byte	0xbe
 5850 0fdc 040E0000 		.4byte	0xe04
 5851 0fe0 9CDA8380 		.sleb128 -536810212
 5851      7E
 5852 0fe5 28       		.uleb128 0x28
 5853 0fe6 320A0000 		.4byte	.LASF216
 5854 0fea 02       		.byte	0x2
 5855 0feb BF       		.byte	0xbf
 5856 0fec 040E0000 		.4byte	0xe04
 5857 0ff0 A0DA8380 		.sleb128 -536810208
 5857      7E
 5858 0ff5 2A       		.uleb128 0x2a
 5859 0ff6 A1090000 		.4byte	0x9a1
ARM GAS  /tmp/ccYjC7Ok.s 			page 104


 5860 0ffa 01       		.byte	0x1
 5861 0ffb B401     		.2byte	0x1b4
 5862 0ffd 05       		.uleb128 0x5
 5863 0ffe 03       		.byte	0x3
 5864 0fff 00000000 		.4byte	chopstx_main
 5865 1003 2B       		.uleb128 0x2b
 5866 1004 34010000 		.4byte	.LASF218
 5867 1008 01       		.byte	0x1
 5868 1009 A505     		.2byte	0x5a5
 5869 100b 96090000 		.4byte	0x996
 5870 100f 00000000 		.4byte	.LFB67
 5871 1013 3C000000 		.4byte	.LFE67-.LFB67
 5872 1017 01       		.uleb128 0x1
 5873 1018 9C       		.byte	0x9c
 5874 1019 80100000 		.4byte	0x1080
 5875 101d 2C       		.uleb128 0x2c
 5876 101e 380A0000 		.4byte	.LASF220
 5877 1022 01       		.byte	0x1
 5878 1023 A505     		.2byte	0x5a5
 5879 1025 96090000 		.4byte	0x996
 5880 1029 00000000 		.4byte	.LLST141
 5881 102d 2D       		.uleb128 0x2d
 5882 102e 747000   		.ascii	"tp\000"
 5883 1031 01       		.byte	0x1
 5884 1032 A705     		.2byte	0x5a7
 5885 1034 D40A0000 		.4byte	0xad4
 5886 1038 2C000000 		.4byte	.LLST142
 5887 103c 2E       		.uleb128 0x2e
 5888 103d E0080000 		.4byte	.LASF152
 5889 1041 01       		.byte	0x1
 5890 1042 A805     		.2byte	0x5a8
 5891 1044 96090000 		.4byte	0x996
 5892 1048 01       		.uleb128 0x1
 5893 1049 51       		.byte	0x51
 5894 104a 2F       		.uleb128 0x2f
 5895 104b 0B060000 		.4byte	.LASF217
 5896 104f 01       		.byte	0x1
 5897 1050 A805     		.2byte	0x5a8
 5898 1052 96090000 		.4byte	0x996
 5899 1056 3F000000 		.4byte	.LLST143
 5900 105a 30       		.uleb128 0x30
 5901 105b 0A000000 		.4byte	.LVL403
 5902 105f 31280000 		.4byte	0x2831
 5903 1063 31       		.uleb128 0x31
 5904 1064 28000000 		.4byte	.LVL408
 5905 1068 DE260000 		.4byte	0x26de
 5906 106c 76100000 		.4byte	0x1076
 5907 1070 32       		.uleb128 0x32
 5908 1071 01       		.uleb128 0x1
 5909 1072 50       		.byte	0x50
 5910 1073 01       		.uleb128 0x1
 5911 1074 31       		.byte	0x31
 5912 1075 00       		.byte	0
 5913 1076 30       		.uleb128 0x30
 5914 1077 34000000 		.4byte	.LVL410
 5915 107b 02280000 		.4byte	0x2802
 5916 107f 00       		.byte	0
ARM GAS  /tmp/ccYjC7Ok.s 			page 105


 5917 1080 33       		.uleb128 0x33
 5918 1081 04020000 		.4byte	.LASF219
 5919 1085 01       		.byte	0x1
 5920 1086 2705     		.2byte	0x527
 5921 1088 80000000 		.4byte	0x80
 5922 108c 00000000 		.4byte	.LFB66
 5923 1090 3C020000 		.4byte	.LFE66-.LFB66
 5924 1094 01       		.uleb128 0x1
 5925 1095 9C       		.byte	0x9c
 5926 1096 FD130000 		.4byte	0x13fd
 5927 109a 2C       		.uleb128 0x2c
 5928 109b CD000000 		.4byte	.LASF221
 5929 109f 01       		.byte	0x1
 5930 10a0 2705     		.2byte	0x527
 5931 10a2 FE0D0000 		.4byte	0xdfe
 5932 10a6 5D000000 		.4byte	.LLST119
 5933 10aa 34       		.uleb128 0x34
 5934 10ab 6E00     		.ascii	"n\000"
 5935 10ad 01       		.byte	0x1
 5936 10ae 2705     		.2byte	0x527
 5937 10b0 80000000 		.4byte	0x80
 5938 10b4 94000000 		.4byte	.LLST120
 5939 10b8 2C       		.uleb128 0x2c
 5940 10b9 2F000000 		.4byte	.LASF222
 5941 10bd 01       		.byte	0x1
 5942 10be 2705     		.2byte	0x527
 5943 10c0 FD130000 		.4byte	0x13fd
 5944 10c4 C0000000 		.4byte	.LLST121
 5945 10c8 2E       		.uleb128 0x2e
 5946 10c9 0D000000 		.4byte	.LASF223
 5947 10cd 01       		.byte	0x1
 5948 10ce 2905     		.2byte	0x529
 5949 10d0 AF000000 		.4byte	0xaf
 5950 10d4 02       		.uleb128 0x2
 5951 10d5 91       		.byte	0x91
 5952 10d6 54       		.sleb128 -44
 5953 10d7 2D       		.uleb128 0x2d
 5954 10d8 6900     		.ascii	"i\000"
 5955 10da 01       		.byte	0x1
 5956 10db 2A05     		.2byte	0x52a
 5957 10dd 80000000 		.4byte	0x80
 5958 10e1 EC000000 		.4byte	.LLST122
 5959 10e5 35       		.uleb128 0x35
 5960 10e6 707800   		.ascii	"px\000"
 5961 10e9 01       		.byte	0x1
 5962 10ea 2B05     		.2byte	0x52b
 5963 10ec 09140000 		.4byte	0x1409
 5964 10f0 2D       		.uleb128 0x2d
 5965 10f1 706400   		.ascii	"pd\000"
 5966 10f4 01       		.byte	0x1
 5967 10f5 2C05     		.2byte	0x52c
 5968 10f7 03140000 		.4byte	0x1403
 5969 10fb 66010000 		.4byte	.LLST123
 5970 10ff 2D       		.uleb128 0x2d
 5971 1100 7200     		.ascii	"r\000"
 5972 1102 01       		.byte	0x1
 5973 1103 2D05     		.2byte	0x52d
ARM GAS  /tmp/ccYjC7Ok.s 			page 106


 5974 1105 80000000 		.4byte	0x80
 5975 1109 AB010000 		.4byte	.LLST124
 5976 110d 36       		.uleb128 0x36
 5977 110e CA010000 		.4byte	.LBB430
 5978 1112 06000000 		.4byte	.LBE430-.LBB430
 5979 1116 2A110000 		.4byte	0x112a
 5980 111a 2D       		.uleb128 0x2d
 5981 111b 706300   		.ascii	"pc\000"
 5982 111e 01       		.byte	0x1
 5983 111f 6A05     		.2byte	0x56a
 5984 1121 1C140000 		.4byte	0x141c
 5985 1125 03020000 		.4byte	.LLST138
 5986 1129 00       		.byte	0
 5987 112a 37       		.uleb128 0x37
 5988 112b 20020000 		.4byte	.Ldebug_ranges0+0x220
 5989 112f 90110000 		.4byte	0x1190
 5990 1133 2F       		.uleb128 0x2f
 5991 1134 17070000 		.4byte	.LASF224
 5992 1138 01       		.byte	0x1
 5993 1139 7505     		.2byte	0x575
 5994 113b 22140000 		.4byte	0x1422
 5995 113f 16020000 		.4byte	.LLST127
 5996 1143 38       		.uleb128 0x38
 5997 1144 88280000 		.4byte	0x2888
 5998 1148 5A000000 		.4byte	.LBB410
 5999 114c 40020000 		.4byte	.Ldebug_ranges0+0x240
 6000 1150 01       		.byte	0x1
 6001 1151 7E05     		.2byte	0x57e
 6002 1153 61110000 		.4byte	0x1161
 6003 1157 39       		.uleb128 0x39
 6004 1158 94280000 		.4byte	0x2894
 6005 115c 34020000 		.4byte	.LLST128
 6006 1160 00       		.byte	0
 6007 1161 3A       		.uleb128 0x3a
 6008 1162 A0280000 		.4byte	0x28a0
 6009 1166 E8010000 		.4byte	.LBB414
 6010 116a 0C000000 		.4byte	.LBE414-.LBB414
 6011 116e 01       		.byte	0x1
 6012 116f 7805     		.2byte	0x578
 6013 1171 7F110000 		.4byte	0x117f
 6014 1175 39       		.uleb128 0x39
 6015 1176 AC280000 		.4byte	0x28ac
 6016 117a 53020000 		.4byte	.LLST129
 6017 117e 00       		.byte	0
 6018 117f 3B       		.uleb128 0x3b
 6019 1180 08020000 		.4byte	.LVL391
 6020 1184 802A0000 		.4byte	0x2a80
 6021 1188 32       		.uleb128 0x32
 6022 1189 01       		.uleb128 0x1
 6023 118a 50       		.byte	0x50
 6024 118b 02       		.uleb128 0x2
 6025 118c 70       		.byte	0x70
 6026 118d 00       		.sleb128 0
 6027 118e 00       		.byte	0
 6028 118f 00       		.byte	0
 6029 1190 37       		.uleb128 0x37
 6030 1191 78020000 		.4byte	.Ldebug_ranges0+0x278
ARM GAS  /tmp/ccYjC7Ok.s 			page 107


 6031 1195 B9110000 		.4byte	0x11b9
 6032 1199 2D       		.uleb128 0x2d
 6033 119a 706A00   		.ascii	"pj\000"
 6034 119d 01       		.byte	0x1
 6035 119e 8305     		.2byte	0x583
 6036 11a0 28140000 		.4byte	0x1428
 6037 11a4 72020000 		.4byte	.LLST139
 6038 11a8 3B       		.uleb128 0x3b
 6039 11a9 D8010000 		.4byte	.LVL382
 6040 11ad 802A0000 		.4byte	0x2a80
 6041 11b1 32       		.uleb128 0x32
 6042 11b2 01       		.uleb128 0x1
 6043 11b3 50       		.byte	0x50
 6044 11b4 02       		.uleb128 0x2
 6045 11b5 70       		.byte	0x70
 6046 11b6 00       		.sleb128 0
 6047 11b7 00       		.byte	0
 6048 11b8 00       		.byte	0
 6049 11b9 3C       		.uleb128 0x3c
 6050 11ba 92000000 		.4byte	0x92
 6051 11be 85020000 		.4byte	.LLST118
 6052 11c2 38       		.uleb128 0x38
 6053 11c3 2E140000 		.4byte	0x142e
 6054 11c7 2A000000 		.4byte	.LBB403
 6055 11cb F8010000 		.4byte	.Ldebug_ranges0+0x1f8
 6056 11cf 01       		.byte	0x1
 6057 11d0 3205     		.2byte	0x532
 6058 11d2 E9110000 		.4byte	0x11e9
 6059 11d6 39       		.uleb128 0x39
 6060 11d7 46140000 		.4byte	0x1446
 6061 11db B7020000 		.4byte	.LLST125
 6062 11df 39       		.uleb128 0x39
 6063 11e0 3B140000 		.4byte	0x143b
 6064 11e4 CA020000 		.4byte	.LLST126
 6065 11e8 00       		.byte	0
 6066 11e9 38       		.uleb128 0x38
 6067 11ea F0180000 		.4byte	0x18f0
 6068 11ee B0000000 		.4byte	.LBB420
 6069 11f2 60020000 		.4byte	.Ldebug_ranges0+0x260
 6070 11f6 01       		.byte	0x1
 6071 11f7 3A05     		.2byte	0x53a
 6072 11f9 62120000 		.4byte	0x1262
 6073 11fd 39       		.uleb128 0x39
 6074 11fe 08190000 		.4byte	0x1908
 6075 1202 F6020000 		.4byte	.LLST130
 6076 1206 3D       		.uleb128 0x3d
 6077 1207 FD180000 		.4byte	0x18fd
 6078 120b 3E       		.uleb128 0x3e
 6079 120c 60020000 		.4byte	.Ldebug_ranges0+0x260
 6080 1210 3F       		.uleb128 0x3f
 6081 1211 13190000 		.4byte	0x1913
 6082 1215 F6020000 		.4byte	.LLST130
 6083 1219 30       		.uleb128 0x30
 6084 121a B4000000 		.4byte	.LVL338
 6085 121e 9C140000 		.4byte	0x149c
 6086 1222 30       		.uleb128 0x30
 6087 1223 BC000000 		.4byte	.LVL339
ARM GAS  /tmp/ccYjC7Ok.s 			page 108


 6088 1227 8B1B0000 		.4byte	0x1b8b
 6089 122b 30       		.uleb128 0x30
 6090 122c DA000000 		.4byte	.LVL342
 6091 1230 261B0000 		.4byte	0x1b26
 6092 1234 30       		.uleb128 0x30
 6093 1235 E6000000 		.4byte	.LVL345
 6094 1239 31280000 		.4byte	0x2831
 6095 123d 31       		.uleb128 0x31
 6096 123e EE000000 		.4byte	.LVL346
 6097 1242 88290000 		.4byte	0x2988
 6098 1246 57120000 		.4byte	0x1257
 6099 124a 32       		.uleb128 0x32
 6100 124b 01       		.uleb128 0x1
 6101 124c 50       		.byte	0x50
 6102 124d 02       		.uleb128 0x2
 6103 124e 70       		.byte	0x70
 6104 124f 00       		.sleb128 0
 6105 1250 32       		.uleb128 0x32
 6106 1251 01       		.uleb128 0x1
 6107 1252 51       		.byte	0x51
 6108 1253 02       		.uleb128 0x2
 6109 1254 71       		.byte	0x71
 6110 1255 00       		.sleb128 0
 6111 1256 00       		.byte	0
 6112 1257 30       		.uleb128 0x30
 6113 1258 F2000000 		.4byte	.LVL347
 6114 125c 02280000 		.4byte	0x2802
 6115 1260 00       		.byte	0
 6116 1261 00       		.byte	0
 6117 1262 3A       		.uleb128 0x3a
 6118 1263 28180000 		.4byte	0x1828
 6119 1267 FA000000 		.4byte	.LBB424
 6120 126b 26000000 		.4byte	.LBE424-.LBB424
 6121 126f 01       		.byte	0x1
 6122 1270 3C05     		.2byte	0x53c
 6123 1272 DE120000 		.4byte	0x12de
 6124 1276 39       		.uleb128 0x39
 6125 1277 40180000 		.4byte	0x1840
 6126 127b 14030000 		.4byte	.LLST132
 6127 127f 3D       		.uleb128 0x3d
 6128 1280 35180000 		.4byte	0x1835
 6129 1284 40       		.uleb128 0x40
 6130 1285 FA000000 		.4byte	.LBB425
 6131 1289 26000000 		.4byte	.LBE425-.LBB425
 6132 128d 3F       		.uleb128 0x3f
 6133 128e 4B180000 		.4byte	0x184b
 6134 1292 14030000 		.4byte	.LLST132
 6135 1296 3A       		.uleb128 0x3a
 6136 1297 B8280000 		.4byte	0x28b8
 6137 129b 10010000 		.4byte	.LBB426
 6138 129f 10000000 		.4byte	.LBE426-.LBB426
 6139 12a3 01       		.byte	0x1
 6140 12a4 F103     		.2byte	0x3f1
 6141 12a6 B4120000 		.4byte	0x12b4
 6142 12aa 39       		.uleb128 0x39
 6143 12ab C4280000 		.4byte	0x28c4
 6144 12af 27030000 		.4byte	.LLST134
ARM GAS  /tmp/ccYjC7Ok.s 			page 109


 6145 12b3 00       		.byte	0
 6146 12b4 30       		.uleb128 0x30
 6147 12b5 FE000000 		.4byte	.LVL350
 6148 12b9 9C140000 		.4byte	0x149c
 6149 12bd 30       		.uleb128 0x30
 6150 12be 02010000 		.4byte	.LVL351
 6151 12c2 31280000 		.4byte	0x2831
 6152 12c6 3B       		.uleb128 0x3b
 6153 12c7 0E010000 		.4byte	.LVL353
 6154 12cb 88290000 		.4byte	0x2988
 6155 12cf 32       		.uleb128 0x32
 6156 12d0 01       		.uleb128 0x1
 6157 12d1 50       		.byte	0x50
 6158 12d2 02       		.uleb128 0x2
 6159 12d3 70       		.byte	0x70
 6160 12d4 00       		.sleb128 0
 6161 12d5 32       		.uleb128 0x32
 6162 12d6 01       		.uleb128 0x1
 6163 12d7 51       		.byte	0x51
 6164 12d8 02       		.uleb128 0x2
 6165 12d9 71       		.byte	0x71
 6166 12da 00       		.sleb128 0
 6167 12db 00       		.byte	0
 6168 12dc 00       		.byte	0
 6169 12dd 00       		.byte	0
 6170 12de 3A       		.uleb128 0x3a
 6171 12df 6E150000 		.4byte	0x156e
 6172 12e3 20010000 		.4byte	.LBB428
 6173 12e7 4C000000 		.4byte	.LBE428-.LBB428
 6174 12eb 01       		.byte	0x1
 6175 12ec 3E05     		.2byte	0x53e
 6176 12ee 6A130000 		.4byte	0x136a
 6177 12f2 39       		.uleb128 0x39
 6178 12f3 86150000 		.4byte	0x1586
 6179 12f7 46030000 		.4byte	.LLST135
 6180 12fb 3D       		.uleb128 0x3d
 6181 12fc 7B150000 		.4byte	0x157b
 6182 1300 40       		.uleb128 0x40
 6183 1301 20010000 		.4byte	.LBB429
 6184 1305 4C000000 		.4byte	.LBE429-.LBB429
 6185 1309 3F       		.uleb128 0x3f
 6186 130a 91150000 		.4byte	0x1591
 6187 130e 46030000 		.4byte	.LLST135
 6188 1312 3F       		.uleb128 0x3f
 6189 1313 9C150000 		.4byte	0x159c
 6190 1317 6A030000 		.4byte	.LLST137
 6191 131b 30       		.uleb128 0x30
 6192 131c 24010000 		.4byte	.LVL357
 6193 1320 02280000 		.4byte	0x2802
 6194 1324 30       		.uleb128 0x30
 6195 1325 2C010000 		.4byte	.LVL360
 6196 1329 9C140000 		.4byte	0x149c
 6197 132d 30       		.uleb128 0x30
 6198 132e 30010000 		.4byte	.LVL361
 6199 1332 31280000 		.4byte	0x2831
 6200 1336 30       		.uleb128 0x30
 6201 1337 3A010000 		.4byte	.LVL362
ARM GAS  /tmp/ccYjC7Ok.s 			page 110


 6202 133b 02280000 		.4byte	0x2802
 6203 133f 31       		.uleb128 0x31
 6204 1340 40010000 		.4byte	.LVL363
 6205 1344 0B2B0000 		.4byte	0x2b0b
 6206 1348 52130000 		.4byte	0x1352
 6207 134c 32       		.uleb128 0x32
 6208 134d 01       		.uleb128 0x1
 6209 134e 50       		.byte	0x50
 6210 134f 01       		.uleb128 0x1
 6211 1350 32       		.byte	0x32
 6212 1351 00       		.byte	0
 6213 1352 3B       		.uleb128 0x3b
 6214 1353 62010000 		.4byte	.LVL366
 6215 1357 88290000 		.4byte	0x2988
 6216 135b 32       		.uleb128 0x32
 6217 135c 01       		.uleb128 0x1
 6218 135d 50       		.byte	0x50
 6219 135e 02       		.uleb128 0x2
 6220 135f 70       		.byte	0x70
 6221 1360 00       		.sleb128 0
 6222 1361 32       		.uleb128 0x32
 6223 1362 01       		.uleb128 0x1
 6224 1363 51       		.byte	0x51
 6225 1364 02       		.uleb128 0x2
 6226 1365 71       		.byte	0x71
 6227 1366 00       		.sleb128 0
 6228 1367 00       		.byte	0
 6229 1368 00       		.byte	0
 6230 1369 00       		.byte	0
 6231 136a 30       		.uleb128 0x30
 6232 136b 28000000 		.4byte	.LVL321
 6233 136f 9C140000 		.4byte	0x149c
 6234 1373 30       		.uleb128 0x30
 6235 1374 4A000000 		.4byte	.LVL325
 6236 1378 31280000 		.4byte	0x2831
 6237 137c 30       		.uleb128 0x30
 6238 137d 56000000 		.4byte	.LVL327
 6239 1381 02280000 		.4byte	0x2802
 6240 1385 31       		.uleb128 0x31
 6241 1386 72000000 		.4byte	.LVL330
 6242 138a AA160000 		.4byte	0x16aa
 6243 138e 99130000 		.4byte	0x1399
 6244 1392 32       		.uleb128 0x32
 6245 1393 01       		.uleb128 0x1
 6246 1394 50       		.byte	0x50
 6247 1395 02       		.uleb128 0x2
 6248 1396 09       		.byte	0x9
 6249 1397 FF       		.byte	0xff
 6250 1398 00       		.byte	0
 6251 1399 30       		.uleb128 0x30
 6252 139a 80010000 		.4byte	.LVL368
 6253 139e 4E220000 		.4byte	0x224e
 6254 13a2 31       		.uleb128 0x31
 6255 13a3 94010000 		.4byte	.LVL370
 6256 13a7 DE260000 		.4byte	0x26de
 6257 13ab B5130000 		.4byte	0x13b5
 6258 13af 32       		.uleb128 0x32
ARM GAS  /tmp/ccYjC7Ok.s 			page 111


 6259 13b0 01       		.uleb128 0x1
 6260 13b1 50       		.byte	0x50
 6261 13b2 01       		.uleb128 0x1
 6262 13b3 30       		.byte	0x30
 6263 13b4 00       		.byte	0
 6264 13b5 30       		.uleb128 0x30
 6265 13b6 9C010000 		.4byte	.LVL373
 6266 13ba 02280000 		.4byte	0x2802
 6267 13be 30       		.uleb128 0x30
 6268 13bf A0010000 		.4byte	.LVL374
 6269 13c3 9C140000 		.4byte	0x149c
 6270 13c7 30       		.uleb128 0x30
 6271 13c8 A4010000 		.4byte	.LVL375
 6272 13cc 31280000 		.4byte	0x2831
 6273 13d0 31       		.uleb128 0x31
 6274 13d1 B4010000 		.4byte	.LVL376
 6275 13d5 711D0000 		.4byte	0x1d71
 6276 13d9 EA130000 		.4byte	0x13ea
 6277 13dd 32       		.uleb128 0x32
 6278 13de 01       		.uleb128 0x1
 6279 13df 50       		.byte	0x50
 6280 13e0 01       		.uleb128 0x1
 6281 13e1 36       		.byte	0x36
 6282 13e2 32       		.uleb128 0x32
 6283 13e3 01       		.uleb128 0x1
 6284 13e4 51       		.byte	0x51
 6285 13e5 03       		.uleb128 0x3
 6286 13e6 77       		.byte	0x77
 6287 13e7 2C       		.sleb128 44
 6288 13e8 06       		.byte	0x6
 6289 13e9 00       		.byte	0
 6290 13ea 30       		.uleb128 0x30
 6291 13eb C4010000 		.4byte	.LVL379
 6292 13ef 31280000 		.4byte	0x2831
 6293 13f3 30       		.uleb128 0x30
 6294 13f4 FC010000 		.4byte	.LVL388
 6295 13f8 02280000 		.4byte	0x2802
 6296 13fc 00       		.byte	0
 6297 13fd 07       		.uleb128 0x7
 6298 13fe 04       		.byte	0x4
 6299 13ff 03140000 		.4byte	0x1403
 6300 1403 07       		.uleb128 0x7
 6301 1404 04       		.byte	0x4
 6302 1405 A10B0000 		.4byte	0xba1
 6303 1409 0C       		.uleb128 0xc
 6304 140a 750D0000 		.4byte	0xd75
 6305 140e 1C140000 		.4byte	0x141c
 6306 1412 41       		.uleb128 0x41
 6307 1413 92000000 		.4byte	0x92
 6308 1417 B9110000 		.4byte	0x11b9
 6309 141b 00       		.byte	0
 6310 141c 07       		.uleb128 0x7
 6311 141d 04       		.byte	0x4
 6312 141e C60B0000 		.4byte	0xbc6
 6313 1422 07       		.uleb128 0x7
 6314 1423 04       		.byte	0x4
 6315 1424 6D0C0000 		.4byte	0xc6d
ARM GAS  /tmp/ccYjC7Ok.s 			page 112


 6316 1428 07       		.uleb128 0x7
 6317 1429 04       		.byte	0x4
 6318 142a 3C0C0000 		.4byte	0xc3c
 6319 142e 42       		.uleb128 0x42
 6320 142f 4F060000 		.4byte	.LASF230
 6321 1433 01       		.byte	0x1
 6322 1434 0E05     		.2byte	0x50e
 6323 1436 01       		.byte	0x1
 6324 1437 52140000 		.4byte	0x1452
 6325 143b 43       		.uleb128 0x43
 6326 143c 707800   		.ascii	"px\000"
 6327 143f 01       		.byte	0x1
 6328 1440 0E05     		.2byte	0x50e
 6329 1442 52140000 		.4byte	0x1452
 6330 1446 43       		.uleb128 0x43
 6331 1447 637000   		.ascii	"cp\000"
 6332 144a 01       		.byte	0x1
 6333 144b 0E05     		.2byte	0x50e
 6334 144d FE0D0000 		.4byte	0xdfe
 6335 1451 00       		.byte	0
 6336 1452 07       		.uleb128 0x7
 6337 1453 04       		.byte	0x4
 6338 1454 750D0000 		.4byte	0xd75
 6339 1458 2B       		.uleb128 0x2b
 6340 1459 2E0C0000 		.4byte	.LASF225
 6341 145d 01       		.byte	0x1
 6342 145e 0405     		.2byte	0x504
 6343 1460 80000000 		.4byte	0x80
 6344 1464 00000000 		.4byte	.LFB64
 6345 1468 28000000 		.4byte	.LFE64-.LFB64
 6346 146c 01       		.uleb128 0x1
 6347 146d 9C       		.byte	0x9c
 6348 146e 9C140000 		.4byte	0x149c
 6349 1472 2C       		.uleb128 0x2c
 6350 1473 4A040000 		.4byte	.LASF226
 6351 1477 01       		.byte	0x1
 6352 1478 0405     		.2byte	0x504
 6353 147a 80000000 		.4byte	0x80
 6354 147e 7D030000 		.4byte	.LLST115
 6355 1482 2F       		.uleb128 0x2f
 6356 1483 2D0D0000 		.4byte	.LASF227
 6357 1487 01       		.byte	0x1
 6358 1488 0605     		.2byte	0x506
 6359 148a 80000000 		.4byte	0x80
 6360 148e 9E030000 		.4byte	.LLST116
 6361 1492 30       		.uleb128 0x30
 6362 1493 1E000000 		.4byte	.LVL315
 6363 1497 9C140000 		.4byte	0x149c
 6364 149b 00       		.byte	0
 6365 149c 44       		.uleb128 0x44
 6366 149d 590B0000 		.4byte	.LASF228
 6367 14a1 01       		.byte	0x1
 6368 14a2 F404     		.2byte	0x4f4
 6369 14a4 00000000 		.4byte	.LFB63
 6370 14a8 20000000 		.4byte	.LFE63-.LFB63
 6371 14ac 01       		.uleb128 0x1
 6372 14ad 9C       		.byte	0x9c
ARM GAS  /tmp/ccYjC7Ok.s 			page 113


 6373 14ae C3140000 		.4byte	0x14c3
 6374 14b2 3B       		.uleb128 0x3b
 6375 14b3 1A000000 		.4byte	.LVL270
 6376 14b7 AA160000 		.4byte	0x16aa
 6377 14bb 32       		.uleb128 0x32
 6378 14bc 01       		.uleb128 0x1
 6379 14bd 50       		.byte	0x50
 6380 14be 02       		.uleb128 0x2
 6381 14bf 09       		.byte	0x9
 6382 14c0 FF       		.byte	0xff
 6383 14c1 00       		.byte	0
 6384 14c2 00       		.byte	0
 6385 14c3 44       		.uleb128 0x44
 6386 14c4 4E020000 		.4byte	.LASF229
 6387 14c8 01       		.byte	0x1
 6388 14c9 BB04     		.2byte	0x4bb
 6389 14cb 00000000 		.4byte	.LFB62
 6390 14cf 78000000 		.4byte	.LFE62-.LFB62
 6391 14d3 01       		.uleb128 0x1
 6392 14d4 9C       		.byte	0x9c
 6393 14d5 68150000 		.4byte	0x1568
 6394 14d9 34       		.uleb128 0x34
 6395 14da 74686400 		.ascii	"thd\000"
 6396 14de 01       		.byte	0x1
 6397 14df BB04     		.2byte	0x4bb
 6398 14e1 8B090000 		.4byte	0x98b
 6399 14e5 BC030000 		.4byte	.LLST102
 6400 14e9 2D       		.uleb128 0x2d
 6401 14ea 747000   		.ascii	"tp\000"
 6402 14ed 01       		.byte	0x1
 6403 14ee BD04     		.2byte	0x4bd
 6404 14f0 D40A0000 		.4byte	0xad4
 6405 14f4 14040000 		.4byte	.LLST103
 6406 14f8 45       		.uleb128 0x45
 6407 14f9 0A150000 		.4byte	0x150a
 6408 14fd 46       		.uleb128 0x46
 6409 14fe 1C000000 		.4byte	.LASF169
 6410 1502 01       		.byte	0x1
 6411 1503 CA04     		.2byte	0x4ca
 6412 1505 68150000 		.4byte	0x1568
 6413 1509 00       		.byte	0
 6414 150a 30       		.uleb128 0x30
 6415 150b 08000000 		.4byte	.LVL258
 6416 150f 31280000 		.4byte	0x2831
 6417 1513 47       		.uleb128 0x47
 6418 1514 1E000000 		.4byte	.LVL259
 6419 1518 02280000 		.4byte	0x2802
 6420 151c 31       		.uleb128 0x31
 6421 151d 2E000000 		.4byte	.LVL262
 6422 1521 802A0000 		.4byte	0x2a80
 6423 1525 30150000 		.4byte	0x1530
 6424 1529 32       		.uleb128 0x32
 6425 152a 01       		.uleb128 0x1
 6426 152b 50       		.byte	0x50
 6427 152c 02       		.uleb128 0x2
 6428 152d 70       		.byte	0x70
 6429 152e 00       		.sleb128 0
ARM GAS  /tmp/ccYjC7Ok.s 			page 114


 6430 152f 00       		.byte	0
 6431 1530 31       		.uleb128 0x31
 6432 1531 3A000000 		.4byte	.LVL263
 6433 1535 18290000 		.4byte	0x2918
 6434 1539 44150000 		.4byte	0x1544
 6435 153d 32       		.uleb128 0x32
 6436 153e 01       		.uleb128 0x1
 6437 153f 50       		.byte	0x50
 6438 1540 02       		.uleb128 0x2
 6439 1541 70       		.byte	0x70
 6440 1542 00       		.sleb128 0
 6441 1543 00       		.byte	0
 6442 1544 48       		.uleb128 0x48
 6443 1545 50000000 		.4byte	.LVL266
 6444 1549 DE260000 		.4byte	0x26de
 6445 154d 57150000 		.4byte	0x1557
 6446 1551 32       		.uleb128 0x32
 6447 1552 01       		.uleb128 0x1
 6448 1553 50       		.byte	0x50
 6449 1554 01       		.uleb128 0x1
 6450 1555 31       		.byte	0x31
 6451 1556 00       		.byte	0
 6452 1557 3B       		.uleb128 0x3b
 6453 1558 5A000000 		.4byte	.LVL268
 6454 155c 4E220000 		.4byte	0x224e
 6455 1560 32       		.uleb128 0x32
 6456 1561 01       		.uleb128 0x1
 6457 1562 50       		.byte	0x50
 6458 1563 02       		.uleb128 0x2
 6459 1564 74       		.byte	0x74
 6460 1565 00       		.sleb128 0
 6461 1566 00       		.byte	0
 6462 1567 00       		.byte	0
 6463 1568 07       		.uleb128 0x7
 6464 1569 04       		.byte	0x4
 6465 156a EB0A0000 		.4byte	0xaeb
 6466 156e 42       		.uleb128 0x42
 6467 156f E5070000 		.4byte	.LASF231
 6468 1573 01       		.byte	0x1
 6469 1574 9004     		.2byte	0x490
 6470 1576 01       		.byte	0x1
 6471 1577 A8150000 		.4byte	0x15a8
 6472 157b 43       		.uleb128 0x43
 6473 157c 707800   		.ascii	"px\000"
 6474 157f 01       		.byte	0x1
 6475 1580 9004     		.2byte	0x490
 6476 1582 52140000 		.4byte	0x1452
 6477 1586 43       		.uleb128 0x43
 6478 1587 706400   		.ascii	"pd\000"
 6479 158a 01       		.byte	0x1
 6480 158b 9004     		.2byte	0x490
 6481 158d 03140000 		.4byte	0x1403
 6482 1591 35       		.uleb128 0x35
 6483 1592 706A00   		.ascii	"pj\000"
 6484 1595 01       		.byte	0x1
 6485 1596 9204     		.2byte	0x492
 6486 1598 28140000 		.4byte	0x1428
ARM GAS  /tmp/ccYjC7Ok.s 			page 115


 6487 159c 35       		.uleb128 0x35
 6488 159d 747000   		.ascii	"tp\000"
 6489 15a0 01       		.byte	0x1
 6490 15a1 9304     		.2byte	0x493
 6491 15a3 D40A0000 		.4byte	0xad4
 6492 15a7 00       		.byte	0
 6493 15a8 2B       		.uleb128 0x2b
 6494 15a9 B2070000 		.4byte	.LASF232
 6495 15ad 01       		.byte	0x1
 6496 15ae 5604     		.2byte	0x456
 6497 15b0 80000000 		.4byte	0x80
 6498 15b4 00000000 		.4byte	.LFB60
 6499 15b8 A4000000 		.4byte	.LFE60-.LFB60
 6500 15bc 01       		.uleb128 0x1
 6501 15bd 9C       		.byte	0x9c
 6502 15be A4160000 		.4byte	0x16a4
 6503 15c2 34       		.uleb128 0x34
 6504 15c3 74686400 		.ascii	"thd\000"
 6505 15c7 01       		.byte	0x1
 6506 15c8 5604     		.2byte	0x456
 6507 15ca 8B090000 		.4byte	0x98b
 6508 15ce 6C040000 		.4byte	.LLST110
 6509 15d2 34       		.uleb128 0x34
 6510 15d3 72657400 		.ascii	"ret\000"
 6511 15d7 01       		.byte	0x1
 6512 15d8 5604     		.2byte	0x456
 6513 15da A4160000 		.4byte	0x16a4
 6514 15de 8A040000 		.4byte	.LLST111
 6515 15e2 2D       		.uleb128 0x2d
 6516 15e3 747000   		.ascii	"tp\000"
 6517 15e6 01       		.byte	0x1
 6518 15e7 5804     		.2byte	0x458
 6519 15e9 D40A0000 		.4byte	0xad4
 6520 15ed A8040000 		.4byte	.LLST112
 6521 15f1 2D       		.uleb128 0x2d
 6522 15f2 7200     		.ascii	"r\000"
 6523 15f4 01       		.byte	0x1
 6524 15f5 5904     		.2byte	0x459
 6525 15f7 80000000 		.4byte	0x80
 6526 15fb C6040000 		.4byte	.LLST113
 6527 15ff 36       		.uleb128 0x36
 6528 1600 26000000 		.4byte	.LBB385
 6529 1604 4A000000 		.4byte	.LBE385-.LBB385
 6530 1608 58160000 		.4byte	0x1658
 6531 160c 2D       		.uleb128 0x2d
 6532 160d 74703000 		.ascii	"tp0\000"
 6533 1611 01       		.byte	0x1
 6534 1612 6A04     		.2byte	0x46a
 6535 1614 D40A0000 		.4byte	0xad4
 6536 1618 FC040000 		.4byte	.LLST114
 6537 161c 30       		.uleb128 0x30
 6538 161d 36000000 		.4byte	.LVL299
 6539 1621 4E220000 		.4byte	0x224e
 6540 1625 31       		.uleb128 0x31
 6541 1626 3E000000 		.4byte	.LVL300
 6542 162a 88290000 		.4byte	0x2988
 6543 162e 3F160000 		.4byte	0x163f
ARM GAS  /tmp/ccYjC7Ok.s 			page 116


 6544 1632 32       		.uleb128 0x32
 6545 1633 01       		.uleb128 0x1
 6546 1634 50       		.byte	0x50
 6547 1635 02       		.uleb128 0x2
 6548 1636 70       		.byte	0x70
 6549 1637 00       		.sleb128 0
 6550 1638 32       		.uleb128 0x32
 6551 1639 01       		.uleb128 0x1
 6552 163a 51       		.byte	0x51
 6553 163b 02       		.uleb128 0x2
 6554 163c 71       		.byte	0x71
 6555 163d 00       		.sleb128 0
 6556 163e 00       		.byte	0
 6557 163f 30       		.uleb128 0x30
 6558 1640 66000000 		.4byte	.LVL302
 6559 1644 701C0000 		.4byte	0x1c70
 6560 1648 3B       		.uleb128 0x3b
 6561 1649 70000000 		.4byte	.LVL305
 6562 164d DE260000 		.4byte	0x26de
 6563 1651 32       		.uleb128 0x32
 6564 1652 01       		.uleb128 0x1
 6565 1653 50       		.byte	0x50
 6566 1654 01       		.uleb128 0x1
 6567 1655 30       		.byte	0x30
 6568 1656 00       		.byte	0
 6569 1657 00       		.byte	0
 6570 1658 30       		.uleb128 0x30
 6571 1659 0A000000 		.4byte	.LVL294
 6572 165d 9C140000 		.4byte	0x149c
 6573 1661 30       		.uleb128 0x30
 6574 1662 0E000000 		.4byte	.LVL295
 6575 1666 31280000 		.4byte	0x2831
 6576 166a 30       		.uleb128 0x30
 6577 166b 18000000 		.4byte	.LVL296
 6578 166f 02280000 		.4byte	0x2802
 6579 1673 31       		.uleb128 0x31
 6580 1674 1E000000 		.4byte	.LVL297
 6581 1678 0B2B0000 		.4byte	0x2b0b
 6582 167c 86160000 		.4byte	0x1686
 6583 1680 32       		.uleb128 0x32
 6584 1681 01       		.uleb128 0x1
 6585 1682 50       		.byte	0x50
 6586 1683 01       		.uleb128 0x1
 6587 1684 32       		.byte	0x32
 6588 1685 00       		.byte	0
 6589 1686 31       		.uleb128 0x31
 6590 1687 7C000000 		.4byte	.LVL307
 6591 168b AA160000 		.4byte	0x16aa
 6592 168f 9A160000 		.4byte	0x169a
 6593 1693 32       		.uleb128 0x32
 6594 1694 01       		.uleb128 0x1
 6595 1695 50       		.byte	0x50
 6596 1696 02       		.uleb128 0x2
 6597 1697 09       		.byte	0x9
 6598 1698 FF       		.byte	0xff
 6599 1699 00       		.byte	0
 6600 169a 30       		.uleb128 0x30
ARM GAS  /tmp/ccYjC7Ok.s 			page 117


 6601 169b 80000000 		.4byte	.LVL308
 6602 169f 02280000 		.4byte	0x2802
 6603 16a3 00       		.byte	0
 6604 16a4 07       		.uleb128 0x7
 6605 16a5 04       		.byte	0x4
 6606 16a6 25000000 		.4byte	0x25
 6607 16aa 49       		.uleb128 0x49
 6608 16ab 9A020000 		.4byte	.LASF233
 6609 16af 01       		.byte	0x1
 6610 16b0 3104     		.2byte	0x431
 6611 16b2 00000000 		.4byte	.LFB59
 6612 16b6 90000000 		.4byte	.LFE59-.LFB59
 6613 16ba 01       		.uleb128 0x1
 6614 16bb 9C       		.byte	0x9c
 6615 16bc 85170000 		.4byte	0x1785
 6616 16c0 2C       		.uleb128 0x2c
 6617 16c1 D1060000 		.4byte	.LASF234
 6618 16c5 01       		.byte	0x1
 6619 16c6 3104     		.2byte	0x431
 6620 16c8 25000000 		.4byte	0x25
 6621 16cc 25050000 		.4byte	.LLST40
 6622 16d0 2D       		.uleb128 0x2d
 6623 16d1 6D00     		.ascii	"m\000"
 6624 16d3 01       		.byte	0x1
 6625 16d4 3304     		.2byte	0x433
 6626 16d6 DA0A0000 		.4byte	0xada
 6627 16da 43050000 		.4byte	.LLST41
 6628 16de 2F       		.uleb128 0x2f
 6629 16df E50C0000 		.4byte	.LASF235
 6630 16e3 01       		.byte	0x1
 6631 16e4 3304     		.2byte	0x433
 6632 16e6 DA0A0000 		.4byte	0xada
 6633 16ea 6C050000 		.4byte	.LLST42
 6634 16ee 2D       		.uleb128 0x2d
 6635 16ef 636C7000 		.ascii	"clp\000"
 6636 16f3 01       		.byte	0x1
 6637 16f4 3404     		.2byte	0x434
 6638 16f6 6A0B0000 		.4byte	0xb6a
 6639 16fa 7F050000 		.4byte	.LLST43
 6640 16fe 38       		.uleb128 0x38
 6641 16ff 25200000 		.4byte	0x2025
 6642 1703 16000000 		.4byte	.LBB281
 6643 1707 00010000 		.4byte	.Ldebug_ranges0+0x100
 6644 170b 01       		.byte	0x1
 6645 170c 4904     		.2byte	0x449
 6646 170e 69170000 		.4byte	0x1769
 6647 1712 39       		.uleb128 0x39
 6648 1713 32200000 		.4byte	0x2032
 6649 1717 9D050000 		.4byte	.LLST44
 6650 171b 3E       		.uleb128 0x3e
 6651 171c 00010000 		.4byte	.Ldebug_ranges0+0x100
 6652 1720 3F       		.uleb128 0x3f
 6653 1721 3E200000 		.4byte	0x203e
 6654 1725 BB050000 		.4byte	.LLST45
 6655 1729 30       		.uleb128 0x30
 6656 172a 1A000000 		.4byte	.LVL91
 6657 172e 31280000 		.4byte	0x2831
ARM GAS  /tmp/ccYjC7Ok.s 			page 118


 6658 1732 31       		.uleb128 0x31
 6659 1733 36000000 		.4byte	.LVL95
 6660 1737 802A0000 		.4byte	0x2a80
 6661 173b 46170000 		.4byte	0x1746
 6662 173f 32       		.uleb128 0x32
 6663 1740 01       		.uleb128 0x1
 6664 1741 50       		.byte	0x50
 6665 1742 02       		.uleb128 0x2
 6666 1743 73       		.byte	0x73
 6667 1744 00       		.sleb128 0
 6668 1745 00       		.byte	0
 6669 1746 30       		.uleb128 0x30
 6670 1747 3C000000 		.4byte	.LVL96
 6671 174b 49200000 		.4byte	0x2049
 6672 174f 30       		.uleb128 0x30
 6673 1750 4A000000 		.4byte	.LVL97
 6674 1754 4E220000 		.4byte	0x224e
 6675 1758 3B       		.uleb128 0x3b
 6676 1759 66000000 		.4byte	.LVL98
 6677 175d DE260000 		.4byte	0x26de
 6678 1761 32       		.uleb128 0x32
 6679 1762 01       		.uleb128 0x1
 6680 1763 50       		.byte	0x50
 6681 1764 01       		.uleb128 0x1
 6682 1765 30       		.byte	0x30
 6683 1766 00       		.byte	0
 6684 1767 00       		.byte	0
 6685 1768 00       		.byte	0
 6686 1769 30       		.uleb128 0x30
 6687 176a 78000000 		.4byte	.LVL104
 6688 176e 31280000 		.4byte	0x2831
 6689 1772 30       		.uleb128 0x30
 6690 1773 7C000000 		.4byte	.LVL105
 6691 1777 741F0000 		.4byte	0x1f74
 6692 177b 30       		.uleb128 0x30
 6693 177c 80000000 		.4byte	.LVL106
 6694 1780 02280000 		.4byte	0x2802
 6695 1784 00       		.byte	0
 6696 1785 4A       		.uleb128 0x4a
 6697 1786 A7020000 		.4byte	.LASF312
 6698 178a 01       		.byte	0x1
 6699 178b 1A04     		.2byte	0x41a
 6700 178d 00000000 		.4byte	.LFB58
 6701 1791 1C000000 		.4byte	.LFE58-.LFB58
 6702 1795 01       		.uleb128 0x1
 6703 1796 9C       		.byte	0x9c
 6704 1797 BC170000 		.4byte	0x17bc
 6705 179b 2C       		.uleb128 0x2c
 6706 179c C9060000 		.4byte	.LASF236
 6707 17a0 01       		.byte	0x1
 6708 17a1 1A04     		.2byte	0x41a
 6709 17a3 80000000 		.4byte	0x80
 6710 17a7 D9050000 		.4byte	.LLST100
 6711 17ab 2D       		.uleb128 0x2d
 6712 17ac 636C7000 		.ascii	"clp\000"
 6713 17b0 01       		.byte	0x1
 6714 17b1 1C04     		.2byte	0x41c
ARM GAS  /tmp/ccYjC7Ok.s 			page 119


 6715 17b3 6A0B0000 		.4byte	0xb6a
 6716 17b7 05060000 		.4byte	.LLST101
 6717 17bb 00       		.byte	0
 6718 17bc 44       		.uleb128 0x44
 6719 17bd 41050000 		.4byte	.LASF237
 6720 17c1 01       		.byte	0x1
 6721 17c2 0C04     		.2byte	0x40c
 6722 17c4 00000000 		.4byte	.LFB57
 6723 17c8 10000000 		.4byte	.LFE57-.LFB57
 6724 17cc 01       		.uleb128 0x1
 6725 17cd 9C       		.byte	0x9c
 6726 17ce E1170000 		.4byte	0x17e1
 6727 17d2 4B       		.uleb128 0x4b
 6728 17d3 636C7000 		.ascii	"clp\000"
 6729 17d7 01       		.byte	0x1
 6730 17d8 0C04     		.2byte	0x40c
 6731 17da 6A0B0000 		.4byte	0xb6a
 6732 17de 01       		.uleb128 0x1
 6733 17df 50       		.byte	0x50
 6734 17e0 00       		.byte	0
 6735 17e1 44       		.uleb128 0x44
 6736 17e2 8A0B0000 		.4byte	.LASF238
 6737 17e6 01       		.byte	0x1
 6738 17e7 FF03     		.2byte	0x3ff
 6739 17e9 00000000 		.4byte	.LFB56
 6740 17ed 16000000 		.4byte	.LFE56-.LFB56
 6741 17f1 01       		.uleb128 0x1
 6742 17f2 9C       		.byte	0x9c
 6743 17f3 22180000 		.4byte	0x1822
 6744 17f7 2C       		.uleb128 0x2c
 6745 17f8 17070000 		.4byte	.LASF224
 6746 17fc 01       		.byte	0x1
 6747 17fd FF03     		.2byte	0x3ff
 6748 17ff 22180000 		.4byte	0x1822
 6749 1803 23060000 		.4byte	.LLST140
 6750 1807 3B       		.uleb128 0x3b
 6751 1808 10000000 		.4byte	.LVL400
 6752 180c 80100000 		.4byte	0x1080
 6753 1810 32       		.uleb128 0x32
 6754 1811 01       		.uleb128 0x1
 6755 1812 50       		.byte	0x50
 6756 1813 01       		.uleb128 0x1
 6757 1814 30       		.byte	0x30
 6758 1815 32       		.uleb128 0x32
 6759 1816 01       		.uleb128 0x1
 6760 1817 51       		.byte	0x51
 6761 1818 01       		.uleb128 0x1
 6762 1819 31       		.byte	0x31
 6763 181a 32       		.uleb128 0x32
 6764 181b 01       		.uleb128 0x1
 6765 181c 52       		.byte	0x52
 6766 181d 02       		.uleb128 0x2
 6767 181e 91       		.byte	0x91
 6768 181f 74       		.sleb128 -12
 6769 1820 00       		.byte	0
 6770 1821 00       		.byte	0
 6771 1822 07       		.uleb128 0x7
ARM GAS  /tmp/ccYjC7Ok.s 			page 120


 6772 1823 04       		.byte	0x4
 6773 1824 9E0C0000 		.4byte	0xc9e
 6774 1828 42       		.uleb128 0x42
 6775 1829 5E080000 		.4byte	.LASF239
 6776 182d 01       		.byte	0x1
 6777 182e E803     		.2byte	0x3e8
 6778 1830 01       		.byte	0x1
 6779 1831 58180000 		.4byte	0x1858
 6780 1835 43       		.uleb128 0x43
 6781 1836 707800   		.ascii	"px\000"
 6782 1839 01       		.byte	0x1
 6783 183a E803     		.2byte	0x3e8
 6784 183c 52140000 		.4byte	0x1452
 6785 1840 43       		.uleb128 0x43
 6786 1841 706400   		.ascii	"pd\000"
 6787 1844 01       		.byte	0x1
 6788 1845 E803     		.2byte	0x3e8
 6789 1847 03140000 		.4byte	0x1403
 6790 184b 46       		.uleb128 0x46
 6791 184c 17070000 		.4byte	.LASF224
 6792 1850 01       		.byte	0x1
 6793 1851 EA03     		.2byte	0x3ea
 6794 1853 22140000 		.4byte	0x1422
 6795 1857 00       		.byte	0
 6796 1858 44       		.uleb128 0x44
 6797 1859 9D040000 		.4byte	.LASF240
 6798 185d 01       		.byte	0x1
 6799 185e D803     		.2byte	0x3d8
 6800 1860 00000000 		.4byte	.LFB54
 6801 1864 58000000 		.4byte	.LFE54-.LFB54
 6802 1868 01       		.uleb128 0x1
 6803 1869 9C       		.byte	0x9c
 6804 186a F0180000 		.4byte	0x18f0
 6805 186e 2C       		.uleb128 0x2c
 6806 186f 17070000 		.4byte	.LASF224
 6807 1873 01       		.byte	0x1
 6808 1874 D803     		.2byte	0x3d8
 6809 1876 22180000 		.4byte	0x1822
 6810 187a 42060000 		.4byte	.LLST95
 6811 187e 2C       		.uleb128 0x2c
 6812 187f 5C010000 		.4byte	.LASF174
 6813 1883 01       		.byte	0x1
 6814 1884 D803     		.2byte	0x3d8
 6815 1886 99000000 		.4byte	0x99
 6816 188a 63060000 		.4byte	.LLST96
 6817 188e 3A       		.uleb128 0x3a
 6818 188f 88280000 		.4byte	0x2888
 6819 1893 10000000 		.4byte	.LBB377
 6820 1897 10000000 		.4byte	.LBE377-.LBB377
 6821 189b 01       		.byte	0x1
 6822 189c E003     		.2byte	0x3e0
 6823 189e AC180000 		.4byte	0x18ac
 6824 18a2 39       		.uleb128 0x39
 6825 18a3 94280000 		.4byte	0x2894
 6826 18a7 84060000 		.4byte	.LLST97
 6827 18ab 00       		.byte	0
 6828 18ac 3A       		.uleb128 0x3a
ARM GAS  /tmp/ccYjC7Ok.s 			page 121


 6829 18ad 68280000 		.4byte	0x2868
 6830 18b1 20000000 		.4byte	.LBB379
 6831 18b5 2A000000 		.4byte	.LBE379-.LBB379
 6832 18b9 01       		.byte	0x1
 6833 18ba E103     		.2byte	0x3e1
 6834 18bc DD180000 		.4byte	0x18dd
 6835 18c0 39       		.uleb128 0x39
 6836 18c1 74280000 		.4byte	0x2874
 6837 18c5 97060000 		.4byte	.LLST98
 6838 18c9 40       		.uleb128 0x40
 6839 18ca 20000000 		.4byte	.LBB380
 6840 18ce 2A000000 		.4byte	.LBE380-.LBB380
 6841 18d2 3F       		.uleb128 0x3f
 6842 18d3 7D280000 		.4byte	0x287d
 6843 18d7 B8060000 		.4byte	.LLST99
 6844 18db 00       		.byte	0
 6845 18dc 00       		.byte	0
 6846 18dd 30       		.uleb128 0x30
 6847 18de 10000000 		.4byte	.LVL244
 6848 18e2 31280000 		.4byte	0x2831
 6849 18e6 47       		.uleb128 0x47
 6850 18e7 52000000 		.4byte	.LVL251
 6851 18eb 02280000 		.4byte	0x2802
 6852 18ef 00       		.byte	0
 6853 18f0 42       		.uleb128 0x42
 6854 18f1 6C080000 		.4byte	.LASF241
 6855 18f5 01       		.byte	0x1
 6856 18f6 B003     		.2byte	0x3b0
 6857 18f8 01       		.byte	0x1
 6858 18f9 1F190000 		.4byte	0x191f
 6859 18fd 43       		.uleb128 0x43
 6860 18fe 707800   		.ascii	"px\000"
 6861 1901 01       		.byte	0x1
 6862 1902 B003     		.2byte	0x3b0
 6863 1904 52140000 		.4byte	0x1452
 6864 1908 43       		.uleb128 0x43
 6865 1909 706400   		.ascii	"pd\000"
 6866 190c 01       		.byte	0x1
 6867 190d B003     		.2byte	0x3b0
 6868 190f 03140000 		.4byte	0x1403
 6869 1913 35       		.uleb128 0x35
 6870 1914 706300   		.ascii	"pc\000"
 6871 1917 01       		.byte	0x1
 6872 1918 B203     		.2byte	0x3b2
 6873 191a 1C140000 		.4byte	0x141c
 6874 191e 00       		.byte	0
 6875 191f 44       		.uleb128 0x44
 6876 1920 3F070000 		.4byte	.LASF242
 6877 1924 01       		.byte	0x1
 6878 1925 9E03     		.2byte	0x39e
 6879 1927 00000000 		.4byte	.LFB52
 6880 192b 2E000000 		.4byte	.LFE52-.LFB52
 6881 192f 01       		.uleb128 0x1
 6882 1930 9C       		.byte	0x9c
 6883 1931 A6190000 		.4byte	0x19a6
 6884 1935 2C       		.uleb128 0x2c
 6885 1936 1C000000 		.4byte	.LASF169
ARM GAS  /tmp/ccYjC7Ok.s 			page 122


 6886 193a 01       		.byte	0x1
 6887 193b 9E03     		.2byte	0x39e
 6888 193d 1B0C0000 		.4byte	0xc1b
 6889 1941 CB060000 		.4byte	.LLST92
 6890 1945 2D       		.uleb128 0x2d
 6891 1946 7000     		.ascii	"p\000"
 6892 1948 01       		.byte	0x1
 6893 1949 A003     		.2byte	0x3a0
 6894 194b 85090000 		.4byte	0x985
 6895 194f 10070000 		.4byte	.LLST93
 6896 1953 2F       		.uleb128 0x2f
 6897 1954 11070000 		.4byte	.LASF243
 6898 1958 01       		.byte	0x1
 6899 1959 A103     		.2byte	0x3a1
 6900 195b 80000000 		.4byte	0x80
 6901 195f 39070000 		.4byte	.LLST94
 6902 1963 30       		.uleb128 0x30
 6903 1964 0A000000 		.4byte	.LVL232
 6904 1968 31280000 		.4byte	0x2831
 6905 196c 31       		.uleb128 0x31
 6906 196d 10000000 		.4byte	.LVL233
 6907 1971 1E2A0000 		.4byte	0x2a1e
 6908 1975 80190000 		.4byte	0x1980
 6909 1979 32       		.uleb128 0x32
 6910 197a 01       		.uleb128 0x1
 6911 197b 50       		.byte	0x50
 6912 197c 02       		.uleb128 0x2
 6913 197d 75       		.byte	0x75
 6914 197e 00       		.sleb128 0
 6915 197f 00       		.byte	0
 6916 1980 48       		.uleb128 0x48
 6917 1981 1E000000 		.4byte	.LVL237
 6918 1985 DE260000 		.4byte	0x26de
 6919 1989 93190000 		.4byte	0x1993
 6920 198d 32       		.uleb128 0x32
 6921 198e 01       		.uleb128 0x1
 6922 198f 50       		.byte	0x50
 6923 1990 01       		.uleb128 0x1
 6924 1991 31       		.byte	0x31
 6925 1992 00       		.byte	0
 6926 1993 30       		.uleb128 0x30
 6927 1994 22000000 		.4byte	.LVL238
 6928 1998 49200000 		.4byte	0x2049
 6929 199c 47       		.uleb128 0x47
 6930 199d 2E000000 		.4byte	.LVL242
 6931 19a1 02280000 		.4byte	0x2802
 6932 19a5 00       		.byte	0
 6933 19a6 44       		.uleb128 0x44
 6934 19a7 3B060000 		.4byte	.LASF244
 6935 19ab 01       		.byte	0x1
 6936 19ac 8503     		.2byte	0x385
 6937 19ae 00000000 		.4byte	.LFB51
 6938 19b2 24000000 		.4byte	.LFE51-.LFB51
 6939 19b6 01       		.uleb128 0x1
 6940 19b7 9C       		.byte	0x9c
 6941 19b8 221A0000 		.4byte	0x1a22
 6942 19bc 2C       		.uleb128 0x2c
ARM GAS  /tmp/ccYjC7Ok.s 			page 123


 6943 19bd 1C000000 		.4byte	.LASF169
 6944 19c1 01       		.byte	0x1
 6945 19c2 8503     		.2byte	0x385
 6946 19c4 1B0C0000 		.4byte	0xc1b
 6947 19c8 63070000 		.4byte	.LLST89
 6948 19cc 2D       		.uleb128 0x2d
 6949 19cd 7000     		.ascii	"p\000"
 6950 19cf 01       		.byte	0x1
 6951 19d0 8703     		.2byte	0x387
 6952 19d2 85090000 		.4byte	0x985
 6953 19d6 84070000 		.4byte	.LLST90
 6954 19da 2F       		.uleb128 0x2f
 6955 19db 11070000 		.4byte	.LASF243
 6956 19df 01       		.byte	0x1
 6957 19e0 8803     		.2byte	0x388
 6958 19e2 80000000 		.4byte	0x80
 6959 19e6 97070000 		.4byte	.LLST91
 6960 19ea 30       		.uleb128 0x30
 6961 19eb 06000000 		.4byte	.LVL225
 6962 19ef 31280000 		.4byte	0x2831
 6963 19f3 30       		.uleb128 0x30
 6964 19f4 0A000000 		.4byte	.LVL226
 6965 19f8 1E2A0000 		.4byte	0x2a1e
 6966 19fc 30       		.uleb128 0x30
 6967 19fd 10000000 		.4byte	.LVL227
 6968 1a01 49200000 		.4byte	0x2049
 6969 1a05 48       		.uleb128 0x48
 6970 1a06 1C000000 		.4byte	.LVL229
 6971 1a0a DE260000 		.4byte	0x26de
 6972 1a0e 181A0000 		.4byte	0x1a18
 6973 1a12 32       		.uleb128 0x32
 6974 1a13 01       		.uleb128 0x1
 6975 1a14 50       		.byte	0x50
 6976 1a15 01       		.uleb128 0x1
 6977 1a16 31       		.byte	0x31
 6978 1a17 00       		.byte	0
 6979 1a18 47       		.uleb128 0x47
 6980 1a19 24000000 		.4byte	.LVL230
 6981 1a1d 02280000 		.4byte	0x2802
 6982 1a21 00       		.byte	0
 6983 1a22 44       		.uleb128 0x44
 6984 1a23 6A090000 		.4byte	.LASF245
 6985 1a27 01       		.byte	0x1
 6986 1a28 5F03     		.2byte	0x35f
 6987 1a2a 00000000 		.4byte	.LFB50
 6988 1a2e 5C000000 		.4byte	.LFE50-.LFB50
 6989 1a32 01       		.uleb128 0x1
 6990 1a33 9C       		.byte	0x9c
 6991 1a34 011B0000 		.4byte	0x1b01
 6992 1a38 2C       		.uleb128 0x2c
 6993 1a39 1C000000 		.4byte	.LASF169
 6994 1a3d 01       		.byte	0x1
 6995 1a3e 5F03     		.2byte	0x35f
 6996 1a40 1B0C0000 		.4byte	0xc1b
 6997 1a44 B6070000 		.4byte	.LLST106
 6998 1a48 2C       		.uleb128 0x2c
 6999 1a49 48020000 		.4byte	.LASF170
ARM GAS  /tmp/ccYjC7Ok.s 			page 124


 7000 1a4d 01       		.byte	0x1
 7001 1a4e 5F03     		.2byte	0x35f
 7002 1a50 210C0000 		.4byte	0xc21
 7003 1a54 F8070000 		.4byte	.LLST107
 7004 1a58 2D       		.uleb128 0x2d
 7005 1a59 747000   		.ascii	"tp\000"
 7006 1a5c 01       		.byte	0x1
 7007 1a5d 6103     		.2byte	0x361
 7008 1a5f D40A0000 		.4byte	0xad4
 7009 1a63 24080000 		.4byte	.LLST108
 7010 1a67 2D       		.uleb128 0x2d
 7011 1a68 7200     		.ascii	"r\000"
 7012 1a6a 01       		.byte	0x1
 7013 1a6b 6203     		.2byte	0x362
 7014 1a6d 80000000 		.4byte	0x80
 7015 1a71 37080000 		.4byte	.LLST109
 7016 1a75 30       		.uleb128 0x30
 7017 1a76 0E000000 		.4byte	.LVL278
 7018 1a7a 9C140000 		.4byte	0x149c
 7019 1a7e 30       		.uleb128 0x30
 7020 1a7f 12000000 		.4byte	.LVL279
 7021 1a83 31280000 		.4byte	0x2831
 7022 1a87 31       		.uleb128 0x31
 7023 1a88 1A000000 		.4byte	.LVL281
 7024 1a8c 741F0000 		.4byte	0x1f74
 7025 1a90 9B1A0000 		.4byte	0x1a9b
 7026 1a94 32       		.uleb128 0x32
 7027 1a95 01       		.uleb128 0x1
 7028 1a96 50       		.byte	0x50
 7029 1a97 02       		.uleb128 0x2
 7030 1a98 75       		.byte	0x75
 7031 1a99 00       		.sleb128 0
 7032 1a9a 00       		.byte	0
 7033 1a9b 31       		.uleb128 0x31
 7034 1a9c 28000000 		.4byte	.LVL282
 7035 1aa0 4E220000 		.4byte	0x224e
 7036 1aa4 AF1A0000 		.4byte	0x1aaf
 7037 1aa8 32       		.uleb128 0x32
 7038 1aa9 01       		.uleb128 0x1
 7039 1aaa 50       		.byte	0x50
 7040 1aab 02       		.uleb128 0x2
 7041 1aac 74       		.byte	0x74
 7042 1aad 00       		.sleb128 0
 7043 1aae 00       		.byte	0
 7044 1aaf 31       		.uleb128 0x31
 7045 1ab0 30000000 		.4byte	.LVL283
 7046 1ab4 88290000 		.4byte	0x2988
 7047 1ab8 C91A0000 		.4byte	0x1ac9
 7048 1abc 32       		.uleb128 0x32
 7049 1abd 01       		.uleb128 0x1
 7050 1abe 50       		.byte	0x50
 7051 1abf 02       		.uleb128 0x2
 7052 1ac0 70       		.byte	0x70
 7053 1ac1 00       		.sleb128 0
 7054 1ac2 32       		.uleb128 0x32
 7055 1ac3 01       		.uleb128 0x1
 7056 1ac4 51       		.byte	0x51
ARM GAS  /tmp/ccYjC7Ok.s 			page 125


 7057 1ac5 02       		.uleb128 0x2
 7058 1ac6 71       		.byte	0x71
 7059 1ac7 00       		.sleb128 0
 7060 1ac8 00       		.byte	0
 7061 1ac9 31       		.uleb128 0x31
 7062 1aca 40000000 		.4byte	.LVL285
 7063 1ace DE260000 		.4byte	0x26de
 7064 1ad2 DC1A0000 		.4byte	0x1adc
 7065 1ad6 32       		.uleb128 0x32
 7066 1ad7 01       		.uleb128 0x1
 7067 1ad8 50       		.byte	0x50
 7068 1ad9 01       		.uleb128 0x1
 7069 1ada 30       		.byte	0x30
 7070 1adb 00       		.byte	0
 7071 1adc 31       		.uleb128 0x31
 7072 1add 4A000000 		.4byte	.LVL289
 7073 1ae1 8B1B0000 		.4byte	0x1b8b
 7074 1ae5 F01A0000 		.4byte	0x1af0
 7075 1ae9 32       		.uleb128 0x32
 7076 1aea 01       		.uleb128 0x1
 7077 1aeb 50       		.byte	0x50
 7078 1aec 02       		.uleb128 0x2
 7079 1aed 75       		.byte	0x75
 7080 1aee 00       		.sleb128 0
 7081 1aef 00       		.byte	0
 7082 1af0 3B       		.uleb128 0x3b
 7083 1af1 56000000 		.4byte	.LVL290
 7084 1af5 AA160000 		.4byte	0x16aa
 7085 1af9 32       		.uleb128 0x32
 7086 1afa 01       		.uleb128 0x1
 7087 1afb 50       		.byte	0x50
 7088 1afc 02       		.uleb128 0x2
 7089 1afd 09       		.byte	0x9
 7090 1afe FF       		.byte	0xff
 7091 1aff 00       		.byte	0
 7092 1b00 00       		.byte	0
 7093 1b01 44       		.uleb128 0x44
 7094 1b02 990A0000 		.4byte	.LASF246
 7095 1b06 01       		.byte	0x1
 7096 1b07 5003     		.2byte	0x350
 7097 1b09 00000000 		.4byte	.LFB49
 7098 1b0d 06000000 		.4byte	.LFE49-.LFB49
 7099 1b11 01       		.uleb128 0x1
 7100 1b12 9C       		.byte	0x9c
 7101 1b13 261B0000 		.4byte	0x1b26
 7102 1b17 4C       		.uleb128 0x4c
 7103 1b18 1C000000 		.4byte	.LASF169
 7104 1b1c 01       		.byte	0x1
 7105 1b1d 5003     		.2byte	0x350
 7106 1b1f 1B0C0000 		.4byte	0xc1b
 7107 1b23 01       		.uleb128 0x1
 7108 1b24 50       		.byte	0x50
 7109 1b25 00       		.byte	0
 7110 1b26 44       		.uleb128 0x44
 7111 1b27 14060000 		.4byte	.LASF247
 7112 1b2b 01       		.byte	0x1
 7113 1b2c 3A03     		.2byte	0x33a
ARM GAS  /tmp/ccYjC7Ok.s 			page 126


 7114 1b2e 00000000 		.4byte	.LFB48
 7115 1b32 2C000000 		.4byte	.LFE48-.LFB48
 7116 1b36 01       		.uleb128 0x1
 7117 1b37 9C       		.byte	0x9c
 7118 1b38 8B1B0000 		.4byte	0x1b8b
 7119 1b3c 2C       		.uleb128 0x2c
 7120 1b3d 48020000 		.4byte	.LASF170
 7121 1b41 01       		.byte	0x1
 7122 1b42 3A03     		.2byte	0x33a
 7123 1b44 210C0000 		.4byte	0xc21
 7124 1b48 55080000 		.4byte	.LLST87
 7125 1b4c 2F       		.uleb128 0x2f
 7126 1b4d 69050000 		.4byte	.LASF136
 7127 1b51 01       		.byte	0x1
 7128 1b52 3C03     		.2byte	0x33c
 7129 1b54 96090000 		.4byte	0x996
 7130 1b58 76080000 		.4byte	.LLST88
 7131 1b5c 30       		.uleb128 0x30
 7132 1b5d 06000000 		.4byte	.LVL218
 7133 1b61 31280000 		.4byte	0x2831
 7134 1b65 30       		.uleb128 0x30
 7135 1b66 0A000000 		.4byte	.LVL219
 7136 1b6a 741F0000 		.4byte	0x1f74
 7137 1b6e 48       		.uleb128 0x48
 7138 1b6f 1E000000 		.4byte	.LVL221
 7139 1b73 DE260000 		.4byte	0x26de
 7140 1b77 811B0000 		.4byte	0x1b81
 7141 1b7b 32       		.uleb128 0x32
 7142 1b7c 01       		.uleb128 0x1
 7143 1b7d 50       		.byte	0x50
 7144 1b7e 01       		.uleb128 0x1
 7145 1b7f 31       		.byte	0x31
 7146 1b80 00       		.byte	0
 7147 1b81 47       		.uleb128 0x47
 7148 1b82 26000000 		.4byte	.LVL222
 7149 1b86 02280000 		.4byte	0x2802
 7150 1b8a 00       		.byte	0
 7151 1b8b 44       		.uleb128 0x44
 7152 1b8c 3E090000 		.4byte	.LASF248
 7153 1b90 01       		.byte	0x1
 7154 1b91 0003     		.2byte	0x300
 7155 1b93 00000000 		.4byte	.LFB47
 7156 1b97 90000000 		.4byte	.LFE47-.LFB47
 7157 1b9b 01       		.uleb128 0x1
 7158 1b9c 9C       		.byte	0x9c
 7159 1b9d 701C0000 		.4byte	0x1c70
 7160 1ba1 2C       		.uleb128 0x2c
 7161 1ba2 48020000 		.4byte	.LASF170
 7162 1ba6 01       		.byte	0x1
 7163 1ba7 0003     		.2byte	0x300
 7164 1ba9 210C0000 		.4byte	0xc21
 7165 1bad 94080000 		.4byte	.LLST83
 7166 1bb1 2D       		.uleb128 0x2d
 7167 1bb2 747000   		.ascii	"tp\000"
 7168 1bb5 01       		.byte	0x1
 7169 1bb6 0203     		.2byte	0x302
 7170 1bb8 D40A0000 		.4byte	0xad4
ARM GAS  /tmp/ccYjC7Ok.s 			page 127


 7171 1bbc CB080000 		.4byte	.LLST84
 7172 1bc0 3E       		.uleb128 0x3e
 7173 1bc1 D0010000 		.4byte	.Ldebug_ranges0+0x1d0
 7174 1bc5 2D       		.uleb128 0x2d
 7175 1bc6 6D00     		.ascii	"m\000"
 7176 1bc8 01       		.byte	0x1
 7177 1bc9 0603     		.2byte	0x306
 7178 1bcb 210C0000 		.4byte	0xc21
 7179 1bcf F8080000 		.4byte	.LLST85
 7180 1bd3 2D       		.uleb128 0x2d
 7181 1bd4 74703000 		.ascii	"tp0\000"
 7182 1bd8 01       		.byte	0x1
 7183 1bd9 0703     		.2byte	0x307
 7184 1bdb D40A0000 		.4byte	0xad4
 7185 1bdf 24090000 		.4byte	.LLST86
 7186 1be3 30       		.uleb128 0x30
 7187 1be4 18000000 		.4byte	.LVL205
 7188 1be8 31280000 		.4byte	0x2831
 7189 1bec 47       		.uleb128 0x47
 7190 1bed 2C000000 		.4byte	.LVL208
 7191 1bf1 02280000 		.4byte	0x2802
 7192 1bf5 31       		.uleb128 0x31
 7193 1bf6 32000000 		.4byte	.LVL209
 7194 1bfa 701C0000 		.4byte	0x1c70
 7195 1bfe 091C0000 		.4byte	0x1c09
 7196 1c02 32       		.uleb128 0x32
 7197 1c03 01       		.uleb128 0x1
 7198 1c04 50       		.byte	0x50
 7199 1c05 02       		.uleb128 0x2
 7200 1c06 74       		.byte	0x74
 7201 1c07 00       		.sleb128 0
 7202 1c08 00       		.byte	0
 7203 1c09 31       		.uleb128 0x31
 7204 1c0a 5A000000 		.4byte	.LVL211
 7205 1c0e 4E220000 		.4byte	0x224e
 7206 1c12 1D1C0000 		.4byte	0x1c1d
 7207 1c16 32       		.uleb128 0x32
 7208 1c17 01       		.uleb128 0x1
 7209 1c18 50       		.byte	0x50
 7210 1c19 02       		.uleb128 0x2
 7211 1c1a 74       		.byte	0x74
 7212 1c1b 00       		.sleb128 0
 7213 1c1c 00       		.byte	0
 7214 1c1d 31       		.uleb128 0x31
 7215 1c1e 60000000 		.4byte	.LVL212
 7216 1c22 18290000 		.4byte	0x2918
 7217 1c26 311C0000 		.4byte	0x1c31
 7218 1c2a 32       		.uleb128 0x32
 7219 1c2b 01       		.uleb128 0x1
 7220 1c2c 50       		.byte	0x50
 7221 1c2d 02       		.uleb128 0x2
 7222 1c2e 70       		.byte	0x70
 7223 1c2f 00       		.sleb128 0
 7224 1c30 00       		.byte	0
 7225 1c31 31       		.uleb128 0x31
 7226 1c32 6E000000 		.4byte	.LVL213
 7227 1c36 4E220000 		.4byte	0x224e
ARM GAS  /tmp/ccYjC7Ok.s 			page 128


 7228 1c3a 451C0000 		.4byte	0x1c45
 7229 1c3e 32       		.uleb128 0x32
 7230 1c3f 01       		.uleb128 0x1
 7231 1c40 50       		.byte	0x50
 7232 1c41 02       		.uleb128 0x2
 7233 1c42 75       		.byte	0x75
 7234 1c43 00       		.sleb128 0
 7235 1c44 00       		.byte	0
 7236 1c45 31       		.uleb128 0x31
 7237 1c46 76000000 		.4byte	.LVL214
 7238 1c4a 88290000 		.4byte	0x2988
 7239 1c4e 5F1C0000 		.4byte	0x1c5f
 7240 1c52 32       		.uleb128 0x32
 7241 1c53 01       		.uleb128 0x1
 7242 1c54 50       		.byte	0x50
 7243 1c55 02       		.uleb128 0x2
 7244 1c56 70       		.byte	0x70
 7245 1c57 00       		.sleb128 0
 7246 1c58 32       		.uleb128 0x32
 7247 1c59 01       		.uleb128 0x1
 7248 1c5a 51       		.byte	0x51
 7249 1c5b 02       		.uleb128 0x2
 7250 1c5c 71       		.byte	0x71
 7251 1c5d 00       		.sleb128 0
 7252 1c5e 00       		.byte	0
 7253 1c5f 3B       		.uleb128 0x3b
 7254 1c60 84000000 		.4byte	.LVL216
 7255 1c64 DE260000 		.4byte	0x26de
 7256 1c68 32       		.uleb128 0x32
 7257 1c69 01       		.uleb128 0x1
 7258 1c6a 50       		.byte	0x50
 7259 1c6b 01       		.uleb128 0x1
 7260 1c6c 30       		.byte	0x30
 7261 1c6d 00       		.byte	0
 7262 1c6e 00       		.byte	0
 7263 1c6f 00       		.byte	0
 7264 1c70 4D       		.uleb128 0x4d
 7265 1c71 FF000000 		.4byte	.LASF262
 7266 1c75 01       		.byte	0x1
 7267 1c76 D802     		.2byte	0x2d8
 7268 1c78 D40A0000 		.4byte	0xad4
 7269 1c7c 01       		.byte	0x1
 7270 1c7d AD1C0000 		.4byte	0x1cad
 7271 1c81 43       		.uleb128 0x43
 7272 1c82 747000   		.ascii	"tp\000"
 7273 1c85 01       		.byte	0x1
 7274 1c86 D802     		.2byte	0x2d8
 7275 1c88 D40A0000 		.4byte	0xad4
 7276 1c8c 45       		.uleb128 0x45
 7277 1c8d 9E1C0000 		.4byte	0x1c9e
 7278 1c91 46       		.uleb128 0x46
 7279 1c92 48020000 		.4byte	.LASF170
 7280 1c96 01       		.byte	0x1
 7281 1c97 E202     		.2byte	0x2e2
 7282 1c99 DA0A0000 		.4byte	0xada
 7283 1c9d 00       		.byte	0
 7284 1c9e 4E       		.uleb128 0x4e
ARM GAS  /tmp/ccYjC7Ok.s 			page 129


 7285 1c9f 46       		.uleb128 0x46
 7286 1ca0 1C000000 		.4byte	.LASF169
 7287 1ca4 01       		.byte	0x1
 7288 1ca5 EB02     		.2byte	0x2eb
 7289 1ca7 68150000 		.4byte	0x1568
 7290 1cab 00       		.byte	0
 7291 1cac 00       		.byte	0
 7292 1cad 44       		.uleb128 0x44
 7293 1cae 450D0000 		.4byte	.LASF249
 7294 1cb2 01       		.byte	0x1
 7295 1cb3 CA02     		.2byte	0x2ca
 7296 1cb5 00000000 		.4byte	.LFB45
 7297 1cb9 0C000000 		.4byte	.LFE45-.LFB45
 7298 1cbd 01       		.uleb128 0x1
 7299 1cbe 9C       		.byte	0x9c
 7300 1cbf D21C0000 		.4byte	0x1cd2
 7301 1cc3 4C       		.uleb128 0x4c
 7302 1cc4 48020000 		.4byte	.LASF170
 7303 1cc8 01       		.byte	0x1
 7304 1cc9 CA02     		.2byte	0x2ca
 7305 1ccb 210C0000 		.4byte	0xc21
 7306 1ccf 01       		.uleb128 0x1
 7307 1cd0 50       		.byte	0x50
 7308 1cd1 00       		.byte	0
 7309 1cd2 44       		.uleb128 0x44
 7310 1cd3 E00A0000 		.4byte	.LASF250
 7311 1cd7 01       		.byte	0x1
 7312 1cd8 BD02     		.2byte	0x2bd
 7313 1cda 00000000 		.4byte	.LFB44
 7314 1cde 20000000 		.4byte	.LFE44-.LFB44
 7315 1ce2 01       		.uleb128 0x1
 7316 1ce3 9C       		.byte	0x9c
 7317 1ce4 4D1D0000 		.4byte	0x1d4d
 7318 1ce8 2C       		.uleb128 0x2c
 7319 1ce9 63030000 		.4byte	.LASF251
 7320 1ced 01       		.byte	0x1
 7321 1cee BD02     		.2byte	0x2bd
 7322 1cf0 AF000000 		.4byte	0xaf
 7323 1cf4 4D090000 		.4byte	.LLST104
 7324 1cf8 4F       		.uleb128 0x4f
 7325 1cf9 4D1D0000 		.4byte	0x1d4d
 7326 1cfd 08000000 		.4byte	.LBB383
 7327 1d01 14000000 		.4byte	.LBE383-.LBB383
 7328 1d05 01       		.byte	0x1
 7329 1d06 BF02     		.2byte	0x2bf
 7330 1d08 50       		.uleb128 0x50
 7331 1d09 5A1D0000 		.4byte	0x1d5a
 7332 1d0d 03       		.uleb128 0x3
 7333 1d0e 91       		.byte	0x91
 7334 1d0f 74       		.sleb128 -12
 7335 1d10 9F       		.byte	0x9f
 7336 1d11 40       		.uleb128 0x40
 7337 1d12 08000000 		.4byte	.LBB384
 7338 1d16 14000000 		.4byte	.LBE384-.LBB384
 7339 1d1a 3F       		.uleb128 0x3f
 7340 1d1b 661D0000 		.4byte	0x1d66
 7341 1d1f 60090000 		.4byte	.LLST105
ARM GAS  /tmp/ccYjC7Ok.s 			page 130


 7342 1d23 30       		.uleb128 0x30
 7343 1d24 0C000000 		.4byte	.LVL273
 7344 1d28 9C140000 		.4byte	0x149c
 7345 1d2c 30       		.uleb128 0x30
 7346 1d2d 10000000 		.4byte	.LVL274
 7347 1d31 31280000 		.4byte	0x2831
 7348 1d35 3B       		.uleb128 0x3b
 7349 1d36 18000000 		.4byte	.LVL275
 7350 1d3a 711D0000 		.4byte	0x1d71
 7351 1d3e 32       		.uleb128 0x32
 7352 1d3f 01       		.uleb128 0x1
 7353 1d40 50       		.byte	0x50
 7354 1d41 01       		.uleb128 0x1
 7355 1d42 34       		.byte	0x34
 7356 1d43 32       		.uleb128 0x32
 7357 1d44 01       		.uleb128 0x1
 7358 1d45 51       		.byte	0x51
 7359 1d46 02       		.uleb128 0x2
 7360 1d47 74       		.byte	0x74
 7361 1d48 00       		.sleb128 0
 7362 1d49 00       		.byte	0
 7363 1d4a 00       		.byte	0
 7364 1d4b 00       		.byte	0
 7365 1d4c 00       		.byte	0
 7366 1d4d 42       		.uleb128 0x42
 7367 1d4e 1E010000 		.4byte	.LASF252
 7368 1d52 01       		.byte	0x1
 7369 1d53 A802     		.2byte	0x2a8
 7370 1d55 01       		.byte	0x1
 7371 1d56 711D0000 		.4byte	0x1d71
 7372 1d5a 43       		.uleb128 0x43
 7373 1d5b 76617200 		.ascii	"var\000"
 7374 1d5f 01       		.byte	0x1
 7375 1d60 A802     		.2byte	0x2a8
 7376 1d62 FE0D0000 		.4byte	0xdfe
 7377 1d66 35       		.uleb128 0x35
 7378 1d67 7200     		.ascii	"r\000"
 7379 1d69 01       		.byte	0x1
 7380 1d6a AA02     		.2byte	0x2aa
 7381 1d6c 80000000 		.4byte	0x80
 7382 1d70 00       		.byte	0
 7383 1d71 51       		.uleb128 0x51
 7384 1d72 A7070000 		.4byte	.LASF259
 7385 1d76 01       		.byte	0x1
 7386 1d77 8B02     		.2byte	0x28b
 7387 1d79 80000000 		.4byte	0x80
 7388 1d7d 00000000 		.4byte	.LFB42
 7389 1d81 54000000 		.4byte	.LFE42-.LFB42
 7390 1d85 01       		.uleb128 0x1
 7391 1d86 9C       		.byte	0x9c
 7392 1d87 0D1E0000 		.4byte	0x1e0d
 7393 1d8b 2C       		.uleb128 0x2c
 7394 1d8c 930A0000 		.4byte	.LASF146
 7395 1d90 01       		.byte	0x1
 7396 1d91 8B02     		.2byte	0x28b
 7397 1d93 AF000000 		.4byte	0xaf
 7398 1d97 73090000 		.4byte	.LLST46
ARM GAS  /tmp/ccYjC7Ok.s 			page 131


 7399 1d9b 2C       		.uleb128 0x2c
 7400 1d9c CD000000 		.4byte	.LASF221
 7401 1da0 01       		.byte	0x1
 7402 1da1 8B02     		.2byte	0x28b
 7403 1da3 FE0D0000 		.4byte	0xdfe
 7404 1da7 A7090000 		.4byte	.LLST47
 7405 1dab 2F       		.uleb128 0x2f
 7406 1dac 63030000 		.4byte	.LASF251
 7407 1db0 01       		.byte	0x1
 7408 1db1 8D02     		.2byte	0x28d
 7409 1db3 AF000000 		.4byte	0xaf
 7410 1db7 DB090000 		.4byte	.LLST48
 7411 1dbb 2F       		.uleb128 0x2f
 7412 1dbc 07000000 		.4byte	.LASF253
 7413 1dc0 01       		.byte	0x1
 7414 1dc1 8E02     		.2byte	0x28e
 7415 1dc3 AF000000 		.4byte	0xaf
 7416 1dc7 050A0000 		.4byte	.LLST49
 7417 1dcb 52       		.uleb128 0x52
 7418 1dcc 7200     		.ascii	"r\000"
 7419 1dce 01       		.byte	0x1
 7420 1dcf 8F02     		.2byte	0x28f
 7421 1dd1 80000000 		.4byte	0x80
 7422 1dd5 01       		.uleb128 0x1
 7423 1dd6 50       		.byte	0x50
 7424 1dd7 30       		.uleb128 0x30
 7425 1dd8 0E000000 		.4byte	.LVL111
 7426 1ddc 02280000 		.4byte	0x2802
 7427 1de0 30       		.uleb128 0x30
 7428 1de1 2A000000 		.4byte	.LVL116
 7429 1de5 4E220000 		.4byte	0x224e
 7430 1de9 31       		.uleb128 0x31
 7431 1dea 3A000000 		.4byte	.LVL117
 7432 1dee 3C230000 		.4byte	0x233c
 7433 1df2 FD1D0000 		.4byte	0x1dfd
 7434 1df6 32       		.uleb128 0x32
 7435 1df7 01       		.uleb128 0x1
 7436 1df8 51       		.byte	0x51
 7437 1df9 02       		.uleb128 0x2
 7438 1dfa 74       		.byte	0x74
 7439 1dfb 00       		.sleb128 0
 7440 1dfc 00       		.byte	0
 7441 1dfd 3B       		.uleb128 0x3b
 7442 1dfe 40000000 		.4byte	.LVL118
 7443 1e02 DE260000 		.4byte	0x26de
 7444 1e06 32       		.uleb128 0x32
 7445 1e07 01       		.uleb128 0x1
 7446 1e08 50       		.byte	0x50
 7447 1e09 01       		.uleb128 0x1
 7448 1e0a 30       		.byte	0x30
 7449 1e0b 00       		.byte	0
 7450 1e0c 00       		.byte	0
 7451 1e0d 2B       		.uleb128 0x2b
 7452 1e0e 43030000 		.4byte	.LASF254
 7453 1e12 01       		.byte	0x1
 7454 1e13 5A02     		.2byte	0x25a
 7455 1e15 8B090000 		.4byte	0x98b
ARM GAS  /tmp/ccYjC7Ok.s 			page 132


 7456 1e19 00000000 		.4byte	.LFB41
 7457 1e1d C4000000 		.4byte	.LFE41-.LFB41
 7458 1e21 01       		.uleb128 0x1
 7459 1e22 9C       		.byte	0x9c
 7460 1e23 6E1F0000 		.4byte	0x1f6e
 7461 1e27 2C       		.uleb128 0x2c
 7462 1e28 6E050000 		.4byte	.LASF255
 7463 1e2c 01       		.byte	0x1
 7464 1e2d 5A02     		.2byte	0x25a
 7465 1e2f AF000000 		.4byte	0xaf
 7466 1e33 180A0000 		.4byte	.LLST72
 7467 1e37 2C       		.uleb128 0x2c
 7468 1e38 69010000 		.4byte	.LASF256
 7469 1e3c 01       		.byte	0x1
 7470 1e3d 5B02     		.2byte	0x25b
 7471 1e3f BF000000 		.4byte	0xbf
 7472 1e43 5A0A0000 		.4byte	.LLST73
 7473 1e47 2C       		.uleb128 0x2c
 7474 1e48 780B0000 		.4byte	.LASF257
 7475 1e4c 01       		.byte	0x1
 7476 1e4d 5B02     		.2byte	0x25b
 7477 1e4f CA000000 		.4byte	0xca
 7478 1e53 8E0A0000 		.4byte	.LLST74
 7479 1e57 2C       		.uleb128 0x2c
 7480 1e58 AF040000 		.4byte	.LASF258
 7481 1e5c 01       		.byte	0x1
 7482 1e5d 5C02     		.2byte	0x25c
 7483 1e5f 6E1F0000 		.4byte	0x1f6e
 7484 1e63 D60A0000 		.4byte	.LLST75
 7485 1e67 34       		.uleb128 0x34
 7486 1e68 61726700 		.ascii	"arg\000"
 7487 1e6c 01       		.byte	0x1
 7488 1e6d 5C02     		.2byte	0x25c
 7489 1e6f 25000000 		.4byte	0x25
 7490 1e73 0A0B0000 		.4byte	.LLST76
 7491 1e77 35       		.uleb128 0x35
 7492 1e78 747000   		.ascii	"tp\000"
 7493 1e7b 01       		.byte	0x1
 7494 1e7c 5E02     		.2byte	0x25e
 7495 1e7e D40A0000 		.4byte	0xad4
 7496 1e82 2E       		.uleb128 0x2e
 7497 1e83 69050000 		.4byte	.LASF136
 7498 1e87 01       		.byte	0x1
 7499 1e88 5F02     		.2byte	0x25f
 7500 1e8a 96090000 		.4byte	0x996
 7501 1e8e 01       		.uleb128 0x1
 7502 1e8f 57       		.byte	0x57
 7503 1e90 38       		.uleb128 0x38
 7504 1e91 75260000 		.4byte	0x2675
 7505 1e95 00000000 		.4byte	.LBB361
 7506 1e99 A8010000 		.4byte	.Ldebug_ranges0+0x1a8
 7507 1e9d 01       		.byte	0x1
 7508 1e9e 6102     		.2byte	0x261
 7509 1ea0 341F0000 		.4byte	0x1f34
 7510 1ea4 39       		.uleb128 0x39
 7511 1ea5 AA260000 		.4byte	0x26aa
 7512 1ea9 1E0B0000 		.4byte	.LLST77
ARM GAS  /tmp/ccYjC7Ok.s 			page 133


 7513 1ead 39       		.uleb128 0x39
 7514 1eae 9E260000 		.4byte	0x269e
 7515 1eb2 320B0000 		.4byte	.LLST78
 7516 1eb6 39       		.uleb128 0x39
 7517 1eb7 92260000 		.4byte	0x2692
 7518 1ebb 660B0000 		.4byte	.LLST79
 7519 1ebf 39       		.uleb128 0x39
 7520 1ec0 86260000 		.4byte	0x2686
 7521 1ec4 A00B0000 		.4byte	.LLST80
 7522 1ec8 3E       		.uleb128 0x3e
 7523 1ec9 A8010000 		.4byte	.Ldebug_ranges0+0x1a8
 7524 1ecd 3F       		.uleb128 0x3f
 7525 1ece B6260000 		.4byte	0x26b6
 7526 1ed2 D40B0000 		.4byte	.LLST81
 7527 1ed6 3F       		.uleb128 0x3f
 7528 1ed7 C1260000 		.4byte	0x26c1
 7529 1edb E70B0000 		.4byte	.LLST82
 7530 1edf 53       		.uleb128 0x53
 7531 1ee0 CD260000 		.4byte	0x26cd
 7532 1ee4 01       		.uleb128 0x1
 7533 1ee5 54       		.byte	0x54
 7534 1ee6 31       		.uleb128 0x31
 7535 1ee7 16000000 		.4byte	.LVL186
 7536 1eeb 0B2B0000 		.4byte	0x2b0b
 7537 1eef F91E0000 		.4byte	0x1ef9
 7538 1ef3 32       		.uleb128 0x32
 7539 1ef4 01       		.uleb128 0x1
 7540 1ef5 50       		.byte	0x50
 7541 1ef6 01       		.uleb128 0x1
 7542 1ef7 31       		.byte	0x31
 7543 1ef8 00       		.byte	0
 7544 1ef9 31       		.uleb128 0x31
 7545 1efa 28000000 		.4byte	.LVL191
 7546 1efe 6F2C0000 		.4byte	0x2c6f
 7547 1f02 171F0000 		.4byte	0x1f17
 7548 1f06 32       		.uleb128 0x32
 7549 1f07 01       		.uleb128 0x1
 7550 1f08 50       		.byte	0x50
 7551 1f09 02       		.uleb128 0x2
 7552 1f0a 74       		.byte	0x74
 7553 1f0b 04       		.sleb128 4
 7554 1f0c 32       		.uleb128 0x32
 7555 1f0d 01       		.uleb128 0x1
 7556 1f0e 51       		.byte	0x51
 7557 1f0f 01       		.uleb128 0x1
 7558 1f10 30       		.byte	0x30
 7559 1f11 32       		.uleb128 0x32
 7560 1f12 01       		.uleb128 0x1
 7561 1f13 52       		.byte	0x52
 7562 1f14 01       		.uleb128 0x1
 7563 1f15 40       		.byte	0x40
 7564 1f16 00       		.byte	0
 7565 1f17 3B       		.uleb128 0x3b
 7566 1f18 46000000 		.4byte	.LVL192
 7567 1f1c 6F2C0000 		.4byte	0x2c6f
 7568 1f20 32       		.uleb128 0x32
 7569 1f21 01       		.uleb128 0x1
ARM GAS  /tmp/ccYjC7Ok.s 			page 134


 7570 1f22 50       		.byte	0x50
 7571 1f23 02       		.uleb128 0x2
 7572 1f24 74       		.byte	0x74
 7573 1f25 34       		.sleb128 52
 7574 1f26 32       		.uleb128 0x32
 7575 1f27 01       		.uleb128 0x1
 7576 1f28 51       		.byte	0x51
 7577 1f29 01       		.uleb128 0x1
 7578 1f2a 30       		.byte	0x30
 7579 1f2b 32       		.uleb128 0x32
 7580 1f2c 01       		.uleb128 0x1
 7581 1f2d 52       		.byte	0x52
 7582 1f2e 02       		.uleb128 0x2
 7583 1f2f 08       		.byte	0x8
 7584 1f30 20       		.byte	0x20
 7585 1f31 00       		.byte	0
 7586 1f32 00       		.byte	0
 7587 1f33 00       		.byte	0
 7588 1f34 30       		.uleb128 0x30
 7589 1f35 94000000 		.4byte	.LVL197
 7590 1f39 31280000 		.4byte	0x2831
 7591 1f3d 31       		.uleb128 0x31
 7592 1f3e 9A000000 		.4byte	.LVL198
 7593 1f42 18290000 		.4byte	0x2918
 7594 1f46 511F0000 		.4byte	0x1f51
 7595 1f4a 32       		.uleb128 0x32
 7596 1f4b 01       		.uleb128 0x1
 7597 1f4c 50       		.byte	0x50
 7598 1f4d 02       		.uleb128 0x2
 7599 1f4e 76       		.byte	0x76
 7600 1f4f 00       		.sleb128 0
 7601 1f50 00       		.byte	0
 7602 1f51 31       		.uleb128 0x31
 7603 1f52 AE000000 		.4byte	.LVL199
 7604 1f56 DE260000 		.4byte	0x26de
 7605 1f5a 641F0000 		.4byte	0x1f64
 7606 1f5e 32       		.uleb128 0x32
 7607 1f5f 01       		.uleb128 0x1
 7608 1f60 50       		.byte	0x50
 7609 1f61 01       		.uleb128 0x1
 7610 1f62 31       		.byte	0x31
 7611 1f63 00       		.byte	0
 7612 1f64 30       		.uleb128 0x30
 7613 1f65 B8000000 		.4byte	.LVL201
 7614 1f69 02280000 		.4byte	0x2802
 7615 1f6d 00       		.byte	0
 7616 1f6e 07       		.uleb128 0x7
 7617 1f6f 04       		.byte	0x4
 7618 1f70 A90C0000 		.4byte	0xca9
 7619 1f74 51       		.uleb128 0x51
 7620 1f75 BF0A0000 		.4byte	.LASF260
 7621 1f79 01       		.byte	0x1
 7622 1f7a 2D02     		.2byte	0x22d
 7623 1f7c 96090000 		.4byte	0x996
 7624 1f80 00000000 		.4byte	.LFB40
 7625 1f84 44000000 		.4byte	.LFE40-.LFB40
 7626 1f88 01       		.uleb128 0x1
ARM GAS  /tmp/ccYjC7Ok.s 			page 135


 7627 1f89 9C       		.byte	0x9c
 7628 1f8a 25200000 		.4byte	0x2025
 7629 1f8e 2C       		.uleb128 0x2c
 7630 1f8f 48020000 		.4byte	.LASF170
 7631 1f93 01       		.byte	0x1
 7632 1f94 2D02     		.2byte	0x22d
 7633 1f96 210C0000 		.4byte	0xc21
 7634 1f9a FA0B0000 		.4byte	.LLST7
 7635 1f9e 2D       		.uleb128 0x2d
 7636 1f9f 747000   		.ascii	"tp\000"
 7637 1fa2 01       		.byte	0x1
 7638 1fa3 2F02     		.2byte	0x22f
 7639 1fa5 D40A0000 		.4byte	0xad4
 7640 1fa9 1B0C0000 		.4byte	.LLST8
 7641 1fad 2F       		.uleb128 0x2f
 7642 1fae 69050000 		.4byte	.LASF136
 7643 1fb2 01       		.byte	0x1
 7644 1fb3 3002     		.2byte	0x230
 7645 1fb5 96090000 		.4byte	0x996
 7646 1fb9 440C0000 		.4byte	.LLST9
 7647 1fbd 37       		.uleb128 0x37
 7648 1fbe 18000000 		.4byte	.Ldebug_ranges0+0x18
 7649 1fc2 13200000 		.4byte	0x2013
 7650 1fc6 2F       		.uleb128 0x2f
 7651 1fc7 1B030000 		.4byte	.LASF261
 7652 1fcb 01       		.byte	0x1
 7653 1fcc 3902     		.2byte	0x239
 7654 1fce A4000000 		.4byte	0xa4
 7655 1fd2 6F0C0000 		.4byte	.LLST10
 7656 1fd6 2D       		.uleb128 0x2d
 7657 1fd7 6D00     		.ascii	"m\000"
 7658 1fd9 01       		.byte	0x1
 7659 1fda 3A02     		.2byte	0x23a
 7660 1fdc 210C0000 		.4byte	0xc21
 7661 1fe0 8D0C0000 		.4byte	.LLST11
 7662 1fe4 3A       		.uleb128 0x3a
 7663 1fe5 A62A0000 		.4byte	0x2aa6
 7664 1fe9 2C000000 		.4byte	.LBB202
 7665 1fed 02000000 		.4byte	.LBE202-.LBB202
 7666 1ff1 01       		.byte	0x1
 7667 1ff2 4002     		.2byte	0x240
 7668 1ff4 02200000 		.4byte	0x2002
 7669 1ff8 39       		.uleb128 0x39
 7670 1ff9 B62A0000 		.4byte	0x2ab6
 7671 1ffd AB0C0000 		.4byte	.LLST12
 7672 2001 00       		.byte	0
 7673 2002 3B       		.uleb128 0x3b
 7674 2003 20000000 		.4byte	.LVL22
 7675 2007 18290000 		.4byte	0x2918
 7676 200b 32       		.uleb128 0x32
 7677 200c 01       		.uleb128 0x1
 7678 200d 50       		.byte	0x50
 7679 200e 02       		.uleb128 0x2
 7680 200f 70       		.byte	0x70
 7681 2010 00       		.sleb128 0
 7682 2011 00       		.byte	0
 7683 2012 00       		.byte	0
ARM GAS  /tmp/ccYjC7Ok.s 			page 136


 7684 2013 3B       		.uleb128 0x3b
 7685 2014 14000000 		.4byte	.LVL20
 7686 2018 1E2A0000 		.4byte	0x2a1e
 7687 201c 32       		.uleb128 0x32
 7688 201d 01       		.uleb128 0x1
 7689 201e 50       		.byte	0x50
 7690 201f 03       		.uleb128 0x3
 7691 2020 F3       		.byte	0xf3
 7692 2021 01       		.uleb128 0x1
 7693 2022 50       		.byte	0x50
 7694 2023 00       		.byte	0
 7695 2024 00       		.byte	0
 7696 2025 54       		.uleb128 0x54
 7697 2026 200C0000 		.4byte	.LASF263
 7698 202a 01       		.byte	0x1
 7699 202b 0A02     		.2byte	0x20a
 7700 202d 01       		.byte	0x1
 7701 202e 49200000 		.4byte	0x2049
 7702 2032 55       		.uleb128 0x55
 7703 2033 D1060000 		.4byte	.LASF234
 7704 2037 01       		.byte	0x1
 7705 2038 0A02     		.2byte	0x20a
 7706 203a 25000000 		.4byte	0x25
 7707 203e 35       		.uleb128 0x35
 7708 203f 7000     		.ascii	"p\000"
 7709 2041 01       		.byte	0x1
 7710 2042 0C02     		.2byte	0x20c
 7711 2044 85090000 		.4byte	0x985
 7712 2048 00       		.byte	0
 7713 2049 4D       		.uleb128 0x4d
 7714 204a 7C0D0000 		.4byte	.LASF264
 7715 204e 01       		.byte	0x1
 7716 204f E301     		.2byte	0x1e3
 7717 2051 80000000 		.4byte	0x80
 7718 2055 01       		.byte	0x1
 7719 2056 8A200000 		.4byte	0x208a
 7720 205a 43       		.uleb128 0x43
 7721 205b 707100   		.ascii	"pq\000"
 7722 205e 01       		.byte	0x1
 7723 205f E301     		.2byte	0x1e3
 7724 2061 85090000 		.4byte	0x985
 7725 2065 46       		.uleb128 0x46
 7726 2066 11070000 		.4byte	.LASF243
 7727 206a 01       		.byte	0x1
 7728 206b E501     		.2byte	0x1e5
 7729 206d 80000000 		.4byte	0x80
 7730 2071 35       		.uleb128 0x35
 7731 2072 747000   		.ascii	"tp\000"
 7732 2075 01       		.byte	0x1
 7733 2076 E601     		.2byte	0x1e6
 7734 2078 D40A0000 		.4byte	0xad4
 7735 207c 4E       		.uleb128 0x4e
 7736 207d 35       		.uleb128 0x35
 7737 207e 707800   		.ascii	"px\000"
 7738 2081 01       		.byte	0x1
 7739 2082 EA01     		.2byte	0x1ea
 7740 2084 52140000 		.4byte	0x1452
ARM GAS  /tmp/ccYjC7Ok.s 			page 137


 7741 2088 00       		.byte	0
 7742 2089 00       		.byte	0
 7743 208a 44       		.uleb128 0x44
 7744 208b 67060000 		.4byte	.LASF265
 7745 208f 01       		.byte	0x1
 7746 2090 B701     		.2byte	0x1b7
 7747 2092 00000000 		.4byte	.LFB37
 7748 2096 94000000 		.4byte	.LFE37-.LFB37
 7749 209a 01       		.uleb128 0x1
 7750 209b 9C       		.byte	0x9c
 7751 209c F5200000 		.4byte	0x20f5
 7752 20a0 34       		.uleb128 0x34
 7753 20a1 747000   		.ascii	"tp\000"
 7754 20a4 01       		.byte	0x1
 7755 20a5 B701     		.2byte	0x1b7
 7756 20a7 D40A0000 		.4byte	0xad4
 7757 20ab BE0C0000 		.4byte	.LLST70
 7758 20af 56       		.uleb128 0x56
 7759 20b0 60280000 		.4byte	0x2860
 7760 20b4 04000000 		.4byte	.LBB351
 7761 20b8 78010000 		.4byte	.Ldebug_ranges0+0x178
 7762 20bc 01       		.byte	0x1
 7763 20bd B901     		.2byte	0x1b9
 7764 20bf 57       		.uleb128 0x57
 7765 20c0 30270000 		.4byte	0x2730
 7766 20c4 0C000000 		.4byte	.LBB354
 7767 20c8 90010000 		.4byte	.Ldebug_ranges0+0x190
 7768 20cc 01       		.byte	0x1
 7769 20cd BA01     		.2byte	0x1ba
 7770 20cf 39       		.uleb128 0x39
 7771 20d0 3D270000 		.4byte	0x273d
 7772 20d4 EB0C0000 		.4byte	.LLST71
 7773 20d8 3B       		.uleb128 0x3b
 7774 20d9 20000000 		.4byte	.LVL177
 7775 20dd 6F2C0000 		.4byte	0x2c6f
 7776 20e1 32       		.uleb128 0x32
 7777 20e2 01       		.uleb128 0x1
 7778 20e3 50       		.byte	0x50
 7779 20e4 02       		.uleb128 0x2
 7780 20e5 74       		.byte	0x74
 7781 20e6 14       		.sleb128 20
 7782 20e7 32       		.uleb128 0x32
 7783 20e8 01       		.uleb128 0x1
 7784 20e9 51       		.byte	0x51
 7785 20ea 01       		.uleb128 0x1
 7786 20eb 30       		.byte	0x30
 7787 20ec 32       		.uleb128 0x32
 7788 20ed 01       		.uleb128 0x1
 7789 20ee 52       		.byte	0x52
 7790 20ef 02       		.uleb128 0x2
 7791 20f0 08       		.byte	0x8
 7792 20f1 24       		.byte	0x24
 7793 20f2 00       		.byte	0
 7794 20f3 00       		.byte	0
 7795 20f4 00       		.byte	0
 7796 20f5 44       		.uleb128 0x44
 7797 20f6 AD090000 		.4byte	.LASF266
ARM GAS  /tmp/ccYjC7Ok.s 			page 138


 7798 20fa 01       		.byte	0x1
 7799 20fb A601     		.2byte	0x1a6
 7800 20fd 00000000 		.4byte	.LFB36
 7801 2101 18000000 		.4byte	.LFE36-.LFB36
 7802 2105 01       		.uleb128 0x1
 7803 2106 9C       		.byte	0x9c
 7804 2107 1C210000 		.4byte	0x211c
 7805 210b 58       		.uleb128 0x58
 7806 210c 10290000 		.4byte	0x2910
 7807 2110 00000000 		.4byte	.LBB345
 7808 2114 0E000000 		.4byte	.LBE345-.LBB345
 7809 2118 01       		.byte	0x1
 7810 2119 A801     		.2byte	0x1a8
 7811 211b 00       		.byte	0
 7812 211c 44       		.uleb128 0x44
 7813 211d F9050000 		.4byte	.LASF267
 7814 2121 01       		.byte	0x1
 7815 2122 7701     		.2byte	0x177
 7816 2124 00000000 		.4byte	.LFB35
 7817 2128 A8000000 		.4byte	.LFE35-.LFB35
 7818 212c 01       		.uleb128 0x1
 7819 212d 9C       		.byte	0x9c
 7820 212e 4E220000 		.4byte	0x224e
 7821 2132 2D       		.uleb128 0x2d
 7822 2133 747000   		.ascii	"tp\000"
 7823 2136 01       		.byte	0x1
 7824 2137 7901     		.2byte	0x179
 7825 2139 D40A0000 		.4byte	0xad4
 7826 213d FE0C0000 		.4byte	.LLST61
 7827 2141 2F       		.uleb128 0x2f
 7828 2142 69050000 		.4byte	.LASF136
 7829 2146 01       		.byte	0x1
 7830 2147 7A01     		.2byte	0x17a
 7831 2149 A4000000 		.4byte	0xa4
 7832 214d 530D0000 		.4byte	.LLST62
 7833 2151 37       		.uleb128 0x37
 7834 2152 60010000 		.4byte	.Ldebug_ranges0+0x160
 7835 2156 1C220000 		.4byte	0x221c
 7836 215a 2F       		.uleb128 0x2f
 7837 215b D6080000 		.4byte	.LASF268
 7838 215f 01       		.byte	0x1
 7839 2160 7F01     		.2byte	0x17f
 7840 2162 AF000000 		.4byte	0xaf
 7841 2166 890D0000 		.4byte	.LLST63
 7842 216a 36       		.uleb128 0x36
 7843 216b 4C000000 		.4byte	.LBB336
 7844 216f 5C000000 		.4byte	.LBE336-.LBB336
 7845 2173 ED210000 		.4byte	0x21ed
 7846 2177 2F       		.uleb128 0x2f
 7847 2178 AA050000 		.4byte	.LASF269
 7848 217c 01       		.byte	0x1
 7849 217d 8A01     		.2byte	0x18a
 7850 217f D40A0000 		.4byte	0xad4
 7851 2183 A70D0000 		.4byte	.LLST65
 7852 2187 3A       		.uleb128 0x3a
 7853 2188 7E240000 		.4byte	0x247e
 7854 218c 7E000000 		.4byte	.LBB337
ARM GAS  /tmp/ccYjC7Ok.s 			page 139


 7855 2190 0E000000 		.4byte	.LBE337-.LBB337
 7856 2194 01       		.byte	0x1
 7857 2195 9C01     		.2byte	0x19c
 7858 2197 C8210000 		.4byte	0x21c8
 7859 219b 39       		.uleb128 0x39
 7860 219c 96240000 		.4byte	0x2496
 7861 21a0 C50D0000 		.4byte	.LLST66
 7862 21a4 39       		.uleb128 0x39
 7863 21a5 8B240000 		.4byte	0x248b
 7864 21a9 D80D0000 		.4byte	.LLST67
 7865 21ad 4F       		.uleb128 0x4f
 7866 21ae F8280000 		.4byte	0x28f8
 7867 21b2 7E000000 		.4byte	.LBB338
 7868 21b6 0E000000 		.4byte	.LBE338-.LBB338
 7869 21ba 01       		.byte	0x1
 7870 21bb 3301     		.2byte	0x133
 7871 21bd 39       		.uleb128 0x39
 7872 21be 04290000 		.4byte	0x2904
 7873 21c2 C50D0000 		.4byte	.LLST66
 7874 21c6 00       		.byte	0
 7875 21c7 00       		.byte	0
 7876 21c8 31       		.uleb128 0x31
 7877 21c9 58000000 		.4byte	.LVL166
 7878 21cd 802A0000 		.4byte	0x2a80
 7879 21d1 DC210000 		.4byte	0x21dc
 7880 21d5 32       		.uleb128 0x32
 7881 21d6 01       		.uleb128 0x1
 7882 21d7 50       		.byte	0x50
 7883 21d8 02       		.uleb128 0x2
 7884 21d9 70       		.byte	0x70
 7885 21da 00       		.sleb128 0
 7886 21db 00       		.byte	0
 7887 21dc 3B       		.uleb128 0x3b
 7888 21dd 5E000000 		.4byte	.LVL167
 7889 21e1 18290000 		.4byte	0x2918
 7890 21e5 32       		.uleb128 0x32
 7891 21e6 01       		.uleb128 0x1
 7892 21e7 50       		.byte	0x50
 7893 21e8 02       		.uleb128 0x2
 7894 21e9 70       		.byte	0x70
 7895 21ea 00       		.sleb128 0
 7896 21eb 00       		.byte	0
 7897 21ec 00       		.byte	0
 7898 21ed 3A       		.uleb128 0x3a
 7899 21ee A62A0000 		.4byte	0x2aa6
 7900 21f2 26000000 		.4byte	.LBB334
 7901 21f6 04000000 		.4byte	.LBE334-.LBB334
 7902 21fa 01       		.byte	0x1
 7903 21fb 8801     		.2byte	0x188
 7904 21fd 0B220000 		.4byte	0x220b
 7905 2201 39       		.uleb128 0x39
 7906 2202 B62A0000 		.4byte	0x2ab6
 7907 2206 F00D0000 		.4byte	.LLST64
 7908 220a 00       		.byte	0
 7909 220b 3B       		.uleb128 0x3b
 7910 220c 18000000 		.4byte	.LVL157
 7911 2210 18290000 		.4byte	0x2918
ARM GAS  /tmp/ccYjC7Ok.s 			page 140


 7912 2214 32       		.uleb128 0x32
 7913 2215 01       		.uleb128 0x1
 7914 2216 50       		.byte	0x50
 7915 2217 02       		.uleb128 0x2
 7916 2218 70       		.byte	0x70
 7917 2219 00       		.sleb128 0
 7918 221a 00       		.byte	0
 7919 221b 00       		.byte	0
 7920 221c 3A       		.uleb128 0x3a
 7921 221d 16270000 		.4byte	0x2716
 7922 2221 2E000000 		.4byte	.LBB340
 7923 2225 14000000 		.4byte	.LBE340-.LBB340
 7924 2229 01       		.byte	0x1
 7925 222a A101     		.2byte	0x1a1
 7926 222c 3A220000 		.4byte	0x223a
 7927 2230 39       		.uleb128 0x39
 7928 2231 23270000 		.4byte	0x2723
 7929 2235 080E0000 		.4byte	.LLST69
 7930 2239 00       		.byte	0
 7931 223a 3B       		.uleb128 0x3b
 7932 223b 0A000000 		.4byte	.LVL155
 7933 223f 1E2A0000 		.4byte	0x2a1e
 7934 2243 32       		.uleb128 0x32
 7935 2244 01       		.uleb128 0x1
 7936 2245 50       		.byte	0x50
 7937 2246 05       		.uleb128 0x5
 7938 2247 03       		.byte	0x3
 7939 2248 00000000 		.4byte	.LANCHOR2
 7940 224c 00       		.byte	0
 7941 224d 00       		.byte	0
 7942 224e 59       		.uleb128 0x59
 7943 224f A10B0000 		.4byte	.LASF283
 7944 2253 01       		.byte	0x1
 7945 2254 5D01     		.2byte	0x15d
 7946 2256 00000000 		.4byte	.LFB34
 7947 225a 50000000 		.4byte	.LFE34-.LFB34
 7948 225e 01       		.uleb128 0x1
 7949 225f 9C       		.byte	0x9c
 7950 2260 3C230000 		.4byte	0x233c
 7951 2264 34       		.uleb128 0x34
 7952 2265 747000   		.ascii	"tp\000"
 7953 2268 01       		.byte	0x1
 7954 2269 5D01     		.2byte	0x15d
 7955 226b D40A0000 		.4byte	0xad4
 7956 226f 1B0E0000 		.4byte	.LLST27
 7957 2273 2F       		.uleb128 0x2f
 7958 2274 C1060000 		.4byte	.LASF270
 7959 2278 01       		.byte	0x1
 7960 2279 5F01     		.2byte	0x15f
 7961 227b D40A0000 		.4byte	0xad4
 7962 227f 4F0E0000 		.4byte	.LLST28
 7963 2283 37       		.uleb128 0x37
 7964 2284 B0000000 		.4byte	.Ldebug_ranges0+0xb0
 7965 2288 EA220000 		.4byte	0x22ea
 7966 228c 2F       		.uleb128 0x2f
 7967 228d 91080000 		.4byte	.LASF271
 7968 2291 01       		.byte	0x1
ARM GAS  /tmp/ccYjC7Ok.s 			page 141


 7969 2292 6901     		.2byte	0x169
 7970 2294 AF000000 		.4byte	0xaf
 7971 2298 790E0000 		.4byte	.LLST29
 7972 229c 58       		.uleb128 0x58
 7973 229d EC280000 		.4byte	0x28ec
 7974 22a1 16000000 		.4byte	.LBB255
 7975 22a5 04000000 		.4byte	.LBE255-.LBB255
 7976 22a9 01       		.byte	0x1
 7977 22aa 6901     		.2byte	0x169
 7978 22ac 57       		.uleb128 0x57
 7979 22ad 7E240000 		.4byte	0x247e
 7980 22b1 20000000 		.4byte	.LBB257
 7981 22b5 B8000000 		.4byte	.Ldebug_ranges0+0xb8
 7982 22b9 01       		.byte	0x1
 7983 22ba 6B01     		.2byte	0x16b
 7984 22bc 39       		.uleb128 0x39
 7985 22bd 96240000 		.4byte	0x2496
 7986 22c1 790E0000 		.4byte	.LLST29
 7987 22c5 39       		.uleb128 0x39
 7988 22c6 8B240000 		.4byte	0x248b
 7989 22ca 8C0E0000 		.4byte	.LLST31
 7990 22ce 57       		.uleb128 0x57
 7991 22cf F8280000 		.4byte	0x28f8
 7992 22d3 20000000 		.4byte	.LBB258
 7993 22d7 B8000000 		.4byte	.Ldebug_ranges0+0xb8
 7994 22db 01       		.byte	0x1
 7995 22dc 3301     		.2byte	0x133
 7996 22de 39       		.uleb128 0x39
 7997 22df 04290000 		.4byte	0x2904
 7998 22e3 790E0000 		.4byte	.LLST29
 7999 22e7 00       		.byte	0
 8000 22e8 00       		.byte	0
 8001 22e9 00       		.byte	0
 8002 22ea 38       		.uleb128 0x38
 8003 22eb 7E240000 		.4byte	0x247e
 8004 22ef 1E000000 		.4byte	.LBB263
 8005 22f3 D0000000 		.4byte	.Ldebug_ranges0+0xd0
 8006 22f7 01       		.byte	0x1
 8007 22f8 6601     		.2byte	0x166
 8008 22fa 2B230000 		.4byte	0x232b
 8009 22fe 39       		.uleb128 0x39
 8010 22ff 96240000 		.4byte	0x2496
 8011 2303 A40E0000 		.4byte	.LLST33
 8012 2307 39       		.uleb128 0x39
 8013 2308 8B240000 		.4byte	0x248b
 8014 230c B80E0000 		.4byte	.LLST34
 8015 2310 57       		.uleb128 0x57
 8016 2311 F8280000 		.4byte	0x28f8
 8017 2315 1E000000 		.4byte	.LBB264
 8018 2319 D0000000 		.4byte	.Ldebug_ranges0+0xd0
 8019 231d 01       		.byte	0x1
 8020 231e 3301     		.2byte	0x133
 8021 2320 39       		.uleb128 0x39
 8022 2321 04290000 		.4byte	0x2904
 8023 2325 A40E0000 		.4byte	.LLST33
 8024 2329 00       		.byte	0
 8025 232a 00       		.byte	0
ARM GAS  /tmp/ccYjC7Ok.s 			page 142


 8026 232b 3B       		.uleb128 0x3b
 8027 232c 32000000 		.4byte	.LVL71
 8028 2330 802A0000 		.4byte	0x2a80
 8029 2334 32       		.uleb128 0x32
 8030 2335 01       		.uleb128 0x1
 8031 2336 50       		.byte	0x50
 8032 2337 02       		.uleb128 0x2
 8033 2338 70       		.byte	0x70
 8034 2339 00       		.sleb128 0
 8035 233a 00       		.byte	0
 8036 233b 00       		.byte	0
 8037 233c 51       		.uleb128 0x51
 8038 233d 23030000 		.4byte	.LASF272
 8039 2341 01       		.byte	0x1
 8040 2342 3901     		.2byte	0x139
 8041 2344 D40A0000 		.4byte	0xad4
 8042 2348 00000000 		.4byte	.LFB33
 8043 234c 5C000000 		.4byte	.LFE33-.LFB33
 8044 2350 01       		.uleb128 0x1
 8045 2351 9C       		.byte	0x9c
 8046 2352 7E240000 		.4byte	0x247e
 8047 2356 34       		.uleb128 0x34
 8048 2357 747000   		.ascii	"tp\000"
 8049 235a 01       		.byte	0x1
 8050 235b 3901     		.2byte	0x139
 8051 235d D40A0000 		.4byte	0xad4
 8052 2361 D00E0000 		.4byte	.LLST17
 8053 2365 2C       		.uleb128 0x2c
 8054 2366 63030000 		.4byte	.LASF251
 8055 236a 01       		.byte	0x1
 8056 236b 3901     		.2byte	0x139
 8057 236d AF000000 		.4byte	0xaf
 8058 2371 0F0F0000 		.4byte	.LLST18
 8059 2375 2D       		.uleb128 0x2d
 8060 2376 7000     		.ascii	"p\000"
 8061 2378 01       		.byte	0x1
 8062 2379 3B01     		.2byte	0x13b
 8063 237b 85090000 		.4byte	0x985
 8064 237f 540F0000 		.4byte	.LLST19
 8065 2383 2E       		.uleb128 0x2e
 8066 2384 5B050000 		.4byte	.LASF273
 8067 2388 01       		.byte	0x1
 8068 2389 3C01     		.2byte	0x13c
 8069 238b AF000000 		.4byte	0xaf
 8070 238f 01       		.uleb128 0x1
 8071 2390 55       		.byte	0x55
 8072 2391 2E       		.uleb128 0x2e
 8073 2392 91080000 		.4byte	.LASF271
 8074 2396 01       		.byte	0x1
 8075 2397 3D01     		.2byte	0x13d
 8076 2399 AF000000 		.4byte	0xaf
 8077 239d 01       		.uleb128 0x1
 8078 239e 56       		.byte	0x56
 8079 239f 38       		.uleb128 0x38
 8080 23a0 D0280000 		.4byte	0x28d0
 8081 23a4 02000000 		.4byte	.LBB225
 8082 23a8 48000000 		.4byte	.Ldebug_ranges0+0x48
ARM GAS  /tmp/ccYjC7Ok.s 			page 143


 8083 23ac 01       		.byte	0x1
 8084 23ad 3C01     		.2byte	0x13c
 8085 23af BD230000 		.4byte	0x23bd
 8086 23b3 39       		.uleb128 0x39
 8087 23b4 E0280000 		.4byte	0x28e0
 8088 23b8 7D0F0000 		.4byte	.LLST20
 8089 23bc 00       		.byte	0
 8090 23bd 56       		.uleb128 0x56
 8091 23be EC280000 		.4byte	0x28ec
 8092 23c2 06000000 		.4byte	.LBB228
 8093 23c6 60000000 		.4byte	.Ldebug_ranges0+0x60
 8094 23ca 01       		.byte	0x1
 8095 23cb 3D01     		.2byte	0x13d
 8096 23cd 38       		.uleb128 0x38
 8097 23ce 552A0000 		.4byte	0x2a55
 8098 23d2 14000000 		.4byte	.LBB233
 8099 23d6 78000000 		.4byte	.Ldebug_ranges0+0x78
 8100 23da 01       		.byte	0x1
 8101 23db 5301     		.2byte	0x153
 8102 23dd 03240000 		.4byte	0x2403
 8103 23e1 39       		.uleb128 0x39
 8104 23e2 6C2A0000 		.4byte	0x2a6c
 8105 23e6 900F0000 		.4byte	.LLST21
 8106 23ea 39       		.uleb128 0x39
 8107 23eb 612A0000 		.4byte	0x2a61
 8108 23ef A80F0000 		.4byte	.LLST22
 8109 23f3 3E       		.uleb128 0x3e
 8110 23f4 78000000 		.4byte	.Ldebug_ranges0+0x78
 8111 23f8 3F       		.uleb128 0x3f
 8112 23f9 752A0000 		.4byte	0x2a75
 8113 23fd BB0F0000 		.4byte	.LLST23
 8114 2401 00       		.byte	0
 8115 2402 00       		.byte	0
 8116 2403 38       		.uleb128 0x38
 8117 2404 552A0000 		.4byte	0x2a55
 8118 2408 2E000000 		.4byte	.LBB237
 8119 240c 90000000 		.4byte	.Ldebug_ranges0+0x90
 8120 2410 01       		.byte	0x1
 8121 2411 4401     		.2byte	0x144
 8122 2413 39240000 		.4byte	0x2439
 8123 2417 39       		.uleb128 0x39
 8124 2418 6C2A0000 		.4byte	0x2a6c
 8125 241c D30F0000 		.4byte	.LLST24
 8126 2420 39       		.uleb128 0x39
 8127 2421 612A0000 		.4byte	0x2a61
 8128 2425 E60F0000 		.4byte	.LLST25
 8129 2429 3E       		.uleb128 0x3e
 8130 242a 90000000 		.4byte	.Ldebug_ranges0+0x90
 8131 242e 3F       		.uleb128 0x3f
 8132 242f 752A0000 		.4byte	0x2a75
 8133 2433 F90F0000 		.4byte	.LLST26
 8134 2437 00       		.byte	0
 8135 2438 00       		.byte	0
 8136 2439 31       		.uleb128 0x31
 8137 243a 26000000 		.4byte	.LVL51
 8138 243e 7E240000 		.4byte	0x247e
 8139 2442 53240000 		.4byte	0x2453
ARM GAS  /tmp/ccYjC7Ok.s 			page 144


 8140 2446 32       		.uleb128 0x32
 8141 2447 01       		.uleb128 0x1
 8142 2448 50       		.byte	0x50
 8143 2449 02       		.uleb128 0x2
 8144 244a 70       		.byte	0x70
 8145 244b 00       		.sleb128 0
 8146 244c 32       		.uleb128 0x32
 8147 244d 01       		.uleb128 0x1
 8148 244e 51       		.byte	0x51
 8149 244f 02       		.uleb128 0x2
 8150 2450 75       		.byte	0x75
 8151 2451 00       		.sleb128 0
 8152 2452 00       		.byte	0
 8153 2453 31       		.uleb128 0x31
 8154 2454 42000000 		.4byte	.LVL57
 8155 2458 7E240000 		.4byte	0x247e
 8156 245c 6D240000 		.4byte	0x246d
 8157 2460 32       		.uleb128 0x32
 8158 2461 01       		.uleb128 0x1
 8159 2462 50       		.byte	0x50
 8160 2463 02       		.uleb128 0x2
 8161 2464 70       		.byte	0x70
 8162 2465 00       		.sleb128 0
 8163 2466 32       		.uleb128 0x32
 8164 2467 01       		.uleb128 0x1
 8165 2468 51       		.byte	0x51
 8166 2469 02       		.uleb128 0x2
 8167 246a 75       		.byte	0x75
 8168 246b 00       		.sleb128 0
 8169 246c 00       		.byte	0
 8170 246d 3B       		.uleb128 0x3b
 8171 246e 4A000000 		.4byte	.LVL58
 8172 2472 7E240000 		.4byte	0x247e
 8173 2476 32       		.uleb128 0x32
 8174 2477 01       		.uleb128 0x1
 8175 2478 50       		.byte	0x50
 8176 2479 02       		.uleb128 0x2
 8177 247a 70       		.byte	0x70
 8178 247b 00       		.sleb128 0
 8179 247c 00       		.byte	0
 8180 247d 00       		.byte	0
 8181 247e 42       		.uleb128 0x42
 8182 247f A7000000 		.4byte	.LASF274
 8183 2483 01       		.byte	0x1
 8184 2484 3001     		.2byte	0x130
 8185 2486 01       		.byte	0x1
 8186 2487 A3240000 		.4byte	0x24a3
 8187 248b 43       		.uleb128 0x43
 8188 248c 747000   		.ascii	"tp\000"
 8189 248f 01       		.byte	0x1
 8190 2490 3001     		.2byte	0x130
 8191 2492 D40A0000 		.4byte	0xad4
 8192 2496 55       		.uleb128 0x55
 8193 2497 5B050000 		.4byte	.LASF273
 8194 249b 01       		.byte	0x1
 8195 249c 3001     		.2byte	0x130
 8196 249e AF000000 		.4byte	0xaf
ARM GAS  /tmp/ccYjC7Ok.s 			page 145


 8197 24a2 00       		.byte	0
 8198 24a3 5A       		.uleb128 0x5a
 8199 24a4 73766300 		.ascii	"svc\000"
 8200 24a8 02       		.byte	0x2
 8201 24a9 9602     		.2byte	0x296
 8202 24ab 00000000 		.4byte	.LFB31
 8203 24af 64000000 		.4byte	.LFE31-.LFB31
 8204 24b3 01       		.uleb128 0x1
 8205 24b4 9C       		.byte	0x9c
 8206 24b5 49250000 		.4byte	0x2549
 8207 24b9 52       		.uleb128 0x52
 8208 24ba 747000   		.ascii	"tp\000"
 8209 24bd 02       		.byte	0x2
 8210 24be 9802     		.2byte	0x298
 8211 24c0 D40A0000 		.4byte	0xad4
 8212 24c4 01       		.uleb128 0x1
 8213 24c5 50       		.byte	0x50
 8214 24c6 2E       		.uleb128 0x2e
 8215 24c7 B5000000 		.4byte	.LASF275
 8216 24cb 02       		.byte	0x2
 8217 24cc 9902     		.2byte	0x299
 8218 24ce AF000000 		.4byte	0xaf
 8219 24d2 01       		.uleb128 0x1
 8220 24d3 51       		.byte	0x51
 8221 24d4 3A       		.uleb128 0x3a
 8222 24d5 6B290000 		.4byte	0x296b
 8223 24d9 36000000 		.4byte	.LBB319
 8224 24dd 10000000 		.4byte	.LBE319-.LBB319
 8225 24e1 02       		.byte	0x2
 8226 24e2 B302     		.2byte	0x2b3
 8227 24e4 0F250000 		.4byte	0x250f
 8228 24e8 40       		.uleb128 0x40
 8229 24e9 36000000 		.4byte	.LBB320
 8230 24ed 10000000 		.4byte	.LBE320-.LBB320
 8231 24f1 3F       		.uleb128 0x3f
 8232 24f2 7C290000 		.4byte	0x297c
 8233 24f6 0C100000 		.4byte	.LLST60
 8234 24fa 3B       		.uleb128 0x3b
 8235 24fb 3C000000 		.4byte	.LVL150
 8236 24ff 1E2A0000 		.4byte	0x2a1e
 8237 2503 32       		.uleb128 0x32
 8238 2504 01       		.uleb128 0x1
 8239 2505 50       		.byte	0x50
 8240 2506 05       		.uleb128 0x5
 8241 2507 03       		.byte	0x3
 8242 2508 00000000 		.4byte	.LANCHOR1
 8243 250c 00       		.byte	0
 8244 250d 00       		.byte	0
 8245 250e 00       		.byte	0
 8246 250f 31       		.uleb128 0x31
 8247 2510 2A000000 		.4byte	.LVL147
 8248 2514 4E220000 		.4byte	0x224e
 8249 2518 23250000 		.4byte	0x2523
 8250 251c 32       		.uleb128 0x32
 8251 251d 01       		.uleb128 0x1
 8252 251e 50       		.byte	0x50
 8253 251f 02       		.uleb128 0x2
ARM GAS  /tmp/ccYjC7Ok.s 			page 146


 8254 2520 74       		.byte	0x74
 8255 2521 00       		.sleb128 0
 8256 2522 00       		.byte	0
 8257 2523 31       		.uleb128 0x31
 8258 2524 30000000 		.4byte	.LVL148
 8259 2528 18290000 		.4byte	0x2918
 8260 252c 37250000 		.4byte	0x2537
 8261 2530 32       		.uleb128 0x32
 8262 2531 01       		.uleb128 0x1
 8263 2532 50       		.byte	0x50
 8264 2533 02       		.uleb128 0x2
 8265 2534 70       		.byte	0x70
 8266 2535 00       		.sleb128 0
 8267 2536 00       		.byte	0
 8268 2537 3B       		.uleb128 0x3b
 8269 2538 52000000 		.4byte	.LVL153
 8270 253c 3C230000 		.4byte	0x233c
 8271 2540 32       		.uleb128 0x32
 8272 2541 01       		.uleb128 0x1
 8273 2542 51       		.byte	0x51
 8274 2543 03       		.uleb128 0x3
 8275 2544 0A       		.byte	0xa
 8276 2545 E803     		.2byte	0x3e8
 8277 2547 00       		.byte	0
 8278 2548 00       		.byte	0
 8279 2549 44       		.uleb128 0x44
 8280 254a A90D0000 		.4byte	.LASF276
 8281 254e 02       		.byte	0x2
 8282 254f F901     		.2byte	0x1f9
 8283 2551 00000000 		.4byte	.LFB30
 8284 2555 FC000000 		.4byte	.LFE30-.LFB30
 8285 2559 01       		.uleb128 0x1
 8286 255a 9C       		.byte	0x9c
 8287 255b 75260000 		.4byte	0x2675
 8288 255f 52       		.uleb128 0x52
 8289 2560 747000   		.ascii	"tp\000"
 8290 2563 02       		.byte	0x2
 8291 2564 FB01     		.2byte	0x1fb
 8292 2566 D40A0000 		.4byte	0xad4
 8293 256a 01       		.uleb128 0x1
 8294 256b 50       		.byte	0x50
 8295 256c 52       		.uleb128 0x52
 8296 256d 63757200 		.ascii	"cur\000"
 8297 2571 02       		.byte	0x2
 8298 2572 FC01     		.2byte	0x1fc
 8299 2574 D40A0000 		.4byte	0xad4
 8300 2578 01       		.uleb128 0x1
 8301 2579 51       		.byte	0x51
 8302 257a 3A       		.uleb128 0x3a
 8303 257b 6B290000 		.4byte	0x296b
 8304 257f 40000000 		.4byte	.LBB307
 8305 2583 10000000 		.4byte	.LBE307-.LBB307
 8306 2587 02       		.byte	0x2
 8307 2588 3902     		.2byte	0x239
 8308 258a B5250000 		.4byte	0x25b5
 8309 258e 40       		.uleb128 0x40
 8310 258f 40000000 		.4byte	.LBB308
ARM GAS  /tmp/ccYjC7Ok.s 			page 147


 8311 2593 10000000 		.4byte	.LBE308-.LBB308
 8312 2597 3F       		.uleb128 0x3f
 8313 2598 7C290000 		.4byte	0x297c
 8314 259c 1F100000 		.4byte	.LLST54
 8315 25a0 3B       		.uleb128 0x3b
 8316 25a1 46000000 		.4byte	.LVL137
 8317 25a5 1E2A0000 		.4byte	0x2a1e
 8318 25a9 32       		.uleb128 0x32
 8319 25aa 01       		.uleb128 0x1
 8320 25ab 50       		.byte	0x50
 8321 25ac 05       		.uleb128 0x5
 8322 25ad 03       		.byte	0x3
 8323 25ae 00000000 		.4byte	.LANCHOR1
 8324 25b2 00       		.byte	0
 8325 25b3 00       		.byte	0
 8326 25b4 00       		.byte	0
 8327 25b5 3A       		.uleb128 0x3a
 8328 25b6 52290000 		.4byte	0x2952
 8329 25ba C8000000 		.4byte	.LBB309
 8330 25be 34000000 		.4byte	.LBE309-.LBB309
 8331 25c2 02       		.byte	0x2
 8332 25c3 3202     		.2byte	0x232
 8333 25c5 3B260000 		.4byte	0x263b
 8334 25c9 39       		.uleb128 0x39
 8335 25ca 5F290000 		.4byte	0x295f
 8336 25ce 32100000 		.4byte	.LLST55
 8337 25d2 57       		.uleb128 0x57
 8338 25d3 F3290000 		.4byte	0x29f3
 8339 25d7 CE000000 		.4byte	.LBB311
 8340 25db 48010000 		.4byte	.Ldebug_ranges0+0x148
 8341 25df 01       		.byte	0x1
 8342 25e0 1701     		.2byte	0x117
 8343 25e2 50       		.uleb128 0x50
 8344 25e3 0A2A0000 		.4byte	0x2a0a
 8345 25e7 06       		.uleb128 0x6
 8346 25e8 03       		.byte	0x3
 8347 25e9 00000000 		.4byte	q_ready
 8348 25ed 9F       		.byte	0x9f
 8349 25ee 39       		.uleb128 0x39
 8350 25ef FF290000 		.4byte	0x29ff
 8351 25f3 50100000 		.4byte	.LLST56
 8352 25f7 3E       		.uleb128 0x3e
 8353 25f8 48010000 		.4byte	.Ldebug_ranges0+0x148
 8354 25fc 53       		.uleb128 0x53
 8355 25fd 142A0000 		.4byte	0x2a14
 8356 2601 01       		.uleb128 0x1
 8357 2602 53       		.byte	0x53
 8358 2603 5B       		.uleb128 0x5b
 8359 2604 552A0000 		.4byte	0x2a55
 8360 2608 DA000000 		.4byte	.LBB313
 8361 260c 0E000000 		.4byte	.LBE313-.LBB313
 8362 2610 01       		.byte	0x1
 8363 2611 E1       		.byte	0xe1
 8364 2612 39       		.uleb128 0x39
 8365 2613 6C2A0000 		.4byte	0x2a6c
 8366 2617 6E100000 		.4byte	.LLST57
 8367 261b 39       		.uleb128 0x39
ARM GAS  /tmp/ccYjC7Ok.s 			page 148


 8368 261c 612A0000 		.4byte	0x2a61
 8369 2620 81100000 		.4byte	.LLST58
 8370 2624 40       		.uleb128 0x40
 8371 2625 DA000000 		.4byte	.LBB314
 8372 2629 0E000000 		.4byte	.LBE314-.LBB314
 8373 262d 3F       		.uleb128 0x3f
 8374 262e 752A0000 		.4byte	0x2a75
 8375 2632 6E100000 		.4byte	.LLST57
 8376 2636 00       		.byte	0
 8377 2637 00       		.byte	0
 8378 2638 00       		.byte	0
 8379 2639 00       		.byte	0
 8380 263a 00       		.byte	0
 8381 263b 31       		.uleb128 0x31
 8382 263c 34000000 		.4byte	.LVL134
 8383 2640 4E220000 		.4byte	0x224e
 8384 2644 4F260000 		.4byte	0x264f
 8385 2648 32       		.uleb128 0x32
 8386 2649 01       		.uleb128 0x1
 8387 264a 50       		.byte	0x50
 8388 264b 02       		.uleb128 0x2
 8389 264c 74       		.byte	0x74
 8390 264d 00       		.sleb128 0
 8391 264e 00       		.byte	0
 8392 264f 31       		.uleb128 0x31
 8393 2650 3A000000 		.4byte	.LVL135
 8394 2654 18290000 		.4byte	0x2918
 8395 2658 63260000 		.4byte	0x2663
 8396 265c 32       		.uleb128 0x32
 8397 265d 01       		.uleb128 0x1
 8398 265e 50       		.byte	0x50
 8399 265f 02       		.uleb128 0x2
 8400 2660 74       		.byte	0x74
 8401 2661 00       		.sleb128 0
 8402 2662 00       		.byte	0
 8403 2663 3B       		.uleb128 0x3b
 8404 2664 5C000000 		.4byte	.LVL140
 8405 2668 3C230000 		.4byte	0x233c
 8406 266c 32       		.uleb128 0x32
 8407 266d 01       		.uleb128 0x1
 8408 266e 51       		.byte	0x51
 8409 266f 03       		.uleb128 0x3
 8410 2670 0A       		.byte	0xa
 8411 2671 E803     		.2byte	0x3e8
 8412 2673 00       		.byte	0
 8413 2674 00       		.byte	0
 8414 2675 4D       		.uleb128 0x4d
 8415 2676 15050000 		.4byte	.LASF277
 8416 267a 02       		.byte	0x2
 8417 267b D601     		.2byte	0x1d6
 8418 267d D40A0000 		.4byte	0xad4
 8419 2681 01       		.byte	0x1
 8420 2682 D8260000 		.4byte	0x26d8
 8421 2686 55       		.uleb128 0x55
 8422 2687 69010000 		.4byte	.LASF256
 8423 268b 02       		.byte	0x2
 8424 268c D601     		.2byte	0x1d6
ARM GAS  /tmp/ccYjC7Ok.s 			page 149


 8425 268e BF000000 		.4byte	0xbf
 8426 2692 55       		.uleb128 0x55
 8427 2693 780B0000 		.4byte	.LASF257
 8428 2697 02       		.byte	0x2
 8429 2698 D601     		.2byte	0x1d6
 8430 269a CA000000 		.4byte	0xca
 8431 269e 55       		.uleb128 0x55
 8432 269f AF040000 		.4byte	.LASF258
 8433 26a3 02       		.byte	0x2
 8434 26a4 D701     		.2byte	0x1d7
 8435 26a6 6E1F0000 		.4byte	0x1f6e
 8436 26aa 43       		.uleb128 0x43
 8437 26ab 61726700 		.ascii	"arg\000"
 8438 26af 02       		.byte	0x2
 8439 26b0 D701     		.2byte	0x1d7
 8440 26b2 25000000 		.4byte	0x25
 8441 26b6 35       		.uleb128 0x35
 8442 26b7 747000   		.ascii	"tp\000"
 8443 26ba 02       		.byte	0x2
 8444 26bb D901     		.2byte	0x1d9
 8445 26bd D40A0000 		.4byte	0xad4
 8446 26c1 46       		.uleb128 0x46
 8447 26c2 B90A0000 		.4byte	.LASF278
 8448 26c6 02       		.byte	0x2
 8449 26c7 DA01     		.2byte	0x1da
 8450 26c9 25000000 		.4byte	0x25
 8451 26cd 35       		.uleb128 0x35
 8452 26ce 7000     		.ascii	"p\000"
 8453 26d0 02       		.byte	0x2
 8454 26d1 DB01     		.2byte	0x1db
 8455 26d3 D8260000 		.4byte	0x26d8
 8456 26d7 00       		.byte	0
 8457 26d8 07       		.uleb128 0x7
 8458 26d9 04       		.byte	0x4
 8459 26da 530E0000 		.4byte	0xe53
 8460 26de 51       		.uleb128 0x51
 8461 26df FE080000 		.4byte	.LASF279
 8462 26e3 02       		.byte	0x2
 8463 26e4 3201     		.2byte	0x132
 8464 26e6 BF000000 		.4byte	0xbf
 8465 26ea 00000000 		.4byte	.LFB28
 8466 26ee 04000000 		.4byte	.LFE28-.LFB28
 8467 26f2 01       		.uleb128 0x1
 8468 26f3 9C       		.byte	0x9c
 8469 26f4 16270000 		.4byte	0x2716
 8470 26f8 2C       		.uleb128 0x2c
 8471 26f9 11070000 		.4byte	.LASF243
 8472 26fd 02       		.byte	0x2
 8473 26fe 3201     		.2byte	0x132
 8474 2700 AF000000 		.4byte	0xaf
 8475 2704 94100000 		.4byte	.LLST3
 8476 2708 52       		.uleb128 0x52
 8477 2709 747000   		.ascii	"tp\000"
 8478 270c 02       		.byte	0x2
 8479 270d 3401     		.2byte	0x134
 8480 270f D40A0000 		.4byte	0xad4
 8481 2713 01       		.uleb128 0x1
ARM GAS  /tmp/ccYjC7Ok.s 			page 150


 8482 2714 50       		.byte	0x50
 8483 2715 00       		.byte	0
 8484 2716 42       		.uleb128 0x42
 8485 2717 27090000 		.4byte	.LASF280
 8486 271b 02       		.byte	0x2
 8487 271c 1401     		.2byte	0x114
 8488 271e 01       		.byte	0x1
 8489 271f 30270000 		.4byte	0x2730
 8490 2723 55       		.uleb128 0x55
 8491 2724 69050000 		.4byte	.LASF136
 8492 2728 02       		.byte	0x2
 8493 2729 1401     		.2byte	0x114
 8494 272b A4000000 		.4byte	0xa4
 8495 272f 00       		.byte	0
 8496 2730 42       		.uleb128 0x42
 8497 2731 24080000 		.4byte	.LASF281
 8498 2735 02       		.byte	0x2
 8499 2736 0E01     		.2byte	0x10e
 8500 2738 01       		.byte	0x1
 8501 2739 49270000 		.4byte	0x2749
 8502 273d 43       		.uleb128 0x43
 8503 273e 747000   		.ascii	"tp\000"
 8504 2741 02       		.byte	0x2
 8505 2742 0E01     		.2byte	0x10e
 8506 2744 D40A0000 		.4byte	0xad4
 8507 2748 00       		.byte	0
 8508 2749 5C       		.uleb128 0x5c
 8509 274a D00A0000 		.4byte	.LASF282
 8510 274e 02       		.byte	0x2
 8511 274f F5       		.byte	0xf5
 8512 2750 00000000 		.4byte	.LFB25
 8513 2754 68000000 		.4byte	.LFE25-.LFB25
 8514 2758 01       		.uleb128 0x1
 8515 2759 9C       		.byte	0x9c
 8516 275a F1270000 		.4byte	0x27f1
 8517 275e 5D       		.uleb128 0x5d
 8518 275f 7000     		.ascii	"p\000"
 8519 2761 02       		.byte	0x2
 8520 2762 F7       		.byte	0xf7
 8521 2763 85090000 		.4byte	0x985
 8522 2767 01       		.uleb128 0x1
 8523 2768 54       		.byte	0x54
 8524 2769 5E       		.uleb128 0x5e
 8525 276a 5C010000 		.4byte	.LASF174
 8526 276e 02       		.byte	0x2
 8527 276f F8       		.byte	0xf8
 8528 2770 AF000000 		.4byte	0xaf
 8529 2774 B5100000 		.4byte	.LLST50
 8530 2778 36       		.uleb128 0x36
 8531 2779 2E000000 		.4byte	.LBB294
 8532 277d 24000000 		.4byte	.LBE294-.LBB294
 8533 2781 D7270000 		.4byte	0x27d7
 8534 2785 2D       		.uleb128 0x2d
 8535 2786 707800   		.ascii	"px\000"
 8536 2789 02       		.byte	0x2
 8537 278a 0301     		.2byte	0x103
 8538 278c 52140000 		.4byte	0x1452
ARM GAS  /tmp/ccYjC7Ok.s 			page 151


 8539 2790 D3100000 		.4byte	.LLST52
 8540 2794 38       		.uleb128 0x38
 8541 2795 16270000 		.4byte	0x2716
 8542 2799 3A000000 		.4byte	.LBB295
 8543 279d 30010000 		.4byte	.Ldebug_ranges0+0x130
 8544 27a1 02       		.byte	0x2
 8545 27a2 0701     		.2byte	0x107
 8546 27a4 B2270000 		.4byte	0x27b2
 8547 27a8 39       		.uleb128 0x39
 8548 27a9 23270000 		.4byte	0x2723
 8549 27ad E6100000 		.4byte	.LLST53
 8550 27b1 00       		.byte	0
 8551 27b2 31       		.uleb128 0x31
 8552 27b3 34000000 		.4byte	.LVL128
 8553 27b7 802A0000 		.4byte	0x2a80
 8554 27bb C6270000 		.4byte	0x27c6
 8555 27bf 32       		.uleb128 0x32
 8556 27c0 01       		.uleb128 0x1
 8557 27c1 50       		.byte	0x50
 8558 27c2 02       		.uleb128 0x2
 8559 27c3 74       		.byte	0x74
 8560 27c4 00       		.sleb128 0
 8561 27c5 00       		.byte	0
 8562 27c6 3B       		.uleb128 0x3b
 8563 27c7 3A000000 		.4byte	.LVL129
 8564 27cb 49200000 		.4byte	0x2049
 8565 27cf 32       		.uleb128 0x32
 8566 27d0 01       		.uleb128 0x1
 8567 27d1 50       		.byte	0x50
 8568 27d2 02       		.uleb128 0x2
 8569 27d3 74       		.byte	0x74
 8570 27d4 00       		.sleb128 0
 8571 27d5 00       		.byte	0
 8572 27d6 00       		.byte	0
 8573 27d7 5F       		.uleb128 0x5f
 8574 27d8 88280000 		.4byte	0x2888
 8575 27dc 0A000000 		.4byte	.LBB290
 8576 27e0 18010000 		.4byte	.Ldebug_ranges0+0x118
 8577 27e4 02       		.byte	0x2
 8578 27e5 FE       		.byte	0xfe
 8579 27e6 39       		.uleb128 0x39
 8580 27e7 94280000 		.4byte	0x2894
 8581 27eb 03110000 		.4byte	.LLST51
 8582 27ef 00       		.byte	0
 8583 27f0 00       		.byte	0
 8584 27f1 60       		.uleb128 0x60
 8585 27f2 420E0000 		.4byte	.LASF313
 8586 27f6 02       		.byte	0x2
 8587 27f7 E9       		.byte	0xe9
 8588 27f8 00000000 		.4byte	.LFB24
 8589 27fc 02000000 		.4byte	.LFE24-.LFB24
 8590 2800 01       		.uleb128 0x1
 8591 2801 9C       		.byte	0x9c
 8592 2802 61       		.uleb128 0x61
 8593 2803 D8060000 		.4byte	.LASF284
 8594 2807 02       		.byte	0x2
 8595 2808 DA       		.byte	0xda
ARM GAS  /tmp/ccYjC7Ok.s 			page 152


 8596 2809 00000000 		.4byte	.LFB23
 8597 280d 18000000 		.4byte	.LFE23-.LFB23
 8598 2811 01       		.uleb128 0x1
 8599 2812 9C       		.byte	0x9c
 8600 2813 31280000 		.4byte	0x2831
 8601 2817 40       		.uleb128 0x40
 8602 2818 0A000000 		.4byte	.LBB194
 8603 281c 06000000 		.4byte	.LBE194-.LBB194
 8604 2820 62       		.uleb128 0x62
 8605 2821 746D7000 		.ascii	"tmp\000"
 8606 2825 02       		.byte	0x2
 8607 2826 E1       		.byte	0xe1
 8608 2827 AF000000 		.4byte	0xaf
 8609 282b 21110000 		.4byte	.LLST2
 8610 282f 00       		.byte	0
 8611 2830 00       		.byte	0
 8612 2831 61       		.uleb128 0x61
 8613 2832 450C0000 		.4byte	.LASF285
 8614 2836 02       		.byte	0x2
 8615 2837 CC       		.byte	0xcc
 8616 2838 00000000 		.4byte	.LFB22
 8617 283c 18000000 		.4byte	.LFE22-.LFB22
 8618 2840 01       		.uleb128 0x1
 8619 2841 9C       		.byte	0x9c
 8620 2842 60280000 		.4byte	0x2860
 8621 2846 40       		.uleb128 0x40
 8622 2847 0A000000 		.4byte	.LBB193
 8623 284b 06000000 		.4byte	.LBE193-.LBB193
 8624 284f 62       		.uleb128 0x62
 8625 2850 746D7000 		.ascii	"tmp\000"
 8626 2854 02       		.byte	0x2
 8627 2855 D3       		.byte	0xd3
 8628 2856 AF000000 		.4byte	0xaf
 8629 285a 35110000 		.4byte	.LLST1
 8630 285e 00       		.byte	0
 8631 285f 00       		.byte	0
 8632 2860 63       		.uleb128 0x63
 8633 2861 A60C0000 		.4byte	.LASF292
 8634 2865 02       		.byte	0x2
 8635 2866 C2       		.byte	0xc2
 8636 2867 01       		.byte	0x1
 8637 2868 64       		.uleb128 0x64
 8638 2869 FA0B0000 		.4byte	.LASF286
 8639 286d 02       		.byte	0x2
 8640 286e B2       		.byte	0xb2
 8641 286f 01       		.byte	0x1
 8642 2870 88280000 		.4byte	0x2888
 8643 2874 65       		.uleb128 0x65
 8644 2875 6E00     		.ascii	"n\000"
 8645 2877 02       		.byte	0x2
 8646 2878 B2       		.byte	0xb2
 8647 2879 99000000 		.4byte	0x99
 8648 287d 66       		.uleb128 0x66
 8649 287e 736800   		.ascii	"sh\000"
 8650 2881 02       		.byte	0x2
 8651 2882 B4       		.byte	0xb4
 8652 2883 92000000 		.4byte	0x92
ARM GAS  /tmp/ccYjC7Ok.s 			page 153


 8653 2887 00       		.byte	0
 8654 2888 64       		.uleb128 0x64
 8655 2889 46000000 		.4byte	.LASF287
 8656 288d 02       		.byte	0x2
 8657 288e AC       		.byte	0xac
 8658 288f 01       		.byte	0x1
 8659 2890 A0280000 		.4byte	0x28a0
 8660 2894 67       		.uleb128 0x67
 8661 2895 5C010000 		.4byte	.LASF174
 8662 2899 02       		.byte	0x2
 8663 289a AC       		.byte	0xac
 8664 289b 99000000 		.4byte	0x99
 8665 289f 00       		.byte	0
 8666 28a0 64       		.uleb128 0x64
 8667 28a1 C0080000 		.4byte	.LASF288
 8668 28a5 02       		.byte	0x2
 8669 28a6 A6       		.byte	0xa6
 8670 28a7 01       		.byte	0x1
 8671 28a8 B8280000 		.4byte	0x28b8
 8672 28ac 67       		.uleb128 0x67
 8673 28ad 5C010000 		.4byte	.LASF174
 8674 28b1 02       		.byte	0x2
 8675 28b2 A6       		.byte	0xa6
 8676 28b3 99000000 		.4byte	0x99
 8677 28b7 00       		.byte	0
 8678 28b8 64       		.uleb128 0x64
 8679 28b9 D2010000 		.4byte	.LASF289
 8680 28bd 02       		.byte	0x2
 8681 28be A0       		.byte	0xa0
 8682 28bf 01       		.byte	0x1
 8683 28c0 D0280000 		.4byte	0x28d0
 8684 28c4 67       		.uleb128 0x67
 8685 28c5 5C010000 		.4byte	.LASF174
 8686 28c9 02       		.byte	0x2
 8687 28ca A0       		.byte	0xa0
 8688 28cb 99000000 		.4byte	0x99
 8689 28cf 00       		.byte	0
 8690 28d0 68       		.uleb128 0x68
 8691 28d1 AB0A0000 		.4byte	.LASF290
 8692 28d5 02       		.byte	0x2
 8693 28d6 80       		.byte	0x80
 8694 28d7 AF000000 		.4byte	0xaf
 8695 28db 01       		.byte	0x1
 8696 28dc EC280000 		.4byte	0x28ec
 8697 28e0 67       		.uleb128 0x67
 8698 28e1 63030000 		.4byte	.LASF251
 8699 28e5 02       		.byte	0x2
 8700 28e6 80       		.byte	0x80
 8701 28e7 AF000000 		.4byte	0xaf
 8702 28eb 00       		.byte	0
 8703 28ec 69       		.uleb128 0x69
 8704 28ed E9040000 		.4byte	.LASF314
 8705 28f1 02       		.byte	0x2
 8706 28f2 7B       		.byte	0x7b
 8707 28f3 AF000000 		.4byte	0xaf
 8708 28f7 01       		.byte	0x1
 8709 28f8 64       		.uleb128 0x64
ARM GAS  /tmp/ccYjC7Ok.s 			page 154


 8710 28f9 5D020000 		.4byte	.LASF291
 8711 28fd 02       		.byte	0x2
 8712 28fe 73       		.byte	0x73
 8713 28ff 01       		.byte	0x1
 8714 2900 10290000 		.4byte	0x2910
 8715 2904 67       		.uleb128 0x67
 8716 2905 5B050000 		.4byte	.LASF273
 8717 2909 02       		.byte	0x2
 8718 290a 73       		.byte	0x73
 8719 290b AF000000 		.4byte	0xaf
 8720 290f 00       		.byte	0
 8721 2910 63       		.uleb128 0x63
 8722 2911 29060000 		.4byte	.LASF293
 8723 2915 02       		.byte	0x2
 8724 2916 6B       		.byte	0x6b
 8725 2917 01       		.byte	0x1
 8726 2918 59       		.uleb128 0x59
 8727 2919 410A0000 		.4byte	.LASF294
 8728 291d 01       		.byte	0x1
 8729 291e 1D01     		.2byte	0x11d
 8730 2920 00000000 		.4byte	.LFB12
 8731 2924 14000000 		.4byte	.LFE12-.LFB12
 8732 2928 01       		.uleb128 0x1
 8733 2929 9C       		.byte	0x9c
 8734 292a 52290000 		.4byte	0x2952
 8735 292e 4B       		.uleb128 0x4b
 8736 292f 747000   		.ascii	"tp\000"
 8737 2932 01       		.byte	0x1
 8738 2933 1D01     		.2byte	0x11d
 8739 2935 D40A0000 		.4byte	0xad4
 8740 2939 01       		.uleb128 0x1
 8741 293a 50       		.byte	0x50
 8742 293b 6A       		.uleb128 0x6a
 8743 293c 10000000 		.4byte	.LVL18
 8744 2940 88290000 		.4byte	0x2988
 8745 2944 32       		.uleb128 0x32
 8746 2945 01       		.uleb128 0x1
 8747 2946 50       		.byte	0x50
 8748 2947 02       		.uleb128 0x2
 8749 2948 70       		.byte	0x70
 8750 2949 00       		.sleb128 0
 8751 294a 32       		.uleb128 0x32
 8752 294b 01       		.uleb128 0x1
 8753 294c 51       		.byte	0x51
 8754 294d 02       		.uleb128 0x2
 8755 294e 71       		.byte	0x71
 8756 294f 00       		.sleb128 0
 8757 2950 00       		.byte	0
 8758 2951 00       		.byte	0
 8759 2952 42       		.uleb128 0x42
 8760 2953 9B050000 		.4byte	.LASF295
 8761 2957 01       		.byte	0x1
 8762 2958 1301     		.2byte	0x113
 8763 295a 01       		.byte	0x1
 8764 295b 6B290000 		.4byte	0x296b
 8765 295f 43       		.uleb128 0x43
 8766 2960 747000   		.ascii	"tp\000"
ARM GAS  /tmp/ccYjC7Ok.s 			page 155


 8767 2963 01       		.byte	0x1
 8768 2964 1301     		.2byte	0x113
 8769 2966 D40A0000 		.4byte	0xad4
 8770 296a 00       		.byte	0
 8771 296b 4D       		.uleb128 0x4d
 8772 296c 6E0D0000 		.4byte	.LASF296
 8773 2970 01       		.byte	0x1
 8774 2971 0401     		.2byte	0x104
 8775 2973 D40A0000 		.4byte	0xad4
 8776 2977 01       		.byte	0x1
 8777 2978 88290000 		.4byte	0x2988
 8778 297c 35       		.uleb128 0x35
 8779 297d 747000   		.ascii	"tp\000"
 8780 2980 01       		.byte	0x1
 8781 2981 0601     		.2byte	0x106
 8782 2983 D40A0000 		.4byte	0xad4
 8783 2987 00       		.byte	0
 8784 2988 61       		.uleb128 0x61
 8785 2989 29050000 		.4byte	.LASF297
 8786 298d 01       		.byte	0x1
 8787 298e E5       		.byte	0xe5
 8788 298f 00000000 		.4byte	.LFB9
 8789 2993 24000000 		.4byte	.LFE9-.LFB9
 8790 2997 01       		.uleb128 0x1
 8791 2998 9C       		.byte	0x9c
 8792 2999 F3290000 		.4byte	0x29f3
 8793 299d 6B       		.uleb128 0x6b
 8794 299e 70713000 		.ascii	"pq0\000"
 8795 29a2 01       		.byte	0x1
 8796 29a3 E5       		.byte	0xe5
 8797 29a4 85090000 		.4byte	0x985
 8798 29a8 01       		.uleb128 0x1
 8799 29a9 50       		.byte	0x50
 8800 29aa 6B       		.uleb128 0x6b
 8801 29ab 713000   		.ascii	"q0\000"
 8802 29ae 01       		.byte	0x1
 8803 29af E5       		.byte	0xe5
 8804 29b0 6F0D0000 		.4byte	0xd6f
 8805 29b4 01       		.uleb128 0x1
 8806 29b5 51       		.byte	0x51
 8807 29b6 5D       		.uleb128 0x5d
 8808 29b7 7000     		.ascii	"p\000"
 8809 29b9 01       		.byte	0x1
 8810 29ba E7       		.byte	0xe7
 8811 29bb 85090000 		.4byte	0x985
 8812 29bf 01       		.uleb128 0x1
 8813 29c0 53       		.byte	0x53
 8814 29c1 5F       		.uleb128 0x5f
 8815 29c2 552A0000 		.4byte	0x2a55
 8816 29c6 10000000 		.4byte	.LBB197
 8817 29ca 00000000 		.4byte	.Ldebug_ranges0+0
 8818 29ce 01       		.byte	0x1
 8819 29cf EE       		.byte	0xee
 8820 29d0 39       		.uleb128 0x39
 8821 29d1 6C2A0000 		.4byte	0x2a6c
 8822 29d5 4A110000 		.4byte	.LLST4
 8823 29d9 39       		.uleb128 0x39
ARM GAS  /tmp/ccYjC7Ok.s 			page 156


 8824 29da 612A0000 		.4byte	0x2a61
 8825 29de 5D110000 		.4byte	.LLST5
 8826 29e2 3E       		.uleb128 0x3e
 8827 29e3 00000000 		.4byte	.Ldebug_ranges0+0
 8828 29e7 3F       		.uleb128 0x3f
 8829 29e8 752A0000 		.4byte	0x2a75
 8830 29ec 70110000 		.4byte	.LLST6
 8831 29f0 00       		.byte	0
 8832 29f1 00       		.byte	0
 8833 29f2 00       		.byte	0
 8834 29f3 64       		.uleb128 0x64
 8835 29f4 1B0B0000 		.4byte	.LASF298
 8836 29f8 01       		.byte	0x1
 8837 29f9 D8       		.byte	0xd8
 8838 29fa 01       		.byte	0x1
 8839 29fb 1E2A0000 		.4byte	0x2a1e
 8840 29ff 65       		.uleb128 0x65
 8841 2a00 70713000 		.ascii	"pq0\000"
 8842 2a04 01       		.byte	0x1
 8843 2a05 D8       		.byte	0xd8
 8844 2a06 85090000 		.4byte	0x985
 8845 2a0a 65       		.uleb128 0x65
 8846 2a0b 713000   		.ascii	"q0\000"
 8847 2a0e 01       		.byte	0x1
 8848 2a0f D8       		.byte	0xd8
 8849 2a10 6F0D0000 		.4byte	0xd6f
 8850 2a14 66       		.uleb128 0x66
 8851 2a15 7000     		.ascii	"p\000"
 8852 2a17 01       		.byte	0x1
 8853 2a18 DA       		.byte	0xda
 8854 2a19 85090000 		.4byte	0x985
 8855 2a1d 00       		.byte	0
 8856 2a1e 6C       		.uleb128 0x6c
 8857 2a1f 190C0000 		.4byte	.LASF299
 8858 2a23 01       		.byte	0x1
 8859 2a24 CF       		.byte	0xcf
 8860 2a25 85090000 		.4byte	0x985
 8861 2a29 00000000 		.4byte	.LFB7
 8862 2a2d 10000000 		.4byte	.LFE7-.LFB7
 8863 2a31 01       		.uleb128 0x1
 8864 2a32 9C       		.byte	0x9c
 8865 2a33 552A0000 		.4byte	0x2a55
 8866 2a37 6D       		.uleb128 0x6d
 8867 2a38 7100     		.ascii	"q\000"
 8868 2a3a 01       		.byte	0x1
 8869 2a3b CF       		.byte	0xcf
 8870 2a3c 6F0D0000 		.4byte	0xd6f
 8871 2a40 83110000 		.4byte	.LLST0
 8872 2a44 6A       		.uleb128 0x6a
 8873 2a45 0C000000 		.4byte	.LVL3
 8874 2a49 802A0000 		.4byte	0x2a80
 8875 2a4d 32       		.uleb128 0x32
 8876 2a4e 01       		.uleb128 0x1
 8877 2a4f 50       		.byte	0x50
 8878 2a50 02       		.uleb128 0x2
 8879 2a51 70       		.byte	0x70
 8880 2a52 00       		.sleb128 0
ARM GAS  /tmp/ccYjC7Ok.s 			page 157


 8881 2a53 00       		.byte	0
 8882 2a54 00       		.byte	0
 8883 2a55 64       		.uleb128 0x64
 8884 2a56 9D000000 		.4byte	.LASF300
 8885 2a5a 01       		.byte	0x1
 8886 2a5b C3       		.byte	0xc3
 8887 2a5c 01       		.byte	0x1
 8888 2a5d 802A0000 		.4byte	0x2a80
 8889 2a61 65       		.uleb128 0x65
 8890 2a62 70713000 		.ascii	"pq0\000"
 8891 2a66 01       		.byte	0x1
 8892 2a67 C3       		.byte	0xc3
 8893 2a68 85090000 		.4byte	0x985
 8894 2a6c 65       		.uleb128 0x65
 8895 2a6d 7100     		.ascii	"q\000"
 8896 2a6f 01       		.byte	0x1
 8897 2a70 C3       		.byte	0xc3
 8898 2a71 6F0D0000 		.4byte	0xd6f
 8899 2a75 66       		.uleb128 0x66
 8900 2a76 707100   		.ascii	"pq\000"
 8901 2a79 01       		.byte	0x1
 8902 2a7a C5       		.byte	0xc5
 8903 2a7b 85090000 		.4byte	0x985
 8904 2a7f 00       		.byte	0
 8905 2a80 6C       		.uleb128 0x6c
 8906 2a81 100B0000 		.4byte	.LASF301
 8907 2a85 01       		.byte	0x1
 8908 2a86 BA       		.byte	0xba
 8909 2a87 85090000 		.4byte	0x985
 8910 2a8b 00000000 		.4byte	.LFB5
 8911 2a8f 10000000 		.4byte	.LFE5-.LFB5
 8912 2a93 01       		.uleb128 0x1
 8913 2a94 9C       		.byte	0x9c
 8914 2a95 A62A0000 		.4byte	0x2aa6
 8915 2a99 6B       		.uleb128 0x6b
 8916 2a9a 707100   		.ascii	"pq\000"
 8917 2a9d 01       		.byte	0x1
 8918 2a9e BA       		.byte	0xba
 8919 2a9f 85090000 		.4byte	0x985
 8920 2aa3 01       		.uleb128 0x1
 8921 2aa4 50       		.byte	0x50
 8922 2aa5 00       		.byte	0
 8923 2aa6 68       		.uleb128 0x68
 8924 2aa7 BB020000 		.4byte	.LASF302
 8925 2aab 01       		.byte	0x1
 8926 2aac B4       		.byte	0xb4
 8927 2aad 80000000 		.4byte	0x80
 8928 2ab1 01       		.byte	0x1
 8929 2ab2 C02A0000 		.4byte	0x2ac0
 8930 2ab6 65       		.uleb128 0x65
 8931 2ab7 7100     		.ascii	"q\000"
 8932 2ab9 01       		.byte	0x1
 8933 2aba B4       		.byte	0xb4
 8934 2abb 6F0D0000 		.4byte	0xd6f
 8935 2abf 00       		.byte	0
 8936 2ac0 64       		.uleb128 0x64
 8937 2ac1 2A040000 		.4byte	.LASF303
ARM GAS  /tmp/ccYjC7Ok.s 			page 158


 8938 2ac5 01       		.byte	0x1
 8939 2ac6 79       		.byte	0x79
 8940 2ac7 01       		.byte	0x1
 8941 2ac8 D72A0000 		.4byte	0x2ad7
 8942 2acc 65       		.uleb128 0x65
 8943 2acd 6C6B00   		.ascii	"lk\000"
 8944 2ad0 01       		.byte	0x1
 8945 2ad1 79       		.byte	0x79
 8946 2ad2 D72A0000 		.4byte	0x2ad7
 8947 2ad6 00       		.byte	0
 8948 2ad7 07       		.uleb128 0x7
 8949 2ad8 04       		.byte	0x4
 8950 2ad9 AC090000 		.4byte	0x9ac
 8951 2add 64       		.uleb128 0x64
 8952 2ade 59040000 		.4byte	.LASF304
 8953 2ae2 01       		.byte	0x1
 8954 2ae3 74       		.byte	0x74
 8955 2ae4 01       		.byte	0x1
 8956 2ae5 F42A0000 		.4byte	0x2af4
 8957 2ae9 65       		.uleb128 0x65
 8958 2aea 6C6B00   		.ascii	"lk\000"
 8959 2aed 01       		.byte	0x1
 8960 2aee 74       		.byte	0x74
 8961 2aef D72A0000 		.4byte	0x2ad7
 8962 2af3 00       		.byte	0
 8963 2af4 64       		.uleb128 0x64
 8964 2af5 10010000 		.4byte	.LASF305
 8965 2af9 01       		.byte	0x1
 8966 2afa 6F       		.byte	0x6f
 8967 2afb 01       		.byte	0x1
 8968 2afc 0B2B0000 		.4byte	0x2b0b
 8969 2b00 65       		.uleb128 0x65
 8970 2b01 6C6B00   		.ascii	"lk\000"
 8971 2b04 01       		.byte	0x1
 8972 2b05 6F       		.byte	0x6f
 8973 2b06 D72A0000 		.4byte	0x2ad7
 8974 2b0a 00       		.byte	0
 8975 2b0b 6E       		.uleb128 0x6e
 8976 2b0c BF070000 		.4byte	.LASF306
 8977 2b10 01       		.byte	0x1
 8978 2b11 45       		.byte	0x45
 8979 2b12 00000000 		.4byte	.LFB0
 8980 2b16 02000000 		.4byte	.LFE0-.LFB0
 8981 2b1a 01       		.uleb128 0x1
 8982 2b1b 9C       		.byte	0x9c
 8983 2b1c 2E2B0000 		.4byte	0x2b2e
 8984 2b20 6F       		.uleb128 0x6f
 8985 2b21 74010000 		.4byte	.LASF307
 8986 2b25 01       		.byte	0x1
 8987 2b26 45       		.byte	0x45
 8988 2b27 AF000000 		.4byte	0xaf
 8989 2b2b 01       		.uleb128 0x1
 8990 2b2c 50       		.byte	0x50
 8991 2b2d 00       		.byte	0
 8992 2b2e 70       		.uleb128 0x70
 8993 2b2f 701C0000 		.4byte	0x1c70
 8994 2b33 00000000 		.4byte	.LFB46
ARM GAS  /tmp/ccYjC7Ok.s 			page 159


 8995 2b37 3E000000 		.4byte	.LFE46-.LFB46
 8996 2b3b 01       		.uleb128 0x1
 8997 2b3c 9C       		.byte	0x9c
 8998 2b3d AA2B0000 		.4byte	0x2baa
 8999 2b41 39       		.uleb128 0x39
 9000 2b42 811C0000 		.4byte	0x1c81
 9001 2b46 BD110000 		.4byte	.LLST13
 9002 2b4a 36       		.uleb128 0x36
 9003 2b4b 22000000 		.4byte	.LBB210
 9004 2b4f 0E000000 		.4byte	.LBE210-.LBB210
 9005 2b53 852B0000 		.4byte	0x2b85
 9006 2b57 3F       		.uleb128 0x3f
 9007 2b58 911C0000 		.4byte	0x1c91
 9008 2b5c 23120000 		.4byte	.LLST14
 9009 2b60 31       		.uleb128 0x31
 9010 2b61 28000000 		.4byte	.LVL36
 9011 2b65 802A0000 		.4byte	0x2a80
 9012 2b69 742B0000 		.4byte	0x2b74
 9013 2b6d 32       		.uleb128 0x32
 9014 2b6e 01       		.uleb128 0x1
 9015 2b6f 50       		.byte	0x50
 9016 2b70 02       		.uleb128 0x2
 9017 2b71 70       		.byte	0x70
 9018 2b72 00       		.sleb128 0
 9019 2b73 00       		.byte	0
 9020 2b74 3B       		.uleb128 0x3b
 9021 2b75 2E000000 		.4byte	.LVL37
 9022 2b79 88290000 		.4byte	0x2988
 9023 2b7d 32       		.uleb128 0x32
 9024 2b7e 01       		.uleb128 0x1
 9025 2b7f 51       		.byte	0x51
 9026 2b80 02       		.uleb128 0x2
 9027 2b81 71       		.byte	0x71
 9028 2b82 00       		.sleb128 0
 9029 2b83 00       		.byte	0
 9030 2b84 00       		.byte	0
 9031 2b85 31       		.uleb128 0x31
 9032 2b86 14000000 		.4byte	.LVL32
 9033 2b8a 802A0000 		.4byte	0x2a80
 9034 2b8e 992B0000 		.4byte	0x2b99
 9035 2b92 32       		.uleb128 0x32
 9036 2b93 01       		.uleb128 0x1
 9037 2b94 50       		.byte	0x50
 9038 2b95 02       		.uleb128 0x2
 9039 2b96 70       		.byte	0x70
 9040 2b97 00       		.sleb128 0
 9041 2b98 00       		.byte	0
 9042 2b99 3B       		.uleb128 0x3b
 9043 2b9a 1A000000 		.4byte	.LVL33
 9044 2b9e 88290000 		.4byte	0x2988
 9045 2ba2 32       		.uleb128 0x32
 9046 2ba3 01       		.uleb128 0x1
 9047 2ba4 51       		.byte	0x51
 9048 2ba5 02       		.uleb128 0x2
 9049 2ba6 71       		.byte	0x71
 9050 2ba7 00       		.sleb128 0
 9051 2ba8 00       		.byte	0
ARM GAS  /tmp/ccYjC7Ok.s 			page 160


 9052 2ba9 00       		.byte	0
 9053 2baa 70       		.uleb128 0x70
 9054 2bab 7E240000 		.4byte	0x247e
 9055 2baf 00000000 		.4byte	.LFB32
 9056 2bb3 24000000 		.4byte	.LFE32-.LFB32
 9057 2bb7 01       		.uleb128 0x1
 9058 2bb8 9C       		.byte	0x9c
 9059 2bb9 E82B0000 		.4byte	0x2be8
 9060 2bbd 50       		.uleb128 0x50
 9061 2bbe 8B240000 		.4byte	0x248b
 9062 2bc2 01       		.uleb128 0x1
 9063 2bc3 50       		.byte	0x50
 9064 2bc4 39       		.uleb128 0x39
 9065 2bc5 96240000 		.4byte	0x2496
 9066 2bc9 36120000 		.4byte	.LLST15
 9067 2bcd 57       		.uleb128 0x57
 9068 2bce F8280000 		.4byte	0x28f8
 9069 2bd2 04000000 		.4byte	.LBB213
 9070 2bd6 30000000 		.4byte	.Ldebug_ranges0+0x30
 9071 2bda 01       		.byte	0x1
 9072 2bdb 3301     		.2byte	0x133
 9073 2bdd 39       		.uleb128 0x39
 9074 2bde 04290000 		.4byte	0x2904
 9075 2be2 57120000 		.4byte	.LLST16
 9076 2be6 00       		.byte	0
 9077 2be7 00       		.byte	0
 9078 2be8 70       		.uleb128 0x70
 9079 2be9 49200000 		.4byte	0x2049
 9080 2bed 00000000 		.4byte	.LFB38
 9081 2bf1 64000000 		.4byte	.LFE38-.LFB38
 9082 2bf5 01       		.uleb128 0x1
 9083 2bf6 9C       		.byte	0x9c
 9084 2bf7 6F2C0000 		.4byte	0x2c6f
 9085 2bfb 39       		.uleb128 0x39
 9086 2bfc 5A200000 		.4byte	0x205a
 9087 2c00 78120000 		.4byte	.LLST36
 9088 2c04 71       		.uleb128 0x71
 9089 2c05 65200000 		.4byte	0x2065
 9090 2c09 00       		.byte	0
 9091 2c0a 3F       		.uleb128 0x3f
 9092 2c0b 71200000 		.4byte	0x2071
 9093 2c0f CB120000 		.4byte	.LLST37
 9094 2c13 37       		.uleb128 0x37
 9095 2c14 E8000000 		.4byte	.Ldebug_ranges0+0xe8
 9096 2c18 432C0000 		.4byte	0x2c43
 9097 2c1c 3F       		.uleb128 0x3f
 9098 2c1d 7D200000 		.4byte	0x207d
 9099 2c21 E9120000 		.4byte	.LLST38
 9100 2c25 31       		.uleb128 0x31
 9101 2c26 3A000000 		.4byte	.LVL81
 9102 2c2a 4E220000 		.4byte	0x224e
 9103 2c2e 392C0000 		.4byte	0x2c39
 9104 2c32 32       		.uleb128 0x32
 9105 2c33 01       		.uleb128 0x1
 9106 2c34 50       		.byte	0x50
 9107 2c35 02       		.uleb128 0x2
 9108 2c36 74       		.byte	0x74
ARM GAS  /tmp/ccYjC7Ok.s 			page 161


 9109 2c37 00       		.sleb128 0
 9110 2c38 00       		.byte	0
 9111 2c39 30       		.uleb128 0x30
 9112 2c3a 40000000 		.4byte	.LVL83
 9113 2c3e 18290000 		.4byte	0x2918
 9114 2c42 00       		.byte	0
 9115 2c43 72       		.uleb128 0x72
 9116 2c44 49200000 		.4byte	0x2049
 9117 2c48 4A000000 		.4byte	.LBB277
 9118 2c4c 1A000000 		.4byte	.LBE277-.LBB277
 9119 2c50 39       		.uleb128 0x39
 9120 2c51 5A200000 		.4byte	0x205a
 9121 2c55 15130000 		.4byte	.LLST39
 9122 2c59 40       		.uleb128 0x40
 9123 2c5a 4A000000 		.4byte	.LBB278
 9124 2c5e 1A000000 		.4byte	.LBE278-.LBB278
 9125 2c62 73       		.uleb128 0x73
 9126 2c63 042C0000 		.4byte	0x2c04
 9127 2c67 73       		.uleb128 0x73
 9128 2c68 0A2C0000 		.4byte	0x2c0a
 9129 2c6c 00       		.byte	0
 9130 2c6d 00       		.byte	0
 9131 2c6e 00       		.byte	0
 9132 2c6f 74       		.uleb128 0x74
 9133 2c70 C9070000 		.4byte	.LASF315
 9134 2c74 68030000 		.4byte	.LASF316
 9135 2c78 0C       		.byte	0xc
 9136 2c79 00       		.byte	0
 9137 2c7a C9070000 		.4byte	.LASF315
 9138 2c7e 00       		.byte	0
 9139              		.section	.debug_abbrev,"",%progbits
 9140              	.Ldebug_abbrev0:
 9141 0000 01       		.uleb128 0x1
 9142 0001 11       		.uleb128 0x11
 9143 0002 01       		.byte	0x1
 9144 0003 25       		.uleb128 0x25
 9145 0004 0E       		.uleb128 0xe
 9146 0005 13       		.uleb128 0x13
 9147 0006 0B       		.uleb128 0xb
 9148 0007 03       		.uleb128 0x3
 9149 0008 0E       		.uleb128 0xe
 9150 0009 1B       		.uleb128 0x1b
 9151 000a 0E       		.uleb128 0xe
 9152 000b 55       		.uleb128 0x55
 9153 000c 17       		.uleb128 0x17
 9154 000d 11       		.uleb128 0x11
 9155 000e 01       		.uleb128 0x1
 9156 000f 10       		.uleb128 0x10
 9157 0010 17       		.uleb128 0x17
 9158 0011 00       		.byte	0
 9159 0012 00       		.byte	0
 9160 0013 02       		.uleb128 0x2
 9161 0014 0F       		.uleb128 0xf
 9162 0015 00       		.byte	0
 9163 0016 0B       		.uleb128 0xb
 9164 0017 0B       		.uleb128 0xb
 9165 0018 00       		.byte	0
ARM GAS  /tmp/ccYjC7Ok.s 			page 162


 9166 0019 00       		.byte	0
 9167 001a 03       		.uleb128 0x3
 9168 001b 24       		.uleb128 0x24
 9169 001c 00       		.byte	0
 9170 001d 0B       		.uleb128 0xb
 9171 001e 0B       		.uleb128 0xb
 9172 001f 3E       		.uleb128 0x3e
 9173 0020 0B       		.uleb128 0xb
 9174 0021 03       		.uleb128 0x3
 9175 0022 0E       		.uleb128 0xe
 9176 0023 00       		.byte	0
 9177 0024 00       		.byte	0
 9178 0025 04       		.uleb128 0x4
 9179 0026 16       		.uleb128 0x16
 9180 0027 00       		.byte	0
 9181 0028 03       		.uleb128 0x3
 9182 0029 0E       		.uleb128 0xe
 9183 002a 3A       		.uleb128 0x3a
 9184 002b 0B       		.uleb128 0xb
 9185 002c 3B       		.uleb128 0x3b
 9186 002d 0B       		.uleb128 0xb
 9187 002e 49       		.uleb128 0x49
 9188 002f 13       		.uleb128 0x13
 9189 0030 00       		.byte	0
 9190 0031 00       		.byte	0
 9191 0032 05       		.uleb128 0x5
 9192 0033 24       		.uleb128 0x24
 9193 0034 00       		.byte	0
 9194 0035 0B       		.uleb128 0xb
 9195 0036 0B       		.uleb128 0xb
 9196 0037 3E       		.uleb128 0x3e
 9197 0038 0B       		.uleb128 0xb
 9198 0039 03       		.uleb128 0x3
 9199 003a 08       		.uleb128 0x8
 9200 003b 00       		.byte	0
 9201 003c 00       		.byte	0
 9202 003d 06       		.uleb128 0x6
 9203 003e 35       		.uleb128 0x35
 9204 003f 00       		.byte	0
 9205 0040 49       		.uleb128 0x49
 9206 0041 13       		.uleb128 0x13
 9207 0042 00       		.byte	0
 9208 0043 00       		.byte	0
 9209 0044 07       		.uleb128 0x7
 9210 0045 0F       		.uleb128 0xf
 9211 0046 00       		.byte	0
 9212 0047 0B       		.uleb128 0xb
 9213 0048 0B       		.uleb128 0xb
 9214 0049 49       		.uleb128 0x49
 9215 004a 13       		.uleb128 0x13
 9216 004b 00       		.byte	0
 9217 004c 00       		.byte	0
 9218 004d 08       		.uleb128 0x8
 9219 004e 13       		.uleb128 0x13
 9220 004f 00       		.byte	0
 9221 0050 03       		.uleb128 0x3
 9222 0051 0E       		.uleb128 0xe
ARM GAS  /tmp/ccYjC7Ok.s 			page 163


 9223 0052 3C       		.uleb128 0x3c
 9224 0053 19       		.uleb128 0x19
 9225 0054 00       		.byte	0
 9226 0055 00       		.byte	0
 9227 0056 09       		.uleb128 0x9
 9228 0057 16       		.uleb128 0x16
 9229 0058 00       		.byte	0
 9230 0059 03       		.uleb128 0x3
 9231 005a 0E       		.uleb128 0xe
 9232 005b 3A       		.uleb128 0x3a
 9233 005c 0B       		.uleb128 0xb
 9234 005d 3B       		.uleb128 0x3b
 9235 005e 05       		.uleb128 0x5
 9236 005f 49       		.uleb128 0x49
 9237 0060 13       		.uleb128 0x13
 9238 0061 00       		.byte	0
 9239 0062 00       		.byte	0
 9240 0063 0A       		.uleb128 0xa
 9241 0064 17       		.uleb128 0x17
 9242 0065 01       		.byte	0x1
 9243 0066 0B       		.uleb128 0xb
 9244 0067 0B       		.uleb128 0xb
 9245 0068 3A       		.uleb128 0x3a
 9246 0069 0B       		.uleb128 0xb
 9247 006a 3B       		.uleb128 0x3b
 9248 006b 0B       		.uleb128 0xb
 9249 006c 01       		.uleb128 0x1
 9250 006d 13       		.uleb128 0x13
 9251 006e 00       		.byte	0
 9252 006f 00       		.byte	0
 9253 0070 0B       		.uleb128 0xb
 9254 0071 0D       		.uleb128 0xd
 9255 0072 00       		.byte	0
 9256 0073 03       		.uleb128 0x3
 9257 0074 0E       		.uleb128 0xe
 9258 0075 3A       		.uleb128 0x3a
 9259 0076 0B       		.uleb128 0xb
 9260 0077 3B       		.uleb128 0x3b
 9261 0078 0B       		.uleb128 0xb
 9262 0079 49       		.uleb128 0x49
 9263 007a 13       		.uleb128 0x13
 9264 007b 00       		.byte	0
 9265 007c 00       		.byte	0
 9266 007d 0C       		.uleb128 0xc
 9267 007e 01       		.uleb128 0x1
 9268 007f 01       		.byte	0x1
 9269 0080 49       		.uleb128 0x49
 9270 0081 13       		.uleb128 0x13
 9271 0082 01       		.uleb128 0x1
 9272 0083 13       		.uleb128 0x13
 9273 0084 00       		.byte	0
 9274 0085 00       		.byte	0
 9275 0086 0D       		.uleb128 0xd
 9276 0087 21       		.uleb128 0x21
 9277 0088 00       		.byte	0
 9278 0089 49       		.uleb128 0x49
 9279 008a 13       		.uleb128 0x13
ARM GAS  /tmp/ccYjC7Ok.s 			page 164


 9280 008b 2F       		.uleb128 0x2f
 9281 008c 0B       		.uleb128 0xb
 9282 008d 00       		.byte	0
 9283 008e 00       		.byte	0
 9284 008f 0E       		.uleb128 0xe
 9285 0090 13       		.uleb128 0x13
 9286 0091 01       		.byte	0x1
 9287 0092 0B       		.uleb128 0xb
 9288 0093 0B       		.uleb128 0xb
 9289 0094 3A       		.uleb128 0x3a
 9290 0095 0B       		.uleb128 0xb
 9291 0096 3B       		.uleb128 0x3b
 9292 0097 0B       		.uleb128 0xb
 9293 0098 01       		.uleb128 0x1
 9294 0099 13       		.uleb128 0x13
 9295 009a 00       		.byte	0
 9296 009b 00       		.byte	0
 9297 009c 0F       		.uleb128 0xf
 9298 009d 0D       		.uleb128 0xd
 9299 009e 00       		.byte	0
 9300 009f 03       		.uleb128 0x3
 9301 00a0 0E       		.uleb128 0xe
 9302 00a1 3A       		.uleb128 0x3a
 9303 00a2 0B       		.uleb128 0xb
 9304 00a3 3B       		.uleb128 0x3b
 9305 00a4 0B       		.uleb128 0xb
 9306 00a5 49       		.uleb128 0x49
 9307 00a6 13       		.uleb128 0x13
 9308 00a7 38       		.uleb128 0x38
 9309 00a8 0B       		.uleb128 0xb
 9310 00a9 00       		.byte	0
 9311 00aa 00       		.byte	0
 9312 00ab 10       		.uleb128 0x10
 9313 00ac 26       		.uleb128 0x26
 9314 00ad 00       		.byte	0
 9315 00ae 49       		.uleb128 0x49
 9316 00af 13       		.uleb128 0x13
 9317 00b0 00       		.byte	0
 9318 00b1 00       		.byte	0
 9319 00b2 11       		.uleb128 0x11
 9320 00b3 13       		.uleb128 0x13
 9321 00b4 01       		.byte	0x1
 9322 00b5 03       		.uleb128 0x3
 9323 00b6 0E       		.uleb128 0xe
 9324 00b7 0B       		.uleb128 0xb
 9325 00b8 0B       		.uleb128 0xb
 9326 00b9 3A       		.uleb128 0x3a
 9327 00ba 0B       		.uleb128 0xb
 9328 00bb 3B       		.uleb128 0x3b
 9329 00bc 0B       		.uleb128 0xb
 9330 00bd 01       		.uleb128 0x1
 9331 00be 13       		.uleb128 0x13
 9332 00bf 00       		.byte	0
 9333 00c0 00       		.byte	0
 9334 00c1 12       		.uleb128 0x12
 9335 00c2 0D       		.uleb128 0xd
 9336 00c3 00       		.byte	0
ARM GAS  /tmp/ccYjC7Ok.s 			page 165


 9337 00c4 03       		.uleb128 0x3
 9338 00c5 08       		.uleb128 0x8
 9339 00c6 3A       		.uleb128 0x3a
 9340 00c7 0B       		.uleb128 0xb
 9341 00c8 3B       		.uleb128 0x3b
 9342 00c9 0B       		.uleb128 0xb
 9343 00ca 49       		.uleb128 0x49
 9344 00cb 13       		.uleb128 0x13
 9345 00cc 38       		.uleb128 0x38
 9346 00cd 0B       		.uleb128 0xb
 9347 00ce 00       		.byte	0
 9348 00cf 00       		.byte	0
 9349 00d0 13       		.uleb128 0x13
 9350 00d1 13       		.uleb128 0x13
 9351 00d2 01       		.byte	0x1
 9352 00d3 03       		.uleb128 0x3
 9353 00d4 0E       		.uleb128 0xe
 9354 00d5 0B       		.uleb128 0xb
 9355 00d6 05       		.uleb128 0x5
 9356 00d7 3A       		.uleb128 0x3a
 9357 00d8 0B       		.uleb128 0xb
 9358 00d9 3B       		.uleb128 0x3b
 9359 00da 0B       		.uleb128 0xb
 9360 00db 01       		.uleb128 0x1
 9361 00dc 13       		.uleb128 0x13
 9362 00dd 00       		.byte	0
 9363 00de 00       		.byte	0
 9364 00df 14       		.uleb128 0x14
 9365 00e0 0D       		.uleb128 0xd
 9366 00e1 00       		.byte	0
 9367 00e2 03       		.uleb128 0x3
 9368 00e3 0E       		.uleb128 0xe
 9369 00e4 3A       		.uleb128 0x3a
 9370 00e5 0B       		.uleb128 0xb
 9371 00e6 3B       		.uleb128 0x3b
 9372 00e7 0B       		.uleb128 0xb
 9373 00e8 49       		.uleb128 0x49
 9374 00e9 13       		.uleb128 0x13
 9375 00ea 38       		.uleb128 0x38
 9376 00eb 05       		.uleb128 0x5
 9377 00ec 00       		.byte	0
 9378 00ed 00       		.byte	0
 9379 00ee 15       		.uleb128 0x15
 9380 00ef 15       		.uleb128 0x15
 9381 00f0 00       		.byte	0
 9382 00f1 27       		.uleb128 0x27
 9383 00f2 19       		.uleb128 0x19
 9384 00f3 00       		.byte	0
 9385 00f4 00       		.byte	0
 9386 00f5 16       		.uleb128 0x16
 9387 00f6 15       		.uleb128 0x15
 9388 00f7 01       		.byte	0x1
 9389 00f8 27       		.uleb128 0x27
 9390 00f9 19       		.uleb128 0x19
 9391 00fa 49       		.uleb128 0x49
 9392 00fb 13       		.uleb128 0x13
 9393 00fc 01       		.uleb128 0x1
ARM GAS  /tmp/ccYjC7Ok.s 			page 166


 9394 00fd 13       		.uleb128 0x13
 9395 00fe 00       		.byte	0
 9396 00ff 00       		.byte	0
 9397 0100 17       		.uleb128 0x17
 9398 0101 05       		.uleb128 0x5
 9399 0102 00       		.byte	0
 9400 0103 49       		.uleb128 0x49
 9401 0104 13       		.uleb128 0x13
 9402 0105 00       		.byte	0
 9403 0106 00       		.byte	0
 9404 0107 18       		.uleb128 0x18
 9405 0108 13       		.uleb128 0x13
 9406 0109 01       		.byte	0x1
 9407 010a 03       		.uleb128 0x3
 9408 010b 0E       		.uleb128 0xe
 9409 010c 0B       		.uleb128 0xb
 9410 010d 05       		.uleb128 0x5
 9411 010e 3A       		.uleb128 0x3a
 9412 010f 0B       		.uleb128 0xb
 9413 0110 3B       		.uleb128 0x3b
 9414 0111 05       		.uleb128 0x5
 9415 0112 01       		.uleb128 0x1
 9416 0113 13       		.uleb128 0x13
 9417 0114 00       		.byte	0
 9418 0115 00       		.byte	0
 9419 0116 19       		.uleb128 0x19
 9420 0117 0D       		.uleb128 0xd
 9421 0118 00       		.byte	0
 9422 0119 03       		.uleb128 0x3
 9423 011a 0E       		.uleb128 0xe
 9424 011b 3A       		.uleb128 0x3a
 9425 011c 0B       		.uleb128 0xb
 9426 011d 3B       		.uleb128 0x3b
 9427 011e 05       		.uleb128 0x5
 9428 011f 49       		.uleb128 0x49
 9429 0120 13       		.uleb128 0x13
 9430 0121 38       		.uleb128 0x38
 9431 0122 0B       		.uleb128 0xb
 9432 0123 00       		.byte	0
 9433 0124 00       		.byte	0
 9434 0125 1A       		.uleb128 0x1a
 9435 0126 0D       		.uleb128 0xd
 9436 0127 00       		.byte	0
 9437 0128 03       		.uleb128 0x3
 9438 0129 0E       		.uleb128 0xe
 9439 012a 3A       		.uleb128 0x3a
 9440 012b 0B       		.uleb128 0xb
 9441 012c 3B       		.uleb128 0x3b
 9442 012d 05       		.uleb128 0x5
 9443 012e 49       		.uleb128 0x49
 9444 012f 13       		.uleb128 0x13
 9445 0130 38       		.uleb128 0x38
 9446 0131 05       		.uleb128 0x5
 9447 0132 00       		.byte	0
 9448 0133 00       		.byte	0
 9449 0134 1B       		.uleb128 0x1b
 9450 0135 13       		.uleb128 0x13
ARM GAS  /tmp/ccYjC7Ok.s 			page 167


 9451 0136 01       		.byte	0x1
 9452 0137 03       		.uleb128 0x3
 9453 0138 0E       		.uleb128 0xe
 9454 0139 0B       		.uleb128 0xb
 9455 013a 0B       		.uleb128 0xb
 9456 013b 3A       		.uleb128 0x3a
 9457 013c 0B       		.uleb128 0xb
 9458 013d 3B       		.uleb128 0x3b
 9459 013e 05       		.uleb128 0x5
 9460 013f 01       		.uleb128 0x1
 9461 0140 13       		.uleb128 0x13
 9462 0141 00       		.byte	0
 9463 0142 00       		.byte	0
 9464 0143 1C       		.uleb128 0x1c
 9465 0144 13       		.uleb128 0x13
 9466 0145 01       		.byte	0x1
 9467 0146 0B       		.uleb128 0xb
 9468 0147 0B       		.uleb128 0xb
 9469 0148 3A       		.uleb128 0x3a
 9470 0149 0B       		.uleb128 0xb
 9471 014a 3B       		.uleb128 0x3b
 9472 014b 05       		.uleb128 0x5
 9473 014c 01       		.uleb128 0x1
 9474 014d 13       		.uleb128 0x13
 9475 014e 00       		.byte	0
 9476 014f 00       		.byte	0
 9477 0150 1D       		.uleb128 0x1d
 9478 0151 17       		.uleb128 0x17
 9479 0152 01       		.byte	0x1
 9480 0153 0B       		.uleb128 0xb
 9481 0154 0B       		.uleb128 0xb
 9482 0155 3A       		.uleb128 0x3a
 9483 0156 0B       		.uleb128 0xb
 9484 0157 3B       		.uleb128 0x3b
 9485 0158 05       		.uleb128 0x5
 9486 0159 01       		.uleb128 0x1
 9487 015a 13       		.uleb128 0x13
 9488 015b 00       		.byte	0
 9489 015c 00       		.byte	0
 9490 015d 1E       		.uleb128 0x1e
 9491 015e 0D       		.uleb128 0xd
 9492 015f 00       		.byte	0
 9493 0160 03       		.uleb128 0x3
 9494 0161 0E       		.uleb128 0xe
 9495 0162 3A       		.uleb128 0x3a
 9496 0163 0B       		.uleb128 0xb
 9497 0164 3B       		.uleb128 0x3b
 9498 0165 05       		.uleb128 0x5
 9499 0166 49       		.uleb128 0x49
 9500 0167 13       		.uleb128 0x13
 9501 0168 00       		.byte	0
 9502 0169 00       		.byte	0
 9503 016a 1F       		.uleb128 0x1f
 9504 016b 15       		.uleb128 0x15
 9505 016c 01       		.byte	0x1
 9506 016d 27       		.uleb128 0x27
 9507 016e 19       		.uleb128 0x19
ARM GAS  /tmp/ccYjC7Ok.s 			page 168


 9508 016f 01       		.uleb128 0x1
 9509 0170 13       		.uleb128 0x13
 9510 0171 00       		.byte	0
 9511 0172 00       		.byte	0
 9512 0173 20       		.uleb128 0x20
 9513 0174 34       		.uleb128 0x34
 9514 0175 00       		.byte	0
 9515 0176 03       		.uleb128 0x3
 9516 0177 0E       		.uleb128 0xe
 9517 0178 3A       		.uleb128 0x3a
 9518 0179 0B       		.uleb128 0xb
 9519 017a 3B       		.uleb128 0x3b
 9520 017b 05       		.uleb128 0x5
 9521 017c 49       		.uleb128 0x49
 9522 017d 13       		.uleb128 0x13
 9523 017e 3F       		.uleb128 0x3f
 9524 017f 19       		.uleb128 0x19
 9525 0180 3C       		.uleb128 0x3c
 9526 0181 19       		.uleb128 0x19
 9527 0182 00       		.byte	0
 9528 0183 00       		.byte	0
 9529 0184 21       		.uleb128 0x21
 9530 0185 34       		.uleb128 0x34
 9531 0186 00       		.byte	0
 9532 0187 03       		.uleb128 0x3
 9533 0188 0E       		.uleb128 0xe
 9534 0189 3A       		.uleb128 0x3a
 9535 018a 0B       		.uleb128 0xb
 9536 018b 3B       		.uleb128 0x3b
 9537 018c 0B       		.uleb128 0xb
 9538 018d 49       		.uleb128 0x49
 9539 018e 13       		.uleb128 0x13
 9540 018f 3F       		.uleb128 0x3f
 9541 0190 19       		.uleb128 0x19
 9542 0191 3C       		.uleb128 0x3c
 9543 0192 19       		.uleb128 0x19
 9544 0193 00       		.byte	0
 9545 0194 00       		.byte	0
 9546 0195 22       		.uleb128 0x22
 9547 0196 0D       		.uleb128 0xd
 9548 0197 00       		.byte	0
 9549 0198 03       		.uleb128 0x3
 9550 0199 0E       		.uleb128 0xe
 9551 019a 3A       		.uleb128 0x3a
 9552 019b 0B       		.uleb128 0xb
 9553 019c 3B       		.uleb128 0x3b
 9554 019d 0B       		.uleb128 0xb
 9555 019e 49       		.uleb128 0x49
 9556 019f 13       		.uleb128 0x13
 9557 01a0 0B       		.uleb128 0xb
 9558 01a1 0B       		.uleb128 0xb
 9559 01a2 0D       		.uleb128 0xd
 9560 01a3 0B       		.uleb128 0xb
 9561 01a4 0C       		.uleb128 0xc
 9562 01a5 0B       		.uleb128 0xb
 9563 01a6 38       		.uleb128 0x38
 9564 01a7 0B       		.uleb128 0xb
ARM GAS  /tmp/ccYjC7Ok.s 			page 169


 9565 01a8 00       		.byte	0
 9566 01a9 00       		.byte	0
 9567 01aa 23       		.uleb128 0x23
 9568 01ab 13       		.uleb128 0x13
 9569 01ac 00       		.byte	0
 9570 01ad 03       		.uleb128 0x3
 9571 01ae 0E       		.uleb128 0xe
 9572 01af 0B       		.uleb128 0xb
 9573 01b0 0B       		.uleb128 0xb
 9574 01b1 3A       		.uleb128 0x3a
 9575 01b2 0B       		.uleb128 0xb
 9576 01b3 3B       		.uleb128 0x3b
 9577 01b4 0B       		.uleb128 0xb
 9578 01b5 00       		.byte	0
 9579 01b6 00       		.byte	0
 9580 01b7 24       		.uleb128 0x24
 9581 01b8 04       		.uleb128 0x4
 9582 01b9 01       		.byte	0x1
 9583 01ba 3E       		.uleb128 0x3e
 9584 01bb 0B       		.uleb128 0xb
 9585 01bc 0B       		.uleb128 0xb
 9586 01bd 0B       		.uleb128 0xb
 9587 01be 49       		.uleb128 0x49
 9588 01bf 13       		.uleb128 0x13
 9589 01c0 3A       		.uleb128 0x3a
 9590 01c1 0B       		.uleb128 0xb
 9591 01c2 3B       		.uleb128 0x3b
 9592 01c3 0B       		.uleb128 0xb
 9593 01c4 01       		.uleb128 0x1
 9594 01c5 13       		.uleb128 0x13
 9595 01c6 00       		.byte	0
 9596 01c7 00       		.byte	0
 9597 01c8 25       		.uleb128 0x25
 9598 01c9 28       		.uleb128 0x28
 9599 01ca 00       		.byte	0
 9600 01cb 03       		.uleb128 0x3
 9601 01cc 0E       		.uleb128 0xe
 9602 01cd 1C       		.uleb128 0x1c
 9603 01ce 0B       		.uleb128 0xb
 9604 01cf 00       		.byte	0
 9605 01d0 00       		.byte	0
 9606 01d1 26       		.uleb128 0x26
 9607 01d2 34       		.uleb128 0x34
 9608 01d3 00       		.byte	0
 9609 01d4 03       		.uleb128 0x3
 9610 01d5 0E       		.uleb128 0xe
 9611 01d6 3A       		.uleb128 0x3a
 9612 01d7 0B       		.uleb128 0xb
 9613 01d8 3B       		.uleb128 0x3b
 9614 01d9 0B       		.uleb128 0xb
 9615 01da 49       		.uleb128 0x49
 9616 01db 13       		.uleb128 0x13
 9617 01dc 3F       		.uleb128 0x3f
 9618 01dd 19       		.uleb128 0x19
 9619 01de 02       		.uleb128 0x2
 9620 01df 18       		.uleb128 0x18
 9621 01e0 00       		.byte	0
ARM GAS  /tmp/ccYjC7Ok.s 			page 170


 9622 01e1 00       		.byte	0
 9623 01e2 27       		.uleb128 0x27
 9624 01e3 34       		.uleb128 0x34
 9625 01e4 00       		.byte	0
 9626 01e5 03       		.uleb128 0x3
 9627 01e6 0E       		.uleb128 0xe
 9628 01e7 3A       		.uleb128 0x3a
 9629 01e8 0B       		.uleb128 0xb
 9630 01e9 3B       		.uleb128 0x3b
 9631 01ea 0B       		.uleb128 0xb
 9632 01eb 49       		.uleb128 0x49
 9633 01ec 13       		.uleb128 0x13
 9634 01ed 02       		.uleb128 0x2
 9635 01ee 18       		.uleb128 0x18
 9636 01ef 00       		.byte	0
 9637 01f0 00       		.byte	0
 9638 01f1 28       		.uleb128 0x28
 9639 01f2 34       		.uleb128 0x34
 9640 01f3 00       		.byte	0
 9641 01f4 03       		.uleb128 0x3
 9642 01f5 0E       		.uleb128 0xe
 9643 01f6 3A       		.uleb128 0x3a
 9644 01f7 0B       		.uleb128 0xb
 9645 01f8 3B       		.uleb128 0x3b
 9646 01f9 0B       		.uleb128 0xb
 9647 01fa 49       		.uleb128 0x49
 9648 01fb 13       		.uleb128 0x13
 9649 01fc 1C       		.uleb128 0x1c
 9650 01fd 0D       		.uleb128 0xd
 9651 01fe 00       		.byte	0
 9652 01ff 00       		.byte	0
 9653 0200 29       		.uleb128 0x29
 9654 0201 0D       		.uleb128 0xd
 9655 0202 00       		.byte	0
 9656 0203 03       		.uleb128 0x3
 9657 0204 08       		.uleb128 0x8
 9658 0205 3A       		.uleb128 0x3a
 9659 0206 0B       		.uleb128 0xb
 9660 0207 3B       		.uleb128 0x3b
 9661 0208 0B       		.uleb128 0xb
 9662 0209 49       		.uleb128 0x49
 9663 020a 13       		.uleb128 0x13
 9664 020b 38       		.uleb128 0x38
 9665 020c 05       		.uleb128 0x5
 9666 020d 00       		.byte	0
 9667 020e 00       		.byte	0
 9668 020f 2A       		.uleb128 0x2a
 9669 0210 34       		.uleb128 0x34
 9670 0211 00       		.byte	0
 9671 0212 47       		.uleb128 0x47
 9672 0213 13       		.uleb128 0x13
 9673 0214 3A       		.uleb128 0x3a
 9674 0215 0B       		.uleb128 0xb
 9675 0216 3B       		.uleb128 0x3b
 9676 0217 05       		.uleb128 0x5
 9677 0218 02       		.uleb128 0x2
 9678 0219 18       		.uleb128 0x18
ARM GAS  /tmp/ccYjC7Ok.s 			page 171


 9679 021a 00       		.byte	0
 9680 021b 00       		.byte	0
 9681 021c 2B       		.uleb128 0x2b
 9682 021d 2E       		.uleb128 0x2e
 9683 021e 01       		.byte	0x1
 9684 021f 3F       		.uleb128 0x3f
 9685 0220 19       		.uleb128 0x19
 9686 0221 03       		.uleb128 0x3
 9687 0222 0E       		.uleb128 0xe
 9688 0223 3A       		.uleb128 0x3a
 9689 0224 0B       		.uleb128 0xb
 9690 0225 3B       		.uleb128 0x3b
 9691 0226 05       		.uleb128 0x5
 9692 0227 27       		.uleb128 0x27
 9693 0228 19       		.uleb128 0x19
 9694 0229 49       		.uleb128 0x49
 9695 022a 13       		.uleb128 0x13
 9696 022b 11       		.uleb128 0x11
 9697 022c 01       		.uleb128 0x1
 9698 022d 12       		.uleb128 0x12
 9699 022e 06       		.uleb128 0x6
 9700 022f 40       		.uleb128 0x40
 9701 0230 18       		.uleb128 0x18
 9702 0231 9742     		.uleb128 0x2117
 9703 0233 19       		.uleb128 0x19
 9704 0234 01       		.uleb128 0x1
 9705 0235 13       		.uleb128 0x13
 9706 0236 00       		.byte	0
 9707 0237 00       		.byte	0
 9708 0238 2C       		.uleb128 0x2c
 9709 0239 05       		.uleb128 0x5
 9710 023a 00       		.byte	0
 9711 023b 03       		.uleb128 0x3
 9712 023c 0E       		.uleb128 0xe
 9713 023d 3A       		.uleb128 0x3a
 9714 023e 0B       		.uleb128 0xb
 9715 023f 3B       		.uleb128 0x3b
 9716 0240 05       		.uleb128 0x5
 9717 0241 49       		.uleb128 0x49
 9718 0242 13       		.uleb128 0x13
 9719 0243 02       		.uleb128 0x2
 9720 0244 17       		.uleb128 0x17
 9721 0245 00       		.byte	0
 9722 0246 00       		.byte	0
 9723 0247 2D       		.uleb128 0x2d
 9724 0248 34       		.uleb128 0x34
 9725 0249 00       		.byte	0
 9726 024a 03       		.uleb128 0x3
 9727 024b 08       		.uleb128 0x8
 9728 024c 3A       		.uleb128 0x3a
 9729 024d 0B       		.uleb128 0xb
 9730 024e 3B       		.uleb128 0x3b
 9731 024f 05       		.uleb128 0x5
 9732 0250 49       		.uleb128 0x49
 9733 0251 13       		.uleb128 0x13
 9734 0252 02       		.uleb128 0x2
 9735 0253 17       		.uleb128 0x17
ARM GAS  /tmp/ccYjC7Ok.s 			page 172


 9736 0254 00       		.byte	0
 9737 0255 00       		.byte	0
 9738 0256 2E       		.uleb128 0x2e
 9739 0257 34       		.uleb128 0x34
 9740 0258 00       		.byte	0
 9741 0259 03       		.uleb128 0x3
 9742 025a 0E       		.uleb128 0xe
 9743 025b 3A       		.uleb128 0x3a
 9744 025c 0B       		.uleb128 0xb
 9745 025d 3B       		.uleb128 0x3b
 9746 025e 05       		.uleb128 0x5
 9747 025f 49       		.uleb128 0x49
 9748 0260 13       		.uleb128 0x13
 9749 0261 02       		.uleb128 0x2
 9750 0262 18       		.uleb128 0x18
 9751 0263 00       		.byte	0
 9752 0264 00       		.byte	0
 9753 0265 2F       		.uleb128 0x2f
 9754 0266 34       		.uleb128 0x34
 9755 0267 00       		.byte	0
 9756 0268 03       		.uleb128 0x3
 9757 0269 0E       		.uleb128 0xe
 9758 026a 3A       		.uleb128 0x3a
 9759 026b 0B       		.uleb128 0xb
 9760 026c 3B       		.uleb128 0x3b
 9761 026d 05       		.uleb128 0x5
 9762 026e 49       		.uleb128 0x49
 9763 026f 13       		.uleb128 0x13
 9764 0270 02       		.uleb128 0x2
 9765 0271 17       		.uleb128 0x17
 9766 0272 00       		.byte	0
 9767 0273 00       		.byte	0
 9768 0274 30       		.uleb128 0x30
 9769 0275 898201   		.uleb128 0x4109
 9770 0278 00       		.byte	0
 9771 0279 11       		.uleb128 0x11
 9772 027a 01       		.uleb128 0x1
 9773 027b 31       		.uleb128 0x31
 9774 027c 13       		.uleb128 0x13
 9775 027d 00       		.byte	0
 9776 027e 00       		.byte	0
 9777 027f 31       		.uleb128 0x31
 9778 0280 898201   		.uleb128 0x4109
 9779 0283 01       		.byte	0x1
 9780 0284 11       		.uleb128 0x11
 9781 0285 01       		.uleb128 0x1
 9782 0286 31       		.uleb128 0x31
 9783 0287 13       		.uleb128 0x13
 9784 0288 01       		.uleb128 0x1
 9785 0289 13       		.uleb128 0x13
 9786 028a 00       		.byte	0
 9787 028b 00       		.byte	0
 9788 028c 32       		.uleb128 0x32
 9789 028d 8A8201   		.uleb128 0x410a
 9790 0290 00       		.byte	0
 9791 0291 02       		.uleb128 0x2
 9792 0292 18       		.uleb128 0x18
ARM GAS  /tmp/ccYjC7Ok.s 			page 173


 9793 0293 9142     		.uleb128 0x2111
 9794 0295 18       		.uleb128 0x18
 9795 0296 00       		.byte	0
 9796 0297 00       		.byte	0
 9797 0298 33       		.uleb128 0x33
 9798 0299 2E       		.uleb128 0x2e
 9799 029a 01       		.byte	0x1
 9800 029b 3F       		.uleb128 0x3f
 9801 029c 19       		.uleb128 0x19
 9802 029d 03       		.uleb128 0x3
 9803 029e 0E       		.uleb128 0xe
 9804 029f 3A       		.uleb128 0x3a
 9805 02a0 0B       		.uleb128 0xb
 9806 02a1 3B       		.uleb128 0x3b
 9807 02a2 05       		.uleb128 0x5
 9808 02a3 27       		.uleb128 0x27
 9809 02a4 19       		.uleb128 0x19
 9810 02a5 49       		.uleb128 0x49
 9811 02a6 13       		.uleb128 0x13
 9812 02a7 11       		.uleb128 0x11
 9813 02a8 01       		.uleb128 0x1
 9814 02a9 12       		.uleb128 0x12
 9815 02aa 06       		.uleb128 0x6
 9816 02ab 40       		.uleb128 0x40
 9817 02ac 18       		.uleb128 0x18
 9818 02ad 9642     		.uleb128 0x2116
 9819 02af 19       		.uleb128 0x19
 9820 02b0 01       		.uleb128 0x1
 9821 02b1 13       		.uleb128 0x13
 9822 02b2 00       		.byte	0
 9823 02b3 00       		.byte	0
 9824 02b4 34       		.uleb128 0x34
 9825 02b5 05       		.uleb128 0x5
 9826 02b6 00       		.byte	0
 9827 02b7 03       		.uleb128 0x3
 9828 02b8 08       		.uleb128 0x8
 9829 02b9 3A       		.uleb128 0x3a
 9830 02ba 0B       		.uleb128 0xb
 9831 02bb 3B       		.uleb128 0x3b
 9832 02bc 05       		.uleb128 0x5
 9833 02bd 49       		.uleb128 0x49
 9834 02be 13       		.uleb128 0x13
 9835 02bf 02       		.uleb128 0x2
 9836 02c0 17       		.uleb128 0x17
 9837 02c1 00       		.byte	0
 9838 02c2 00       		.byte	0
 9839 02c3 35       		.uleb128 0x35
 9840 02c4 34       		.uleb128 0x34
 9841 02c5 00       		.byte	0
 9842 02c6 03       		.uleb128 0x3
 9843 02c7 08       		.uleb128 0x8
 9844 02c8 3A       		.uleb128 0x3a
 9845 02c9 0B       		.uleb128 0xb
 9846 02ca 3B       		.uleb128 0x3b
 9847 02cb 05       		.uleb128 0x5
 9848 02cc 49       		.uleb128 0x49
 9849 02cd 13       		.uleb128 0x13
ARM GAS  /tmp/ccYjC7Ok.s 			page 174


 9850 02ce 00       		.byte	0
 9851 02cf 00       		.byte	0
 9852 02d0 36       		.uleb128 0x36
 9853 02d1 0B       		.uleb128 0xb
 9854 02d2 01       		.byte	0x1
 9855 02d3 11       		.uleb128 0x11
 9856 02d4 01       		.uleb128 0x1
 9857 02d5 12       		.uleb128 0x12
 9858 02d6 06       		.uleb128 0x6
 9859 02d7 01       		.uleb128 0x1
 9860 02d8 13       		.uleb128 0x13
 9861 02d9 00       		.byte	0
 9862 02da 00       		.byte	0
 9863 02db 37       		.uleb128 0x37
 9864 02dc 0B       		.uleb128 0xb
 9865 02dd 01       		.byte	0x1
 9866 02de 55       		.uleb128 0x55
 9867 02df 17       		.uleb128 0x17
 9868 02e0 01       		.uleb128 0x1
 9869 02e1 13       		.uleb128 0x13
 9870 02e2 00       		.byte	0
 9871 02e3 00       		.byte	0
 9872 02e4 38       		.uleb128 0x38
 9873 02e5 1D       		.uleb128 0x1d
 9874 02e6 01       		.byte	0x1
 9875 02e7 31       		.uleb128 0x31
 9876 02e8 13       		.uleb128 0x13
 9877 02e9 52       		.uleb128 0x52
 9878 02ea 01       		.uleb128 0x1
 9879 02eb 55       		.uleb128 0x55
 9880 02ec 17       		.uleb128 0x17
 9881 02ed 58       		.uleb128 0x58
 9882 02ee 0B       		.uleb128 0xb
 9883 02ef 59       		.uleb128 0x59
 9884 02f0 05       		.uleb128 0x5
 9885 02f1 01       		.uleb128 0x1
 9886 02f2 13       		.uleb128 0x13
 9887 02f3 00       		.byte	0
 9888 02f4 00       		.byte	0
 9889 02f5 39       		.uleb128 0x39
 9890 02f6 05       		.uleb128 0x5
 9891 02f7 00       		.byte	0
 9892 02f8 31       		.uleb128 0x31
 9893 02f9 13       		.uleb128 0x13
 9894 02fa 02       		.uleb128 0x2
 9895 02fb 17       		.uleb128 0x17
 9896 02fc 00       		.byte	0
 9897 02fd 00       		.byte	0
 9898 02fe 3A       		.uleb128 0x3a
 9899 02ff 1D       		.uleb128 0x1d
 9900 0300 01       		.byte	0x1
 9901 0301 31       		.uleb128 0x31
 9902 0302 13       		.uleb128 0x13
 9903 0303 11       		.uleb128 0x11
 9904 0304 01       		.uleb128 0x1
 9905 0305 12       		.uleb128 0x12
 9906 0306 06       		.uleb128 0x6
ARM GAS  /tmp/ccYjC7Ok.s 			page 175


 9907 0307 58       		.uleb128 0x58
 9908 0308 0B       		.uleb128 0xb
 9909 0309 59       		.uleb128 0x59
 9910 030a 05       		.uleb128 0x5
 9911 030b 01       		.uleb128 0x1
 9912 030c 13       		.uleb128 0x13
 9913 030d 00       		.byte	0
 9914 030e 00       		.byte	0
 9915 030f 3B       		.uleb128 0x3b
 9916 0310 898201   		.uleb128 0x4109
 9917 0313 01       		.byte	0x1
 9918 0314 11       		.uleb128 0x11
 9919 0315 01       		.uleb128 0x1
 9920 0316 31       		.uleb128 0x31
 9921 0317 13       		.uleb128 0x13
 9922 0318 00       		.byte	0
 9923 0319 00       		.byte	0
 9924 031a 3C       		.uleb128 0x3c
 9925 031b 34       		.uleb128 0x34
 9926 031c 00       		.byte	0
 9927 031d 49       		.uleb128 0x49
 9928 031e 13       		.uleb128 0x13
 9929 031f 34       		.uleb128 0x34
 9930 0320 19       		.uleb128 0x19
 9931 0321 02       		.uleb128 0x2
 9932 0322 17       		.uleb128 0x17
 9933 0323 00       		.byte	0
 9934 0324 00       		.byte	0
 9935 0325 3D       		.uleb128 0x3d
 9936 0326 05       		.uleb128 0x5
 9937 0327 00       		.byte	0
 9938 0328 31       		.uleb128 0x31
 9939 0329 13       		.uleb128 0x13
 9940 032a 00       		.byte	0
 9941 032b 00       		.byte	0
 9942 032c 3E       		.uleb128 0x3e
 9943 032d 0B       		.uleb128 0xb
 9944 032e 01       		.byte	0x1
 9945 032f 55       		.uleb128 0x55
 9946 0330 17       		.uleb128 0x17
 9947 0331 00       		.byte	0
 9948 0332 00       		.byte	0
 9949 0333 3F       		.uleb128 0x3f
 9950 0334 34       		.uleb128 0x34
 9951 0335 00       		.byte	0
 9952 0336 31       		.uleb128 0x31
 9953 0337 13       		.uleb128 0x13
 9954 0338 02       		.uleb128 0x2
 9955 0339 17       		.uleb128 0x17
 9956 033a 00       		.byte	0
 9957 033b 00       		.byte	0
 9958 033c 40       		.uleb128 0x40
 9959 033d 0B       		.uleb128 0xb
 9960 033e 01       		.byte	0x1
 9961 033f 11       		.uleb128 0x11
 9962 0340 01       		.uleb128 0x1
 9963 0341 12       		.uleb128 0x12
ARM GAS  /tmp/ccYjC7Ok.s 			page 176


 9964 0342 06       		.uleb128 0x6
 9965 0343 00       		.byte	0
 9966 0344 00       		.byte	0
 9967 0345 41       		.uleb128 0x41
 9968 0346 21       		.uleb128 0x21
 9969 0347 00       		.byte	0
 9970 0348 49       		.uleb128 0x49
 9971 0349 13       		.uleb128 0x13
 9972 034a 2F       		.uleb128 0x2f
 9973 034b 13       		.uleb128 0x13
 9974 034c 00       		.byte	0
 9975 034d 00       		.byte	0
 9976 034e 42       		.uleb128 0x42
 9977 034f 2E       		.uleb128 0x2e
 9978 0350 01       		.byte	0x1
 9979 0351 03       		.uleb128 0x3
 9980 0352 0E       		.uleb128 0xe
 9981 0353 3A       		.uleb128 0x3a
 9982 0354 0B       		.uleb128 0xb
 9983 0355 3B       		.uleb128 0x3b
 9984 0356 05       		.uleb128 0x5
 9985 0357 27       		.uleb128 0x27
 9986 0358 19       		.uleb128 0x19
 9987 0359 20       		.uleb128 0x20
 9988 035a 0B       		.uleb128 0xb
 9989 035b 01       		.uleb128 0x1
 9990 035c 13       		.uleb128 0x13
 9991 035d 00       		.byte	0
 9992 035e 00       		.byte	0
 9993 035f 43       		.uleb128 0x43
 9994 0360 05       		.uleb128 0x5
 9995 0361 00       		.byte	0
 9996 0362 03       		.uleb128 0x3
 9997 0363 08       		.uleb128 0x8
 9998 0364 3A       		.uleb128 0x3a
 9999 0365 0B       		.uleb128 0xb
 10000 0366 3B       		.uleb128 0x3b
 10001 0367 05       		.uleb128 0x5
 10002 0368 49       		.uleb128 0x49
 10003 0369 13       		.uleb128 0x13
 10004 036a 00       		.byte	0
 10005 036b 00       		.byte	0
 10006 036c 44       		.uleb128 0x44
 10007 036d 2E       		.uleb128 0x2e
 10008 036e 01       		.byte	0x1
 10009 036f 3F       		.uleb128 0x3f
 10010 0370 19       		.uleb128 0x19
 10011 0371 03       		.uleb128 0x3
 10012 0372 0E       		.uleb128 0xe
 10013 0373 3A       		.uleb128 0x3a
 10014 0374 0B       		.uleb128 0xb
 10015 0375 3B       		.uleb128 0x3b
 10016 0376 05       		.uleb128 0x5
 10017 0377 27       		.uleb128 0x27
 10018 0378 19       		.uleb128 0x19
 10019 0379 11       		.uleb128 0x11
 10020 037a 01       		.uleb128 0x1
ARM GAS  /tmp/ccYjC7Ok.s 			page 177


 10021 037b 12       		.uleb128 0x12
 10022 037c 06       		.uleb128 0x6
 10023 037d 40       		.uleb128 0x40
 10024 037e 18       		.uleb128 0x18
 10025 037f 9742     		.uleb128 0x2117
 10026 0381 19       		.uleb128 0x19
 10027 0382 01       		.uleb128 0x1
 10028 0383 13       		.uleb128 0x13
 10029 0384 00       		.byte	0
 10030 0385 00       		.byte	0
 10031 0386 45       		.uleb128 0x45
 10032 0387 0B       		.uleb128 0xb
 10033 0388 01       		.byte	0x1
 10034 0389 01       		.uleb128 0x1
 10035 038a 13       		.uleb128 0x13
 10036 038b 00       		.byte	0
 10037 038c 00       		.byte	0
 10038 038d 46       		.uleb128 0x46
 10039 038e 34       		.uleb128 0x34
 10040 038f 00       		.byte	0
 10041 0390 03       		.uleb128 0x3
 10042 0391 0E       		.uleb128 0xe
 10043 0392 3A       		.uleb128 0x3a
 10044 0393 0B       		.uleb128 0xb
 10045 0394 3B       		.uleb128 0x3b
 10046 0395 05       		.uleb128 0x5
 10047 0396 49       		.uleb128 0x49
 10048 0397 13       		.uleb128 0x13
 10049 0398 00       		.byte	0
 10050 0399 00       		.byte	0
 10051 039a 47       		.uleb128 0x47
 10052 039b 898201   		.uleb128 0x4109
 10053 039e 00       		.byte	0
 10054 039f 11       		.uleb128 0x11
 10055 03a0 01       		.uleb128 0x1
 10056 03a1 9542     		.uleb128 0x2115
 10057 03a3 19       		.uleb128 0x19
 10058 03a4 31       		.uleb128 0x31
 10059 03a5 13       		.uleb128 0x13
 10060 03a6 00       		.byte	0
 10061 03a7 00       		.byte	0
 10062 03a8 48       		.uleb128 0x48
 10063 03a9 898201   		.uleb128 0x4109
 10064 03ac 01       		.byte	0x1
 10065 03ad 11       		.uleb128 0x11
 10066 03ae 01       		.uleb128 0x1
 10067 03af 9542     		.uleb128 0x2115
 10068 03b1 19       		.uleb128 0x19
 10069 03b2 31       		.uleb128 0x31
 10070 03b3 13       		.uleb128 0x13
 10071 03b4 01       		.uleb128 0x1
 10072 03b5 13       		.uleb128 0x13
 10073 03b6 00       		.byte	0
 10074 03b7 00       		.byte	0
 10075 03b8 49       		.uleb128 0x49
 10076 03b9 2E       		.uleb128 0x2e
 10077 03ba 01       		.byte	0x1
ARM GAS  /tmp/ccYjC7Ok.s 			page 178


 10078 03bb 3F       		.uleb128 0x3f
 10079 03bc 19       		.uleb128 0x19
 10080 03bd 03       		.uleb128 0x3
 10081 03be 0E       		.uleb128 0xe
 10082 03bf 3A       		.uleb128 0x3a
 10083 03c0 0B       		.uleb128 0xb
 10084 03c1 3B       		.uleb128 0x3b
 10085 03c2 05       		.uleb128 0x5
 10086 03c3 27       		.uleb128 0x27
 10087 03c4 19       		.uleb128 0x19
 10088 03c5 8701     		.uleb128 0x87
 10089 03c7 19       		.uleb128 0x19
 10090 03c8 11       		.uleb128 0x11
 10091 03c9 01       		.uleb128 0x1
 10092 03ca 12       		.uleb128 0x12
 10093 03cb 06       		.uleb128 0x6
 10094 03cc 40       		.uleb128 0x40
 10095 03cd 18       		.uleb128 0x18
 10096 03ce 9642     		.uleb128 0x2116
 10097 03d0 19       		.uleb128 0x19
 10098 03d1 01       		.uleb128 0x1
 10099 03d2 13       		.uleb128 0x13
 10100 03d3 00       		.byte	0
 10101 03d4 00       		.byte	0
 10102 03d5 4A       		.uleb128 0x4a
 10103 03d6 2E       		.uleb128 0x2e
 10104 03d7 01       		.byte	0x1
 10105 03d8 3F       		.uleb128 0x3f
 10106 03d9 19       		.uleb128 0x19
 10107 03da 03       		.uleb128 0x3
 10108 03db 0E       		.uleb128 0xe
 10109 03dc 3A       		.uleb128 0x3a
 10110 03dd 0B       		.uleb128 0xb
 10111 03de 3B       		.uleb128 0x3b
 10112 03df 05       		.uleb128 0x5
 10113 03e0 27       		.uleb128 0x27
 10114 03e1 19       		.uleb128 0x19
 10115 03e2 11       		.uleb128 0x11
 10116 03e3 01       		.uleb128 0x1
 10117 03e4 12       		.uleb128 0x12
 10118 03e5 06       		.uleb128 0x6
 10119 03e6 40       		.uleb128 0x40
 10120 03e7 18       		.uleb128 0x18
 10121 03e8 01       		.uleb128 0x1
 10122 03e9 13       		.uleb128 0x13
 10123 03ea 00       		.byte	0
 10124 03eb 00       		.byte	0
 10125 03ec 4B       		.uleb128 0x4b
 10126 03ed 05       		.uleb128 0x5
 10127 03ee 00       		.byte	0
 10128 03ef 03       		.uleb128 0x3
 10129 03f0 08       		.uleb128 0x8
 10130 03f1 3A       		.uleb128 0x3a
 10131 03f2 0B       		.uleb128 0xb
 10132 03f3 3B       		.uleb128 0x3b
 10133 03f4 05       		.uleb128 0x5
 10134 03f5 49       		.uleb128 0x49
ARM GAS  /tmp/ccYjC7Ok.s 			page 179


 10135 03f6 13       		.uleb128 0x13
 10136 03f7 02       		.uleb128 0x2
 10137 03f8 18       		.uleb128 0x18
 10138 03f9 00       		.byte	0
 10139 03fa 00       		.byte	0
 10140 03fb 4C       		.uleb128 0x4c
 10141 03fc 05       		.uleb128 0x5
 10142 03fd 00       		.byte	0
 10143 03fe 03       		.uleb128 0x3
 10144 03ff 0E       		.uleb128 0xe
 10145 0400 3A       		.uleb128 0x3a
 10146 0401 0B       		.uleb128 0xb
 10147 0402 3B       		.uleb128 0x3b
 10148 0403 05       		.uleb128 0x5
 10149 0404 49       		.uleb128 0x49
 10150 0405 13       		.uleb128 0x13
 10151 0406 02       		.uleb128 0x2
 10152 0407 18       		.uleb128 0x18
 10153 0408 00       		.byte	0
 10154 0409 00       		.byte	0
 10155 040a 4D       		.uleb128 0x4d
 10156 040b 2E       		.uleb128 0x2e
 10157 040c 01       		.byte	0x1
 10158 040d 03       		.uleb128 0x3
 10159 040e 0E       		.uleb128 0xe
 10160 040f 3A       		.uleb128 0x3a
 10161 0410 0B       		.uleb128 0xb
 10162 0411 3B       		.uleb128 0x3b
 10163 0412 05       		.uleb128 0x5
 10164 0413 27       		.uleb128 0x27
 10165 0414 19       		.uleb128 0x19
 10166 0415 49       		.uleb128 0x49
 10167 0416 13       		.uleb128 0x13
 10168 0417 20       		.uleb128 0x20
 10169 0418 0B       		.uleb128 0xb
 10170 0419 01       		.uleb128 0x1
 10171 041a 13       		.uleb128 0x13
 10172 041b 00       		.byte	0
 10173 041c 00       		.byte	0
 10174 041d 4E       		.uleb128 0x4e
 10175 041e 0B       		.uleb128 0xb
 10176 041f 01       		.byte	0x1
 10177 0420 00       		.byte	0
 10178 0421 00       		.byte	0
 10179 0422 4F       		.uleb128 0x4f
 10180 0423 1D       		.uleb128 0x1d
 10181 0424 01       		.byte	0x1
 10182 0425 31       		.uleb128 0x31
 10183 0426 13       		.uleb128 0x13
 10184 0427 11       		.uleb128 0x11
 10185 0428 01       		.uleb128 0x1
 10186 0429 12       		.uleb128 0x12
 10187 042a 06       		.uleb128 0x6
 10188 042b 58       		.uleb128 0x58
 10189 042c 0B       		.uleb128 0xb
 10190 042d 59       		.uleb128 0x59
 10191 042e 05       		.uleb128 0x5
ARM GAS  /tmp/ccYjC7Ok.s 			page 180


 10192 042f 00       		.byte	0
 10193 0430 00       		.byte	0
 10194 0431 50       		.uleb128 0x50
 10195 0432 05       		.uleb128 0x5
 10196 0433 00       		.byte	0
 10197 0434 31       		.uleb128 0x31
 10198 0435 13       		.uleb128 0x13
 10199 0436 02       		.uleb128 0x2
 10200 0437 18       		.uleb128 0x18
 10201 0438 00       		.byte	0
 10202 0439 00       		.byte	0
 10203 043a 51       		.uleb128 0x51
 10204 043b 2E       		.uleb128 0x2e
 10205 043c 01       		.byte	0x1
 10206 043d 03       		.uleb128 0x3
 10207 043e 0E       		.uleb128 0xe
 10208 043f 3A       		.uleb128 0x3a
 10209 0440 0B       		.uleb128 0xb
 10210 0441 3B       		.uleb128 0x3b
 10211 0442 05       		.uleb128 0x5
 10212 0443 27       		.uleb128 0x27
 10213 0444 19       		.uleb128 0x19
 10214 0445 49       		.uleb128 0x49
 10215 0446 13       		.uleb128 0x13
 10216 0447 11       		.uleb128 0x11
 10217 0448 01       		.uleb128 0x1
 10218 0449 12       		.uleb128 0x12
 10219 044a 06       		.uleb128 0x6
 10220 044b 40       		.uleb128 0x40
 10221 044c 18       		.uleb128 0x18
 10222 044d 9742     		.uleb128 0x2117
 10223 044f 19       		.uleb128 0x19
 10224 0450 01       		.uleb128 0x1
 10225 0451 13       		.uleb128 0x13
 10226 0452 00       		.byte	0
 10227 0453 00       		.byte	0
 10228 0454 52       		.uleb128 0x52
 10229 0455 34       		.uleb128 0x34
 10230 0456 00       		.byte	0
 10231 0457 03       		.uleb128 0x3
 10232 0458 08       		.uleb128 0x8
 10233 0459 3A       		.uleb128 0x3a
 10234 045a 0B       		.uleb128 0xb
 10235 045b 3B       		.uleb128 0x3b
 10236 045c 05       		.uleb128 0x5
 10237 045d 49       		.uleb128 0x49
 10238 045e 13       		.uleb128 0x13
 10239 045f 02       		.uleb128 0x2
 10240 0460 18       		.uleb128 0x18
 10241 0461 00       		.byte	0
 10242 0462 00       		.byte	0
 10243 0463 53       		.uleb128 0x53
 10244 0464 34       		.uleb128 0x34
 10245 0465 00       		.byte	0
 10246 0466 31       		.uleb128 0x31
 10247 0467 13       		.uleb128 0x13
 10248 0468 02       		.uleb128 0x2
ARM GAS  /tmp/ccYjC7Ok.s 			page 181


 10249 0469 18       		.uleb128 0x18
 10250 046a 00       		.byte	0
 10251 046b 00       		.byte	0
 10252 046c 54       		.uleb128 0x54
 10253 046d 2E       		.uleb128 0x2e
 10254 046e 01       		.byte	0x1
 10255 046f 03       		.uleb128 0x3
 10256 0470 0E       		.uleb128 0xe
 10257 0471 3A       		.uleb128 0x3a
 10258 0472 0B       		.uleb128 0xb
 10259 0473 3B       		.uleb128 0x3b
 10260 0474 05       		.uleb128 0x5
 10261 0475 27       		.uleb128 0x27
 10262 0476 19       		.uleb128 0x19
 10263 0477 8701     		.uleb128 0x87
 10264 0479 19       		.uleb128 0x19
 10265 047a 20       		.uleb128 0x20
 10266 047b 0B       		.uleb128 0xb
 10267 047c 01       		.uleb128 0x1
 10268 047d 13       		.uleb128 0x13
 10269 047e 00       		.byte	0
 10270 047f 00       		.byte	0
 10271 0480 55       		.uleb128 0x55
 10272 0481 05       		.uleb128 0x5
 10273 0482 00       		.byte	0
 10274 0483 03       		.uleb128 0x3
 10275 0484 0E       		.uleb128 0xe
 10276 0485 3A       		.uleb128 0x3a
 10277 0486 0B       		.uleb128 0xb
 10278 0487 3B       		.uleb128 0x3b
 10279 0488 05       		.uleb128 0x5
 10280 0489 49       		.uleb128 0x49
 10281 048a 13       		.uleb128 0x13
 10282 048b 00       		.byte	0
 10283 048c 00       		.byte	0
 10284 048d 56       		.uleb128 0x56
 10285 048e 1D       		.uleb128 0x1d
 10286 048f 00       		.byte	0
 10287 0490 31       		.uleb128 0x31
 10288 0491 13       		.uleb128 0x13
 10289 0492 52       		.uleb128 0x52
 10290 0493 01       		.uleb128 0x1
 10291 0494 55       		.uleb128 0x55
 10292 0495 17       		.uleb128 0x17
 10293 0496 58       		.uleb128 0x58
 10294 0497 0B       		.uleb128 0xb
 10295 0498 59       		.uleb128 0x59
 10296 0499 05       		.uleb128 0x5
 10297 049a 00       		.byte	0
 10298 049b 00       		.byte	0
 10299 049c 57       		.uleb128 0x57
 10300 049d 1D       		.uleb128 0x1d
 10301 049e 01       		.byte	0x1
 10302 049f 31       		.uleb128 0x31
 10303 04a0 13       		.uleb128 0x13
 10304 04a1 52       		.uleb128 0x52
 10305 04a2 01       		.uleb128 0x1
ARM GAS  /tmp/ccYjC7Ok.s 			page 182


 10306 04a3 55       		.uleb128 0x55
 10307 04a4 17       		.uleb128 0x17
 10308 04a5 58       		.uleb128 0x58
 10309 04a6 0B       		.uleb128 0xb
 10310 04a7 59       		.uleb128 0x59
 10311 04a8 05       		.uleb128 0x5
 10312 04a9 00       		.byte	0
 10313 04aa 00       		.byte	0
 10314 04ab 58       		.uleb128 0x58
 10315 04ac 1D       		.uleb128 0x1d
 10316 04ad 00       		.byte	0
 10317 04ae 31       		.uleb128 0x31
 10318 04af 13       		.uleb128 0x13
 10319 04b0 11       		.uleb128 0x11
 10320 04b1 01       		.uleb128 0x1
 10321 04b2 12       		.uleb128 0x12
 10322 04b3 06       		.uleb128 0x6
 10323 04b4 58       		.uleb128 0x58
 10324 04b5 0B       		.uleb128 0xb
 10325 04b6 59       		.uleb128 0x59
 10326 04b7 05       		.uleb128 0x5
 10327 04b8 00       		.byte	0
 10328 04b9 00       		.byte	0
 10329 04ba 59       		.uleb128 0x59
 10330 04bb 2E       		.uleb128 0x2e
 10331 04bc 01       		.byte	0x1
 10332 04bd 03       		.uleb128 0x3
 10333 04be 0E       		.uleb128 0xe
 10334 04bf 3A       		.uleb128 0x3a
 10335 04c0 0B       		.uleb128 0xb
 10336 04c1 3B       		.uleb128 0x3b
 10337 04c2 05       		.uleb128 0x5
 10338 04c3 27       		.uleb128 0x27
 10339 04c4 19       		.uleb128 0x19
 10340 04c5 11       		.uleb128 0x11
 10341 04c6 01       		.uleb128 0x1
 10342 04c7 12       		.uleb128 0x12
 10343 04c8 06       		.uleb128 0x6
 10344 04c9 40       		.uleb128 0x40
 10345 04ca 18       		.uleb128 0x18
 10346 04cb 9742     		.uleb128 0x2117
 10347 04cd 19       		.uleb128 0x19
 10348 04ce 01       		.uleb128 0x1
 10349 04cf 13       		.uleb128 0x13
 10350 04d0 00       		.byte	0
 10351 04d1 00       		.byte	0
 10352 04d2 5A       		.uleb128 0x5a
 10353 04d3 2E       		.uleb128 0x2e
 10354 04d4 01       		.byte	0x1
 10355 04d5 3F       		.uleb128 0x3f
 10356 04d6 19       		.uleb128 0x19
 10357 04d7 03       		.uleb128 0x3
 10358 04d8 08       		.uleb128 0x8
 10359 04d9 3A       		.uleb128 0x3a
 10360 04da 0B       		.uleb128 0xb
 10361 04db 3B       		.uleb128 0x3b
 10362 04dc 05       		.uleb128 0x5
ARM GAS  /tmp/ccYjC7Ok.s 			page 183


 10363 04dd 27       		.uleb128 0x27
 10364 04de 19       		.uleb128 0x19
 10365 04df 11       		.uleb128 0x11
 10366 04e0 01       		.uleb128 0x1
 10367 04e1 12       		.uleb128 0x12
 10368 04e2 06       		.uleb128 0x6
 10369 04e3 40       		.uleb128 0x40
 10370 04e4 18       		.uleb128 0x18
 10371 04e5 9742     		.uleb128 0x2117
 10372 04e7 19       		.uleb128 0x19
 10373 04e8 01       		.uleb128 0x1
 10374 04e9 13       		.uleb128 0x13
 10375 04ea 00       		.byte	0
 10376 04eb 00       		.byte	0
 10377 04ec 5B       		.uleb128 0x5b
 10378 04ed 1D       		.uleb128 0x1d
 10379 04ee 01       		.byte	0x1
 10380 04ef 31       		.uleb128 0x31
 10381 04f0 13       		.uleb128 0x13
 10382 04f1 11       		.uleb128 0x11
 10383 04f2 01       		.uleb128 0x1
 10384 04f3 12       		.uleb128 0x12
 10385 04f4 06       		.uleb128 0x6
 10386 04f5 58       		.uleb128 0x58
 10387 04f6 0B       		.uleb128 0xb
 10388 04f7 59       		.uleb128 0x59
 10389 04f8 0B       		.uleb128 0xb
 10390 04f9 00       		.byte	0
 10391 04fa 00       		.byte	0
 10392 04fb 5C       		.uleb128 0x5c
 10393 04fc 2E       		.uleb128 0x2e
 10394 04fd 01       		.byte	0x1
 10395 04fe 3F       		.uleb128 0x3f
 10396 04ff 19       		.uleb128 0x19
 10397 0500 03       		.uleb128 0x3
 10398 0501 0E       		.uleb128 0xe
 10399 0502 3A       		.uleb128 0x3a
 10400 0503 0B       		.uleb128 0xb
 10401 0504 3B       		.uleb128 0x3b
 10402 0505 0B       		.uleb128 0xb
 10403 0506 27       		.uleb128 0x27
 10404 0507 19       		.uleb128 0x19
 10405 0508 11       		.uleb128 0x11
 10406 0509 01       		.uleb128 0x1
 10407 050a 12       		.uleb128 0x12
 10408 050b 06       		.uleb128 0x6
 10409 050c 40       		.uleb128 0x40
 10410 050d 18       		.uleb128 0x18
 10411 050e 9742     		.uleb128 0x2117
 10412 0510 19       		.uleb128 0x19
 10413 0511 01       		.uleb128 0x1
 10414 0512 13       		.uleb128 0x13
 10415 0513 00       		.byte	0
 10416 0514 00       		.byte	0
 10417 0515 5D       		.uleb128 0x5d
 10418 0516 34       		.uleb128 0x34
 10419 0517 00       		.byte	0
ARM GAS  /tmp/ccYjC7Ok.s 			page 184


 10420 0518 03       		.uleb128 0x3
 10421 0519 08       		.uleb128 0x8
 10422 051a 3A       		.uleb128 0x3a
 10423 051b 0B       		.uleb128 0xb
 10424 051c 3B       		.uleb128 0x3b
 10425 051d 0B       		.uleb128 0xb
 10426 051e 49       		.uleb128 0x49
 10427 051f 13       		.uleb128 0x13
 10428 0520 02       		.uleb128 0x2
 10429 0521 18       		.uleb128 0x18
 10430 0522 00       		.byte	0
 10431 0523 00       		.byte	0
 10432 0524 5E       		.uleb128 0x5e
 10433 0525 34       		.uleb128 0x34
 10434 0526 00       		.byte	0
 10435 0527 03       		.uleb128 0x3
 10436 0528 0E       		.uleb128 0xe
 10437 0529 3A       		.uleb128 0x3a
 10438 052a 0B       		.uleb128 0xb
 10439 052b 3B       		.uleb128 0x3b
 10440 052c 0B       		.uleb128 0xb
 10441 052d 49       		.uleb128 0x49
 10442 052e 13       		.uleb128 0x13
 10443 052f 02       		.uleb128 0x2
 10444 0530 17       		.uleb128 0x17
 10445 0531 00       		.byte	0
 10446 0532 00       		.byte	0
 10447 0533 5F       		.uleb128 0x5f
 10448 0534 1D       		.uleb128 0x1d
 10449 0535 01       		.byte	0x1
 10450 0536 31       		.uleb128 0x31
 10451 0537 13       		.uleb128 0x13
 10452 0538 52       		.uleb128 0x52
 10453 0539 01       		.uleb128 0x1
 10454 053a 55       		.uleb128 0x55
 10455 053b 17       		.uleb128 0x17
 10456 053c 58       		.uleb128 0x58
 10457 053d 0B       		.uleb128 0xb
 10458 053e 59       		.uleb128 0x59
 10459 053f 0B       		.uleb128 0xb
 10460 0540 00       		.byte	0
 10461 0541 00       		.byte	0
 10462 0542 60       		.uleb128 0x60
 10463 0543 2E       		.uleb128 0x2e
 10464 0544 00       		.byte	0
 10465 0545 03       		.uleb128 0x3
 10466 0546 0E       		.uleb128 0xe
 10467 0547 3A       		.uleb128 0x3a
 10468 0548 0B       		.uleb128 0xb
 10469 0549 3B       		.uleb128 0x3b
 10470 054a 0B       		.uleb128 0xb
 10471 054b 27       		.uleb128 0x27
 10472 054c 19       		.uleb128 0x19
 10473 054d 11       		.uleb128 0x11
 10474 054e 01       		.uleb128 0x1
 10475 054f 12       		.uleb128 0x12
 10476 0550 06       		.uleb128 0x6
ARM GAS  /tmp/ccYjC7Ok.s 			page 185


 10477 0551 40       		.uleb128 0x40
 10478 0552 18       		.uleb128 0x18
 10479 0553 9742     		.uleb128 0x2117
 10480 0555 19       		.uleb128 0x19
 10481 0556 00       		.byte	0
 10482 0557 00       		.byte	0
 10483 0558 61       		.uleb128 0x61
 10484 0559 2E       		.uleb128 0x2e
 10485 055a 01       		.byte	0x1
 10486 055b 03       		.uleb128 0x3
 10487 055c 0E       		.uleb128 0xe
 10488 055d 3A       		.uleb128 0x3a
 10489 055e 0B       		.uleb128 0xb
 10490 055f 3B       		.uleb128 0x3b
 10491 0560 0B       		.uleb128 0xb
 10492 0561 27       		.uleb128 0x27
 10493 0562 19       		.uleb128 0x19
 10494 0563 11       		.uleb128 0x11
 10495 0564 01       		.uleb128 0x1
 10496 0565 12       		.uleb128 0x12
 10497 0566 06       		.uleb128 0x6
 10498 0567 40       		.uleb128 0x40
 10499 0568 18       		.uleb128 0x18
 10500 0569 9742     		.uleb128 0x2117
 10501 056b 19       		.uleb128 0x19
 10502 056c 01       		.uleb128 0x1
 10503 056d 13       		.uleb128 0x13
 10504 056e 00       		.byte	0
 10505 056f 00       		.byte	0
 10506 0570 62       		.uleb128 0x62
 10507 0571 34       		.uleb128 0x34
 10508 0572 00       		.byte	0
 10509 0573 03       		.uleb128 0x3
 10510 0574 08       		.uleb128 0x8
 10511 0575 3A       		.uleb128 0x3a
 10512 0576 0B       		.uleb128 0xb
 10513 0577 3B       		.uleb128 0x3b
 10514 0578 0B       		.uleb128 0xb
 10515 0579 49       		.uleb128 0x49
 10516 057a 13       		.uleb128 0x13
 10517 057b 02       		.uleb128 0x2
 10518 057c 17       		.uleb128 0x17
 10519 057d 00       		.byte	0
 10520 057e 00       		.byte	0
 10521 057f 63       		.uleb128 0x63
 10522 0580 2E       		.uleb128 0x2e
 10523 0581 00       		.byte	0
 10524 0582 03       		.uleb128 0x3
 10525 0583 0E       		.uleb128 0xe
 10526 0584 3A       		.uleb128 0x3a
 10527 0585 0B       		.uleb128 0xb
 10528 0586 3B       		.uleb128 0x3b
 10529 0587 0B       		.uleb128 0xb
 10530 0588 27       		.uleb128 0x27
 10531 0589 19       		.uleb128 0x19
 10532 058a 20       		.uleb128 0x20
 10533 058b 0B       		.uleb128 0xb
ARM GAS  /tmp/ccYjC7Ok.s 			page 186


 10534 058c 00       		.byte	0
 10535 058d 00       		.byte	0
 10536 058e 64       		.uleb128 0x64
 10537 058f 2E       		.uleb128 0x2e
 10538 0590 01       		.byte	0x1
 10539 0591 03       		.uleb128 0x3
 10540 0592 0E       		.uleb128 0xe
 10541 0593 3A       		.uleb128 0x3a
 10542 0594 0B       		.uleb128 0xb
 10543 0595 3B       		.uleb128 0x3b
 10544 0596 0B       		.uleb128 0xb
 10545 0597 27       		.uleb128 0x27
 10546 0598 19       		.uleb128 0x19
 10547 0599 20       		.uleb128 0x20
 10548 059a 0B       		.uleb128 0xb
 10549 059b 01       		.uleb128 0x1
 10550 059c 13       		.uleb128 0x13
 10551 059d 00       		.byte	0
 10552 059e 00       		.byte	0
 10553 059f 65       		.uleb128 0x65
 10554 05a0 05       		.uleb128 0x5
 10555 05a1 00       		.byte	0
 10556 05a2 03       		.uleb128 0x3
 10557 05a3 08       		.uleb128 0x8
 10558 05a4 3A       		.uleb128 0x3a
 10559 05a5 0B       		.uleb128 0xb
 10560 05a6 3B       		.uleb128 0x3b
 10561 05a7 0B       		.uleb128 0xb
 10562 05a8 49       		.uleb128 0x49
 10563 05a9 13       		.uleb128 0x13
 10564 05aa 00       		.byte	0
 10565 05ab 00       		.byte	0
 10566 05ac 66       		.uleb128 0x66
 10567 05ad 34       		.uleb128 0x34
 10568 05ae 00       		.byte	0
 10569 05af 03       		.uleb128 0x3
 10570 05b0 08       		.uleb128 0x8
 10571 05b1 3A       		.uleb128 0x3a
 10572 05b2 0B       		.uleb128 0xb
 10573 05b3 3B       		.uleb128 0x3b
 10574 05b4 0B       		.uleb128 0xb
 10575 05b5 49       		.uleb128 0x49
 10576 05b6 13       		.uleb128 0x13
 10577 05b7 00       		.byte	0
 10578 05b8 00       		.byte	0
 10579 05b9 67       		.uleb128 0x67
 10580 05ba 05       		.uleb128 0x5
 10581 05bb 00       		.byte	0
 10582 05bc 03       		.uleb128 0x3
 10583 05bd 0E       		.uleb128 0xe
 10584 05be 3A       		.uleb128 0x3a
 10585 05bf 0B       		.uleb128 0xb
 10586 05c0 3B       		.uleb128 0x3b
 10587 05c1 0B       		.uleb128 0xb
 10588 05c2 49       		.uleb128 0x49
 10589 05c3 13       		.uleb128 0x13
 10590 05c4 00       		.byte	0
ARM GAS  /tmp/ccYjC7Ok.s 			page 187


 10591 05c5 00       		.byte	0
 10592 05c6 68       		.uleb128 0x68
 10593 05c7 2E       		.uleb128 0x2e
 10594 05c8 01       		.byte	0x1
 10595 05c9 03       		.uleb128 0x3
 10596 05ca 0E       		.uleb128 0xe
 10597 05cb 3A       		.uleb128 0x3a
 10598 05cc 0B       		.uleb128 0xb
 10599 05cd 3B       		.uleb128 0x3b
 10600 05ce 0B       		.uleb128 0xb
 10601 05cf 27       		.uleb128 0x27
 10602 05d0 19       		.uleb128 0x19
 10603 05d1 49       		.uleb128 0x49
 10604 05d2 13       		.uleb128 0x13
 10605 05d3 20       		.uleb128 0x20
 10606 05d4 0B       		.uleb128 0xb
 10607 05d5 01       		.uleb128 0x1
 10608 05d6 13       		.uleb128 0x13
 10609 05d7 00       		.byte	0
 10610 05d8 00       		.byte	0
 10611 05d9 69       		.uleb128 0x69
 10612 05da 2E       		.uleb128 0x2e
 10613 05db 00       		.byte	0
 10614 05dc 03       		.uleb128 0x3
 10615 05dd 0E       		.uleb128 0xe
 10616 05de 3A       		.uleb128 0x3a
 10617 05df 0B       		.uleb128 0xb
 10618 05e0 3B       		.uleb128 0x3b
 10619 05e1 0B       		.uleb128 0xb
 10620 05e2 27       		.uleb128 0x27
 10621 05e3 19       		.uleb128 0x19
 10622 05e4 49       		.uleb128 0x49
 10623 05e5 13       		.uleb128 0x13
 10624 05e6 20       		.uleb128 0x20
 10625 05e7 0B       		.uleb128 0xb
 10626 05e8 00       		.byte	0
 10627 05e9 00       		.byte	0
 10628 05ea 6A       		.uleb128 0x6a
 10629 05eb 898201   		.uleb128 0x4109
 10630 05ee 01       		.byte	0x1
 10631 05ef 11       		.uleb128 0x11
 10632 05f0 01       		.uleb128 0x1
 10633 05f1 9542     		.uleb128 0x2115
 10634 05f3 19       		.uleb128 0x19
 10635 05f4 31       		.uleb128 0x31
 10636 05f5 13       		.uleb128 0x13
 10637 05f6 00       		.byte	0
 10638 05f7 00       		.byte	0
 10639 05f8 6B       		.uleb128 0x6b
 10640 05f9 05       		.uleb128 0x5
 10641 05fa 00       		.byte	0
 10642 05fb 03       		.uleb128 0x3
 10643 05fc 08       		.uleb128 0x8
 10644 05fd 3A       		.uleb128 0x3a
 10645 05fe 0B       		.uleb128 0xb
 10646 05ff 3B       		.uleb128 0x3b
 10647 0600 0B       		.uleb128 0xb
ARM GAS  /tmp/ccYjC7Ok.s 			page 188


 10648 0601 49       		.uleb128 0x49
 10649 0602 13       		.uleb128 0x13
 10650 0603 02       		.uleb128 0x2
 10651 0604 18       		.uleb128 0x18
 10652 0605 00       		.byte	0
 10653 0606 00       		.byte	0
 10654 0607 6C       		.uleb128 0x6c
 10655 0608 2E       		.uleb128 0x2e
 10656 0609 01       		.byte	0x1
 10657 060a 03       		.uleb128 0x3
 10658 060b 0E       		.uleb128 0xe
 10659 060c 3A       		.uleb128 0x3a
 10660 060d 0B       		.uleb128 0xb
 10661 060e 3B       		.uleb128 0x3b
 10662 060f 0B       		.uleb128 0xb
 10663 0610 27       		.uleb128 0x27
 10664 0611 19       		.uleb128 0x19
 10665 0612 49       		.uleb128 0x49
 10666 0613 13       		.uleb128 0x13
 10667 0614 11       		.uleb128 0x11
 10668 0615 01       		.uleb128 0x1
 10669 0616 12       		.uleb128 0x12
 10670 0617 06       		.uleb128 0x6
 10671 0618 40       		.uleb128 0x40
 10672 0619 18       		.uleb128 0x18
 10673 061a 9742     		.uleb128 0x2117
 10674 061c 19       		.uleb128 0x19
 10675 061d 01       		.uleb128 0x1
 10676 061e 13       		.uleb128 0x13
 10677 061f 00       		.byte	0
 10678 0620 00       		.byte	0
 10679 0621 6D       		.uleb128 0x6d
 10680 0622 05       		.uleb128 0x5
 10681 0623 00       		.byte	0
 10682 0624 03       		.uleb128 0x3
 10683 0625 08       		.uleb128 0x8
 10684 0626 3A       		.uleb128 0x3a
 10685 0627 0B       		.uleb128 0xb
 10686 0628 3B       		.uleb128 0x3b
 10687 0629 0B       		.uleb128 0xb
 10688 062a 49       		.uleb128 0x49
 10689 062b 13       		.uleb128 0x13
 10690 062c 02       		.uleb128 0x2
 10691 062d 17       		.uleb128 0x17
 10692 062e 00       		.byte	0
 10693 062f 00       		.byte	0
 10694 0630 6E       		.uleb128 0x6e
 10695 0631 2E       		.uleb128 0x2e
 10696 0632 01       		.byte	0x1
 10697 0633 3F       		.uleb128 0x3f
 10698 0634 19       		.uleb128 0x19
 10699 0635 03       		.uleb128 0x3
 10700 0636 0E       		.uleb128 0xe
 10701 0637 3A       		.uleb128 0x3a
 10702 0638 0B       		.uleb128 0xb
 10703 0639 3B       		.uleb128 0x3b
 10704 063a 0B       		.uleb128 0xb
ARM GAS  /tmp/ccYjC7Ok.s 			page 189


 10705 063b 27       		.uleb128 0x27
 10706 063c 19       		.uleb128 0x19
 10707 063d 8701     		.uleb128 0x87
 10708 063f 19       		.uleb128 0x19
 10709 0640 11       		.uleb128 0x11
 10710 0641 01       		.uleb128 0x1
 10711 0642 12       		.uleb128 0x12
 10712 0643 06       		.uleb128 0x6
 10713 0644 40       		.uleb128 0x40
 10714 0645 18       		.uleb128 0x18
 10715 0646 9742     		.uleb128 0x2117
 10716 0648 19       		.uleb128 0x19
 10717 0649 01       		.uleb128 0x1
 10718 064a 13       		.uleb128 0x13
 10719 064b 00       		.byte	0
 10720 064c 00       		.byte	0
 10721 064d 6F       		.uleb128 0x6f
 10722 064e 05       		.uleb128 0x5
 10723 064f 00       		.byte	0
 10724 0650 03       		.uleb128 0x3
 10725 0651 0E       		.uleb128 0xe
 10726 0652 3A       		.uleb128 0x3a
 10727 0653 0B       		.uleb128 0xb
 10728 0654 3B       		.uleb128 0x3b
 10729 0655 0B       		.uleb128 0xb
 10730 0656 49       		.uleb128 0x49
 10731 0657 13       		.uleb128 0x13
 10732 0658 02       		.uleb128 0x2
 10733 0659 18       		.uleb128 0x18
 10734 065a 00       		.byte	0
 10735 065b 00       		.byte	0
 10736 065c 70       		.uleb128 0x70
 10737 065d 2E       		.uleb128 0x2e
 10738 065e 01       		.byte	0x1
 10739 065f 31       		.uleb128 0x31
 10740 0660 13       		.uleb128 0x13
 10741 0661 11       		.uleb128 0x11
 10742 0662 01       		.uleb128 0x1
 10743 0663 12       		.uleb128 0x12
 10744 0664 06       		.uleb128 0x6
 10745 0665 40       		.uleb128 0x40
 10746 0666 18       		.uleb128 0x18
 10747 0667 9742     		.uleb128 0x2117
 10748 0669 19       		.uleb128 0x19
 10749 066a 01       		.uleb128 0x1
 10750 066b 13       		.uleb128 0x13
 10751 066c 00       		.byte	0
 10752 066d 00       		.byte	0
 10753 066e 71       		.uleb128 0x71
 10754 066f 34       		.uleb128 0x34
 10755 0670 00       		.byte	0
 10756 0671 31       		.uleb128 0x31
 10757 0672 13       		.uleb128 0x13
 10758 0673 1C       		.uleb128 0x1c
 10759 0674 0B       		.uleb128 0xb
 10760 0675 00       		.byte	0
 10761 0676 00       		.byte	0
ARM GAS  /tmp/ccYjC7Ok.s 			page 190


 10762 0677 72       		.uleb128 0x72
 10763 0678 0B       		.uleb128 0xb
 10764 0679 01       		.byte	0x1
 10765 067a 31       		.uleb128 0x31
 10766 067b 13       		.uleb128 0x13
 10767 067c 11       		.uleb128 0x11
 10768 067d 01       		.uleb128 0x1
 10769 067e 12       		.uleb128 0x12
 10770 067f 06       		.uleb128 0x6
 10771 0680 00       		.byte	0
 10772 0681 00       		.byte	0
 10773 0682 73       		.uleb128 0x73
 10774 0683 34       		.uleb128 0x34
 10775 0684 00       		.byte	0
 10776 0685 31       		.uleb128 0x31
 10777 0686 13       		.uleb128 0x13
 10778 0687 00       		.byte	0
 10779 0688 00       		.byte	0
 10780 0689 74       		.uleb128 0x74
 10781 068a 2E       		.uleb128 0x2e
 10782 068b 00       		.byte	0
 10783 068c 3F       		.uleb128 0x3f
 10784 068d 19       		.uleb128 0x19
 10785 068e 3C       		.uleb128 0x3c
 10786 068f 19       		.uleb128 0x19
 10787 0690 6E       		.uleb128 0x6e
 10788 0691 0E       		.uleb128 0xe
 10789 0692 03       		.uleb128 0x3
 10790 0693 0E       		.uleb128 0xe
 10791 0694 3A       		.uleb128 0x3a
 10792 0695 0B       		.uleb128 0xb
 10793 0696 3B       		.uleb128 0x3b
 10794 0697 0B       		.uleb128 0xb
 10795 0698 6E       		.uleb128 0x6e
 10796 0699 0E       		.uleb128 0xe
 10797 069a 00       		.byte	0
 10798 069b 00       		.byte	0
 10799 069c 00       		.byte	0
 10800              		.section	.debug_loc,"",%progbits
 10801              	.Ldebug_loc0:
 10802              	.LLST141:
 10803 0000 00000000 		.4byte	.LVL401
 10804 0004 24000000 		.4byte	.LVL407
 10805 0008 0100     		.2byte	0x1
 10806 000a 50       		.byte	0x50
 10807 000b 24000000 		.4byte	.LVL407
 10808 000f 2C000000 		.4byte	.LVL409
 10809 0013 0400     		.2byte	0x4
 10810 0015 F3       		.byte	0xf3
 10811 0016 01       		.uleb128 0x1
 10812 0017 50       		.byte	0x50
 10813 0018 9F       		.byte	0x9f
 10814 0019 2C000000 		.4byte	.LVL409
 10815 001d 3C000000 		.4byte	.LFE67
 10816 0021 0100     		.2byte	0x1
 10817 0023 50       		.byte	0x50
 10818 0024 00000000 		.4byte	0
ARM GAS  /tmp/ccYjC7Ok.s 			page 191


 10819 0028 00000000 		.4byte	0
 10820              	.LLST142:
 10821 002c 06000000 		.4byte	.LVL402
 10822 0030 1E000000 		.4byte	.LVL406
 10823 0034 0100     		.2byte	0x1
 10824 0036 52       		.byte	0x52
 10825 0037 00000000 		.4byte	0
 10826 003b 00000000 		.4byte	0
 10827              	.LLST143:
 10828 003f 0E000000 		.4byte	.LVL405
 10829 0043 28000000 		.4byte	.LVL408
 10830 0047 0100     		.2byte	0x1
 10831 0049 53       		.byte	0x53
 10832 004a 2C000000 		.4byte	.LVL409
 10833 004e 33000000 		.4byte	.LVL410-1
 10834 0052 0100     		.2byte	0x1
 10835 0054 53       		.byte	0x53
 10836 0055 00000000 		.4byte	0
 10837 0059 00000000 		.4byte	0
 10838              	.LLST119:
 10839 005d 00000000 		.4byte	.LVL317
 10840 0061 27000000 		.4byte	.LVL321-1
 10841 0065 0100     		.2byte	0x1
 10842 0067 50       		.byte	0x50
 10843 0068 27000000 		.4byte	.LVL321-1
 10844 006c 3E000000 		.4byte	.LVL323
 10845 0070 0200     		.2byte	0x2
 10846 0072 74       		.byte	0x74
 10847 0073 78       		.sleb128 -8
 10848 0074 3E000000 		.4byte	.LVL323
 10849 0078 24020000 		.4byte	.LVL396
 10850 007c 0200     		.2byte	0x2
 10851 007e 77       		.byte	0x77
 10852 007f 2C       		.sleb128 44
 10853 0080 24020000 		.4byte	.LVL396
 10854 0084 3C020000 		.4byte	.LFE66
 10855 0088 0200     		.2byte	0x2
 10856 008a 91       		.byte	0x91
 10857 008b 74       		.sleb128 -12
 10858 008c 00000000 		.4byte	0
 10859 0090 00000000 		.4byte	0
 10860              	.LLST120:
 10861 0094 00000000 		.4byte	.LVL317
 10862 0098 27000000 		.4byte	.LVL321-1
 10863 009c 0100     		.2byte	0x1
 10864 009e 51       		.byte	0x51
 10865 009f 27000000 		.4byte	.LVL321-1
 10866 00a3 2A020000 		.4byte	.LVL397
 10867 00a7 0100     		.2byte	0x1
 10868 00a9 59       		.byte	0x59
 10869 00aa 2A020000 		.4byte	.LVL397
 10870 00ae 3C020000 		.4byte	.LFE66
 10871 00b2 0400     		.2byte	0x4
 10872 00b4 F3       		.byte	0xf3
 10873 00b5 01       		.uleb128 0x1
 10874 00b6 51       		.byte	0x51
 10875 00b7 9F       		.byte	0x9f
ARM GAS  /tmp/ccYjC7Ok.s 			page 192


 10876 00b8 00000000 		.4byte	0
 10877 00bc 00000000 		.4byte	0
 10878              	.LLST121:
 10879 00c0 00000000 		.4byte	.LVL317
 10880 00c4 0E000000 		.4byte	.LVL318
 10881 00c8 0100     		.2byte	0x1
 10882 00ca 52       		.byte	0x52
 10883 00cb 0E000000 		.4byte	.LVL318
 10884 00cf 2A020000 		.4byte	.LVL397
 10885 00d3 0100     		.2byte	0x1
 10886 00d5 5B       		.byte	0x5b
 10887 00d6 2A020000 		.4byte	.LVL397
 10888 00da 3C020000 		.4byte	.LFE66
 10889 00de 0400     		.2byte	0x4
 10890 00e0 F3       		.byte	0xf3
 10891 00e1 01       		.uleb128 0x1
 10892 00e2 52       		.byte	0x52
 10893 00e3 9F       		.byte	0x9f
 10894 00e4 00000000 		.4byte	0
 10895 00e8 00000000 		.4byte	0
 10896              	.LLST122:
 10897 00ec 28000000 		.4byte	.LVL321
 10898 00f0 34000000 		.4byte	.LVL322
 10899 00f4 0200     		.2byte	0x2
 10900 00f6 30       		.byte	0x30
 10901 00f7 9F       		.byte	0x9f
 10902 00f8 34000000 		.4byte	.LVL322
 10903 00fc 42000000 		.4byte	.LVL324
 10904 0100 0100     		.2byte	0x1
 10905 0102 53       		.byte	0x53
 10906 0103 42000000 		.4byte	.LVL324
 10907 0107 58000000 		.4byte	.LVL328
 10908 010b 0100     		.2byte	0x1
 10909 010d 5A       		.byte	0x5a
 10910 010e 58000000 		.4byte	.LVL328
 10911 0112 5E000000 		.4byte	.LVL329
 10912 0116 0200     		.2byte	0x2
 10913 0118 30       		.byte	0x30
 10914 0119 9F       		.byte	0x9f
 10915 011a 5E000000 		.4byte	.LVL329
 10916 011e 72000000 		.4byte	.LVL330
 10917 0122 0100     		.2byte	0x1
 10918 0124 54       		.byte	0x54
 10919 0125 72000000 		.4byte	.LVL330
 10920 0129 80000000 		.4byte	.LVL332
 10921 012d 0100     		.2byte	0x1
 10922 012f 53       		.byte	0x53
 10923 0130 80000000 		.4byte	.LVL332
 10924 0134 9A000000 		.4byte	.LVL334
 10925 0138 0300     		.2byte	0x3
 10926 013a 73       		.byte	0x73
 10927 013b 7F       		.sleb128 -1
 10928 013c 9F       		.byte	0x9f
 10929 013d 9A000000 		.4byte	.LVL334
 10930 0141 9E000000 		.4byte	.LVL335
 10931 0145 0100     		.2byte	0x1
 10932 0147 53       		.byte	0x53
ARM GAS  /tmp/ccYjC7Ok.s 			page 193


 10933 0148 9E000000 		.4byte	.LVL335
 10934 014c BC010000 		.4byte	.LVL377
 10935 0150 0100     		.2byte	0x1
 10936 0152 5A       		.byte	0x5a
 10937 0153 BC010000 		.4byte	.LVL377
 10938 0157 2A020000 		.4byte	.LVL397
 10939 015b 0100     		.2byte	0x1
 10940 015d 54       		.byte	0x54
 10941 015e 00000000 		.4byte	0
 10942 0162 00000000 		.4byte	0
 10943              	.LLST123:
 10944 0166 A2000000 		.4byte	.LVL336
 10945 016a DA000000 		.4byte	.LVL342
 10946 016e 0100     		.2byte	0x1
 10947 0170 55       		.byte	0x55
 10948 0171 E2000000 		.4byte	.LVL344
 10949 0175 20010000 		.4byte	.LVL356
 10950 0179 0100     		.2byte	0x1
 10951 017b 55       		.byte	0x55
 10952 017c 26010000 		.4byte	.LVL358
 10953 0180 28010000 		.4byte	.LVL359
 10954 0184 0100     		.2byte	0x1
 10955 0186 55       		.byte	0x55
 10956 0187 28010000 		.4byte	.LVL359
 10957 018b 2B010000 		.4byte	.LVL360-1
 10958 018f 0700     		.2byte	0x7
 10959 0191 7A       		.byte	0x7a
 10960 0192 00       		.sleb128 0
 10961 0193 32       		.byte	0x32
 10962 0194 24       		.byte	0x24
 10963 0195 7B       		.byte	0x7b
 10964 0196 00       		.sleb128 0
 10965 0197 22       		.byte	0x22
 10966 0198 C0010000 		.4byte	.LVL378
 10967 019c 20020000 		.4byte	.LVL395
 10968 01a0 0100     		.2byte	0x1
 10969 01a2 5A       		.byte	0x5a
 10970 01a3 00000000 		.4byte	0
 10971 01a7 00000000 		.4byte	0
 10972              	.LLST124:
 10973 01ab 24000000 		.4byte	.LVL320
 10974 01af 58000000 		.4byte	.LVL328
 10975 01b3 0200     		.2byte	0x2
 10976 01b5 30       		.byte	0x30
 10977 01b6 9F       		.byte	0x9f
 10978 01b7 58000000 		.4byte	.LVL328
 10979 01bb 72000000 		.4byte	.LVL330
 10980 01bf 0100     		.2byte	0x1
 10981 01c1 55       		.byte	0x55
 10982 01c2 72000000 		.4byte	.LVL330
 10983 01c6 96010000 		.4byte	.LVL371
 10984 01ca 0200     		.2byte	0x2
 10985 01cc 30       		.byte	0x30
 10986 01cd 9F       		.byte	0x9f
 10987 01ce 96010000 		.4byte	.LVL371
 10988 01d2 98010000 		.4byte	.LVL372
 10989 01d6 0100     		.2byte	0x1
ARM GAS  /tmp/ccYjC7Ok.s 			page 194


 10990 01d8 50       		.byte	0x50
 10991 01d9 98010000 		.4byte	.LVL372
 10992 01dd B4010000 		.4byte	.LVL376
 10993 01e1 0200     		.2byte	0x2
 10994 01e3 30       		.byte	0x30
 10995 01e4 9F       		.byte	0x9f
 10996 01e5 B4010000 		.4byte	.LVL376
 10997 01e9 BC010000 		.4byte	.LVL377
 10998 01ed 0100     		.2byte	0x1
 10999 01ef 50       		.byte	0x50
 11000 01f0 BC010000 		.4byte	.LVL377
 11001 01f4 2A020000 		.4byte	.LVL397
 11002 01f8 0100     		.2byte	0x1
 11003 01fa 55       		.byte	0x55
 11004 01fb 00000000 		.4byte	0
 11005 01ff 00000000 		.4byte	0
 11006              	.LLST138:
 11007 0203 CA010000 		.4byte	.LVL380
 11008 0207 D0010000 		.4byte	.LVL381
 11009 020b 0100     		.2byte	0x1
 11010 020d 5A       		.byte	0x5a
 11011 020e 00000000 		.4byte	0
 11012 0212 00000000 		.4byte	0
 11013              	.LLST127:
 11014 0216 E2010000 		.4byte	.LVL383
 11015 021a F8010000 		.4byte	.LVL387
 11016 021e 0100     		.2byte	0x1
 11017 0220 5A       		.byte	0x5a
 11018 0221 00020000 		.4byte	.LVL390
 11019 0225 1A020000 		.4byte	.LVL394
 11020 0229 0100     		.2byte	0x1
 11021 022b 5A       		.byte	0x5a
 11022 022c 00000000 		.4byte	0
 11023 0230 00000000 		.4byte	0
 11024              	.LLST128:
 11025 0234 0C020000 		.4byte	.LVL392
 11026 0238 12020000 		.4byte	.LVL393
 11027 023c 0100     		.2byte	0x1
 11028 023e 52       		.byte	0x52
 11029 023f 12020000 		.4byte	.LVL393
 11030 0243 1A020000 		.4byte	.LVL394
 11031 0247 0200     		.2byte	0x2
 11032 0249 7A       		.byte	0x7a
 11033 024a 04       		.sleb128 4
 11034 024b 00000000 		.4byte	0
 11035 024f 00000000 		.4byte	0
 11036              	.LLST129:
 11037 0253 E8010000 		.4byte	.LVL384
 11038 0257 EE010000 		.4byte	.LVL385
 11039 025b 0100     		.2byte	0x1
 11040 025d 52       		.byte	0x52
 11041 025e EE010000 		.4byte	.LVL385
 11042 0262 F4010000 		.4byte	.LVL386
 11043 0266 0200     		.2byte	0x2
 11044 0268 7A       		.byte	0x7a
 11045 0269 04       		.sleb128 4
 11046 026a 00000000 		.4byte	0
ARM GAS  /tmp/ccYjC7Ok.s 			page 195


 11047 026e 00000000 		.4byte	0
 11048              	.LLST139:
 11049 0272 1A020000 		.4byte	.LVL394
 11050 0276 20020000 		.4byte	.LVL395
 11051 027a 0100     		.2byte	0x1
 11052 027c 5A       		.byte	0x5a
 11053 027d 00000000 		.4byte	0
 11054 0281 00000000 		.4byte	0
 11055              	.LLST118:
 11056 0285 22000000 		.4byte	.LVL319
 11057 0289 27000000 		.4byte	.LVL321-1
 11058 028d 0300     		.2byte	0x3
 11059 028f 71       		.byte	0x71
 11060 0290 7F       		.sleb128 -1
 11061 0291 9F       		.byte	0x9f
 11062 0292 27000000 		.4byte	.LVL321-1
 11063 0296 2A020000 		.4byte	.LVL397
 11064 029a 0300     		.2byte	0x3
 11065 029c 79       		.byte	0x79
 11066 029d 7F       		.sleb128 -1
 11067 029e 9F       		.byte	0x9f
 11068 029f 2A020000 		.4byte	.LVL397
 11069 02a3 3C020000 		.4byte	.LFE66
 11070 02a7 0600     		.2byte	0x6
 11071 02a9 F3       		.byte	0xf3
 11072 02aa 01       		.uleb128 0x1
 11073 02ab 51       		.byte	0x51
 11074 02ac 31       		.byte	0x31
 11075 02ad 1C       		.byte	0x1c
 11076 02ae 9F       		.byte	0x9f
 11077 02af 00000000 		.4byte	0
 11078 02b3 00000000 		.4byte	0
 11079              	.LLST125:
 11080 02b7 72000000 		.4byte	.LVL330
 11081 02bb 9A000000 		.4byte	.LVL334
 11082 02bf 0100     		.2byte	0x1
 11083 02c1 54       		.byte	0x54
 11084 02c2 00000000 		.4byte	0
 11085 02c6 00000000 		.4byte	0
 11086              	.LLST126:
 11087 02ca 72000000 		.4byte	.LVL330
 11088 02ce 7E000000 		.4byte	.LVL331
 11089 02d2 0100     		.2byte	0x1
 11090 02d4 51       		.byte	0x51
 11091 02d5 7E000000 		.4byte	.LVL331
 11092 02d9 88000000 		.4byte	.LVL333
 11093 02dd 0200     		.2byte	0x2
 11094 02df 72       		.byte	0x72
 11095 02e0 64       		.sleb128 -28
 11096 02e1 88000000 		.4byte	.LVL333
 11097 02e5 9A000000 		.4byte	.LVL334
 11098 02e9 0300     		.2byte	0x3
 11099 02eb 72       		.byte	0x72
 11100 02ec 60       		.sleb128 -32
 11101 02ed 9F       		.byte	0x9f
 11102 02ee 00000000 		.4byte	0
 11103 02f2 00000000 		.4byte	0
ARM GAS  /tmp/ccYjC7Ok.s 			page 196


 11104              	.LLST130:
 11105 02f6 B0000000 		.4byte	.LVL337
 11106 02fa DA000000 		.4byte	.LVL342
 11107 02fe 0100     		.2byte	0x1
 11108 0300 55       		.byte	0x55
 11109 0301 E2000000 		.4byte	.LVL344
 11110 0305 F4000000 		.4byte	.LVL348
 11111 0309 0100     		.2byte	0x1
 11112 030b 55       		.byte	0x55
 11113 030c 00000000 		.4byte	0
 11114 0310 00000000 		.4byte	0
 11115              	.LLST132:
 11116 0314 FA000000 		.4byte	.LVL349
 11117 0318 20010000 		.4byte	.LVL356
 11118 031c 0100     		.2byte	0x1
 11119 031e 55       		.byte	0x55
 11120 031f 00000000 		.4byte	0
 11121 0323 00000000 		.4byte	0
 11122              	.LLST134:
 11123 0327 10010000 		.4byte	.LVL354
 11124 032b 18010000 		.4byte	.LVL355
 11125 032f 0100     		.2byte	0x1
 11126 0331 52       		.byte	0x52
 11127 0332 18010000 		.4byte	.LVL355
 11128 0336 20010000 		.4byte	.LVL356
 11129 033a 0200     		.2byte	0x2
 11130 033c 75       		.byte	0x75
 11131 033d 04       		.sleb128 4
 11132 033e 00000000 		.4byte	0
 11133 0342 00000000 		.4byte	0
 11134              	.LLST135:
 11135 0346 26010000 		.4byte	.LVL358
 11136 034a 28010000 		.4byte	.LVL359
 11137 034e 0100     		.2byte	0x1
 11138 0350 55       		.byte	0x55
 11139 0351 28010000 		.4byte	.LVL359
 11140 0355 2B010000 		.4byte	.LVL360-1
 11141 0359 0700     		.2byte	0x7
 11142 035b 7A       		.byte	0x7a
 11143 035c 00       		.sleb128 0
 11144 035d 32       		.byte	0x32
 11145 035e 24       		.byte	0x24
 11146 035f 7B       		.byte	0x7b
 11147 0360 00       		.sleb128 0
 11148 0361 22       		.byte	0x22
 11149 0362 00000000 		.4byte	0
 11150 0366 00000000 		.4byte	0
 11151              	.LLST137:
 11152 036a 28010000 		.4byte	.LVL359
 11153 036e 6C010000 		.4byte	.LVL367
 11154 0372 0100     		.2byte	0x1
 11155 0374 55       		.byte	0x55
 11156 0375 00000000 		.4byte	0
 11157 0379 00000000 		.4byte	0
 11158              	.LLST115:
 11159 037d 00000000 		.4byte	.LVL312
 11160 0381 06000000 		.4byte	.LVL313
ARM GAS  /tmp/ccYjC7Ok.s 			page 197


 11161 0385 0100     		.2byte	0x1
 11162 0387 50       		.byte	0x50
 11163 0388 06000000 		.4byte	.LVL313
 11164 038c 28000000 		.4byte	.LFE64
 11165 0390 0400     		.2byte	0x4
 11166 0392 F3       		.byte	0xf3
 11167 0393 01       		.uleb128 0x1
 11168 0394 50       		.byte	0x50
 11169 0395 9F       		.byte	0x9f
 11170 0396 00000000 		.4byte	0
 11171 039a 00000000 		.4byte	0
 11172              	.LLST116:
 11173 039e 18000000 		.4byte	.LVL314
 11174 03a2 22000000 		.4byte	.LVL316
 11175 03a6 0100     		.2byte	0x1
 11176 03a8 54       		.byte	0x54
 11177 03a9 22000000 		.4byte	.LVL316
 11178 03ad 28000000 		.4byte	.LFE64
 11179 03b1 0100     		.2byte	0x1
 11180 03b3 50       		.byte	0x50
 11181 03b4 00000000 		.4byte	0
 11182 03b8 00000000 		.4byte	0
 11183              	.LLST102:
 11184 03bc 00000000 		.4byte	.LVL257
 11185 03c0 2A000000 		.4byte	.LVL261
 11186 03c4 0100     		.2byte	0x1
 11187 03c6 50       		.byte	0x50
 11188 03c7 2A000000 		.4byte	.LVL261
 11189 03cb 46000000 		.4byte	.LVL264
 11190 03cf 0100     		.2byte	0x1
 11191 03d1 54       		.byte	0x54
 11192 03d2 46000000 		.4byte	.LVL264
 11193 03d6 4C000000 		.4byte	.LVL265
 11194 03da 0100     		.2byte	0x1
 11195 03dc 50       		.byte	0x50
 11196 03dd 4C000000 		.4byte	.LVL265
 11197 03e1 50000000 		.4byte	.LVL266
 11198 03e5 0400     		.2byte	0x4
 11199 03e7 F3       		.byte	0xf3
 11200 03e8 01       		.uleb128 0x1
 11201 03e9 50       		.byte	0x50
 11202 03ea 9F       		.byte	0x9f
 11203 03eb 50000000 		.4byte	.LVL266
 11204 03ef 56000000 		.4byte	.LVL267
 11205 03f3 0100     		.2byte	0x1
 11206 03f5 50       		.byte	0x50
 11207 03f6 56000000 		.4byte	.LVL267
 11208 03fa 5C000000 		.4byte	.LVL269
 11209 03fe 0100     		.2byte	0x1
 11210 0400 54       		.byte	0x54
 11211 0401 5C000000 		.4byte	.LVL269
 11212 0405 78000000 		.4byte	.LFE62
 11213 0409 0100     		.2byte	0x1
 11214 040b 50       		.byte	0x50
 11215 040c 00000000 		.4byte	0
 11216 0410 00000000 		.4byte	0
 11217              	.LLST103:
ARM GAS  /tmp/ccYjC7Ok.s 			page 198


 11218 0414 00000000 		.4byte	.LVL257
 11219 0418 2A000000 		.4byte	.LVL261
 11220 041c 0100     		.2byte	0x1
 11221 041e 50       		.byte	0x50
 11222 041f 2A000000 		.4byte	.LVL261
 11223 0423 46000000 		.4byte	.LVL264
 11224 0427 0100     		.2byte	0x1
 11225 0429 54       		.byte	0x54
 11226 042a 46000000 		.4byte	.LVL264
 11227 042e 4C000000 		.4byte	.LVL265
 11228 0432 0100     		.2byte	0x1
 11229 0434 50       		.byte	0x50
 11230 0435 4C000000 		.4byte	.LVL265
 11231 0439 50000000 		.4byte	.LVL266
 11232 043d 0400     		.2byte	0x4
 11233 043f F3       		.byte	0xf3
 11234 0440 01       		.uleb128 0x1
 11235 0441 50       		.byte	0x50
 11236 0442 9F       		.byte	0x9f
 11237 0443 50000000 		.4byte	.LVL266
 11238 0447 56000000 		.4byte	.LVL267
 11239 044b 0100     		.2byte	0x1
 11240 044d 50       		.byte	0x50
 11241 044e 56000000 		.4byte	.LVL267
 11242 0452 5C000000 		.4byte	.LVL269
 11243 0456 0100     		.2byte	0x1
 11244 0458 54       		.byte	0x54
 11245 0459 5C000000 		.4byte	.LVL269
 11246 045d 78000000 		.4byte	.LFE62
 11247 0461 0100     		.2byte	0x1
 11248 0463 50       		.byte	0x50
 11249 0464 00000000 		.4byte	0
 11250 0468 00000000 		.4byte	0
 11251              	.LLST110:
 11252 046c 00000000 		.4byte	.LVL292
 11253 0470 09000000 		.4byte	.LVL294-1
 11254 0474 0100     		.2byte	0x1
 11255 0476 50       		.byte	0x50
 11256 0477 09000000 		.4byte	.LVL294-1
 11257 047b A4000000 		.4byte	.LFE60
 11258 047f 0100     		.2byte	0x1
 11259 0481 54       		.byte	0x54
 11260 0482 00000000 		.4byte	0
 11261 0486 00000000 		.4byte	0
 11262              	.LLST111:
 11263 048a 00000000 		.4byte	.LVL292
 11264 048e 09000000 		.4byte	.LVL294-1
 11265 0492 0100     		.2byte	0x1
 11266 0494 51       		.byte	0x51
 11267 0495 09000000 		.4byte	.LVL294-1
 11268 0499 A4000000 		.4byte	.LFE60
 11269 049d 0100     		.2byte	0x1
 11270 049f 56       		.byte	0x56
 11271 04a0 00000000 		.4byte	0
 11272 04a4 00000000 		.4byte	0
 11273              	.LLST112:
 11274 04a8 04000000 		.4byte	.LVL293
ARM GAS  /tmp/ccYjC7Ok.s 			page 199


 11275 04ac 09000000 		.4byte	.LVL294-1
 11276 04b0 0100     		.2byte	0x1
 11277 04b2 50       		.byte	0x50
 11278 04b3 09000000 		.4byte	.LVL294-1
 11279 04b7 A4000000 		.4byte	.LFE60
 11280 04bb 0100     		.2byte	0x1
 11281 04bd 54       		.byte	0x54
 11282 04be 00000000 		.4byte	0
 11283 04c2 00000000 		.4byte	0
 11284              	.LLST113:
 11285 04c6 04000000 		.4byte	.LVL293
 11286 04ca 70000000 		.4byte	.LVL305
 11287 04ce 0200     		.2byte	0x2
 11288 04d0 30       		.byte	0x30
 11289 04d1 9F       		.byte	0x9f
 11290 04d2 70000000 		.4byte	.LVL305
 11291 04d6 78000000 		.4byte	.LVL306
 11292 04da 0100     		.2byte	0x1
 11293 04dc 50       		.byte	0x50
 11294 04dd 7C000000 		.4byte	.LVL307
 11295 04e1 80000000 		.4byte	.LVL308
 11296 04e5 0200     		.2byte	0x2
 11297 04e7 30       		.byte	0x30
 11298 04e8 9F       		.byte	0x9f
 11299 04e9 92000000 		.4byte	.LVL309
 11300 04ed 94000000 		.4byte	.LVL310
 11301 04f1 0100     		.2byte	0x1
 11302 04f3 50       		.byte	0x50
 11303 04f4 00000000 		.4byte	0
 11304 04f8 00000000 		.4byte	0
 11305              	.LLST114:
 11306 04fc 26000000 		.4byte	.LVL298
 11307 0500 56000000 		.4byte	.LVL301
 11308 0504 0100     		.2byte	0x1
 11309 0506 54       		.byte	0x54
 11310 0507 56000000 		.4byte	.LVL301
 11311 050b 65000000 		.4byte	.LVL302-1
 11312 050f 0100     		.2byte	0x1
 11313 0511 50       		.byte	0x50
 11314 0512 66000000 		.4byte	.LVL302
 11315 0516 6C000000 		.4byte	.LVL304
 11316 051a 0100     		.2byte	0x1
 11317 051c 50       		.byte	0x50
 11318 051d 00000000 		.4byte	0
 11319 0521 00000000 		.4byte	0
 11320              	.LLST40:
 11321 0525 00000000 		.4byte	.LVL86
 11322 0529 0E000000 		.4byte	.LVL88
 11323 052d 0100     		.2byte	0x1
 11324 052f 50       		.byte	0x50
 11325 0530 0E000000 		.4byte	.LVL88
 11326 0534 90000000 		.4byte	.LFE59
 11327 0538 0100     		.2byte	0x1
 11328 053a 56       		.byte	0x56
 11329 053b 00000000 		.4byte	0
 11330 053f 00000000 		.4byte	0
 11331              	.LLST41:
ARM GAS  /tmp/ccYjC7Ok.s 			page 200


 11332 0543 14000000 		.4byte	.LVL89
 11333 0547 20000000 		.4byte	.LVL92
 11334 054b 0100     		.2byte	0x1
 11335 054d 50       		.byte	0x50
 11336 054e 72000000 		.4byte	.LVL102
 11337 0552 7B000000 		.4byte	.LVL105-1
 11338 0556 0100     		.2byte	0x1
 11339 0558 50       		.byte	0x50
 11340 0559 80000000 		.4byte	.LVL106
 11341 055d 84000000 		.4byte	.LVL107
 11342 0561 0100     		.2byte	0x1
 11343 0563 55       		.byte	0x55
 11344 0564 00000000 		.4byte	0
 11345 0568 00000000 		.4byte	0
 11346              	.LLST42:
 11347 056c 74000000 		.4byte	.LVL103
 11348 0570 84000000 		.4byte	.LVL107
 11349 0574 0100     		.2byte	0x1
 11350 0576 55       		.byte	0x55
 11351 0577 00000000 		.4byte	0
 11352 057b 00000000 		.4byte	0
 11353              	.LLST43:
 11354 057f 0C000000 		.4byte	.LVL87
 11355 0583 14000000 		.4byte	.LVL89
 11356 0587 0100     		.2byte	0x1
 11357 0589 55       		.byte	0x55
 11358 058a 68000000 		.4byte	.LVL99
 11359 058e 72000000 		.4byte	.LVL102
 11360 0592 0100     		.2byte	0x1
 11361 0594 55       		.byte	0x55
 11362 0595 00000000 		.4byte	0
 11363 0599 00000000 		.4byte	0
 11364              	.LLST44:
 11365 059d 16000000 		.4byte	.LVL90
 11366 05a1 68000000 		.4byte	.LVL99
 11367 05a5 0100     		.2byte	0x1
 11368 05a7 56       		.byte	0x56
 11369 05a8 84000000 		.4byte	.LVL107
 11370 05ac 90000000 		.4byte	.LFE59
 11371 05b0 0100     		.2byte	0x1
 11372 05b2 56       		.byte	0x56
 11373 05b3 00000000 		.4byte	0
 11374 05b7 00000000 		.4byte	0
 11375              	.LLST45:
 11376 05bb 26000000 		.4byte	.LVL94
 11377 05bf 3B000000 		.4byte	.LVL96-1
 11378 05c3 0100     		.2byte	0x1
 11379 05c5 53       		.byte	0x53
 11380 05c6 84000000 		.4byte	.LVL107
 11381 05ca 90000000 		.4byte	.LFE59
 11382 05ce 0100     		.2byte	0x1
 11383 05d0 53       		.byte	0x53
 11384 05d1 00000000 		.4byte	0
 11385 05d5 00000000 		.4byte	0
 11386              	.LLST100:
 11387 05d9 00000000 		.4byte	.LVL253
 11388 05dd 12000000 		.4byte	.LVL255
ARM GAS  /tmp/ccYjC7Ok.s 			page 201


 11389 05e1 0100     		.2byte	0x1
 11390 05e3 50       		.byte	0x50
 11391 05e4 12000000 		.4byte	.LVL255
 11392 05e8 14000000 		.4byte	.LVL256
 11393 05ec 0400     		.2byte	0x4
 11394 05ee F3       		.byte	0xf3
 11395 05ef 01       		.uleb128 0x1
 11396 05f0 50       		.byte	0x50
 11397 05f1 9F       		.byte	0x9f
 11398 05f2 14000000 		.4byte	.LVL256
 11399 05f6 1C000000 		.4byte	.LFE58
 11400 05fa 0100     		.2byte	0x1
 11401 05fc 50       		.byte	0x50
 11402 05fd 00000000 		.4byte	0
 11403 0601 00000000 		.4byte	0
 11404              	.LLST101:
 11405 0605 06000000 		.4byte	.LVL254
 11406 0609 13000000 		.4byte	.LVL256-1
 11407 060d 0100     		.2byte	0x1
 11408 060f 53       		.byte	0x53
 11409 0610 14000000 		.4byte	.LVL256
 11410 0614 1C000000 		.4byte	.LFE58
 11411 0618 0100     		.2byte	0x1
 11412 061a 53       		.byte	0x53
 11413 061b 00000000 		.4byte	0
 11414 061f 00000000 		.4byte	0
 11415              	.LLST140:
 11416 0623 00000000 		.4byte	.LVL398
 11417 0627 0C000000 		.4byte	.LVL399
 11418 062b 0100     		.2byte	0x1
 11419 062d 50       		.byte	0x50
 11420 062e 0C000000 		.4byte	.LVL399
 11421 0632 0F000000 		.4byte	.LVL400-1
 11422 0636 0200     		.2byte	0x2
 11423 0638 72       		.byte	0x72
 11424 0639 00       		.sleb128 0
 11425 063a 00000000 		.4byte	0
 11426 063e 00000000 		.4byte	0
 11427              	.LLST95:
 11428 0642 00000000 		.4byte	.LVL243
 11429 0646 14000000 		.4byte	.LVL245
 11430 064a 0100     		.2byte	0x1
 11431 064c 50       		.byte	0x50
 11432 064d 14000000 		.4byte	.LVL245
 11433 0651 58000000 		.4byte	.LFE54
 11434 0655 0400     		.2byte	0x4
 11435 0657 F3       		.byte	0xf3
 11436 0658 01       		.uleb128 0x1
 11437 0659 50       		.byte	0x50
 11438 065a 9F       		.byte	0x9f
 11439 065b 00000000 		.4byte	0
 11440 065f 00000000 		.4byte	0
 11441              	.LLST96:
 11442 0663 00000000 		.4byte	.LVL243
 11443 0667 28000000 		.4byte	.LVL247
 11444 066b 0100     		.2byte	0x1
 11445 066d 51       		.byte	0x51
ARM GAS  /tmp/ccYjC7Ok.s 			page 202


 11446 066e 28000000 		.4byte	.LVL247
 11447 0672 58000000 		.4byte	.LFE54
 11448 0676 0400     		.2byte	0x4
 11449 0678 F3       		.byte	0xf3
 11450 0679 01       		.uleb128 0x1
 11451 067a 51       		.byte	0x51
 11452 067b 9F       		.byte	0x9f
 11453 067c 00000000 		.4byte	0
 11454 0680 00000000 		.4byte	0
 11455              	.LLST97:
 11456 0684 10000000 		.4byte	.LVL244
 11457 0688 20000000 		.4byte	.LVL246
 11458 068c 0100     		.2byte	0x1
 11459 068e 51       		.byte	0x51
 11460 068f 00000000 		.4byte	0
 11461 0693 00000000 		.4byte	0
 11462              	.LLST98:
 11463 0697 20000000 		.4byte	.LVL246
 11464 069b 28000000 		.4byte	.LVL247
 11465 069f 0100     		.2byte	0x1
 11466 06a1 51       		.byte	0x51
 11467 06a2 28000000 		.4byte	.LVL247
 11468 06a6 4A000000 		.4byte	.LVL250
 11469 06aa 0400     		.2byte	0x4
 11470 06ac F3       		.byte	0xf3
 11471 06ad 01       		.uleb128 0x1
 11472 06ae 51       		.byte	0x51
 11473 06af 9F       		.byte	0x9f
 11474 06b0 00000000 		.4byte	0
 11475 06b4 00000000 		.4byte	0
 11476              	.LLST99:
 11477 06b8 34000000 		.4byte	.LVL248
 11478 06bc 44000000 		.4byte	.LVL249
 11479 06c0 0100     		.2byte	0x1
 11480 06c2 52       		.byte	0x52
 11481 06c3 00000000 		.4byte	0
 11482 06c7 00000000 		.4byte	0
 11483              	.LLST92:
 11484 06cb 00000000 		.4byte	.LVL231
 11485 06cf 0A000000 		.4byte	.LVL232
 11486 06d3 0100     		.2byte	0x1
 11487 06d5 50       		.byte	0x50
 11488 06d6 0A000000 		.4byte	.LVL232
 11489 06da 18000000 		.4byte	.LVL235
 11490 06de 0100     		.2byte	0x1
 11491 06e0 55       		.byte	0x55
 11492 06e1 18000000 		.4byte	.LVL235
 11493 06e5 1E000000 		.4byte	.LVL237
 11494 06e9 0400     		.2byte	0x4
 11495 06eb F3       		.byte	0xf3
 11496 06ec 01       		.uleb128 0x1
 11497 06ed 50       		.byte	0x50
 11498 06ee 9F       		.byte	0x9f
 11499 06ef 1E000000 		.4byte	.LVL237
 11500 06f3 2A000000 		.4byte	.LVL241
 11501 06f7 0100     		.2byte	0x1
 11502 06f9 55       		.byte	0x55
ARM GAS  /tmp/ccYjC7Ok.s 			page 203


 11503 06fa 2A000000 		.4byte	.LVL241
 11504 06fe 2E000000 		.4byte	.LFE52
 11505 0702 0400     		.2byte	0x4
 11506 0704 F3       		.byte	0xf3
 11507 0705 01       		.uleb128 0x1
 11508 0706 50       		.byte	0x50
 11509 0707 9F       		.byte	0x9f
 11510 0708 00000000 		.4byte	0
 11511 070c 00000000 		.4byte	0
 11512              	.LLST93:
 11513 0710 10000000 		.4byte	.LVL233
 11514 0714 1A000000 		.4byte	.LVL236
 11515 0718 0100     		.2byte	0x1
 11516 071a 50       		.byte	0x50
 11517 071b 1E000000 		.4byte	.LVL237
 11518 071f 21000000 		.4byte	.LVL238-1
 11519 0723 0100     		.2byte	0x1
 11520 0725 50       		.byte	0x50
 11521 0726 26000000 		.4byte	.LVL240
 11522 072a 2E000000 		.4byte	.LFE52
 11523 072e 0100     		.2byte	0x1
 11524 0730 50       		.byte	0x50
 11525 0731 00000000 		.4byte	0
 11526 0735 00000000 		.4byte	0
 11527              	.LLST94:
 11528 0739 00000000 		.4byte	.LVL231
 11529 073d 0A000000 		.4byte	.LVL232
 11530 0741 0200     		.2byte	0x2
 11531 0743 30       		.byte	0x30
 11532 0744 9F       		.byte	0x9f
 11533 0745 0A000000 		.4byte	.LVL232
 11534 0749 18000000 		.4byte	.LVL235
 11535 074d 0100     		.2byte	0x1
 11536 074f 54       		.byte	0x54
 11537 0750 1E000000 		.4byte	.LVL237
 11538 0754 2A000000 		.4byte	.LVL241
 11539 0758 0100     		.2byte	0x1
 11540 075a 54       		.byte	0x54
 11541 075b 00000000 		.4byte	0
 11542 075f 00000000 		.4byte	0
 11543              	.LLST89:
 11544 0763 00000000 		.4byte	.LVL224
 11545 0767 09000000 		.4byte	.LVL226-1
 11546 076b 0100     		.2byte	0x1
 11547 076d 50       		.byte	0x50
 11548 076e 09000000 		.4byte	.LVL226-1
 11549 0772 24000000 		.4byte	.LFE51
 11550 0776 0400     		.2byte	0x4
 11551 0778 F3       		.byte	0xf3
 11552 0779 01       		.uleb128 0x1
 11553 077a 50       		.byte	0x50
 11554 077b 9F       		.byte	0x9f
 11555 077c 00000000 		.4byte	0
 11556 0780 00000000 		.4byte	0
 11557              	.LLST90:
 11558 0784 0A000000 		.4byte	.LVL226
 11559 0788 0F000000 		.4byte	.LVL227-1
ARM GAS  /tmp/ccYjC7Ok.s 			page 204


 11560 078c 0100     		.2byte	0x1
 11561 078e 50       		.byte	0x50
 11562 078f 00000000 		.4byte	0
 11563 0793 00000000 		.4byte	0
 11564              	.LLST91:
 11565 0797 00000000 		.4byte	.LVL224
 11566 079b 10000000 		.4byte	.LVL227
 11567 079f 0200     		.2byte	0x2
 11568 07a1 30       		.byte	0x30
 11569 07a2 9F       		.byte	0x9f
 11570 07a3 10000000 		.4byte	.LVL227
 11571 07a7 18000000 		.4byte	.LVL228
 11572 07ab 0100     		.2byte	0x1
 11573 07ad 50       		.byte	0x50
 11574 07ae 00000000 		.4byte	0
 11575 07b2 00000000 		.4byte	0
 11576              	.LLST106:
 11577 07b6 00000000 		.4byte	.LVL276
 11578 07ba 0D000000 		.4byte	.LVL278-1
 11579 07be 0100     		.2byte	0x1
 11580 07c0 50       		.byte	0x50
 11581 07c1 0D000000 		.4byte	.LVL278-1
 11582 07c5 44000000 		.4byte	.LVL287
 11583 07c9 0100     		.2byte	0x1
 11584 07cb 56       		.byte	0x56
 11585 07cc 44000000 		.4byte	.LVL287
 11586 07d0 49000000 		.4byte	.LVL289-1
 11587 07d4 0100     		.2byte	0x1
 11588 07d6 51       		.byte	0x51
 11589 07d7 49000000 		.4byte	.LVL289-1
 11590 07db 58000000 		.4byte	.LVL291
 11591 07df 0100     		.2byte	0x1
 11592 07e1 56       		.byte	0x56
 11593 07e2 58000000 		.4byte	.LVL291
 11594 07e6 5C000000 		.4byte	.LFE50
 11595 07ea 0400     		.2byte	0x4
 11596 07ec F3       		.byte	0xf3
 11597 07ed 01       		.uleb128 0x1
 11598 07ee 50       		.byte	0x50
 11599 07ef 9F       		.byte	0x9f
 11600 07f0 00000000 		.4byte	0
 11601 07f4 00000000 		.4byte	0
 11602              	.LLST107:
 11603 07f8 00000000 		.4byte	.LVL276
 11604 07fc 0D000000 		.4byte	.LVL278-1
 11605 0800 0100     		.2byte	0x1
 11606 0802 51       		.byte	0x51
 11607 0803 0D000000 		.4byte	.LVL278-1
 11608 0807 58000000 		.4byte	.LVL291
 11609 080b 0100     		.2byte	0x1
 11610 080d 55       		.byte	0x55
 11611 080e 58000000 		.4byte	.LVL291
 11612 0812 5C000000 		.4byte	.LFE50
 11613 0816 0400     		.2byte	0x4
 11614 0818 F3       		.byte	0xf3
 11615 0819 01       		.uleb128 0x1
 11616 081a 51       		.byte	0x51
ARM GAS  /tmp/ccYjC7Ok.s 			page 205


 11617 081b 9F       		.byte	0x9f
 11618 081c 00000000 		.4byte	0
 11619 0820 00000000 		.4byte	0
 11620              	.LLST108:
 11621 0824 0A000000 		.4byte	.LVL277
 11622 0828 42000000 		.4byte	.LVL286
 11623 082c 0100     		.2byte	0x1
 11624 082e 54       		.byte	0x54
 11625 082f 00000000 		.4byte	0
 11626 0833 00000000 		.4byte	0
 11627              	.LLST109:
 11628 0837 42000000 		.4byte	.LVL286
 11629 083b 46000000 		.4byte	.LVL288
 11630 083f 0100     		.2byte	0x1
 11631 0841 50       		.byte	0x50
 11632 0842 46000000 		.4byte	.LVL288
 11633 0846 58000000 		.4byte	.LVL291
 11634 084a 0100     		.2byte	0x1
 11635 084c 54       		.byte	0x54
 11636 084d 00000000 		.4byte	0
 11637 0851 00000000 		.4byte	0
 11638              	.LLST87:
 11639 0855 00000000 		.4byte	.LVL217
 11640 0859 09000000 		.4byte	.LVL219-1
 11641 085d 0100     		.2byte	0x1
 11642 085f 50       		.byte	0x50
 11643 0860 09000000 		.4byte	.LVL219-1
 11644 0864 2C000000 		.4byte	.LFE48
 11645 0868 0400     		.2byte	0x4
 11646 086a F3       		.byte	0xf3
 11647 086b 01       		.uleb128 0x1
 11648 086c 50       		.byte	0x50
 11649 086d 9F       		.byte	0x9f
 11650 086e 00000000 		.4byte	0
 11651 0872 00000000 		.4byte	0
 11652              	.LLST88:
 11653 0876 0A000000 		.4byte	.LVL219
 11654 087a 1A000000 		.4byte	.LVL220
 11655 087e 0100     		.2byte	0x1
 11656 0880 50       		.byte	0x50
 11657 0881 1E000000 		.4byte	.LVL221
 11658 0885 2C000000 		.4byte	.LFE48
 11659 0889 0100     		.2byte	0x1
 11660 088b 50       		.byte	0x50
 11661 088c 00000000 		.4byte	0
 11662 0890 00000000 		.4byte	0
 11663              	.LLST83:
 11664 0894 00000000 		.4byte	.LVL203
 11665 0898 14000000 		.4byte	.LVL204
 11666 089c 0100     		.2byte	0x1
 11667 089e 50       		.byte	0x50
 11668 089f 14000000 		.4byte	.LVL204
 11669 08a3 28000000 		.4byte	.LVL207
 11670 08a7 0100     		.2byte	0x1
 11671 08a9 56       		.byte	0x56
 11672 08aa 28000000 		.4byte	.LVL207
 11673 08ae 2C000000 		.4byte	.LVL208
ARM GAS  /tmp/ccYjC7Ok.s 			page 206


 11674 08b2 0400     		.2byte	0x4
 11675 08b4 F3       		.byte	0xf3
 11676 08b5 01       		.uleb128 0x1
 11677 08b6 50       		.byte	0x50
 11678 08b7 9F       		.byte	0x9f
 11679 08b8 2C000000 		.4byte	.LVL208
 11680 08bc 90000000 		.4byte	.LFE47
 11681 08c0 0100     		.2byte	0x1
 11682 08c2 56       		.byte	0x56
 11683 08c3 00000000 		.4byte	0
 11684 08c7 00000000 		.4byte	0
 11685              	.LLST84:
 11686 08cb 14000000 		.4byte	.LVL204
 11687 08cf 28000000 		.4byte	.LVL207
 11688 08d3 0100     		.2byte	0x1
 11689 08d5 55       		.byte	0x55
 11690 08d6 28000000 		.4byte	.LVL207
 11691 08da 2B000000 		.4byte	.LVL208-1
 11692 08de 0500     		.2byte	0x5
 11693 08e0 F3       		.byte	0xf3
 11694 08e1 01       		.uleb128 0x1
 11695 08e2 50       		.byte	0x50
 11696 08e3 23       		.byte	0x23
 11697 08e4 08       		.uleb128 0x8
 11698 08e5 2C000000 		.4byte	.LVL208
 11699 08e9 90000000 		.4byte	.LFE47
 11700 08ed 0100     		.2byte	0x1
 11701 08ef 55       		.byte	0x55
 11702 08f0 00000000 		.4byte	0
 11703 08f4 00000000 		.4byte	0
 11704              	.LLST85:
 11705 08f8 14000000 		.4byte	.LVL204
 11706 08fc 28000000 		.4byte	.LVL207
 11707 0900 0100     		.2byte	0x1
 11708 0902 56       		.byte	0x56
 11709 0903 28000000 		.4byte	.LVL207
 11710 0907 2C000000 		.4byte	.LVL208
 11711 090b 0400     		.2byte	0x4
 11712 090d F3       		.byte	0xf3
 11713 090e 01       		.uleb128 0x1
 11714 090f 50       		.byte	0x50
 11715 0910 9F       		.byte	0x9f
 11716 0911 2C000000 		.4byte	.LVL208
 11717 0915 90000000 		.4byte	.LFE47
 11718 0919 0100     		.2byte	0x1
 11719 091b 56       		.byte	0x56
 11720 091c 00000000 		.4byte	0
 11721 0920 00000000 		.4byte	0
 11722              	.LLST86:
 11723 0924 2C000000 		.4byte	.LVL208
 11724 0928 32000000 		.4byte	.LVL209
 11725 092c 0100     		.2byte	0x1
 11726 092e 54       		.byte	0x54
 11727 092f 32000000 		.4byte	.LVL209
 11728 0933 36000000 		.4byte	.LVL210
 11729 0937 0100     		.2byte	0x1
 11730 0939 50       		.byte	0x50
ARM GAS  /tmp/ccYjC7Ok.s 			page 207


 11731 093a 36000000 		.4byte	.LVL210
 11732 093e 60000000 		.4byte	.LVL212
 11733 0942 0100     		.2byte	0x1
 11734 0944 54       		.byte	0x54
 11735 0945 00000000 		.4byte	0
 11736 0949 00000000 		.4byte	0
 11737              	.LLST104:
 11738 094d 00000000 		.4byte	.LVL271
 11739 0951 08000000 		.4byte	.LVL272
 11740 0955 0100     		.2byte	0x1
 11741 0957 50       		.byte	0x50
 11742 0958 00000000 		.4byte	0
 11743 095c 00000000 		.4byte	0
 11744              	.LLST105:
 11745 0960 18000000 		.4byte	.LVL275
 11746 0964 20000000 		.4byte	.LFE44
 11747 0968 0100     		.2byte	0x1
 11748 096a 50       		.byte	0x50
 11749 096b 00000000 		.4byte	0
 11750 096f 00000000 		.4byte	0
 11751              	.LLST46:
 11752 0973 00000000 		.4byte	.LVL109
 11753 0977 10000000 		.4byte	.LVL112
 11754 097b 0100     		.2byte	0x1
 11755 097d 50       		.byte	0x50
 11756 097e 10000000 		.4byte	.LVL112
 11757 0982 12000000 		.4byte	.LVL113
 11758 0986 0100     		.2byte	0x1
 11759 0988 57       		.byte	0x57
 11760 0989 12000000 		.4byte	.LVL113
 11761 098d 18000000 		.4byte	.LVL114
 11762 0991 0100     		.2byte	0x1
 11763 0993 50       		.byte	0x50
 11764 0994 18000000 		.4byte	.LVL114
 11765 0998 54000000 		.4byte	.LFE42
 11766 099c 0100     		.2byte	0x1
 11767 099e 57       		.byte	0x57
 11768 099f 00000000 		.4byte	0
 11769 09a3 00000000 		.4byte	0
 11770              	.LLST47:
 11771 09a7 00000000 		.4byte	.LVL109
 11772 09ab 10000000 		.4byte	.LVL112
 11773 09af 0100     		.2byte	0x1
 11774 09b1 51       		.byte	0x51
 11775 09b2 10000000 		.4byte	.LVL112
 11776 09b6 12000000 		.4byte	.LVL113
 11777 09ba 0100     		.2byte	0x1
 11778 09bc 56       		.byte	0x56
 11779 09bd 12000000 		.4byte	.LVL113
 11780 09c1 29000000 		.4byte	.LVL116-1
 11781 09c5 0100     		.2byte	0x1
 11782 09c7 51       		.byte	0x51
 11783 09c8 29000000 		.4byte	.LVL116-1
 11784 09cc 54000000 		.4byte	.LFE42
 11785 09d0 0100     		.2byte	0x1
 11786 09d2 56       		.byte	0x56
 11787 09d3 00000000 		.4byte	0
ARM GAS  /tmp/ccYjC7Ok.s 			page 208


 11788 09d7 00000000 		.4byte	0
 11789              	.LLST48:
 11790 09db 04000000 		.4byte	.LVL110
 11791 09df 10000000 		.4byte	.LVL112
 11792 09e3 0100     		.2byte	0x1
 11793 09e5 54       		.byte	0x54
 11794 09e6 12000000 		.4byte	.LVL113
 11795 09ea 22000000 		.4byte	.LVL115
 11796 09ee 0100     		.2byte	0x1
 11797 09f0 54       		.byte	0x54
 11798 09f1 22000000 		.4byte	.LVL115
 11799 09f5 29000000 		.4byte	.LVL116-1
 11800 09f9 0200     		.2byte	0x2
 11801 09fb 71       		.byte	0x71
 11802 09fc 00       		.sleb128 0
 11803 09fd 00000000 		.4byte	0
 11804 0a01 00000000 		.4byte	0
 11805              	.LLST49:
 11806 0a05 22000000 		.4byte	.LVL115
 11807 0a09 48000000 		.4byte	.LVL119
 11808 0a0d 0100     		.2byte	0x1
 11809 0a0f 54       		.byte	0x54
 11810 0a10 00000000 		.4byte	0
 11811 0a14 00000000 		.4byte	0
 11812              	.LLST72:
 11813 0a18 00000000 		.4byte	.LVL183
 11814 0a1c 12000000 		.4byte	.LVL185
 11815 0a20 0100     		.2byte	0x1
 11816 0a22 50       		.byte	0x50
 11817 0a23 12000000 		.4byte	.LVL185
 11818 0a27 16000000 		.4byte	.LVL186
 11819 0a2b 0100     		.2byte	0x1
 11820 0a2d 55       		.byte	0x55
 11821 0a2e 16000000 		.4byte	.LVL186
 11822 0a32 24000000 		.4byte	.LVL190
 11823 0a36 0100     		.2byte	0x1
 11824 0a38 50       		.byte	0x50
 11825 0a39 24000000 		.4byte	.LVL190
 11826 0a3d 62000000 		.4byte	.LVL193
 11827 0a41 0100     		.2byte	0x1
 11828 0a43 55       		.byte	0x55
 11829 0a44 62000000 		.4byte	.LVL193
 11830 0a48 C4000000 		.4byte	.LFE41
 11831 0a4c 0400     		.2byte	0x4
 11832 0a4e F3       		.byte	0xf3
 11833 0a4f 01       		.uleb128 0x1
 11834 0a50 50       		.byte	0x50
 11835 0a51 9F       		.byte	0x9f
 11836 0a52 00000000 		.4byte	0
 11837 0a56 00000000 		.4byte	0
 11838              	.LLST73:
 11839 0a5a 00000000 		.4byte	.LVL183
 11840 0a5e 15000000 		.4byte	.LVL186-1
 11841 0a62 0100     		.2byte	0x1
 11842 0a64 51       		.byte	0x51
 11843 0a65 15000000 		.4byte	.LVL186-1
 11844 0a69 16000000 		.4byte	.LVL186
ARM GAS  /tmp/ccYjC7Ok.s 			page 209


 11845 0a6d 0100     		.2byte	0x1
 11846 0a6f 59       		.byte	0x59
 11847 0a70 16000000 		.4byte	.LVL186
 11848 0a74 22000000 		.4byte	.LVL189
 11849 0a78 0100     		.2byte	0x1
 11850 0a7a 51       		.byte	0x51
 11851 0a7b 22000000 		.4byte	.LVL189
 11852 0a7f C4000000 		.4byte	.LFE41
 11853 0a83 0100     		.2byte	0x1
 11854 0a85 59       		.byte	0x59
 11855 0a86 00000000 		.4byte	0
 11856 0a8a 00000000 		.4byte	0
 11857              	.LLST74:
 11858 0a8e 00000000 		.4byte	.LVL183
 11859 0a92 15000000 		.4byte	.LVL186-1
 11860 0a96 0100     		.2byte	0x1
 11861 0a98 52       		.byte	0x52
 11862 0a99 15000000 		.4byte	.LVL186-1
 11863 0a9d 16000000 		.4byte	.LVL186
 11864 0aa1 0400     		.2byte	0x4
 11865 0aa3 F3       		.byte	0xf3
 11866 0aa4 01       		.uleb128 0x1
 11867 0aa5 52       		.byte	0x52
 11868 0aa6 9F       		.byte	0x9f
 11869 0aa7 16000000 		.4byte	.LVL186
 11870 0aab 20000000 		.4byte	.LVL188
 11871 0aaf 0100     		.2byte	0x1
 11872 0ab1 52       		.byte	0x52
 11873 0ab2 20000000 		.4byte	.LVL188
 11874 0ab6 B4000000 		.4byte	.LVL200
 11875 0aba 0400     		.2byte	0x4
 11876 0abc 78       		.byte	0x78
 11877 0abd E000     		.sleb128 96
 11878 0abf 9F       		.byte	0x9f
 11879 0ac0 B4000000 		.4byte	.LVL200
 11880 0ac4 C4000000 		.4byte	.LFE41
 11881 0ac8 0400     		.2byte	0x4
 11882 0aca F3       		.byte	0xf3
 11883 0acb 01       		.uleb128 0x1
 11884 0acc 52       		.byte	0x52
 11885 0acd 9F       		.byte	0x9f
 11886 0ace 00000000 		.4byte	0
 11887 0ad2 00000000 		.4byte	0
 11888              	.LLST75:
 11889 0ad6 00000000 		.4byte	.LVL183
 11890 0ada 15000000 		.4byte	.LVL186-1
 11891 0ade 0100     		.2byte	0x1
 11892 0ae0 53       		.byte	0x53
 11893 0ae1 15000000 		.4byte	.LVL186-1
 11894 0ae5 16000000 		.4byte	.LVL186
 11895 0ae9 0100     		.2byte	0x1
 11896 0aeb 5A       		.byte	0x5a
 11897 0aec 16000000 		.4byte	.LVL186
 11898 0af0 27000000 		.4byte	.LVL191-1
 11899 0af4 0100     		.2byte	0x1
 11900 0af6 53       		.byte	0x53
 11901 0af7 27000000 		.4byte	.LVL191-1
ARM GAS  /tmp/ccYjC7Ok.s 			page 210


 11902 0afb C4000000 		.4byte	.LFE41
 11903 0aff 0100     		.2byte	0x1
 11904 0b01 5A       		.byte	0x5a
 11905 0b02 00000000 		.4byte	0
 11906 0b06 00000000 		.4byte	0
 11907              	.LLST76:
 11908 0b0a 00000000 		.4byte	.LVL183
 11909 0b0e 7E000000 		.4byte	.LVL195
 11910 0b12 0200     		.2byte	0x2
 11911 0b14 91       		.byte	0x91
 11912 0b15 00       		.sleb128 0
 11913 0b16 00000000 		.4byte	0
 11914 0b1a 00000000 		.4byte	0
 11915              	.LLST77:
 11916 0b1e 0E000000 		.4byte	.LVL184
 11917 0b22 7E000000 		.4byte	.LVL195
 11918 0b26 0200     		.2byte	0x2
 11919 0b28 91       		.byte	0x91
 11920 0b29 00       		.sleb128 0
 11921 0b2a 00000000 		.4byte	0
 11922 0b2e 00000000 		.4byte	0
 11923              	.LLST78:
 11924 0b32 0E000000 		.4byte	.LVL184
 11925 0b36 15000000 		.4byte	.LVL186-1
 11926 0b3a 0100     		.2byte	0x1
 11927 0b3c 53       		.byte	0x53
 11928 0b3d 15000000 		.4byte	.LVL186-1
 11929 0b41 16000000 		.4byte	.LVL186
 11930 0b45 0100     		.2byte	0x1
 11931 0b47 5A       		.byte	0x5a
 11932 0b48 16000000 		.4byte	.LVL186
 11933 0b4c 27000000 		.4byte	.LVL191-1
 11934 0b50 0100     		.2byte	0x1
 11935 0b52 53       		.byte	0x53
 11936 0b53 27000000 		.4byte	.LVL191-1
 11937 0b57 84000000 		.4byte	.LVL196
 11938 0b5b 0100     		.2byte	0x1
 11939 0b5d 5A       		.byte	0x5a
 11940 0b5e 00000000 		.4byte	0
 11941 0b62 00000000 		.4byte	0
 11942              	.LLST79:
 11943 0b66 0E000000 		.4byte	.LVL184
 11944 0b6a 15000000 		.4byte	.LVL186-1
 11945 0b6e 0100     		.2byte	0x1
 11946 0b70 52       		.byte	0x52
 11947 0b71 15000000 		.4byte	.LVL186-1
 11948 0b75 16000000 		.4byte	.LVL186
 11949 0b79 0400     		.2byte	0x4
 11950 0b7b F3       		.byte	0xf3
 11951 0b7c 01       		.uleb128 0x1
 11952 0b7d 52       		.byte	0x52
 11953 0b7e 9F       		.byte	0x9f
 11954 0b7f 16000000 		.4byte	.LVL186
 11955 0b83 20000000 		.4byte	.LVL188
 11956 0b87 0100     		.2byte	0x1
 11957 0b89 52       		.byte	0x52
 11958 0b8a 20000000 		.4byte	.LVL188
ARM GAS  /tmp/ccYjC7Ok.s 			page 211


 11959 0b8e 84000000 		.4byte	.LVL196
 11960 0b92 0400     		.2byte	0x4
 11961 0b94 78       		.byte	0x78
 11962 0b95 E000     		.sleb128 96
 11963 0b97 9F       		.byte	0x9f
 11964 0b98 00000000 		.4byte	0
 11965 0b9c 00000000 		.4byte	0
 11966              	.LLST80:
 11967 0ba0 0E000000 		.4byte	.LVL184
 11968 0ba4 15000000 		.4byte	.LVL186-1
 11969 0ba8 0100     		.2byte	0x1
 11970 0baa 51       		.byte	0x51
 11971 0bab 15000000 		.4byte	.LVL186-1
 11972 0baf 16000000 		.4byte	.LVL186
 11973 0bb3 0100     		.2byte	0x1
 11974 0bb5 59       		.byte	0x59
 11975 0bb6 16000000 		.4byte	.LVL186
 11976 0bba 22000000 		.4byte	.LVL189
 11977 0bbe 0100     		.2byte	0x1
 11978 0bc0 51       		.byte	0x51
 11979 0bc1 22000000 		.4byte	.LVL189
 11980 0bc5 84000000 		.4byte	.LVL196
 11981 0bc9 0100     		.2byte	0x1
 11982 0bcb 59       		.byte	0x59
 11983 0bcc 00000000 		.4byte	0
 11984 0bd0 00000000 		.4byte	0
 11985              	.LLST81:
 11986 0bd4 76000000 		.4byte	.LVL194
 11987 0bd8 84000000 		.4byte	.LVL196
 11988 0bdc 0100     		.2byte	0x1
 11989 0bde 56       		.byte	0x56
 11990 0bdf 00000000 		.4byte	0
 11991 0be3 00000000 		.4byte	0
 11992              	.LLST82:
 11993 0be7 1E000000 		.4byte	.LVL187
 11994 0beb 84000000 		.4byte	.LVL196
 11995 0bef 0100     		.2byte	0x1
 11996 0bf1 54       		.byte	0x54
 11997 0bf2 00000000 		.4byte	0
 11998 0bf6 00000000 		.4byte	0
 11999              	.LLST7:
 12000 0bfa 00000000 		.4byte	.LVL19
 12001 0bfe 13000000 		.4byte	.LVL20-1
 12002 0c02 0100     		.2byte	0x1
 12003 0c04 50       		.byte	0x50
 12004 0c05 13000000 		.4byte	.LVL20-1
 12005 0c09 44000000 		.4byte	.LFE40
 12006 0c0d 0400     		.2byte	0x4
 12007 0c0f F3       		.byte	0xf3
 12008 0c10 01       		.uleb128 0x1
 12009 0c11 50       		.byte	0x50
 12010 0c12 9F       		.byte	0x9f
 12011 0c13 00000000 		.4byte	0
 12012 0c17 00000000 		.4byte	0
 12013              	.LLST8:
 12014 0c1b 14000000 		.4byte	.LVL20
 12015 0c1f 2A000000 		.4byte	.LVL24
ARM GAS  /tmp/ccYjC7Ok.s 			page 212


 12016 0c23 0100     		.2byte	0x1
 12017 0c25 50       		.byte	0x50
 12018 0c26 2A000000 		.4byte	.LVL24
 12019 0c2a 2C000000 		.4byte	.LVL25
 12020 0c2e 0100     		.2byte	0x1
 12021 0c30 54       		.byte	0x54
 12022 0c31 2C000000 		.4byte	.LVL25
 12023 0c35 44000000 		.4byte	.LFE40
 12024 0c39 0100     		.2byte	0x1
 12025 0c3b 50       		.byte	0x50
 12026 0c3c 00000000 		.4byte	0
 12027 0c40 00000000 		.4byte	0
 12028              	.LLST9:
 12029 0c44 00000000 		.4byte	.LVL19
 12030 0c48 2A000000 		.4byte	.LVL24
 12031 0c4c 0200     		.2byte	0x2
 12032 0c4e 30       		.byte	0x30
 12033 0c4f 9F       		.byte	0x9f
 12034 0c50 2A000000 		.4byte	.LVL24
 12035 0c54 2C000000 		.4byte	.LVL25
 12036 0c58 0100     		.2byte	0x1
 12037 0c5a 50       		.byte	0x50
 12038 0c5b 2C000000 		.4byte	.LVL25
 12039 0c5f 44000000 		.4byte	.LFE40
 12040 0c63 0200     		.2byte	0x2
 12041 0c65 30       		.byte	0x30
 12042 0c66 9F       		.byte	0x9f
 12043 0c67 00000000 		.4byte	0
 12044 0c6b 00000000 		.4byte	0
 12045              	.LLST10:
 12046 0c6f 1C000000 		.4byte	.LVL21
 12047 0c73 2A000000 		.4byte	.LVL24
 12048 0c77 0100     		.2byte	0x1
 12049 0c79 55       		.byte	0x55
 12050 0c7a 2C000000 		.4byte	.LVL25
 12051 0c7e 44000000 		.4byte	.LFE40
 12052 0c82 0100     		.2byte	0x1
 12053 0c84 55       		.byte	0x55
 12054 0c85 00000000 		.4byte	0
 12055 0c89 00000000 		.4byte	0
 12056              	.LLST11:
 12057 0c8d 24000000 		.4byte	.LVL23
 12058 0c91 2A000000 		.4byte	.LVL24
 12059 0c95 0100     		.2byte	0x1
 12060 0c97 53       		.byte	0x53
 12061 0c98 2C000000 		.4byte	.LVL25
 12062 0c9c 44000000 		.4byte	.LFE40
 12063 0ca0 0100     		.2byte	0x1
 12064 0ca2 53       		.byte	0x53
 12065 0ca3 00000000 		.4byte	0
 12066 0ca7 00000000 		.4byte	0
 12067              	.LLST12:
 12068 0cab 2C000000 		.4byte	.LVL25
 12069 0caf 2E000000 		.4byte	.LVL26
 12070 0cb3 0100     		.2byte	0x1
 12071 0cb5 53       		.byte	0x53
 12072 0cb6 00000000 		.4byte	0
ARM GAS  /tmp/ccYjC7Ok.s 			page 213


 12073 0cba 00000000 		.4byte	0
 12074              	.LLST70:
 12075 0cbe 00000000 		.4byte	.LVL174
 12076 0cc2 08000000 		.4byte	.LVL175
 12077 0cc6 0100     		.2byte	0x1
 12078 0cc8 50       		.byte	0x50
 12079 0cc9 08000000 		.4byte	.LVL175
 12080 0ccd 6E000000 		.4byte	.LVL182
 12081 0cd1 0100     		.2byte	0x1
 12082 0cd3 54       		.byte	0x54
 12083 0cd4 6E000000 		.4byte	.LVL182
 12084 0cd8 94000000 		.4byte	.LFE37
 12085 0cdc 0500     		.2byte	0x5
 12086 0cde 03       		.byte	0x3
 12087 0cdf 00000000 		.4byte	running
 12088 0ce3 00000000 		.4byte	0
 12089 0ce7 00000000 		.4byte	0
 12090              	.LLST71:
 12091 0ceb 16000000 		.4byte	.LVL176
 12092 0cef 20000000 		.4byte	.LVL177
 12093 0cf3 0100     		.2byte	0x1
 12094 0cf5 54       		.byte	0x54
 12095 0cf6 00000000 		.4byte	0
 12096 0cfa 00000000 		.4byte	0
 12097              	.LLST61:
 12098 0cfe 0A000000 		.4byte	.LVL155
 12099 0d02 2E000000 		.4byte	.LVL160
 12100 0d06 0100     		.2byte	0x1
 12101 0d08 50       		.byte	0x50
 12102 0d09 46000000 		.4byte	.LVL162
 12103 0d0d 4C000000 		.4byte	.LVL163
 12104 0d11 0100     		.2byte	0x1
 12105 0d13 50       		.byte	0x50
 12106 0d14 4C000000 		.4byte	.LVL163
 12107 0d18 66000000 		.4byte	.LVL168
 12108 0d1c 0100     		.2byte	0x1
 12109 0d1e 55       		.byte	0x55
 12110 0d1f 66000000 		.4byte	.LVL168
 12111 0d23 6E000000 		.4byte	.LVL169
 12112 0d27 0100     		.2byte	0x1
 12113 0d29 50       		.byte	0x50
 12114 0d2a 6E000000 		.4byte	.LVL169
 12115 0d2e 74000000 		.4byte	.LVL170
 12116 0d32 0100     		.2byte	0x1
 12117 0d34 59       		.byte	0x59
 12118 0d35 74000000 		.4byte	.LVL170
 12119 0d39 8C000000 		.4byte	.LVL172
 12120 0d3d 0100     		.2byte	0x1
 12121 0d3f 55       		.byte	0x55
 12122 0d40 8C000000 		.4byte	.LVL172
 12123 0d44 A8000000 		.4byte	.LFE35
 12124 0d48 0100     		.2byte	0x1
 12125 0d4a 50       		.byte	0x50
 12126 0d4b 00000000 		.4byte	0
 12127 0d4f 00000000 		.4byte	0
 12128              	.LLST62:
 12129 0d53 00000000 		.4byte	.LVL154
ARM GAS  /tmp/ccYjC7Ok.s 			page 214


 12130 0d57 26000000 		.4byte	.LVL158
 12131 0d5b 0200     		.2byte	0x2
 12132 0d5d 30       		.byte	0x30
 12133 0d5e 9F       		.byte	0x9f
 12134 0d5f 26000000 		.4byte	.LVL158
 12135 0d63 46000000 		.4byte	.LVL162
 12136 0d67 0100     		.2byte	0x1
 12137 0d69 54       		.byte	0x54
 12138 0d6a 46000000 		.4byte	.LVL162
 12139 0d6e 4C000000 		.4byte	.LVL163
 12140 0d72 0200     		.2byte	0x2
 12141 0d74 30       		.byte	0x30
 12142 0d75 9F       		.byte	0x9f
 12143 0d76 4C000000 		.4byte	.LVL163
 12144 0d7a 90000000 		.4byte	.LVL173
 12145 0d7e 0100     		.2byte	0x1
 12146 0d80 54       		.byte	0x54
 12147 0d81 00000000 		.4byte	0
 12148 0d85 00000000 		.4byte	0
 12149              	.LLST63:
 12150 0d89 14000000 		.4byte	.LVL156
 12151 0d8d 2E000000 		.4byte	.LVL160
 12152 0d91 0100     		.2byte	0x1
 12153 0d93 57       		.byte	0x57
 12154 0d94 46000000 		.4byte	.LVL162
 12155 0d98 A8000000 		.4byte	.LFE35
 12156 0d9c 0100     		.2byte	0x1
 12157 0d9e 57       		.byte	0x57
 12158 0d9f 00000000 		.4byte	0
 12159 0da3 00000000 		.4byte	0
 12160              	.LLST65:
 12161 0da7 54000000 		.4byte	.LVL165
 12162 0dab 74000000 		.4byte	.LVL170
 12163 0daf 0100     		.2byte	0x1
 12164 0db1 59       		.byte	0x59
 12165 0db2 8C000000 		.4byte	.LVL172
 12166 0db6 A8000000 		.4byte	.LFE35
 12167 0dba 0100     		.2byte	0x1
 12168 0dbc 59       		.byte	0x59
 12169 0dbd 00000000 		.4byte	0
 12170 0dc1 00000000 		.4byte	0
 12171              	.LLST66:
 12172 0dc5 7E000000 		.4byte	.LVL171
 12173 0dc9 8C000000 		.4byte	.LVL172
 12174 0dcd 0100     		.2byte	0x1
 12175 0dcf 57       		.byte	0x57
 12176 0dd0 00000000 		.4byte	0
 12177 0dd4 00000000 		.4byte	0
 12178              	.LLST67:
 12179 0dd8 7E000000 		.4byte	.LVL171
 12180 0ddc 8C000000 		.4byte	.LVL172
 12181 0de0 0600     		.2byte	0x6
 12182 0de2 03       		.byte	0x3
 12183 0de3 00000000 		.4byte	q_timer
 12184 0de7 9F       		.byte	0x9f
 12185 0de8 00000000 		.4byte	0
 12186 0dec 00000000 		.4byte	0
ARM GAS  /tmp/ccYjC7Ok.s 			page 215


 12187              	.LLST64:
 12188 0df0 26000000 		.4byte	.LVL158
 12189 0df4 2A000000 		.4byte	.LVL159
 12190 0df8 0600     		.2byte	0x6
 12191 0dfa 03       		.byte	0x3
 12192 0dfb 00000000 		.4byte	q_timer
 12193 0dff 9F       		.byte	0x9f
 12194 0e00 00000000 		.4byte	0
 12195 0e04 00000000 		.4byte	0
 12196              	.LLST69:
 12197 0e08 2E000000 		.4byte	.LVL160
 12198 0e0c 42000000 		.4byte	.LVL161
 12199 0e10 0100     		.2byte	0x1
 12200 0e12 54       		.byte	0x54
 12201 0e13 00000000 		.4byte	0
 12202 0e17 00000000 		.4byte	0
 12203              	.LLST27:
 12204 0e1b 00000000 		.4byte	.LVL63
 12205 0e1f 18000000 		.4byte	.LVL66
 12206 0e23 0100     		.2byte	0x1
 12207 0e25 50       		.byte	0x50
 12208 0e26 18000000 		.4byte	.LVL66
 12209 0e2a 38000000 		.4byte	.LVL73
 12210 0e2e 0100     		.2byte	0x1
 12211 0e30 53       		.byte	0x53
 12212 0e31 38000000 		.4byte	.LVL73
 12213 0e35 3C000000 		.4byte	.LVL74
 12214 0e39 0100     		.2byte	0x1
 12215 0e3b 50       		.byte	0x50
 12216 0e3c 3C000000 		.4byte	.LVL74
 12217 0e40 50000000 		.4byte	.LFE34
 12218 0e44 0100     		.2byte	0x1
 12219 0e46 53       		.byte	0x53
 12220 0e47 00000000 		.4byte	0
 12221 0e4b 00000000 		.4byte	0
 12222              	.LLST28:
 12223 0e4f 02000000 		.4byte	.LVL64
 12224 0e53 1A000000 		.4byte	.LVL67
 12225 0e57 0100     		.2byte	0x1
 12226 0e59 52       		.byte	0x52
 12227 0e5a 1A000000 		.4byte	.LVL67
 12228 0e5e 31000000 		.4byte	.LVL71-1
 12229 0e62 0200     		.2byte	0x2
 12230 0e64 73       		.byte	0x73
 12231 0e65 04       		.sleb128 4
 12232 0e66 38000000 		.4byte	.LVL73
 12233 0e6a 50000000 		.4byte	.LFE34
 12234 0e6e 0100     		.2byte	0x1
 12235 0e70 52       		.byte	0x52
 12236 0e71 00000000 		.4byte	0
 12237 0e75 00000000 		.4byte	0
 12238              	.LLST29:
 12239 0e79 20000000 		.4byte	.LVL68
 12240 0e7d 24000000 		.4byte	.LVL69
 12241 0e81 0100     		.2byte	0x1
 12242 0e83 50       		.byte	0x50
 12243 0e84 00000000 		.4byte	0
ARM GAS  /tmp/ccYjC7Ok.s 			page 216


 12244 0e88 00000000 		.4byte	0
 12245              	.LLST31:
 12246 0e8c 20000000 		.4byte	.LVL68
 12247 0e90 2C000000 		.4byte	.LVL70
 12248 0e94 0600     		.2byte	0x6
 12249 0e96 03       		.byte	0x3
 12250 0e97 00000000 		.4byte	q_timer
 12251 0e9b 9F       		.byte	0x9f
 12252 0e9c 00000000 		.4byte	0
 12253 0ea0 00000000 		.4byte	0
 12254              	.LLST33:
 12255 0ea4 12000000 		.4byte	.LVL65
 12256 0ea8 2C000000 		.4byte	.LVL70
 12257 0eac 0200     		.2byte	0x2
 12258 0eae 30       		.byte	0x30
 12259 0eaf 9F       		.byte	0x9f
 12260 0eb0 00000000 		.4byte	0
 12261 0eb4 00000000 		.4byte	0
 12262              	.LLST34:
 12263 0eb8 12000000 		.4byte	.LVL65
 12264 0ebc 2C000000 		.4byte	.LVL70
 12265 0ec0 0600     		.2byte	0x6
 12266 0ec2 03       		.byte	0x3
 12267 0ec3 00000000 		.4byte	q_timer
 12268 0ec7 9F       		.byte	0x9f
 12269 0ec8 00000000 		.4byte	0
 12270 0ecc 00000000 		.4byte	0
 12271              	.LLST17:
 12272 0ed0 00000000 		.4byte	.LVL44
 12273 0ed4 16000000 		.4byte	.LVL47
 12274 0ed8 0100     		.2byte	0x1
 12275 0eda 50       		.byte	0x50
 12276 0edb 16000000 		.4byte	.LVL47
 12277 0edf 2A000000 		.4byte	.LVL52
 12278 0ee3 0100     		.2byte	0x1
 12279 0ee5 54       		.byte	0x54
 12280 0ee6 2A000000 		.4byte	.LVL52
 12281 0eea 30000000 		.4byte	.LVL53
 12282 0eee 0100     		.2byte	0x1
 12283 0ef0 50       		.byte	0x50
 12284 0ef1 30000000 		.4byte	.LVL53
 12285 0ef5 4C000000 		.4byte	.LVL59
 12286 0ef9 0100     		.2byte	0x1
 12287 0efb 54       		.byte	0x54
 12288 0efc 4C000000 		.4byte	.LVL59
 12289 0f00 5C000000 		.4byte	.LFE33
 12290 0f04 0100     		.2byte	0x1
 12291 0f06 50       		.byte	0x50
 12292 0f07 00000000 		.4byte	0
 12293 0f0b 00000000 		.4byte	0
 12294              	.LLST18:
 12295 0f0f 00000000 		.4byte	.LVL44
 12296 0f13 1E000000 		.4byte	.LVL49
 12297 0f17 0100     		.2byte	0x1
 12298 0f19 51       		.byte	0x51
 12299 0f1a 1E000000 		.4byte	.LVL49
 12300 0f1e 2A000000 		.4byte	.LVL52
ARM GAS  /tmp/ccYjC7Ok.s 			page 217


 12301 0f22 0400     		.2byte	0x4
 12302 0f24 F3       		.byte	0xf3
 12303 0f25 01       		.uleb128 0x1
 12304 0f26 51       		.byte	0x51
 12305 0f27 9F       		.byte	0x9f
 12306 0f28 2A000000 		.4byte	.LVL52
 12307 0f2c 3A000000 		.4byte	.LVL55
 12308 0f30 0100     		.2byte	0x1
 12309 0f32 51       		.byte	0x51
 12310 0f33 3A000000 		.4byte	.LVL55
 12311 0f37 4C000000 		.4byte	.LVL59
 12312 0f3b 0400     		.2byte	0x4
 12313 0f3d F3       		.byte	0xf3
 12314 0f3e 01       		.uleb128 0x1
 12315 0f3f 51       		.byte	0x51
 12316 0f40 9F       		.byte	0x9f
 12317 0f41 4C000000 		.4byte	.LVL59
 12318 0f45 5C000000 		.4byte	.LFE33
 12319 0f49 0100     		.2byte	0x1
 12320 0f4b 51       		.byte	0x51
 12321 0f4c 00000000 		.4byte	0
 12322 0f50 00000000 		.4byte	0
 12323              	.LLST19:
 12324 0f54 10000000 		.4byte	.LVL46
 12325 0f58 25000000 		.4byte	.LVL51-1
 12326 0f5c 0100     		.2byte	0x1
 12327 0f5e 53       		.byte	0x53
 12328 0f5f 2A000000 		.4byte	.LVL52
 12329 0f63 41000000 		.4byte	.LVL57-1
 12330 0f67 0100     		.2byte	0x1
 12331 0f69 53       		.byte	0x53
 12332 0f6a 4C000000 		.4byte	.LVL59
 12333 0f6e 5C000000 		.4byte	.LFE33
 12334 0f72 0100     		.2byte	0x1
 12335 0f74 53       		.byte	0x53
 12336 0f75 00000000 		.4byte	0
 12337 0f79 00000000 		.4byte	0
 12338              	.LLST20:
 12339 0f7d 00000000 		.4byte	.LVL44
 12340 0f81 0C000000 		.4byte	.LVL45
 12341 0f85 0100     		.2byte	0x1
 12342 0f87 51       		.byte	0x51
 12343 0f88 00000000 		.4byte	0
 12344 0f8c 00000000 		.4byte	0
 12345              	.LLST21:
 12346 0f90 1C000000 		.4byte	.LVL48
 12347 0f94 22000000 		.4byte	.LVL50
 12348 0f98 0600     		.2byte	0x6
 12349 0f9a 03       		.byte	0x3
 12350 0f9b 00000000 		.4byte	q_timer
 12351 0f9f 9F       		.byte	0x9f
 12352 0fa0 00000000 		.4byte	0
 12353 0fa4 00000000 		.4byte	0
 12354              	.LLST22:
 12355 0fa8 1C000000 		.4byte	.LVL48
 12356 0fac 22000000 		.4byte	.LVL50
 12357 0fb0 0100     		.2byte	0x1
ARM GAS  /tmp/ccYjC7Ok.s 			page 218


 12358 0fb2 54       		.byte	0x54
 12359 0fb3 00000000 		.4byte	0
 12360 0fb7 00000000 		.4byte	0
 12361              	.LLST23:
 12362 0fbb 1C000000 		.4byte	.LVL48
 12363 0fbf 2A000000 		.4byte	.LVL52
 12364 0fc3 0600     		.2byte	0x6
 12365 0fc5 03       		.byte	0x3
 12366 0fc6 00000000 		.4byte	q_timer
 12367 0fca 9F       		.byte	0x9f
 12368 0fcb 00000000 		.4byte	0
 12369 0fcf 00000000 		.4byte	0
 12370              	.LLST24:
 12371 0fd3 32000000 		.4byte	.LVL54
 12372 0fd7 3E000000 		.4byte	.LVL56
 12373 0fdb 0100     		.2byte	0x1
 12374 0fdd 53       		.byte	0x53
 12375 0fde 00000000 		.4byte	0
 12376 0fe2 00000000 		.4byte	0
 12377              	.LLST25:
 12378 0fe6 32000000 		.4byte	.LVL54
 12379 0fea 3E000000 		.4byte	.LVL56
 12380 0fee 0100     		.2byte	0x1
 12381 0ff0 54       		.byte	0x54
 12382 0ff1 00000000 		.4byte	0
 12383 0ff5 00000000 		.4byte	0
 12384              	.LLST26:
 12385 0ff9 32000000 		.4byte	.LVL54
 12386 0ffd 41000000 		.4byte	.LVL57-1
 12387 1001 0100     		.2byte	0x1
 12388 1003 53       		.byte	0x53
 12389 1004 00000000 		.4byte	0
 12390 1008 00000000 		.4byte	0
 12391              	.LLST60:
 12392 100c 3C000000 		.4byte	.LVL150
 12393 1010 46000000 		.4byte	.LVL151
 12394 1014 0100     		.2byte	0x1
 12395 1016 50       		.byte	0x50
 12396 1017 00000000 		.4byte	0
 12397 101b 00000000 		.4byte	0
 12398              	.LLST54:
 12399 101f 46000000 		.4byte	.LVL137
 12400 1023 50000000 		.4byte	.LVL138
 12401 1027 0100     		.2byte	0x1
 12402 1029 50       		.byte	0x50
 12403 102a 00000000 		.4byte	0
 12404 102e 00000000 		.4byte	0
 12405              	.LLST55:
 12406 1032 C8000000 		.4byte	.LVL141
 12407 1036 D4000000 		.4byte	.LVL143
 12408 103a 0100     		.2byte	0x1
 12409 103c 50       		.byte	0x50
 12410 103d D4000000 		.4byte	.LVL143
 12411 1041 FC000000 		.4byte	.LFE30
 12412 1045 0100     		.2byte	0x1
 12413 1047 54       		.byte	0x54
 12414 1048 00000000 		.4byte	0
ARM GAS  /tmp/ccYjC7Ok.s 			page 219


 12415 104c 00000000 		.4byte	0
 12416              	.LLST56:
 12417 1050 D2000000 		.4byte	.LVL142
 12418 1054 D4000000 		.4byte	.LVL143
 12419 1058 0100     		.2byte	0x1
 12420 105a 50       		.byte	0x50
 12421 105b D4000000 		.4byte	.LVL143
 12422 105f FC000000 		.4byte	.LFE30
 12423 1063 0100     		.2byte	0x1
 12424 1065 54       		.byte	0x54
 12425 1066 00000000 		.4byte	0
 12426 106a 00000000 		.4byte	0
 12427              	.LLST57:
 12428 106e DA000000 		.4byte	.LVL144
 12429 1072 E8000000 		.4byte	.LVL145
 12430 1076 0100     		.2byte	0x1
 12431 1078 53       		.byte	0x53
 12432 1079 00000000 		.4byte	0
 12433 107d 00000000 		.4byte	0
 12434              	.LLST58:
 12435 1081 DA000000 		.4byte	.LVL144
 12436 1085 E8000000 		.4byte	.LVL145
 12437 1089 0100     		.2byte	0x1
 12438 108b 54       		.byte	0x54
 12439 108c 00000000 		.4byte	0
 12440 1090 00000000 		.4byte	0
 12441              	.LLST3:
 12442 1094 00000000 		.4byte	.LVL9
 12443 1098 04000000 		.4byte	.LVL10
 12444 109c 0100     		.2byte	0x1
 12445 109e 50       		.byte	0x50
 12446 109f 04000000 		.4byte	.LVL10
 12447 10a3 04000000 		.4byte	.LFE28
 12448 10a7 0400     		.2byte	0x4
 12449 10a9 F3       		.byte	0xf3
 12450 10aa 01       		.uleb128 0x1
 12451 10ab 50       		.byte	0x50
 12452 10ac 9F       		.byte	0x9f
 12453 10ad 00000000 		.4byte	0
 12454 10b1 00000000 		.4byte	0
 12455              	.LLST50:
 12456 10b5 0A000000 		.4byte	.LVL121
 12457 10b9 30000000 		.4byte	.LVL127
 12458 10bd 0100     		.2byte	0x1
 12459 10bf 50       		.byte	0x50
 12460 10c0 54000000 		.4byte	.LVL132
 12461 10c4 68000000 		.4byte	.LFE25
 12462 10c8 0100     		.2byte	0x1
 12463 10ca 50       		.byte	0x50
 12464 10cb 00000000 		.4byte	0
 12465 10cf 00000000 		.4byte	0
 12466              	.LLST52:
 12467 10d3 2E000000 		.4byte	.LVL126
 12468 10d7 52000000 		.4byte	.LVL131
 12469 10db 0100     		.2byte	0x1
 12470 10dd 54       		.byte	0x54
 12471 10de 00000000 		.4byte	0
ARM GAS  /tmp/ccYjC7Ok.s 			page 220


 12472 10e2 00000000 		.4byte	0
 12473              	.LLST53:
 12474 10e6 3A000000 		.4byte	.LVL129
 12475 10ea 52000000 		.4byte	.LVL130
 12476 10ee 0B00     		.2byte	0xb
 12477 10f0 74       		.byte	0x74
 12478 10f1 14       		.sleb128 20
 12479 10f2 06       		.byte	0x6
 12480 10f3 23       		.byte	0x23
 12481 10f4 0B       		.uleb128 0xb
 12482 10f5 94       		.byte	0x94
 12483 10f6 01       		.byte	0x1
 12484 10f7 08       		.byte	0x8
 12485 10f8 FF       		.byte	0xff
 12486 10f9 1A       		.byte	0x1a
 12487 10fa 9F       		.byte	0x9f
 12488 10fb 00000000 		.4byte	0
 12489 10ff 00000000 		.4byte	0
 12490              	.LLST51:
 12491 1103 0E000000 		.4byte	.LVL122
 12492 1107 14000000 		.4byte	.LVL123
 12493 110b 0100     		.2byte	0x1
 12494 110d 53       		.byte	0x53
 12495 110e 14000000 		.4byte	.LVL123
 12496 1112 20000000 		.4byte	.LVL124
 12497 1116 0100     		.2byte	0x1
 12498 1118 50       		.byte	0x50
 12499 1119 00000000 		.4byte	0
 12500 111d 00000000 		.4byte	0
 12501              	.LLST2:
 12502 1121 0A000000 		.4byte	.LVL7
 12503 1125 10000000 		.4byte	.LVL8
 12504 1129 0200     		.2byte	0x2
 12505 112b 30       		.byte	0x30
 12506 112c 9F       		.byte	0x9f
 12507 112d 00000000 		.4byte	0
 12508 1131 00000000 		.4byte	0
 12509              	.LLST1:
 12510 1135 0A000000 		.4byte	.LVL5
 12511 1139 10000000 		.4byte	.LVL6
 12512 113d 0300     		.2byte	0x3
 12513 113f 08       		.byte	0x8
 12514 1140 40       		.byte	0x40
 12515 1141 9F       		.byte	0x9f
 12516 1142 00000000 		.4byte	0
 12517 1146 00000000 		.4byte	0
 12518              	.LLST4:
 12519 114a 14000000 		.4byte	.LVL13
 12520 114e 1E000000 		.4byte	.LVL14
 12521 1152 0100     		.2byte	0x1
 12522 1154 53       		.byte	0x53
 12523 1155 00000000 		.4byte	0
 12524 1159 00000000 		.4byte	0
 12525              	.LLST5:
 12526 115d 14000000 		.4byte	.LVL13
 12527 1161 1E000000 		.4byte	.LVL14
 12528 1165 0100     		.2byte	0x1
ARM GAS  /tmp/ccYjC7Ok.s 			page 221


 12529 1167 50       		.byte	0x50
 12530 1168 00000000 		.4byte	0
 12531 116c 00000000 		.4byte	0
 12532              	.LLST6:
 12533 1170 14000000 		.4byte	.LVL13
 12534 1174 20000000 		.4byte	.LVL15
 12535 1178 0100     		.2byte	0x1
 12536 117a 53       		.byte	0x53
 12537 117b 00000000 		.4byte	0
 12538 117f 00000000 		.4byte	0
 12539              	.LLST0:
 12540 1183 00000000 		.4byte	.LVL1
 12541 1187 08000000 		.4byte	.LVL2
 12542 118b 0100     		.2byte	0x1
 12543 118d 50       		.byte	0x50
 12544 118e 08000000 		.4byte	.LVL2
 12545 1192 0C000000 		.4byte	.LVL3
 12546 1196 0400     		.2byte	0x4
 12547 1198 F3       		.byte	0xf3
 12548 1199 01       		.uleb128 0x1
 12549 119a 50       		.byte	0x50
 12550 119b 9F       		.byte	0x9f
 12551 119c 0C000000 		.4byte	.LVL3
 12552 11a0 0E000000 		.4byte	.LVL4
 12553 11a4 0100     		.2byte	0x1
 12554 11a6 50       		.byte	0x50
 12555 11a7 0E000000 		.4byte	.LVL4
 12556 11ab 10000000 		.4byte	.LFE7
 12557 11af 0400     		.2byte	0x4
 12558 11b1 F3       		.byte	0xf3
 12559 11b2 01       		.uleb128 0x1
 12560 11b3 50       		.byte	0x50
 12561 11b4 9F       		.byte	0x9f
 12562 11b5 00000000 		.4byte	0
 12563 11b9 00000000 		.4byte	0
 12564              	.LLST13:
 12565 11bd 00000000 		.4byte	.LVL29
 12566 11c1 10000000 		.4byte	.LVL31
 12567 11c5 0100     		.2byte	0x1
 12568 11c7 50       		.byte	0x50
 12569 11c8 10000000 		.4byte	.LVL31
 12570 11cc 19000000 		.4byte	.LVL33-1
 12571 11d0 0100     		.2byte	0x1
 12572 11d2 53       		.byte	0x53
 12573 11d3 19000000 		.4byte	.LVL33-1
 12574 11d7 1E000000 		.4byte	.LVL34
 12575 11db 0400     		.2byte	0x4
 12576 11dd F3       		.byte	0xf3
 12577 11de 01       		.uleb128 0x1
 12578 11df 50       		.byte	0x50
 12579 11e0 9F       		.byte	0x9f
 12580 11e1 1E000000 		.4byte	.LVL34
 12581 11e5 28000000 		.4byte	.LVL36
 12582 11e9 0100     		.2byte	0x1
 12583 11eb 50       		.byte	0x50
 12584 11ec 28000000 		.4byte	.LVL36
 12585 11f0 2D000000 		.4byte	.LVL37-1
ARM GAS  /tmp/ccYjC7Ok.s 			page 222


 12586 11f4 0100     		.2byte	0x1
 12587 11f6 53       		.byte	0x53
 12588 11f7 2D000000 		.4byte	.LVL37-1
 12589 11fb 32000000 		.4byte	.LVL39
 12590 11ff 0400     		.2byte	0x4
 12591 1201 F3       		.byte	0xf3
 12592 1202 01       		.uleb128 0x1
 12593 1203 50       		.byte	0x50
 12594 1204 9F       		.byte	0x9f
 12595 1205 32000000 		.4byte	.LVL39
 12596 1209 3C000000 		.4byte	.LVL40
 12597 120d 0100     		.2byte	0x1
 12598 120f 50       		.byte	0x50
 12599 1210 3C000000 		.4byte	.LVL40
 12600 1214 3E000000 		.4byte	.LFE46
 12601 1218 0100     		.2byte	0x1
 12602 121a 53       		.byte	0x53
 12603 121b 00000000 		.4byte	0
 12604 121f 00000000 		.4byte	0
 12605              	.LLST14:
 12606 1223 24000000 		.4byte	.LVL35
 12607 1227 30000000 		.4byte	.LVL38
 12608 122b 0100     		.2byte	0x1
 12609 122d 54       		.byte	0x54
 12610 122e 00000000 		.4byte	0
 12611 1232 00000000 		.4byte	0
 12612              	.LLST15:
 12613 1236 00000000 		.4byte	.LVL41
 12614 123a 12000000 		.4byte	.LVL43
 12615 123e 0100     		.2byte	0x1
 12616 1240 51       		.byte	0x51
 12617 1241 12000000 		.4byte	.LVL43
 12618 1245 24000000 		.4byte	.LFE32
 12619 1249 0400     		.2byte	0x4
 12620 124b F3       		.byte	0xf3
 12621 124c 01       		.uleb128 0x1
 12622 124d 51       		.byte	0x51
 12623 124e 9F       		.byte	0x9f
 12624 124f 00000000 		.4byte	0
 12625 1253 00000000 		.4byte	0
 12626              	.LLST16:
 12627 1257 04000000 		.4byte	.LVL42
 12628 125b 12000000 		.4byte	.LVL43
 12629 125f 0100     		.2byte	0x1
 12630 1261 51       		.byte	0x51
 12631 1262 12000000 		.4byte	.LVL43
 12632 1266 24000000 		.4byte	.LFE32
 12633 126a 0400     		.2byte	0x4
 12634 126c F3       		.byte	0xf3
 12635 126d 01       		.uleb128 0x1
 12636 126e 51       		.byte	0x51
 12637 126f 9F       		.byte	0x9f
 12638 1270 00000000 		.4byte	0
 12639 1274 00000000 		.4byte	0
 12640              	.LLST36:
 12641 1278 00000000 		.4byte	.LVL75
 12642 127c 26000000 		.4byte	.LVL78
ARM GAS  /tmp/ccYjC7Ok.s 			page 223


 12643 1280 0100     		.2byte	0x1
 12644 1282 50       		.byte	0x50
 12645 1283 26000000 		.4byte	.LVL78
 12646 1287 2A000000 		.4byte	.LVL79
 12647 128b 0400     		.2byte	0x4
 12648 128d F3       		.byte	0xf3
 12649 128e 01       		.uleb128 0x1
 12650 128f 50       		.byte	0x50
 12651 1290 9F       		.byte	0x9f
 12652 1291 2A000000 		.4byte	.LVL79
 12653 1295 36000000 		.4byte	.LVL80
 12654 1299 0100     		.2byte	0x1
 12655 129b 50       		.byte	0x50
 12656 129c 36000000 		.4byte	.LVL80
 12657 12a0 4A000000 		.4byte	.LVL84
 12658 12a4 0400     		.2byte	0x4
 12659 12a6 F3       		.byte	0xf3
 12660 12a7 01       		.uleb128 0x1
 12661 12a8 50       		.byte	0x50
 12662 12a9 9F       		.byte	0x9f
 12663 12aa 4A000000 		.4byte	.LVL84
 12664 12ae 50000000 		.4byte	.LVL85
 12665 12b2 0100     		.2byte	0x1
 12666 12b4 50       		.byte	0x50
 12667 12b5 50000000 		.4byte	.LVL85
 12668 12b9 64000000 		.4byte	.LFE38
 12669 12bd 0400     		.2byte	0x4
 12670 12bf F3       		.byte	0xf3
 12671 12c0 01       		.uleb128 0x1
 12672 12c1 50       		.byte	0x50
 12673 12c2 9F       		.byte	0x9f
 12674 12c3 00000000 		.4byte	0
 12675 12c7 00000000 		.4byte	0
 12676              	.LLST37:
 12677 12cb 10000000 		.4byte	.LVL77
 12678 12cf 26000000 		.4byte	.LVL78
 12679 12d3 0100     		.2byte	0x1
 12680 12d5 54       		.byte	0x54
 12681 12d6 2A000000 		.4byte	.LVL79
 12682 12da 3C000000 		.4byte	.LVL82
 12683 12de 0100     		.2byte	0x1
 12684 12e0 54       		.byte	0x54
 12685 12e1 00000000 		.4byte	0
 12686 12e5 00000000 		.4byte	0
 12687              	.LLST38:
 12688 12e9 0C000000 		.4byte	.LVL76
 12689 12ed 26000000 		.4byte	.LVL78
 12690 12f1 0100     		.2byte	0x1
 12691 12f3 50       		.byte	0x50
 12692 12f4 2A000000 		.4byte	.LVL79
 12693 12f8 36000000 		.4byte	.LVL80
 12694 12fc 0100     		.2byte	0x1
 12695 12fe 50       		.byte	0x50
 12696 12ff 36000000 		.4byte	.LVL80
 12697 1303 3C000000 		.4byte	.LVL82
 12698 1307 0400     		.2byte	0x4
 12699 1309 F3       		.byte	0xf3
ARM GAS  /tmp/ccYjC7Ok.s 			page 224


 12700 130a 01       		.uleb128 0x1
 12701 130b 50       		.byte	0x50
 12702 130c 9F       		.byte	0x9f
 12703 130d 00000000 		.4byte	0
 12704 1311 00000000 		.4byte	0
 12705              	.LLST39:
 12706 1315 4A000000 		.4byte	.LVL84
 12707 1319 50000000 		.4byte	.LVL85
 12708 131d 0100     		.2byte	0x1
 12709 131f 50       		.byte	0x50
 12710 1320 00000000 		.4byte	0
 12711 1324 00000000 		.4byte	0
 12712              		.section	.debug_aranges,"",%progbits
 12713 0000 64010000 		.4byte	0x164
 12714 0004 0200     		.2byte	0x2
 12715 0006 00000000 		.4byte	.Ldebug_info0
 12716 000a 04       		.byte	0x4
 12717 000b 00       		.byte	0
 12718 000c 0000     		.2byte	0
 12719 000e 0000     		.2byte	0
 12720 0010 00000000 		.4byte	.LFB5
 12721 0014 10000000 		.4byte	.LFE5-.LFB5
 12722 0018 00000000 		.4byte	.LFB7
 12723 001c 10000000 		.4byte	.LFE7-.LFB7
 12724 0020 00000000 		.4byte	.LFB22
 12725 0024 18000000 		.4byte	.LFE22-.LFB22
 12726 0028 00000000 		.4byte	.LFB23
 12727 002c 18000000 		.4byte	.LFE23-.LFB23
 12728 0030 00000000 		.4byte	.LFB28
 12729 0034 04000000 		.4byte	.LFE28-.LFB28
 12730 0038 00000000 		.4byte	.LFB9
 12731 003c 24000000 		.4byte	.LFE9-.LFB9
 12732 0040 00000000 		.4byte	.LFB12
 12733 0044 14000000 		.4byte	.LFE12-.LFB12
 12734 0048 00000000 		.4byte	.LFB40
 12735 004c 44000000 		.4byte	.LFE40-.LFB40
 12736 0050 00000000 		.4byte	.LFB46
 12737 0054 3E000000 		.4byte	.LFE46-.LFB46
 12738 0058 00000000 		.4byte	.LFB32
 12739 005c 24000000 		.4byte	.LFE32-.LFB32
 12740 0060 00000000 		.4byte	.LFB33
 12741 0064 5C000000 		.4byte	.LFE33-.LFB33
 12742 0068 00000000 		.4byte	.LFB34
 12743 006c 50000000 		.4byte	.LFE34-.LFB34
 12744 0070 00000000 		.4byte	.LFB38
 12745 0074 64000000 		.4byte	.LFE38-.LFB38
 12746 0078 00000000 		.4byte	.LFB59
 12747 007c 90000000 		.4byte	.LFE59-.LFB59
 12748 0080 00000000 		.4byte	.LFB42
 12749 0084 54000000 		.4byte	.LFE42-.LFB42
 12750 0088 00000000 		.4byte	.LFB0
 12751 008c 02000000 		.4byte	.LFE0-.LFB0
 12752 0090 00000000 		.4byte	.LFB24
 12753 0094 02000000 		.4byte	.LFE24-.LFB24
 12754 0098 00000000 		.4byte	.LFB25
 12755 009c 68000000 		.4byte	.LFE25-.LFB25
 12756 00a0 00000000 		.4byte	.LFB30
ARM GAS  /tmp/ccYjC7Ok.s 			page 225


 12757 00a4 FC000000 		.4byte	.LFE30-.LFB30
 12758 00a8 00000000 		.4byte	.LFB31
 12759 00ac 64000000 		.4byte	.LFE31-.LFB31
 12760 00b0 00000000 		.4byte	.LFB35
 12761 00b4 A8000000 		.4byte	.LFE35-.LFB35
 12762 00b8 00000000 		.4byte	.LFB36
 12763 00bc 18000000 		.4byte	.LFE36-.LFB36
 12764 00c0 00000000 		.4byte	.LFB37
 12765 00c4 94000000 		.4byte	.LFE37-.LFB37
 12766 00c8 00000000 		.4byte	.LFB41
 12767 00cc C4000000 		.4byte	.LFE41-.LFB41
 12768 00d0 00000000 		.4byte	.LFB45
 12769 00d4 0C000000 		.4byte	.LFE45-.LFB45
 12770 00d8 00000000 		.4byte	.LFB47
 12771 00dc 90000000 		.4byte	.LFE47-.LFB47
 12772 00e0 00000000 		.4byte	.LFB48
 12773 00e4 2C000000 		.4byte	.LFE48-.LFB48
 12774 00e8 00000000 		.4byte	.LFB49
 12775 00ec 06000000 		.4byte	.LFE49-.LFB49
 12776 00f0 00000000 		.4byte	.LFB51
 12777 00f4 24000000 		.4byte	.LFE51-.LFB51
 12778 00f8 00000000 		.4byte	.LFB52
 12779 00fc 2E000000 		.4byte	.LFE52-.LFB52
 12780 0100 00000000 		.4byte	.LFB54
 12781 0104 58000000 		.4byte	.LFE54-.LFB54
 12782 0108 00000000 		.4byte	.LFB57
 12783 010c 10000000 		.4byte	.LFE57-.LFB57
 12784 0110 00000000 		.4byte	.LFB58
 12785 0114 1C000000 		.4byte	.LFE58-.LFB58
 12786 0118 00000000 		.4byte	.LFB62
 12787 011c 78000000 		.4byte	.LFE62-.LFB62
 12788 0120 00000000 		.4byte	.LFB63
 12789 0124 20000000 		.4byte	.LFE63-.LFB63
 12790 0128 00000000 		.4byte	.LFB44
 12791 012c 20000000 		.4byte	.LFE44-.LFB44
 12792 0130 00000000 		.4byte	.LFB50
 12793 0134 5C000000 		.4byte	.LFE50-.LFB50
 12794 0138 00000000 		.4byte	.LFB60
 12795 013c A4000000 		.4byte	.LFE60-.LFB60
 12796 0140 00000000 		.4byte	.LFB64
 12797 0144 28000000 		.4byte	.LFE64-.LFB64
 12798 0148 00000000 		.4byte	.LFB66
 12799 014c 3C020000 		.4byte	.LFE66-.LFB66
 12800 0150 00000000 		.4byte	.LFB56
 12801 0154 16000000 		.4byte	.LFE56-.LFB56
 12802 0158 00000000 		.4byte	.LFB67
 12803 015c 3C000000 		.4byte	.LFE67-.LFB67
 12804 0160 00000000 		.4byte	0
 12805 0164 00000000 		.4byte	0
 12806              		.section	.debug_ranges,"",%progbits
 12807              	.Ldebug_ranges0:
 12808 0000 10000000 		.4byte	.LBB197
 12809 0004 12000000 		.4byte	.LBE197
 12810 0008 14000000 		.4byte	.LBB200
 12811 000c 1E000000 		.4byte	.LBE200
 12812 0010 00000000 		.4byte	0
 12813 0014 00000000 		.4byte	0
ARM GAS  /tmp/ccYjC7Ok.s 			page 226


 12814 0018 18000000 		.4byte	.LBB201
 12815 001c 2A000000 		.4byte	.LBE201
 12816 0020 2C000000 		.4byte	.LBB204
 12817 0024 44000000 		.4byte	.LBE204
 12818 0028 00000000 		.4byte	0
 12819 002c 00000000 		.4byte	0
 12820 0030 04000000 		.4byte	.LBB213
 12821 0034 0A000000 		.4byte	.LBE213
 12822 0038 0C000000 		.4byte	.LBB216
 12823 003c 16000000 		.4byte	.LBE216
 12824 0040 00000000 		.4byte	0
 12825 0044 00000000 		.4byte	0
 12826 0048 02000000 		.4byte	.LBB225
 12827 004c 04000000 		.4byte	.LBE225
 12828 0050 0A000000 		.4byte	.LBB231
 12829 0054 0C000000 		.4byte	.LBE231
 12830 0058 00000000 		.4byte	0
 12831 005c 00000000 		.4byte	0
 12832 0060 06000000 		.4byte	.LBB228
 12833 0064 08000000 		.4byte	.LBE228
 12834 0068 0C000000 		.4byte	.LBB232
 12835 006c 0E000000 		.4byte	.LBE232
 12836 0070 00000000 		.4byte	0
 12837 0074 00000000 		.4byte	0
 12838 0078 14000000 		.4byte	.LBB233
 12839 007c 1A000000 		.4byte	.LBE233
 12840 0080 1E000000 		.4byte	.LBB236
 12841 0084 22000000 		.4byte	.LBE236
 12842 0088 00000000 		.4byte	0
 12843 008c 00000000 		.4byte	0
 12844 0090 2E000000 		.4byte	.LBB237
 12845 0094 30000000 		.4byte	.LBE237
 12846 0098 32000000 		.4byte	.LBB241
 12847 009c 38000000 		.4byte	.LBE241
 12848 00a0 3A000000 		.4byte	.LBB242
 12849 00a4 3E000000 		.4byte	.LBE242
 12850 00a8 00000000 		.4byte	0
 12851 00ac 00000000 		.4byte	0
 12852 00b0 12000000 		.4byte	.LBB254
 12853 00b4 1E000000 		.4byte	.LBE254
 12854 00b8 20000000 		.4byte	.LBB268
 12855 00bc 24000000 		.4byte	.LBE268
 12856 00c0 28000000 		.4byte	.LBB270
 12857 00c4 2C000000 		.4byte	.LBE270
 12858 00c8 00000000 		.4byte	0
 12859 00cc 00000000 		.4byte	0
 12860 00d0 1E000000 		.4byte	.LBB263
 12861 00d4 20000000 		.4byte	.LBE263
 12862 00d8 24000000 		.4byte	.LBB269
 12863 00dc 28000000 		.4byte	.LBE269
 12864 00e0 00000000 		.4byte	0
 12865 00e4 00000000 		.4byte	0
 12866 00e8 0C000000 		.4byte	.LBB275
 12867 00ec 26000000 		.4byte	.LBE275
 12868 00f0 2A000000 		.4byte	.LBB276
 12869 00f4 4A000000 		.4byte	.LBE276
 12870 00f8 00000000 		.4byte	0
ARM GAS  /tmp/ccYjC7Ok.s 			page 227


 12871 00fc 00000000 		.4byte	0
 12872 0100 16000000 		.4byte	.LBB281
 12873 0104 68000000 		.4byte	.LBE281
 12874 0108 84000000 		.4byte	.LBB284
 12875 010c 90000000 		.4byte	.LBE284
 12876 0110 00000000 		.4byte	0
 12877 0114 00000000 		.4byte	0
 12878 0118 0A000000 		.4byte	.LBB290
 12879 011c 0C000000 		.4byte	.LBE290
 12880 0120 0E000000 		.4byte	.LBB293
 12881 0124 20000000 		.4byte	.LBE293
 12882 0128 00000000 		.4byte	0
 12883 012c 00000000 		.4byte	0
 12884 0130 3A000000 		.4byte	.LBB295
 12885 0134 40000000 		.4byte	.LBE295
 12886 0138 42000000 		.4byte	.LBB298
 12887 013c 52000000 		.4byte	.LBE298
 12888 0140 00000000 		.4byte	0
 12889 0144 00000000 		.4byte	0
 12890 0148 CE000000 		.4byte	.LBB311
 12891 014c D0000000 		.4byte	.LBE311
 12892 0150 D2000000 		.4byte	.LBB316
 12893 0154 FC000000 		.4byte	.LBE316
 12894 0158 00000000 		.4byte	0
 12895 015c 00000000 		.4byte	0
 12896 0160 12000000 		.4byte	.LBB333
 12897 0164 2E000000 		.4byte	.LBE333
 12898 0168 46000000 		.4byte	.LBB342
 12899 016c A8000000 		.4byte	.LBE342
 12900 0170 00000000 		.4byte	0
 12901 0174 00000000 		.4byte	0
 12902 0178 04000000 		.4byte	.LBB351
 12903 017c 0C000000 		.4byte	.LBE351
 12904 0180 0E000000 		.4byte	.LBB357
 12905 0184 16000000 		.4byte	.LBE357
 12906 0188 00000000 		.4byte	0
 12907 018c 00000000 		.4byte	0
 12908 0190 0C000000 		.4byte	.LBB354
 12909 0194 0E000000 		.4byte	.LBE354
 12910 0198 16000000 		.4byte	.LBB358
 12911 019c 20000000 		.4byte	.LBE358
 12912 01a0 00000000 		.4byte	0
 12913 01a4 00000000 		.4byte	0
 12914 01a8 00000000 		.4byte	.LBB361
 12915 01ac 02000000 		.4byte	.LBE361
 12916 01b0 0E000000 		.4byte	.LBB366
 12917 01b4 46000000 		.4byte	.LBE366
 12918 01b8 72000000 		.4byte	.LBB367
 12919 01bc 76000000 		.4byte	.LBE367
 12920 01c0 82000000 		.4byte	.LBB368
 12921 01c4 84000000 		.4byte	.LBE368
 12922 01c8 00000000 		.4byte	0
 12923 01cc 00000000 		.4byte	0
 12924 01d0 06000000 		.4byte	.LBB369
 12925 01d4 0C000000 		.4byte	.LBE369
 12926 01d8 0E000000 		.4byte	.LBB370
 12927 01dc 12000000 		.4byte	.LBE370
ARM GAS  /tmp/ccYjC7Ok.s 			page 228


 12928 01e0 14000000 		.4byte	.LBB371
 12929 01e4 24000000 		.4byte	.LBE371
 12930 01e8 28000000 		.4byte	.LBB372
 12931 01ec 84000000 		.4byte	.LBE372
 12932 01f0 00000000 		.4byte	0
 12933 01f4 00000000 		.4byte	0
 12934 01f8 2A000000 		.4byte	.LBB403
 12935 01fc 2C000000 		.4byte	.LBE403
 12936 0200 30000000 		.4byte	.LBB408
 12937 0204 34000000 		.4byte	.LBE408
 12938 0208 72000000 		.4byte	.LBB418
 12939 020c 7E000000 		.4byte	.LBE418
 12940 0210 80000000 		.4byte	.LBB419
 12941 0214 9A000000 		.4byte	.LBE419
 12942 0218 00000000 		.4byte	0
 12943 021c 00000000 		.4byte	0
 12944 0220 5A000000 		.4byte	.LBB409
 12945 0224 5E000000 		.4byte	.LBE409
 12946 0228 E2010000 		.4byte	.LBB432
 12947 022c F8010000 		.4byte	.LBE432
 12948 0230 00020000 		.4byte	.LBB433
 12949 0234 1A020000 		.4byte	.LBE433
 12950 0238 00000000 		.4byte	0
 12951 023c 00000000 		.4byte	0
 12952 0240 5A000000 		.4byte	.LBB410
 12953 0244 5E000000 		.4byte	.LBE410
 12954 0248 F4010000 		.4byte	.LBB416
 12955 024c F8010000 		.4byte	.LBE416
 12956 0250 0C020000 		.4byte	.LBB417
 12957 0254 1A020000 		.4byte	.LBE417
 12958 0258 00000000 		.4byte	0
 12959 025c 00000000 		.4byte	0
 12960 0260 B0000000 		.4byte	.LBB420
 12961 0264 DA000000 		.4byte	.LBE420
 12962 0268 E2000000 		.4byte	.LBB423
 12963 026c F4000000 		.4byte	.LBE423
 12964 0270 00000000 		.4byte	0
 12965 0274 00000000 		.4byte	0
 12966 0278 D0010000 		.4byte	.LBB431
 12967 027c DA010000 		.4byte	.LBE431
 12968 0280 1A020000 		.4byte	.LBB434
 12969 0284 20020000 		.4byte	.LBE434
 12970 0288 00000000 		.4byte	0
 12971 028c 00000000 		.4byte	0
 12972 0290 00000000 		.4byte	.LFB5
 12973 0294 10000000 		.4byte	.LFE5
 12974 0298 00000000 		.4byte	.LFB7
 12975 029c 10000000 		.4byte	.LFE7
 12976 02a0 00000000 		.4byte	.LFB22
 12977 02a4 18000000 		.4byte	.LFE22
 12978 02a8 00000000 		.4byte	.LFB23
 12979 02ac 18000000 		.4byte	.LFE23
 12980 02b0 00000000 		.4byte	.LFB28
 12981 02b4 04000000 		.4byte	.LFE28
 12982 02b8 00000000 		.4byte	.LFB9
 12983 02bc 24000000 		.4byte	.LFE9
 12984 02c0 00000000 		.4byte	.LFB12
ARM GAS  /tmp/ccYjC7Ok.s 			page 229


 12985 02c4 14000000 		.4byte	.LFE12
 12986 02c8 00000000 		.4byte	.LFB40
 12987 02cc 44000000 		.4byte	.LFE40
 12988 02d0 00000000 		.4byte	.LFB46
 12989 02d4 3E000000 		.4byte	.LFE46
 12990 02d8 00000000 		.4byte	.LFB32
 12991 02dc 24000000 		.4byte	.LFE32
 12992 02e0 00000000 		.4byte	.LFB33
 12993 02e4 5C000000 		.4byte	.LFE33
 12994 02e8 00000000 		.4byte	.LFB34
 12995 02ec 50000000 		.4byte	.LFE34
 12996 02f0 00000000 		.4byte	.LFB38
 12997 02f4 64000000 		.4byte	.LFE38
 12998 02f8 00000000 		.4byte	.LFB59
 12999 02fc 90000000 		.4byte	.LFE59
 13000 0300 00000000 		.4byte	.LFB42
 13001 0304 54000000 		.4byte	.LFE42
 13002 0308 00000000 		.4byte	.LFB0
 13003 030c 02000000 		.4byte	.LFE0
 13004 0310 00000000 		.4byte	.LFB24
 13005 0314 02000000 		.4byte	.LFE24
 13006 0318 00000000 		.4byte	.LFB25
 13007 031c 68000000 		.4byte	.LFE25
 13008 0320 00000000 		.4byte	.LFB30
 13009 0324 FC000000 		.4byte	.LFE30
 13010 0328 00000000 		.4byte	.LFB31
 13011 032c 64000000 		.4byte	.LFE31
 13012 0330 00000000 		.4byte	.LFB35
 13013 0334 A8000000 		.4byte	.LFE35
 13014 0338 00000000 		.4byte	.LFB36
 13015 033c 18000000 		.4byte	.LFE36
 13016 0340 00000000 		.4byte	.LFB37
 13017 0344 94000000 		.4byte	.LFE37
 13018 0348 00000000 		.4byte	.LFB41
 13019 034c C4000000 		.4byte	.LFE41
 13020 0350 00000000 		.4byte	.LFB45
 13021 0354 0C000000 		.4byte	.LFE45
 13022 0358 00000000 		.4byte	.LFB47
 13023 035c 90000000 		.4byte	.LFE47
 13024 0360 00000000 		.4byte	.LFB48
 13025 0364 2C000000 		.4byte	.LFE48
 13026 0368 00000000 		.4byte	.LFB49
 13027 036c 06000000 		.4byte	.LFE49
 13028 0370 00000000 		.4byte	.LFB51
 13029 0374 24000000 		.4byte	.LFE51
 13030 0378 00000000 		.4byte	.LFB52
 13031 037c 2E000000 		.4byte	.LFE52
 13032 0380 00000000 		.4byte	.LFB54
 13033 0384 58000000 		.4byte	.LFE54
 13034 0388 00000000 		.4byte	.LFB57
 13035 038c 10000000 		.4byte	.LFE57
 13036 0390 00000000 		.4byte	.LFB58
 13037 0394 1C000000 		.4byte	.LFE58
 13038 0398 00000000 		.4byte	.LFB62
 13039 039c 78000000 		.4byte	.LFE62
 13040 03a0 00000000 		.4byte	.LFB63
 13041 03a4 20000000 		.4byte	.LFE63
ARM GAS  /tmp/ccYjC7Ok.s 			page 230


 13042 03a8 00000000 		.4byte	.LFB44
 13043 03ac 20000000 		.4byte	.LFE44
 13044 03b0 00000000 		.4byte	.LFB50
 13045 03b4 5C000000 		.4byte	.LFE50
 13046 03b8 00000000 		.4byte	.LFB60
 13047 03bc A4000000 		.4byte	.LFE60
 13048 03c0 00000000 		.4byte	.LFB64
 13049 03c4 28000000 		.4byte	.LFE64
 13050 03c8 00000000 		.4byte	.LFB66
 13051 03cc 3C020000 		.4byte	.LFE66
 13052 03d0 00000000 		.4byte	.LFB56
 13053 03d4 16000000 		.4byte	.LFE56
 13054 03d8 00000000 		.4byte	.LFB67
 13055 03dc 3C000000 		.4byte	.LFE67
 13056 03e0 00000000 		.4byte	0
 13057 03e4 00000000 		.4byte	0
 13058              		.section	.debug_line,"",%progbits
 13059              	.Ldebug_line0:
 13060 0000 2C090000 		.section	.debug_str,"MS",%progbits,1
 13060      02005201 
 13060      00000201 
 13060      FB0E0D00 
 13060      01010101 
 13061              	.LASF184:
 13062 0000 715F696E 		.ascii	"q_intr\000"
 13062      747200
 13063              	.LASF253:
 13064 0007 75736563 		.ascii	"usec0\000"
 13064      3000
 13065              	.LASF223:
 13066 000d 636F756E 		.ascii	"counter\000"
 13066      74657200 
 13067              	.LASF183:
 13068 0015 715F6A6F 		.ascii	"q_join\000"
 13068      696E00
 13069              	.LASF169:
 13070 001c 636F6E64 		.ascii	"cond\000"
 13070      00
 13071              	.LASF46:
 13072 0021 5F6F6E5F 		.ascii	"_on_exit_args\000"
 13072      65786974 
 13072      5F617267 
 13072      7300
 13073              	.LASF222:
 13074 002f 70645F61 		.ascii	"pd_array\000"
 13074      72726179 
 13074      00
 13075              	.LASF113:
 13076 0038 5F776374 		.ascii	"_wctomb_state\000"
 13076      6F6D625F 
 13076      73746174 
 13076      6500
 13077              	.LASF287:
 13078 0046 6368785F 		.ascii	"chx_disable_intr\000"
 13078      64697361 
 13078      626C655F 
 13078      696E7472 
ARM GAS  /tmp/ccYjC7Ok.s 			page 231


 13078      00
 13079              	.LASF135:
 13080 0057 666C6167 		.ascii	"flag_is_proxy\000"
 13080      5F69735F 
 13080      70726F78 
 13080      7900
 13081              	.LASF110:
 13082 0065 5F723438 		.ascii	"_r48\000"
 13082      00
 13083              	.LASF115:
 13084 006a 5F736967 		.ascii	"_signal_buf\000"
 13084      6E616C5F 
 13084      62756600 
 13085              	.LASF12:
 13086 0076 756E7369 		.ascii	"unsigned int\000"
 13086      676E6564 
 13086      20696E74 
 13086      00
 13087              	.LASF309:
 13088 0083 2E2E2F63 		.ascii	"../chopstx/chopstx.c\000"
 13088      686F7073 
 13088      74782F63 
 13088      686F7073 
 13088      74782E63 
 13089              	.LASF132:
 13090 0098 6E657874 		.ascii	"next\000"
 13090      00
 13091              	.LASF300:
 13092 009d 6C6C5F69 		.ascii	"ll_insert\000"
 13092      6E736572 
 13092      7400
 13093              	.LASF274:
 13094 00a7 6368785F 		.ascii	"chx_set_timer\000"
 13094      7365745F 
 13094      74696D65 
 13094      7200
 13095              	.LASF275:
 13096 00b5 6F726967 		.ascii	"orig_r0\000"
 13096      5F723000 
 13097              	.LASF60:
 13098 00bd 5F6C6266 		.ascii	"_lbfsize\000"
 13098      73697A65 
 13098      00
 13099              	.LASF58:
 13100 00c6 5F666C61 		.ascii	"_flags\000"
 13100      677300
 13101              	.LASF221:
 13102 00cd 75736563 		.ascii	"usec_p\000"
 13102      5F7000
 13103              	.LASF75:
 13104 00d4 5F657272 		.ascii	"_errno\000"
 13104      6E6F00
 13105              	.LASF190:
 13106 00db 54485245 		.ascii	"THREAD_READY\000"
 13106      41445F52 
 13106      45414459 
 13106      00
ARM GAS  /tmp/ccYjC7Ok.s 			page 232


 13107              	.LASF182:
 13108 00e8 715F7469 		.ascii	"q_timer\000"
 13108      6D657200 
 13109              	.LASF171:
 13110 00f0 63686563 		.ascii	"check\000"
 13110      6B00
 13111              	.LASF199:
 13112 00f6 53595354 		.ascii	"SYST_CSR\000"
 13112      5F435352 
 13112      00
 13113              	.LASF262:
 13114 00ff 72657175 		.ascii	"requeue\000"
 13114      65756500 
 13115              	.LASF72:
 13116 0107 5F6D6273 		.ascii	"_mbstate\000"
 13116      74617465 
 13116      00
 13117              	.LASF305:
 13118 0110 6368785F 		.ascii	"chx_spin_init\000"
 13118      7370696E 
 13118      5F696E69 
 13118      7400
 13119              	.LASF252:
 13120 011e 63686F70 		.ascii	"chopstx_usec_wait_var\000"
 13120      7374785F 
 13120      75736563 
 13120      5F776169 
 13120      745F7661 
 13121              	.LASF218:
 13122 0134 63686F70 		.ascii	"chopstx_setpriority\000"
 13122      7374785F 
 13122      73657470 
 13122      72696F72 
 13122      69747900 
 13123              	.LASF62:
 13124 0148 5F726561 		.ascii	"_read\000"
 13124      6400
 13125              	.LASF117:
 13126 014e 5F6D6272 		.ascii	"_mbrlen_state\000"
 13126      6C656E5F 
 13126      73746174 
 13126      6500
 13127              	.LASF174:
 13128 015c 6972715F 		.ascii	"irq_num\000"
 13128      6E756D00 
 13129              	.LASF133:
 13130 0164 70726576 		.ascii	"prev\000"
 13130      00
 13131              	.LASF256:
 13132 0169 73746163 		.ascii	"stack_addr\000"
 13132      6B5F6164 
 13132      647200
 13133              	.LASF307:
 13134 0174 6572725F 		.ascii	"err_code\000"
 13134      636F6465 
 13134      00
 13135              	.LASF160:
ARM GAS  /tmp/ccYjC7Ok.s 			page 233


 13136 017d 6368785F 		.ascii	"chx_cleanup\000"
 13136      636C6561 
 13136      6E757000 
 13137              	.LASF77:
 13138 0189 5F737464 		.ascii	"_stdout\000"
 13138      6F757400 
 13139              	.LASF158:
 13140 0191 43484F50 		.ascii	"CHOPSTX_ERR_THREAD_CREATE\000"
 13140      5354585F 
 13140      4552525F 
 13140      54485245 
 13140      41445F43 
 13141              	.LASF21:
 13142 01ab 5F66706F 		.ascii	"_fpos_t\000"
 13142      735F7400 
 13143              	.LASF53:
 13144 01b3 5F666E73 		.ascii	"_fns\000"
 13144      00
 13145              	.LASF61:
 13146 01b8 5F636F6F 		.ascii	"_cookie\000"
 13146      6B696500 
 13147              	.LASF35:
 13148 01c0 5F426967 		.ascii	"_Bigint\000"
 13148      696E7400 
 13149              	.LASF43:
 13150 01c8 5F5F746D 		.ascii	"__tm_wday\000"
 13150      5F776461 
 13150      7900
 13151              	.LASF289:
 13152 01d2 6368785F 		.ascii	"chx_enable_intr\000"
 13152      656E6162 
 13152      6C655F69 
 13152      6E747200 
 13153              	.LASF85:
 13154 01e2 5F726573 		.ascii	"_result\000"
 13154      756C7400 
 13155              	.LASF310:
 13156 01ea 2F686F6D 		.ascii	"/home/jshuo/u2f-token/src\000"
 13156      652F6A73 
 13156      68756F2F 
 13156      7532662D 
 13156      746F6B65 
 13157              	.LASF219:
 13158 0204 63686F70 		.ascii	"chopstx_poll\000"
 13158      7374785F 
 13158      706F6C6C 
 13158      00
 13159              	.LASF15:
 13160 0211 75696E74 		.ascii	"uint32_t\000"
 13160      33325F74 
 13160      00
 13161              	.LASF39:
 13162 021a 5F5F746D 		.ascii	"__tm_hour\000"
 13162      5F686F75 
 13162      7200
 13163              	.LASF153:
 13164 0224 6D757465 		.ascii	"mutex_list\000"
ARM GAS  /tmp/ccYjC7Ok.s 			page 234


 13164      785F6C69 
 13164      737400
 13165              	.LASF25:
 13166 022f 5F5F636F 		.ascii	"__count\000"
 13166      756E7400 
 13167              	.LASF157:
 13168 0237 43484F50 		.ascii	"CHOPSTX_ERR_NONE\000"
 13168      5354585F 
 13168      4552525F 
 13168      4E4F4E45 
 13168      00
 13169              	.LASF170:
 13170 0248 6D757465 		.ascii	"mutex\000"
 13170      7800
 13171              	.LASF229:
 13172 024e 63686F70 		.ascii	"chopstx_cancel\000"
 13172      7374785F 
 13172      63616E63 
 13172      656C00
 13173              	.LASF291:
 13174 025d 6368785F 		.ascii	"chx_systick_reload\000"
 13174      73797374 
 13174      69636B5F 
 13174      72656C6F 
 13174      616400
 13175              	.LASF38:
 13176 0270 5F5F746D 		.ascii	"__tm_min\000"
 13176      5F6D696E 
 13176      00
 13177              	.LASF128:
 13178 0279 5F696D70 		.ascii	"_impure_ptr\000"
 13178      7572655F 
 13178      70747200 
 13179              	.LASF150:
 13180 0285 666C6167 		.ascii	"flag_sched_rr\000"
 13180      5F736368 
 13180      65645F72 
 13180      7200
 13181              	.LASF123:
 13182 0293 5F6E6578 		.ascii	"_nextf\000"
 13182      746600
 13183              	.LASF233:
 13184 029a 63686F70 		.ascii	"chopstx_exit\000"
 13184      7374785F 
 13184      65786974 
 13184      00
 13185              	.LASF312:
 13186 02a7 63686F70 		.ascii	"chopstx_cleanup_pop\000"
 13186      7374785F 
 13186      636C6561 
 13186      6E75705F 
 13186      706F7000 
 13187              	.LASF302:
 13188 02bb 6C6C5F65 		.ascii	"ll_empty\000"
 13188      6D707479 
 13188      00
 13189              	.LASF100:
ARM GAS  /tmp/ccYjC7Ok.s 			page 235


 13190 02c4 5F72616E 		.ascii	"_rand48\000"
 13190      64343800 
 13191              	.LASF86:
 13192 02cc 5F726573 		.ascii	"_result_k\000"
 13192      756C745F 
 13192      6B00
 13193              	.LASF10:
 13194 02d6 6C6F6E67 		.ascii	"long long unsigned int\000"
 13194      206C6F6E 
 13194      6720756E 
 13194      7369676E 
 13194      65642069 
 13195              	.LASF106:
 13196 02ed 5F617363 		.ascii	"_asctime_buf\000"
 13196      74696D65 
 13196      5F627566 
 13196      00
 13197              	.LASF57:
 13198 02fa 5F5F7346 		.ascii	"__sFILE\000"
 13198      494C4500 
 13199              	.LASF34:
 13200 0302 5F776473 		.ascii	"_wds\000"
 13200      00
 13201              	.LASF200:
 13202 0307 53595354 		.ascii	"SYST_RVR\000"
 13202      5F525652 
 13202      00
 13203              	.LASF4:
 13204 0310 5F5F7569 		.ascii	"__uint16_t\000"
 13204      6E743136 
 13204      5F7400
 13205              	.LASF261:
 13206 031b 6E657770 		.ascii	"newprio\000"
 13206      72696F00 
 13207              	.LASF272:
 13208 0323 6368785F 		.ascii	"chx_timer_insert\000"
 13208      74696D65 
 13208      725F696E 
 13208      73657274 
 13208      00
 13209              	.LASF96:
 13210 0334 5F5F4649 		.ascii	"__FILE\000"
 13210      4C4500
 13211              	.LASF69:
 13212 033b 5F6F6666 		.ascii	"_offset\000"
 13212      73657400 
 13213              	.LASF254:
 13214 0343 63686F70 		.ascii	"chopstx_create\000"
 13214      7374785F 
 13214      63726561 
 13214      746500
 13215              	.LASF143:
 13216 0352 6F776E65 		.ascii	"owner\000"
 13216      7200
 13217              	.LASF80:
 13218 0358 5F656D65 		.ascii	"_emergency\000"
 13218      7267656E 
ARM GAS  /tmp/ccYjC7Ok.s 			page 236


 13218      637900
 13219              	.LASF251:
 13220 0363 75736563 		.ascii	"usec\000"
 13220      00
 13221              	.LASF316:
 13222 0368 5F5F6275 		.ascii	"__builtin_memset\000"
 13222      696C7469 
 13222      6E5F6D65 
 13222      6D736574 
 13222      00
 13223              	.LASF308:
 13224 0379 474E5520 		.ascii	"GNU C11 7.3.1 20180622 (release) [ARM/embedded-7-br"
 13224      43313120 
 13224      372E332E 
 13224      31203230 
 13224      31383036 
 13225 03ac 616E6368 		.ascii	"anch revision 261907] -mcpu=cortex-m3 -mthumb -mno-"
 13225      20726576 
 13225      6973696F 
 13225      6E203236 
 13225      31393037 
 13226 03df 7468756D 		.ascii	"thumb-interwork -g -O3 -Os -ffunction-sections -fda"
 13226      622D696E 
 13226      74657277 
 13226      6F726B20 
 13226      2D67202D 
 13227 0412 74612D73 		.ascii	"ta-sections -fno-common\000"
 13227      65637469 
 13227      6F6E7320 
 13227      2D666E6F 
 13227      2D636F6D 
 13228              	.LASF303:
 13229 042a 6368785F 		.ascii	"chx_spin_unlock\000"
 13229      7370696E 
 13229      5F756E6C 
 13229      6F636B00 
 13230              	.LASF201:
 13231 043a 53595354 		.ascii	"SYST_CVR\000"
 13231      5F435652 
 13231      00
 13232              	.LASF17:
 13233 0443 73697A65 		.ascii	"size_t\000"
 13233      5F7400
 13234              	.LASF226:
 13235 044a 63616E63 		.ascii	"cancel_disable\000"
 13235      656C5F64 
 13235      69736162 
 13235      6C6500
 13236              	.LASF304:
 13237 0459 6368785F 		.ascii	"chx_spin_lock\000"
 13237      7370696E 
 13237      5F6C6F63 
 13237      6B00
 13238              	.LASF37:
 13239 0467 5F5F746D 		.ascii	"__tm_sec\000"
 13239      5F736563 
 13239      00
ARM GAS  /tmp/ccYjC7Ok.s 			page 237


 13240              	.LASF175:
 13241 0470 63686F70 		.ascii	"chopstx_intr_t\000"
 13241      7374785F 
 13241      696E7472 
 13241      5F7400
 13242              	.LASF130:
 13243 047f 7375626F 		.ascii	"suboptarg\000"
 13243      70746172 
 13243      6700
 13244              	.LASF44:
 13245 0489 5F5F746D 		.ascii	"__tm_yday\000"
 13245      5F796461 
 13245      7900
 13246              	.LASF79:
 13247 0493 5F696E63 		.ascii	"_inc\000"
 13247      00
 13248              	.LASF52:
 13249 0498 5F696E64 		.ascii	"_ind\000"
 13249      00
 13250              	.LASF240:
 13251 049d 63686F70 		.ascii	"chopstx_claim_irq\000"
 13251      7374785F 
 13251      636C6169 
 13251      6D5F6972 
 13251      7100
 13252              	.LASF258:
 13253 04af 74687265 		.ascii	"thread_entry\000"
 13253      61645F65 
 13253      6E747279 
 13253      00
 13254              	.LASF154:
 13255 04bc 63686F70 		.ascii	"chopstx_mutex_t\000"
 13255      7374785F 
 13255      6D757465 
 13255      785F7400 
 13256              	.LASF161:
 13257 04cc 726F7574 		.ascii	"routine\000"
 13257      696E6500 
 13258              	.LASF156:
 13259 04d4 63686F70 		.ascii	"chopstx_cond_t\000"
 13259      7374785F 
 13259      636F6E64 
 13259      5F7400
 13260              	.LASF31:
 13261 04e3 5F6E6578 		.ascii	"_next\000"
 13261      7400
 13262              	.LASF314:
 13263 04e9 6368785F 		.ascii	"chx_systick_get\000"
 13263      73797374 
 13263      69636B5F 
 13263      67657400 
 13264              	.LASF119:
 13265 04f9 5F6D6273 		.ascii	"_mbsrtowcs_state\000"
 13265      72746F77 
 13265      63735F73 
 13265      74617465 
 13265      00
ARM GAS  /tmp/ccYjC7Ok.s 			page 238


 13266              	.LASF178:
 13267 050a 74636F6E 		.ascii	"tcontext_t\000"
 13267      74657874 
 13267      5F7400
 13268              	.LASF277:
 13269 0515 63686F70 		.ascii	"chopstx_create_arch\000"
 13269      7374785F 
 13269      63726561 
 13269      74655F61 
 13269      72636800 
 13270              	.LASF297:
 13271 0529 6C6C5F70 		.ascii	"ll_prio_enqueue\000"
 13271      72696F5F 
 13271      656E7175 
 13271      65756500 
 13272              	.LASF26:
 13273 0539 5F5F7661 		.ascii	"__value\000"
 13273      6C756500 
 13274              	.LASF237:
 13275 0541 63686F70 		.ascii	"chopstx_cleanup_push\000"
 13275      7374785F 
 13275      636C6561 
 13275      6E75705F 
 13275      70757368 
 13276              	.LASF87:
 13277 0556 5F703573 		.ascii	"_p5s\000"
 13277      00
 13278              	.LASF273:
 13279 055b 7469636B 		.ascii	"ticks\000"
 13279      7300
 13280              	.LASF188:
 13281 0561 72656164 		.ascii	"ready_p\000"
 13281      795F7000 
 13282              	.LASF136:
 13283 0569 7072696F 		.ascii	"prio\000"
 13283      00
 13284              	.LASF255:
 13285 056e 666C6167 		.ascii	"flags_and_prio\000"
 13285      735F616E 
 13285      645F7072 
 13285      696F00
 13286              	.LASF121:
 13287 057d 5F776373 		.ascii	"_wcsrtombs_state\000"
 13287      72746F6D 
 13287      62735F73 
 13287      74617465 
 13287      00
 13288              	.LASF111:
 13289 058e 5F6D626C 		.ascii	"_mblen_state\000"
 13289      656E5F73 
 13289      74617465 
 13289      00
 13290              	.LASF295:
 13291 059b 6368785F 		.ascii	"chx_ready_push\000"
 13291      72656164 
 13291      795F7075 
 13291      736800
ARM GAS  /tmp/ccYjC7Ok.s 			page 239


 13292              	.LASF269:
 13293 05aa 74705F6E 		.ascii	"tp_next\000"
 13293      65787400 
 13294              	.LASF145:
 13295 05b2 6368785F 		.ascii	"chx_thread\000"
 13295      74687265 
 13295      616400
 13296              	.LASF29:
 13297 05bd 63686172 		.ascii	"char\000"
 13297      00
 13298              	.LASF40:
 13299 05c2 5F5F746D 		.ascii	"__tm_mday\000"
 13299      5F6D6461 
 13299      7900
 13300              	.LASF93:
 13301 05cc 5F736967 		.ascii	"_sig_func\000"
 13301      5F66756E 
 13301      6300
 13302              	.LASF118:
 13303 05d6 5F6D6272 		.ascii	"_mbrtowc_state\000"
 13303      746F7763 
 13303      5F737461 
 13303      746500
 13304              	.LASF92:
 13305 05e5 5F617465 		.ascii	"_atexit0\000"
 13305      78697430 
 13305      00
 13306              	.LASF203:
 13307 05ee 49534552 		.ascii	"ISER\000"
 13307      00
 13308              	.LASF214:
 13309 05f3 41495243 		.ascii	"AIRCR\000"
 13309      5200
 13310              	.LASF267:
 13311 05f9 6368785F 		.ascii	"chx_timer_expired\000"
 13311      74696D65 
 13311      725F6578 
 13311      70697265 
 13311      6400
 13312              	.LASF217:
 13313 060b 7072696F 		.ascii	"prio_cur\000"
 13313      5F637572 
 13313      00
 13314              	.LASF247:
 13315 0614 63686F70 		.ascii	"chopstx_mutex_unlock\000"
 13315      7374785F 
 13315      6D757465 
 13315      785F756E 
 13315      6C6F636B 
 13316              	.LASF293:
 13317 0629 6368785F 		.ascii	"chx_systick_reset\000"
 13317      73797374 
 13317      69636B5F 
 13317      72657365 
 13317      7400
 13318              	.LASF244:
 13319 063b 63686F70 		.ascii	"chopstx_cond_signal\000"
ARM GAS  /tmp/ccYjC7Ok.s 			page 240


 13319      7374785F 
 13319      636F6E64 
 13319      5F736967 
 13319      6E616C00 
 13320              	.LASF230:
 13321 064f 6368785F 		.ascii	"chx_proxy_init\000"
 13321      70726F78 
 13321      795F696E 
 13321      697400
 13322              	.LASF28:
 13323 065e 5F666C6F 		.ascii	"_flock_t\000"
 13323      636B5F74 
 13323      00
 13324              	.LASF265:
 13325 0667 6368785F 		.ascii	"chx_init\000"
 13325      696E6974 
 13325      00
 13326              	.LASF155:
 13327 0670 6368785F 		.ascii	"chx_cond\000"
 13327      636F6E64 
 13327      00
 13328              	.LASF23:
 13329 0679 5F5F7763 		.ascii	"__wch\000"
 13329      6800
 13330              	.LASF99:
 13331 067f 5F696F62 		.ascii	"_iobs\000"
 13331      7300
 13332              	.LASF13:
 13333 0685 75696E74 		.ascii	"uint8_t\000"
 13333      385F7400 
 13334              	.LASF193:
 13335 068d 54485245 		.ascii	"THREAD_WAIT_TIME\000"
 13335      41445F57 
 13335      4149545F 
 13335      54494D45 
 13335      00
 13336              	.LASF65:
 13337 069e 5F636C6F 		.ascii	"_close\000"
 13337      736500
 13338              	.LASF195:
 13339 06a5 54485245 		.ascii	"THREAD_WAIT_POLL\000"
 13339      41445F57 
 13339      4149545F 
 13339      504F4C4C 
 13339      00
 13340              	.LASF83:
 13341 06b6 5F5F7364 		.ascii	"__sdidinit\000"
 13341      6964696E 
 13341      697400
 13342              	.LASF270:
 13343 06c1 74705F70 		.ascii	"tp_prev\000"
 13343      72657600 
 13344              	.LASF236:
 13345 06c9 65786563 		.ascii	"execute\000"
 13345      75746500 
 13346              	.LASF234:
 13347 06d1 72657476 		.ascii	"retval\000"
ARM GAS  /tmp/ccYjC7Ok.s 			page 241


 13347      616C00
 13348              	.LASF284:
 13349 06d8 6368785F 		.ascii	"chx_cpu_sched_unlock\000"
 13349      6370755F 
 13349      73636865 
 13349      645F756E 
 13349      6C6F636B 
 13350              	.LASF76:
 13351 06ed 5F737464 		.ascii	"_stdin\000"
 13351      696E00
 13352              	.LASF108:
 13353 06f4 5F67616D 		.ascii	"_gamma_signgam\000"
 13353      6D615F73 
 13353      69676E67 
 13353      616D00
 13354              	.LASF9:
 13355 0703 6C6F6E67 		.ascii	"long long int\000"
 13355      206C6F6E 
 13355      6720696E 
 13355      7400
 13356              	.LASF243:
 13357 0711 7969656C 		.ascii	"yield\000"
 13357      6400
 13358              	.LASF224:
 13359 0717 696E7472 		.ascii	"intr\000"
 13359      00
 13360              	.LASF55:
 13361 071c 5F626173 		.ascii	"_base\000"
 13361      6500
 13362              	.LASF142:
 13363 0722 6C6F636B 		.ascii	"lock\000"
 13363      00
 13364              	.LASF88:
 13365 0727 5F667265 		.ascii	"_freelist\000"
 13365      656C6973 
 13365      7400
 13366              	.LASF102:
 13367 0731 5F6D756C 		.ascii	"_mult\000"
 13367      7400
 13368              	.LASF30:
 13369 0737 5F5F554C 		.ascii	"__ULong\000"
 13369      6F6E6700 
 13370              	.LASF242:
 13371 073f 63686F70 		.ascii	"chopstx_cond_broadcast\000"
 13371      7374785F 
 13371      636F6E64 
 13371      5F62726F 
 13371      61646361 
 13372              	.LASF120:
 13373 0756 5F776372 		.ascii	"_wcrtomb_state\000"
 13373      746F6D62 
 13373      5F737461 
 13373      746500
 13374              	.LASF176:
 13375 0765 766F6964 		.ascii	"voidfunc\000"
 13375      66756E63 
 13375      00
ARM GAS  /tmp/ccYjC7Ok.s 			page 242


 13376              	.LASF59:
 13377 076e 5F66696C 		.ascii	"_file\000"
 13377      6500
 13378              	.LASF204:
 13379 0774 756E7573 		.ascii	"unused1\000"
 13379      65643100 
 13380              	.LASF206:
 13381 077c 756E7573 		.ascii	"unused2\000"
 13381      65643200 
 13382              	.LASF208:
 13383 0784 756E7573 		.ascii	"unused3\000"
 13383      65643300 
 13384              	.LASF210:
 13385 078c 756E7573 		.ascii	"unused4\000"
 13385      65643400 
 13386              	.LASF212:
 13387 0794 756E7573 		.ascii	"unused5\000"
 13387      65643500 
 13388              	.LASF202:
 13389 079c 4E564943 		.ascii	"NVIC\000"
 13389      00
 13390              	.LASF167:
 13391 07a1 72656164 		.ascii	"ready\000"
 13391      7900
 13392              	.LASF259:
 13393 07a7 6368785F 		.ascii	"chx_snooze\000"
 13393      736E6F6F 
 13393      7A6500
 13394              	.LASF232:
 13395 07b2 63686F70 		.ascii	"chopstx_join\000"
 13395      7374785F 
 13395      6A6F696E 
 13395      00
 13396              	.LASF306:
 13397 07bf 6368785F 		.ascii	"chx_fatal\000"
 13397      66617461 
 13397      6C00
 13398              	.LASF315:
 13399 07c9 6D656D73 		.ascii	"memset\000"
 13399      657400
 13400              	.LASF84:
 13401 07d0 5F5F636C 		.ascii	"__cleanup\000"
 13401      65616E75 
 13401      7000
 13402              	.LASF27:
 13403 07da 5F6D6273 		.ascii	"_mbstate_t\000"
 13403      74617465 
 13403      5F7400
 13404              	.LASF231:
 13405 07e5 6368785F 		.ascii	"chx_join_hook\000"
 13405      6A6F696E 
 13405      5F686F6F 
 13405      6B00
 13406              	.LASF134:
 13407 07f3 6368785F 		.ascii	"chx_pq\000"
 13407      707100
 13408              	.LASF185:
ARM GAS  /tmp/ccYjC7Ok.s 			page 243


 13409 07fa 6368785F 		.ascii	"chx_px\000"
 13409      707800
 13410              	.LASF45:
 13411 0801 5F5F746D 		.ascii	"__tm_isdst\000"
 13411      5F697364 
 13411      737400
 13412              	.LASF141:
 13413 080c 6368785F 		.ascii	"chx_mtx\000"
 13413      6D747800 
 13414              	.LASF197:
 13415 0814 54485245 		.ascii	"THREAD_FINISHED\000"
 13415      41445F46 
 13415      494E4953 
 13415      48454400 
 13416              	.LASF281:
 13417 0824 6368785F 		.ascii	"chx_init_arch\000"
 13417      696E6974 
 13417      5F617263 
 13417      6800
 13418              	.LASF159:
 13419 0832 43484F50 		.ascii	"CHOPSTX_ERR_JOIN\000"
 13419      5354585F 
 13419      4552525F 
 13419      4A4F494E 
 13419      00
 13420              	.LASF122:
 13421 0843 5F685F65 		.ascii	"_h_errno\000"
 13421      72726E6F 
 13421      00
 13422              	.LASF209:
 13423 084c 49435052 		.ascii	"ICPR\000"
 13423      00
 13424              	.LASF311:
 13425 0851 6368785F 		.ascii	"chx_spinlock\000"
 13425      7370696E 
 13425      6C6F636B 
 13425      00
 13426              	.LASF239:
 13427 085e 6368785F 		.ascii	"chx_intr_hook\000"
 13427      696E7472 
 13427      5F686F6F 
 13427      6B00
 13428              	.LASF241:
 13429 086c 6368785F 		.ascii	"chx_cond_hook\000"
 13429      636F6E64 
 13429      5F686F6F 
 13429      6B00
 13430              	.LASF41:
 13431 087a 5F5F746D 		.ascii	"__tm_mon\000"
 13431      5F6D6F6E 
 13431      00
 13432              	.LASF172:
 13433 0883 6368785F 		.ascii	"chx_poll_join\000"
 13433      706F6C6C 
 13433      5F6A6F69 
 13433      6E00
 13434              	.LASF271:
ARM GAS  /tmp/ccYjC7Ok.s 			page 244


 13435 0891 6E657874 		.ascii	"next_ticks\000"
 13435      5F746963 
 13435      6B7300
 13436              	.LASF18:
 13437 089c 6C6F6E67 		.ascii	"long double\000"
 13437      20646F75 
 13437      626C6500 
 13438              	.LASF19:
 13439 08a8 5F4C4F43 		.ascii	"_LOCK_T\000"
 13439      4B5F5400 
 13440              	.LASF14:
 13441 08b0 75696E74 		.ascii	"uint16_t\000"
 13441      31365F74 
 13441      00
 13442              	.LASF63:
 13443 08b9 5F777269 		.ascii	"_write\000"
 13443      746500
 13444              	.LASF288:
 13445 08c0 6368785F 		.ascii	"chx_clr_intr\000"
 13445      636C725F 
 13445      696E7472 
 13445      00
 13446              	.LASF177:
 13447 08cd 74636F6E 		.ascii	"tcontext\000"
 13447      74657874 
 13447      00
 13448              	.LASF268:
 13449 08d6 6E657874 		.ascii	"next_tick\000"
 13449      5F746963 
 13449      6B00
 13450              	.LASF152:
 13451 08e0 7072696F 		.ascii	"prio_orig\000"
 13451      5F6F7269 
 13451      6700
 13452              	.LASF11:
 13453 08ea 5F5F7569 		.ascii	"__uintptr_t\000"
 13453      6E747074 
 13453      725F7400 
 13454              	.LASF51:
 13455 08f6 5F617465 		.ascii	"_atexit\000"
 13455      78697400 
 13456              	.LASF279:
 13457 08fe 6368785F 		.ascii	"chx_sched\000"
 13457      73636865 
 13457      6400
 13458              	.LASF151:
 13459 0908 666C6167 		.ascii	"flag_cancelable\000"
 13459      5F63616E 
 13459      63656C61 
 13459      626C6500 
 13460              	.LASF139:
 13461 0918 63686F70 		.ascii	"chopstx_prio_t\000"
 13461      7374785F 
 13461      7072696F 
 13461      5F7400
 13462              	.LASF280:
 13463 0927 6368785F 		.ascii	"chx_request_preemption\000"
ARM GAS  /tmp/ccYjC7Ok.s 			page 245


 13463      72657175 
 13463      6573745F 
 13463      70726565 
 13463      6D707469 
 13464              	.LASF248:
 13465 093e 63686F70 		.ascii	"chopstx_mutex_lock\000"
 13465      7374785F 
 13465      6D757465 
 13465      785F6C6F 
 13465      636B00
 13466              	.LASF137:
 13467 0951 70617265 		.ascii	"parent\000"
 13467      6E7400
 13468              	.LASF2:
 13469 0958 73686F72 		.ascii	"short int\000"
 13469      7420696E 
 13469      7400
 13470              	.LASF181:
 13471 0962 715F7265 		.ascii	"q_ready\000"
 13471      61647900 
 13472              	.LASF245:
 13473 096a 63686F70 		.ascii	"chopstx_cond_wait\000"
 13473      7374785F 
 13473      636F6E64 
 13473      5F776169 
 13473      7400
 13474              	.LASF138:
 13475 097c 63686F70 		.ascii	"chopstx_t\000"
 13475      7374785F 
 13475      7400
 13476              	.LASF6:
 13477 0986 6C6F6E67 		.ascii	"long int\000"
 13477      20696E74 
 13477      00
 13478              	.LASF148:
 13479 098f 666C6167 		.ascii	"flag_got_cancel\000"
 13479      5F676F74 
 13479      5F63616E 
 13479      63656C00 
 13480              	.LASF147:
 13481 099f 666C6167 		.ascii	"flag_detached\000"
 13481      5F646574 
 13481      61636865 
 13481      6400
 13482              	.LASF266:
 13483 09ad 6368785F 		.ascii	"chx_systick_init\000"
 13483      73797374 
 13483      69636B5F 
 13483      696E6974 
 13483      00
 13484              	.LASF95:
 13485 09be 5F5F7366 		.ascii	"__sf\000"
 13485      00
 13486              	.LASF33:
 13487 09c3 5F736967 		.ascii	"_sign\000"
 13487      6E00
 13488              	.LASF180:
ARM GAS  /tmp/ccYjC7Ok.s 			page 246


 13489 09c9 6368785F 		.ascii	"chx_queue\000"
 13489      71756575 
 13489      6500
 13490              	.LASF140:
 13491 09d3 63686F70 		.ascii	"chopstx_main\000"
 13491      7374785F 
 13491      6D61696E 
 13491      00
 13492              	.LASF70:
 13493 09e0 5F646174 		.ascii	"_data\000"
 13493      6100
 13494              	.LASF24:
 13495 09e6 5F5F7763 		.ascii	"__wchb\000"
 13495      686200
 13496              	.LASF129:
 13497 09ed 5F676C6F 		.ascii	"_global_impure_ptr\000"
 13497      62616C5F 
 13497      696D7075 
 13497      72655F70 
 13497      747200
 13498              	.LASF163:
 13499 0a00 43484F50 		.ascii	"CHOPSTX_POLL_INTR\000"
 13499      5354585F 
 13499      504F4C4C 
 13499      5F494E54 
 13499      5200
 13500              	.LASF191:
 13501 0a12 54485245 		.ascii	"THREAD_WAIT_MTX\000"
 13501      41445F57 
 13501      4149545F 
 13501      4D545800 
 13502              	.LASF42:
 13503 0a22 5F5F746D 		.ascii	"__tm_year\000"
 13503      5F796561 
 13503      7200
 13504              	.LASF215:
 13505 0a2c 53485052 		.ascii	"SHPR2\000"
 13505      3200
 13506              	.LASF216:
 13507 0a32 53485052 		.ascii	"SHPR3\000"
 13507      3300
 13508              	.LASF220:
 13509 0a38 7072696F 		.ascii	"prio_new\000"
 13509      5F6E6577 
 13509      00
 13510              	.LASF294:
 13511 0a41 6368785F 		.ascii	"chx_ready_enqueue\000"
 13511      72656164 
 13511      795F656E 
 13511      71756575 
 13511      6500
 13512              	.LASF107:
 13513 0a53 5F6C6F63 		.ascii	"_localtime_buf\000"
 13513      616C7469 
 13513      6D655F62 
 13513      756600
 13514              	.LASF125:
ARM GAS  /tmp/ccYjC7Ok.s 			page 247


 13515 0a62 5F756E75 		.ascii	"_unused\000"
 13515      73656400 
 13516              	.LASF3:
 13517 0a6a 5F5F7569 		.ascii	"__uint8_t\000"
 13517      6E74385F 
 13517      7400
 13518              	.LASF91:
 13519 0a74 5F6E6577 		.ascii	"_new\000"
 13519      00
 13520              	.LASF89:
 13521 0a79 5F637674 		.ascii	"_cvtlen\000"
 13521      6C656E00 
 13522              	.LASF32:
 13523 0a81 5F6D6178 		.ascii	"_maxwds\000"
 13523      77647300 
 13524              	.LASF114:
 13525 0a89 5F6C3634 		.ascii	"_l64a_buf\000"
 13525      615F6275 
 13525      6600
 13526              	.LASF146:
 13527 0a93 73746174 		.ascii	"state\000"
 13527      6500
 13528              	.LASF246:
 13529 0a99 63686F70 		.ascii	"chopstx_cond_init\000"
 13529      7374785F 
 13529      636F6E64 
 13529      5F696E69 
 13529      7400
 13530              	.LASF290:
 13531 0aab 75736563 		.ascii	"usec_to_ticks\000"
 13531      5F746F5F 
 13531      7469636B 
 13531      7300
 13532              	.LASF278:
 13533 0ab9 73746163 		.ascii	"stack\000"
 13533      6B00
 13534              	.LASF260:
 13535 0abf 6368785F 		.ascii	"chx_mutex_unlock\000"
 13535      6D757465 
 13535      785F756E 
 13535      6C6F636B 
 13535      00
 13536              	.LASF282:
 13537 0ad0 6368785F 		.ascii	"chx_handle_intr\000"
 13537      68616E64 
 13537      6C655F69 
 13537      6E747200 
 13538              	.LASF250:
 13539 0ae0 63686F70 		.ascii	"chopstx_usec_wait\000"
 13539      7374785F 
 13539      75736563 
 13539      5F776169 
 13539      7400
 13540              	.LASF68:
 13541 0af2 5F626C6B 		.ascii	"_blksize\000"
 13541      73697A65 
 13541      00
ARM GAS  /tmp/ccYjC7Ok.s 			page 248


 13542              	.LASF16:
 13543 0afb 75696E74 		.ascii	"uintptr_t\000"
 13543      7074725F 
 13543      7400
 13544              	.LASF36:
 13545 0b05 5F5F746D 		.ascii	"__tm\000"
 13545      00
 13546              	.LASF71:
 13547 0b0a 5F6C6F63 		.ascii	"_lock\000"
 13547      6B00
 13548              	.LASF301:
 13549 0b10 6C6C5F64 		.ascii	"ll_dequeue\000"
 13549      65717565 
 13549      756500
 13550              	.LASF298:
 13551 0b1b 6C6C5F70 		.ascii	"ll_prio_push\000"
 13551      72696F5F 
 13551      70757368 
 13551      00
 13552              	.LASF213:
 13553 0b28 49435352 		.ascii	"ICSR\000"
 13553      00
 13554              	.LASF8:
 13555 0b2d 6C6F6E67 		.ascii	"long unsigned int\000"
 13555      20756E73 
 13555      69676E65 
 13555      6420696E 
 13555      7400
 13556              	.LASF144:
 13557 0b3f 6C697374 		.ascii	"list\000"
 13557      00
 13558              	.LASF186:
 13559 0b44 6D617374 		.ascii	"master\000"
 13559      657200
 13560              	.LASF98:
 13561 0b4b 5F6E696F 		.ascii	"_niobs\000"
 13561      627300
 13562              	.LASF22:
 13563 0b52 77696E74 		.ascii	"wint_t\000"
 13563      5F7400
 13564              	.LASF228:
 13565 0b59 63686F70 		.ascii	"chopstx_testcancel\000"
 13565      7374785F 
 13565      74657374 
 13565      63616E63 
 13565      656C00
 13566              	.LASF48:
 13567 0b6c 5F64736F 		.ascii	"_dso_handle\000"
 13567      5F68616E 
 13567      646C6500 
 13568              	.LASF257:
 13569 0b78 73746163 		.ascii	"stack_size\000"
 13569      6B5F7369 
 13569      7A6500
 13570              	.LASF126:
 13571 0b83 5F5F6C6F 		.ascii	"__lock\000"
 13571      636B00
ARM GAS  /tmp/ccYjC7Ok.s 			page 249


 13572              	.LASF238:
 13573 0b8a 63686F70 		.ascii	"chopstx_intr_wait\000"
 13573      7374785F 
 13573      696E7472 
 13573      5F776169 
 13573      7400
 13574              	.LASF166:
 13575 0b9c 74797065 		.ascii	"type\000"
 13575      00
 13576              	.LASF283:
 13577 0ba1 6368785F 		.ascii	"chx_timer_dequeue\000"
 13577      74696D65 
 13577      725F6465 
 13577      71756575 
 13577      6500
 13578              	.LASF90:
 13579 0bb3 5F637674 		.ascii	"_cvtbuf\000"
 13579      62756600 
 13580              	.LASF149:
 13581 0bbb 666C6167 		.ascii	"flag_join_req\000"
 13581      5F6A6F69 
 13581      6E5F7265 
 13581      7100
 13582              	.LASF1:
 13583 0bc9 756E7369 		.ascii	"unsigned char\000"
 13583      676E6564 
 13583      20636861 
 13583      7200
 13584              	.LASF131:
 13585 0bd7 6368785F 		.ascii	"chx_qh\000"
 13585      716800
 13586              	.LASF7:
 13587 0bde 5F5F7569 		.ascii	"__uint32_t\000"
 13587      6E743332 
 13587      5F7400
 13588              	.LASF194:
 13589 0be9 54485245 		.ascii	"THREAD_WAIT_EXIT\000"
 13589      41445F57 
 13589      4149545F 
 13589      45584954 
 13589      00
 13590              	.LASF286:
 13591 0bfa 6368785F 		.ascii	"chx_set_intr_prio\000"
 13591      7365745F 
 13591      696E7472 
 13591      5F707269 
 13591      6F00
 13592              	.LASF116:
 13593 0c0c 5F676574 		.ascii	"_getdate_err\000"
 13593      64617465 
 13593      5F657272 
 13593      00
 13594              	.LASF299:
 13595 0c19 6C6C5F70 		.ascii	"ll_pop\000"
 13595      6F7000
 13596              	.LASF263:
 13597 0c20 6368785F 		.ascii	"chx_exit\000"
ARM GAS  /tmp/ccYjC7Ok.s 			page 250


 13597      65786974 
 13597      00
 13598              	.LASF103:
 13599 0c29 5F616464 		.ascii	"_add\000"
 13599      00
 13600              	.LASF225:
 13601 0c2e 63686F70 		.ascii	"chopstx_setcancelstate\000"
 13601      7374785F 
 13601      73657463 
 13601      616E6365 
 13601      6C737461 
 13602              	.LASF285:
 13603 0c45 6368785F 		.ascii	"chx_cpu_sched_lock\000"
 13603      6370755F 
 13603      73636865 
 13603      645F6C6F 
 13603      636B00
 13604              	.LASF205:
 13605 0c58 49434552 		.ascii	"ICER\000"
 13605      00
 13606              	.LASF189:
 13607 0c5d 54485245 		.ascii	"THREAD_RUNNING\000"
 13607      41445F52 
 13607      554E4E49 
 13607      4E4700
 13608              	.LASF54:
 13609 0c6c 5F5F7362 		.ascii	"__sbuf\000"
 13609      756600
 13610              	.LASF211:
 13611 0c73 49414252 		.ascii	"IABR\000"
 13611      00
 13612              	.LASF162:
 13613 0c78 43484F50 		.ascii	"CHOPSTX_POLL_COND\000"
 13613      5354585F 
 13613      504F4C4C 
 13613      5F434F4E 
 13613      4400
 13614              	.LASF97:
 13615 0c8a 5F676C75 		.ascii	"_glue\000"
 13615      6500
 13616              	.LASF196:
 13617 0c90 54485245 		.ascii	"THREAD_EXITED\000"
 13617      41445F45 
 13617      58495445 
 13617      4400
 13618              	.LASF94:
 13619 0c9e 5F5F7367 		.ascii	"__sglue\000"
 13619      6C756500 
 13620              	.LASF292:
 13621 0ca6 6368785F 		.ascii	"chx_prio_init\000"
 13621      7072696F 
 13621      5F696E69 
 13621      7400
 13622              	.LASF105:
 13623 0cb4 5F737472 		.ascii	"_strtok_last\000"
 13623      746F6B5F 
 13623      6C617374 
ARM GAS  /tmp/ccYjC7Ok.s 			page 251


 13623      00
 13624              	.LASF112:
 13625 0cc1 5F6D6274 		.ascii	"_mbtowc_state\000"
 13625      6F77635F 
 13625      73746174 
 13625      6500
 13626              	.LASF168:
 13627 0ccf 6368785F 		.ascii	"chx_poll_cond\000"
 13627      706F6C6C 
 13627      5F636F6E 
 13627      6400
 13628              	.LASF82:
 13629 0cdd 5F6C6F63 		.ascii	"_locale\000"
 13629      616C6500 
 13630              	.LASF235:
 13631 0ce5 6D5F6E65 		.ascii	"m_next\000"
 13631      787400
 13632              	.LASF47:
 13633 0cec 5F666E61 		.ascii	"_fnargs\000"
 13633      72677300 
 13634              	.LASF0:
 13635 0cf4 7369676E 		.ascii	"signed char\000"
 13635      65642063 
 13635      68617200 
 13636              	.LASF74:
 13637 0d00 5F726565 		.ascii	"_reent\000"
 13637      6E7400
 13638              	.LASF173:
 13639 0d07 6368785F 		.ascii	"chx_intr\000"
 13639      696E7472 
 13639      00
 13640              	.LASF5:
 13641 0d10 73686F72 		.ascii	"short unsigned int\000"
 13641      7420756E 
 13641      7369676E 
 13641      65642069 
 13641      6E7400
 13642              	.LASF187:
 13643 0d23 636F756E 		.ascii	"counter_p\000"
 13643      7465725F 
 13643      7000
 13644              	.LASF227:
 13645 0d2d 6F6C645F 		.ascii	"old_state\000"
 13645      73746174 
 13645      6500
 13646              	.LASF207:
 13647 0d37 49535052 		.ascii	"ISPR\000"
 13647      00
 13648              	.LASF49:
 13649 0d3c 5F666E74 		.ascii	"_fntypes\000"
 13649      79706573 
 13649      00
 13650              	.LASF249:
 13651 0d45 63686F70 		.ascii	"chopstx_mutex_init\000"
 13651      7374785F 
 13651      6D757465 
 13651      785F696E 
ARM GAS  /tmp/ccYjC7Ok.s 			page 252


 13651      697400
 13652              	.LASF192:
 13653 0d58 54485245 		.ascii	"THREAD_WAIT_CND\000"
 13653      41445F57 
 13653      4149545F 
 13653      434E4400 
 13654              	.LASF56:
 13655 0d68 5F73697A 		.ascii	"_size\000"
 13655      6500
 13656              	.LASF296:
 13657 0d6e 6368785F 		.ascii	"chx_ready_pop\000"
 13657      72656164 
 13657      795F706F 
 13657      7000
 13658              	.LASF264:
 13659 0d7c 6368785F 		.ascii	"chx_wakeup\000"
 13659      77616B65 
 13659      757000
 13660              	.LASF179:
 13661 0d87 72756E6E 		.ascii	"running\000"
 13661      696E6700 
 13662              	.LASF20:
 13663 0d8f 5F6F6666 		.ascii	"_off_t\000"
 13663      5F7400
 13664              	.LASF67:
 13665 0d96 5F6E6275 		.ascii	"_nbuf\000"
 13665      6600
 13666              	.LASF104:
 13667 0d9c 5F756E75 		.ascii	"_unused_rand\000"
 13667      7365645F 
 13667      72616E64 
 13667      00
 13668              	.LASF276:
 13669 0da9 70726565 		.ascii	"preempt\000"
 13669      6D707400 
 13670              	.LASF81:
 13671 0db1 5F756E73 		.ascii	"_unspecified_locale_info\000"
 13671      70656369 
 13671      66696564 
 13671      5F6C6F63 
 13671      616C655F 
 13672              	.LASF165:
 13673 0dca 6368785F 		.ascii	"chx_poll_head\000"
 13673      706F6C6C 
 13673      5F686561 
 13673      6400
 13674              	.LASF73:
 13675 0dd8 5F666C61 		.ascii	"_flags2\000"
 13675      67733200 
 13676              	.LASF50:
 13677 0de0 5F69735F 		.ascii	"_is_cxa\000"
 13677      63786100 
 13678              	.LASF164:
 13679 0de8 43484F50 		.ascii	"CHOPSTX_POLL_JOIN\000"
 13679      5354585F 
 13679      504F4C4C 
 13679      5F4A4F49 
ARM GAS  /tmp/ccYjC7Ok.s 			page 253


 13679      4E00
 13680              	.LASF101:
 13681 0dfa 5F736565 		.ascii	"_seed\000"
 13681      6400
 13682              	.LASF109:
 13683 0e00 5F72616E 		.ascii	"_rand_next\000"
 13683      645F6E65 
 13683      787400
 13684              	.LASF127:
 13685 0e0b 5F5F6C6F 		.ascii	"__locale_t\000"
 13685      63616C65 
 13685      5F7400
 13686              	.LASF64:
 13687 0e16 5F736565 		.ascii	"_seek\000"
 13687      6B00
 13688              	.LASF78:
 13689 0e1c 5F737464 		.ascii	"_stderr\000"
 13689      65727200 
 13690              	.LASF124:
 13691 0e24 5F6E6D61 		.ascii	"_nmalloc\000"
 13691      6C6C6F63 
 13691      00
 13692              	.LASF66:
 13693 0e2d 5F756275 		.ascii	"_ubuf\000"
 13693      6600
 13694              	.LASF198:
 13695 0e33 6368785F 		.ascii	"chx_stack_regs\000"
 13695      73746163 
 13695      6B5F7265 
 13695      677300
 13696              	.LASF313:
 13697 0e42 69646C65 		.ascii	"idle\000"
 13697      00
 13698              		.ident	"GCC: (GNU Tools for Arm Embedded Processors 7-2018-q3-update) 7.3.1 20180622 (release) [AR
ARM GAS  /tmp/ccYjC7Ok.s 			page 254


DEFINED SYMBOLS
                            *ABS*:0000000000000000 chopstx.c
     /tmp/ccYjC7Ok.s:16     .text.ll_dequeue:0000000000000000 $t
     /tmp/ccYjC7Ok.s:22     .text.ll_dequeue:0000000000000000 ll_dequeue
     /tmp/ccYjC7Ok.s:45     .text.ll_pop:0000000000000000 $t
     /tmp/ccYjC7Ok.s:51     .text.ll_pop:0000000000000000 ll_pop
     /tmp/ccYjC7Ok.s:77     .text.chx_cpu_sched_lock:0000000000000000 $t
     /tmp/ccYjC7Ok.s:83     .text.chx_cpu_sched_lock:0000000000000000 chx_cpu_sched_lock
     /tmp/ccYjC7Ok.s:115    .text.chx_cpu_sched_lock:0000000000000014 $d
     /tmp/ccYjC7Ok.s:120    .text.chx_cpu_sched_unlock:0000000000000000 $t
     /tmp/ccYjC7Ok.s:126    .text.chx_cpu_sched_unlock:0000000000000000 chx_cpu_sched_unlock
     /tmp/ccYjC7Ok.s:157    .text.chx_cpu_sched_unlock:0000000000000014 $d
     /tmp/ccYjC7Ok.s:162    .text.chx_sched:0000000000000000 $t
     /tmp/ccYjC7Ok.s:168    .text.chx_sched:0000000000000000 chx_sched
     /tmp/ccYjC7Ok.s:190    .text.ll_prio_enqueue:0000000000000000 $t
     /tmp/ccYjC7Ok.s:196    .text.ll_prio_enqueue:0000000000000000 ll_prio_enqueue
     /tmp/ccYjC7Ok.s:256    .text.chx_ready_enqueue:0000000000000000 $t
     /tmp/ccYjC7Ok.s:262    .text.chx_ready_enqueue:0000000000000000 chx_ready_enqueue
     /tmp/ccYjC7Ok.s:282    .text.chx_ready_enqueue:0000000000000010 $d
     /tmp/ccYjC7Ok.s:287    .text.chx_mutex_unlock:0000000000000000 $t
     /tmp/ccYjC7Ok.s:293    .text.chx_mutex_unlock:0000000000000000 chx_mutex_unlock
     /tmp/ccYjC7Ok.s:375    .text.chx_mutex_unlock:0000000000000040 $d
     /tmp/ccYjC7Ok.s:381    .text.requeue:0000000000000000 $t
     /tmp/ccYjC7Ok.s:387    .text.requeue:0000000000000000 requeue
     /tmp/ccYjC7Ok.s:460    .text.chx_set_timer:0000000000000000 $t
     /tmp/ccYjC7Ok.s:466    .text.chx_set_timer:0000000000000000 chx_set_timer
     /tmp/ccYjC7Ok.s:507    .text.chx_set_timer:0000000000000018 $d
     /tmp/ccYjC7Ok.s:514    .text.chx_timer_insert:0000000000000000 $t
     /tmp/ccYjC7Ok.s:520    .text.chx_timer_insert:0000000000000000 chx_timer_insert
     /tmp/ccYjC7Ok.s:665    .text.chx_timer_insert:0000000000000054 $d
     /tmp/ccYjC7Ok.s:671    .text.chx_timer_dequeue:0000000000000000 $t
     /tmp/ccYjC7Ok.s:677    .text.chx_timer_dequeue:0000000000000000 chx_timer_dequeue
     /tmp/ccYjC7Ok.s:788    .text.chx_timer_dequeue:0000000000000044 $d
     /tmp/ccYjC7Ok.s:795    .text.chx_wakeup:0000000000000000 $t
     /tmp/ccYjC7Ok.s:801    .text.chx_wakeup:0000000000000000 chx_wakeup
     /tmp/ccYjC7Ok.s:899    .text.chx_wakeup:000000000000005c $d
     /tmp/ccYjC7Ok.s:907    .text.chopstx_exit:0000000000000000 $t
     /tmp/ccYjC7Ok.s:914    .text.chopstx_exit:0000000000000000 chopstx_exit
     /tmp/ccYjC7Ok.s:1055   .text.chopstx_exit:0000000000000088 $d
     /tmp/ccYjC7Ok.s:1063   .text.chx_snooze:0000000000000000 $t
     /tmp/ccYjC7Ok.s:1069   .text.chx_snooze:0000000000000000 chx_snooze
     /tmp/ccYjC7Ok.s:1152   .text.chx_snooze:000000000000004c $d
     /tmp/ccYjC7Ok.s:1158   .text.chx_fatal:0000000000000000 $t
     /tmp/ccYjC7Ok.s:1165   .text.chx_fatal:0000000000000000 chx_fatal
     /tmp/ccYjC7Ok.s:1180   .text.idle:0000000000000000 $t
     /tmp/ccYjC7Ok.s:1186   .text.idle:0000000000000000 idle
     /tmp/ccYjC7Ok.s:1200   .text.chx_handle_intr:0000000000000000 $t
     /tmp/ccYjC7Ok.s:1207   .text.chx_handle_intr:0000000000000000 chx_handle_intr
     /tmp/ccYjC7Ok.s:1312   .text.chx_handle_intr:0000000000000058 $d
     /tmp/ccYjC7Ok.s:1320   .text.preempt:0000000000000000 $t
     /tmp/ccYjC7Ok.s:1327   .text.preempt:0000000000000000 preempt
     /tmp/ccYjC7Ok.s:3861   .bss.running:0000000000000000 running
     /tmp/ccYjC7Ok.s:1511   .text.preempt:00000000000000f4 $d
     /tmp/ccYjC7Ok.s:1521   .text.svc:0000000000000000 $t
     /tmp/ccYjC7Ok.s:1528   .text.svc:0000000000000000 svc
     /tmp/ccYjC7Ok.s:1612   .text.svc:000000000000005c $d
     /tmp/ccYjC7Ok.s:1618   .text.chx_timer_expired:0000000000000000 $t
ARM GAS  /tmp/ccYjC7Ok.s 			page 255


     /tmp/ccYjC7Ok.s:1625   .text.chx_timer_expired:0000000000000000 chx_timer_expired
     /tmp/ccYjC7Ok.s:1778   .text.chx_timer_expired:0000000000000094 $d
     /tmp/ccYjC7Ok.s:1789   .text.chx_systick_init:0000000000000000 $t
     /tmp/ccYjC7Ok.s:1796   .text.chx_systick_init:0000000000000000 chx_systick_init
     /tmp/ccYjC7Ok.s:1822   .text.chx_systick_init:0000000000000010 $d
     /tmp/ccYjC7Ok.s:1828   .text.chx_init:0000000000000000 $t
     /tmp/ccYjC7Ok.s:1835   .text.chx_init:0000000000000000 chx_init
     /tmp/ccYjC7Ok.s:1943   .text.chx_init:0000000000000070 $d
     /tmp/ccYjC7Ok.s:1956   .text.chopstx_create:0000000000000000 $t
     /tmp/ccYjC7Ok.s:1963   .text.chopstx_create:0000000000000000 chopstx_create
     /tmp/ccYjC7Ok.s:2121   .text.chopstx_create:00000000000000bc $d
     /tmp/ccYjC7Ok.s:2127   .text.chopstx_mutex_init:0000000000000000 $t
     /tmp/ccYjC7Ok.s:2134   .text.chopstx_mutex_init:0000000000000000 chopstx_mutex_init
     /tmp/ccYjC7Ok.s:2154   .text.chopstx_mutex_lock:0000000000000000 $t
     /tmp/ccYjC7Ok.s:2161   .text.chopstx_mutex_lock:0000000000000000 chopstx_mutex_lock
     /tmp/ccYjC7Ok.s:2301   .text.chopstx_mutex_lock:0000000000000088 $d
     /tmp/ccYjC7Ok.s:2307   .text.chopstx_mutex_unlock:0000000000000000 $t
     /tmp/ccYjC7Ok.s:2314   .text.chopstx_mutex_unlock:0000000000000000 chopstx_mutex_unlock
     /tmp/ccYjC7Ok.s:2361   .text.chopstx_mutex_unlock:0000000000000028 $d
     /tmp/ccYjC7Ok.s:2366   .text.chopstx_cond_init:0000000000000000 $t
     /tmp/ccYjC7Ok.s:2373   .text.chopstx_cond_init:0000000000000000 chopstx_cond_init
     /tmp/ccYjC7Ok.s:2389   .text.chopstx_cond_signal:0000000000000000 $t
     /tmp/ccYjC7Ok.s:2396   .text.chopstx_cond_signal:0000000000000000 chopstx_cond_signal
     /tmp/ccYjC7Ok.s:2445   .text.chopstx_cond_broadcast:0000000000000000 $t
     /tmp/ccYjC7Ok.s:2452   .text.chopstx_cond_broadcast:0000000000000000 chopstx_cond_broadcast
     /tmp/ccYjC7Ok.s:2520   .text.chopstx_claim_irq:0000000000000000 $t
     /tmp/ccYjC7Ok.s:2527   .text.chopstx_claim_irq:0000000000000000 chopstx_claim_irq
     /tmp/ccYjC7Ok.s:2601   .text.chopstx_claim_irq:0000000000000054 $d
     /tmp/ccYjC7Ok.s:2606   .text.chopstx_cleanup_push:0000000000000000 $t
     /tmp/ccYjC7Ok.s:2613   .text.chopstx_cleanup_push:0000000000000000 chopstx_cleanup_push
     /tmp/ccYjC7Ok.s:2633   .text.chopstx_cleanup_push:000000000000000c $d
     /tmp/ccYjC7Ok.s:2638   .text.chopstx_cleanup_pop:0000000000000000 $t
     /tmp/ccYjC7Ok.s:2645   .text.chopstx_cleanup_pop:0000000000000000 chopstx_cleanup_pop
     /tmp/ccYjC7Ok.s:2676   .text.chopstx_cleanup_pop:0000000000000018 $d
     /tmp/ccYjC7Ok.s:2681   .text.chopstx_cancel:0000000000000000 $t
     /tmp/ccYjC7Ok.s:2688   .text.chopstx_cancel:0000000000000000 chopstx_cancel
     /tmp/ccYjC7Ok.s:2794   .text.chopstx_cancel:0000000000000070 $d
     /tmp/ccYjC7Ok.s:2800   .text.chopstx_testcancel:0000000000000000 $t
     /tmp/ccYjC7Ok.s:2807   .text.chopstx_testcancel:0000000000000000 chopstx_testcancel
     /tmp/ccYjC7Ok.s:2834   .text.chopstx_testcancel:000000000000001c $d
     /tmp/ccYjC7Ok.s:2839   .text.chopstx_usec_wait:0000000000000000 $t
     /tmp/ccYjC7Ok.s:2846   .text.chopstx_usec_wait:0000000000000000 chopstx_usec_wait
     /tmp/ccYjC7Ok.s:2888   .text.chopstx_cond_wait:0000000000000000 $t
     /tmp/ccYjC7Ok.s:2895   .text.chopstx_cond_wait:0000000000000000 chopstx_cond_wait
     /tmp/ccYjC7Ok.s:2982   .text.chopstx_cond_wait:0000000000000058 $d
     /tmp/ccYjC7Ok.s:2987   .text.chopstx_join:0000000000000000 $t
     /tmp/ccYjC7Ok.s:2994   .text.chopstx_join:0000000000000000 chopstx_join
     /tmp/ccYjC7Ok.s:3131   .text.chopstx_join:000000000000009c $d
     /tmp/ccYjC7Ok.s:3137   .text.chopstx_setcancelstate:0000000000000000 $t
     /tmp/ccYjC7Ok.s:3144   .text.chopstx_setcancelstate:0000000000000000 chopstx_setcancelstate
     /tmp/ccYjC7Ok.s:3186   .text.chopstx_setcancelstate:0000000000000024 $d
     /tmp/ccYjC7Ok.s:3191   .text.chopstx_poll:0000000000000000 $t
     /tmp/ccYjC7Ok.s:3198   .text.chopstx_poll:0000000000000000 chopstx_poll
     /tmp/ccYjC7Ok.s:3701   .text.chopstx_poll:000000000000022c $d
     /tmp/ccYjC7Ok.s:3709   .text.chopstx_intr_wait:0000000000000000 $t
     /tmp/ccYjC7Ok.s:3716   .text.chopstx_intr_wait:0000000000000000 chopstx_intr_wait
     /tmp/ccYjC7Ok.s:3744   .text.chopstx_setpriority:0000000000000000 $t
ARM GAS  /tmp/ccYjC7Ok.s 			page 256


     /tmp/ccYjC7Ok.s:3751   .text.chopstx_setpriority:0000000000000000 chopstx_setpriority
     /tmp/ccYjC7Ok.s:3815   .text.chopstx_setpriority:0000000000000038 $d
     /tmp/ccYjC7Ok.s:3826   .bss.chopstx_main:0000000000000000 chopstx_main
     /tmp/ccYjC7Ok.s:3822   .bss.chopstx_main:0000000000000000 $d
     /tmp/ccYjC7Ok.s:3829   .bss.q_intr:0000000000000000 $d
     /tmp/ccYjC7Ok.s:3833   .bss.q_intr:0000000000000000 q_intr
     /tmp/ccYjC7Ok.s:3836   .bss.q_join:0000000000000000 $d
     /tmp/ccYjC7Ok.s:3840   .bss.q_join:0000000000000000 q_join
     /tmp/ccYjC7Ok.s:3843   .bss.q_ready:0000000000000000 $d
     /tmp/ccYjC7Ok.s:3847   .bss.q_ready:0000000000000000 q_ready
     /tmp/ccYjC7Ok.s:3850   .bss.q_timer:0000000000000000 $d
     /tmp/ccYjC7Ok.s:3854   .bss.q_timer:0000000000000000 q_timer
     /tmp/ccYjC7Ok.s:3857   .bss.running:0000000000000000 $d
     /tmp/ccYjC7Ok.s:13698  .text.svc:0000000000000064 $d
     /tmp/ccYjC7Ok.s:13698  .text.preempt:00000000000000fc $d

UNDEFINED SYMBOLS
__main_stack_end__
memset
