ARM GAS  /tmp/ccUVRMnq.s 			page 1


   1              		.cpu cortex-m3
   2              		.eabi_attribute 20, 1
   3              		.eabi_attribute 21, 1
   4              		.eabi_attribute 23, 3
   5              		.eabi_attribute 24, 1
   6              		.eabi_attribute 25, 1
   7              		.eabi_attribute 26, 1
   8              		.eabi_attribute 30, 4
   9              		.eabi_attribute 34, 1
  10              		.eabi_attribute 18, 4
  11              		.file	"ec_p256r1.c"
  12              		.text
  13              	.Ltext0:
  14              		.cfi_sections	.debug_frame
  15              		.section	.text.get_vk,"ax",%progbits
  16              		.align	1
  17              		.syntax unified
  18              		.thumb
  19              		.thumb_func
  20              		.fpu softvfp
  21              		.type	get_vk, %function
  22              	get_vk:
  23              	.LFB0:
  24              		.file 1 "ecc.c"
  25              		.loc 1 87 0
  26              		.cfi_startproc
  27              		@ args = 0, pretend = 0, frame = 0
  28              		@ frame_needed = 0, uses_anonymous_args = 0
  29              	.LVL0:
  30              		.loc 1 90 0
  31 0000 1F29     		cmp	r1, #31
  32              		.loc 1 87 0
  33 0002 10B5     		push	{r4, lr}
  34              		.cfi_def_cfa_offset 8
  35              		.cfi_offset 4, -8
  36              		.cfi_offset 14, -4
  37              		.loc 1 90 0
  38 0004 17DC     		bgt	.L2
  39              		.loc 1 92 0
  40 0006 8369     		ldr	r3, [r0, #24]
  41              	.LVL1:
  42 0008 0469     		ldr	r4, [r0, #16]
  43              	.LVL2:
  44 000a 8268     		ldr	r2, [r0, #8]
  45              	.LVL3:
  46 000c 0068     		ldr	r0, [r0]
  47              	.LVL4:
  48              	.L3:
  49              		.loc 1 100 0
  50 000e CB40     		lsrs	r3, r3, r1
  51              	.LVL5:
  52 0010 CC40     		lsrs	r4, r4, r1
  53              	.LVL6:
  54              		.loc 1 101 0
  55 0012 DB00     		lsls	r3, r3, #3
  56              	.LVL7:
  57 0014 A400     		lsls	r4, r4, #2
ARM GAS  /tmp/ccUVRMnq.s 			page 2


  58              	.LVL8:
  59 0016 04F00404 		and	r4, r4, #4
  60              		.loc 1 100 0
  61 001a C840     		lsrs	r0, r0, r1
  62              	.LVL9:
  63              		.loc 1 101 0
  64 001c 03F00803 		and	r3, r3, #8
  65 0020 2343     		orrs	r3, r3, r4
  66 0022 00F00100 		and	r0, r0, #1
  67              	.LVL10:
  68 0026 0343     		orrs	r3, r3, r0
  69              		.loc 1 100 0
  70 0028 22FA01F0 		lsr	r0, r2, r1
  71              	.LVL11:
  72              		.loc 1 101 0
  73 002c 4000     		lsls	r0, r0, #1
  74              	.LVL12:
  75 002e 00F00200 		and	r0, r0, #2
  76              		.loc 1 102 0
  77 0032 1843     		orrs	r0, r0, r3
  78 0034 10BD     		pop	{r4, pc}
  79              	.LVL13:
  80              	.L2:
  81              		.loc 1 96 0
  82 0036 C369     		ldr	r3, [r0, #28]
  83              	.LVL14:
  84 0038 4469     		ldr	r4, [r0, #20]
  85              	.LVL15:
  86 003a C268     		ldr	r2, [r0, #12]
  87              	.LVL16:
  88              		.loc 1 97 0
  89 003c 2039     		subs	r1, r1, #32
  90              	.LVL17:
  91              		.loc 1 96 0
  92 003e 4068     		ldr	r0, [r0, #4]
  93              	.LVL18:
  94 0040 E5E7     		b	.L3
  95              		.cfi_endproc
  96              	.LFE0:
  97              		.size	get_vk, .-get_vk
  98              		.section	.text.compute_kG_p256r1,"ax",%progbits
  99              		.align	1
 100              		.global	compute_kG_p256r1
 101              		.syntax unified
 102              		.thumb
 103              		.thumb_func
 104              		.fpu softvfp
 105              		.type	compute_kG_p256r1, %function
 106              	compute_kG_p256r1:
 107              	.LFB1:
 108              		.loc 1 115 0
 109              		.cfi_startproc
 110              		@ args = 0, pretend = 0, frame = 288
 111              		@ frame_needed = 0, uses_anonymous_args = 0
 112              	.LVL19:
 113 0000 2DE9F043 		push	{r4, r5, r6, r7, r8, r9, lr}
 114              		.cfi_def_cfa_offset 28
ARM GAS  /tmp/ccUVRMnq.s 			page 3


 115              		.cfi_offset 4, -28
 116              		.cfi_offset 5, -24
 117              		.cfi_offset 6, -20
 118              		.cfi_offset 7, -16
 119              		.cfi_offset 8, -12
 120              		.cfi_offset 9, -8
 121              		.cfi_offset 14, -4
 122 0004 8046     		mov	r8, r0
 123 0006 C9B0     		sub	sp, sp, #292
 124              		.cfi_def_cfa_offset 320
 125              		.loc 1 122 0
 126 0008 0846     		mov	r0, r1
 127              	.LVL20:
 128              		.loc 1 115 0
 129 000a 0C46     		mov	r4, r1
 130              		.loc 1 122 0
 131 000c FFF7FEFF 		bl	bn256_is_even
 132              	.LVL21:
 133              		.loc 1 124 0
 134 0010 2146     		mov	r1, r4
 135 0012 0246     		mov	r2, r0
 136              		.loc 1 122 0
 137 0014 0746     		mov	r7, r0
 138              	.LVL22:
 139              		.loc 1 124 0
 140 0016 6846     		mov	r0, sp
 141              	.LVL23:
 142 0018 FFF7FEFF 		bl	bn256_sub_uint
 143              	.LVL24:
 144              		.loc 1 128 0
 145 001c 0021     		movs	r1, #0
 146 001e 6846     		mov	r0, sp
 147 0020 FFF7FEFF 		bl	get_vk
 148              	.LVL25:
 149              		.loc 1 129 0
 150 0024 0125     		movs	r5, #1
 151              		.loc 1 128 0
 152 0026 0446     		mov	r4, r0
 153              	.LVL26:
 154              	.LBB2:
 155              		.loc 1 135 0
 156 0028 08AE     		add	r6, sp, #32
 157              	.LVL27:
 158              	.L6:
 159              		.loc 1 133 0
 160 002a 2946     		mov	r1, r5
 161 002c 6846     		mov	r0, sp
 162 002e FFF7FEFF 		bl	get_vk
 163              	.LVL28:
 164              		.loc 1 134 0
 165 0032 0028     		cmp	r0, #0
 166              		.loc 1 135 0
 167 0034 0CBF     		ite	eq
 168 0036 8023     		moveq	r3, #128
 169 0038 0023     		movne	r3, #0
 170 003a 06EB0502 		add	r2, r6, r5
 171 003e 04F1FF31 		add	r1, r4, #-1
ARM GAS  /tmp/ccUVRMnq.s 			page 4


 172              	.LBE2:
 173              		.loc 1 129 0
 174 0042 05F10105 		add	r5, r5, #1
 175              	.LVL29:
 176              	.LBB3:
 177              		.loc 1 135 0
 178 0046 43EA0103 		orr	r3, r3, r1
 179              		.loc 1 136 0
 180 004a 18BF     		it	ne
 181 004c 0446     		movne	r4, r0
 182              	.LVL30:
 183              	.LBE3:
 184              		.loc 1 129 0
 185 004e 402D     		cmp	r5, #64
 186              	.LBB4:
 187              		.loc 1 135 0
 188 0050 02F8013C 		strb	r3, [r2, #-1]
 189              	.LBE4:
 190              		.loc 1 129 0
 191 0054 E9D1     		bne	.L6
 192              		.loc 1 138 0
 193 0056 013C     		subs	r4, r4, #1
 194              	.LVL31:
 195              		.loc 1 140 0
 196 0058 2022     		movs	r2, #32
 197 005a 0021     		movs	r1, #0
 198 005c 28A8     		add	r0, sp, #160
 199              	.LVL32:
 200              		.loc 1 138 0
 201 005e 86F83F40 		strb	r4, [r6, #63]
 202              		.loc 1 140 0
 203 0062 FFF7FEFF 		bl	memset
 204              	.LVL33:
 205              		.loc 1 144 0
 206 0066 DFF86090 		ldr	r9, .L14+4
 207              		.loc 1 146 0
 208 006a 164D     		ldr	r5, .L14
 209 006c 10AC     		add	r4, sp, #64
 210              	.LVL34:
 211              	.L7:
 212              		.loc 1 143 0 discriminator 3
 213 006e 18A9     		add	r1, sp, #96
 214 0070 0846     		mov	r0, r1
 215 0072 FFF7FEFF 		bl	jpc_double_p256r1
 216              	.LVL35:
 217              		.loc 1 144 0 discriminator 3
 218 0076 E37F     		ldrb	r3, [r4, #31]	@ zero_extendqisi2
 219 0078 18A9     		add	r1, sp, #96
 220 007a 03F00F02 		and	r2, r3, #15
 221 007e 0846     		mov	r0, r1
 222 0080 DB09     		lsrs	r3, r3, #7
 223 0082 09EB8212 		add	r2, r9, r2, lsl #6
 224 0086 FFF7FEFF 		bl	jpc_add_ac_signed_p256r1
 225              	.LVL36:
 226              		.loc 1 146 0 discriminator 3
 227 008a 14F8013D 		ldrb	r3, [r4, #-1]!	@ zero_extendqisi2
 228              	.LVL37:
ARM GAS  /tmp/ccUVRMnq.s 			page 5


 229 008e 18A9     		add	r1, sp, #96
 230 0090 03F00F02 		and	r2, r3, #15
 231 0094 05EB8212 		add	r2, r5, r2, lsl #6
 232 0098 DB09     		lsrs	r3, r3, #7
 233 009a 0846     		mov	r0, r1
 234 009c FFF7FEFF 		bl	jpc_add_ac_signed_p256r1
 235              	.LVL38:
 236              		.loc 1 141 0 discriminator 3
 237 00a0 A642     		cmp	r6, r4
 238 00a2 E4D1     		bne	.L7
 239              		.loc 1 150 0
 240 00a4 5FB9     		cbnz	r7, .L9
 241 00a6 30A8     		add	r0, sp, #192
 242              	.L8:
 243              	.LVL39:
 244              		.loc 1 151 0 discriminator 4
 245 00a8 064A     		ldr	r2, .L14
 246 00aa 18A9     		add	r1, sp, #96
 247 00ac FFF7FEFF 		bl	jpc_add_ac_p256r1
 248              	.LVL40:
 249              		.loc 1 153 0 discriminator 4
 250 00b0 18A9     		add	r1, sp, #96
 251 00b2 4046     		mov	r0, r8
 252 00b4 FFF7FEFF 		bl	jpc_to_ac_p256r1
 253              	.LVL41:
 254              		.loc 1 154 0 discriminator 4
 255 00b8 49B0     		add	sp, sp, #292
 256              		.cfi_remember_state
 257              		.cfi_def_cfa_offset 28
 258              		@ sp needed
 259 00ba BDE8F083 		pop	{r4, r5, r6, r7, r8, r9, pc}
 260              	.LVL42:
 261              	.L9:
 262              		.cfi_restore_state
 263              		.loc 1 150 0
 264 00be 18A8     		add	r0, sp, #96
 265 00c0 F2E7     		b	.L8
 266              	.L15:
 267 00c2 00BF     		.align	2
 268              	.L14:
 269 00c4 00000000 		.word	.LANCHOR1
 270 00c8 00000000 		.word	.LANCHOR0
 271              		.cfi_endproc
 272              	.LFE1:
 273              		.size	compute_kG_p256r1, .-compute_kG_p256r1
 274              		.section	.text.compute_kP_p256r1,"ax",%progbits
 275              		.align	1
 276              		.global	compute_kP_p256r1
 277              		.syntax unified
 278              		.thumb
 279              		.thumb_func
 280              		.fpu softvfp
 281              		.type	compute_kP_p256r1, %function
 282              	compute_kP_p256r1:
 283              	.LFB4:
 284              		.loc 1 240 0
 285              		.cfi_startproc
ARM GAS  /tmp/ccUVRMnq.s 			page 6


 286              		@ args = 0, pretend = 0, frame = 520
 287              		@ frame_needed = 0, uses_anonymous_args = 0
 288              	.LVL43:
 289 0000 2DE9F043 		push	{r4, r5, r6, r7, r8, r9, lr}
 290              		.cfi_def_cfa_offset 28
 291              		.cfi_offset 4, -28
 292              		.cfi_offset 5, -24
 293              		.cfi_offset 6, -20
 294              		.cfi_offset 7, -16
 295              		.cfi_offset 8, -12
 296              		.cfi_offset 9, -8
 297              		.cfi_offset 14, -4
 298 0004 0746     		mov	r7, r0
 299 0006 ADF5037D 		sub	sp, sp, #524
 300              		.cfi_def_cfa_offset 552
 301              		.loc 1 244 0
 302 000a 0846     		mov	r0, r1
 303              	.LVL44:
 304              		.loc 1 240 0
 305 000c 1546     		mov	r5, r2
 306 000e 0C46     		mov	r4, r1
 307              		.loc 1 244 0
 308 0010 FFF7FEFF 		bl	bn256_is_even
 309              	.LVL45:
 310              	.LBB15:
 311              	.LBB16:
 312              		.loc 1 170 0
 313 0014 2946     		mov	r1, r5
 314              	.LBE16:
 315              	.LBE15:
 316              		.loc 1 244 0
 317 0016 0646     		mov	r6, r0
 318              	.LVL46:
 319              	.LBB18:
 320              	.LBB17:
 321              		.loc 1 170 0
 322 0018 52A8     		add	r0, sp, #328
 323              	.LVL47:
 324 001a FFF7FEFF 		bl	modp256r1_sqr
 325              	.LVL48:
 326              		.loc 1 171 0
 327 001e 52A9     		add	r1, sp, #328
 328 0020 0846     		mov	r0, r1
 329 0022 2A46     		mov	r2, r5
 330 0024 FFF7FEFF 		bl	modp256r1_mul
 331              	.LVL49:
 332              		.loc 1 174 0
 333 0028 2A46     		mov	r2, r5
 334 002a 9349     		ldr	r1, .L43
 335 002c 6AA8     		add	r0, sp, #424
 336 002e FFF7FEFF 		bl	modp256r1_mul
 337              	.LVL50:
 338              		.loc 1 175 0
 339 0032 52A9     		add	r1, sp, #328
 340 0034 0846     		mov	r0, r1
 341 0036 6AAA     		add	r2, sp, #424
 342 0038 FFF7FEFF 		bl	modp256r1_add
ARM GAS  /tmp/ccUVRMnq.s 			page 7


 343              	.LVL51:
 344              		.loc 1 177 0
 345 003c 52A9     		add	r1, sp, #328
 346 003e 0846     		mov	r0, r1
 347 0040 8E4A     		ldr	r2, .L43+4
 348              		.loc 1 179 0
 349 0042 05F12009 		add	r9, r5, #32
 350              		.loc 1 177 0
 351 0046 FFF7FEFF 		bl	modp256r1_add
 352              	.LVL52:
 353              		.loc 1 179 0
 354 004a 4946     		mov	r1, r9
 355 004c 6AA8     		add	r0, sp, #424
 356 004e FFF7FEFF 		bl	modp256r1_sqr
 357              	.LVL53:
 358              		.loc 1 180 0
 359 0052 6AA9     		add	r1, sp, #424
 360 0054 52A8     		add	r0, sp, #328
 361 0056 FFF7FEFF 		bl	bn256_cmp
 362              	.LVL54:
 363 005a 28B9     		cbnz	r0, .L31
 364              	.LVL55:
 365              	.LBE17:
 366              	.LBE18:
 367              		.loc 1 254 0
 368 005c 884A     		ldr	r2, .L43+8
 369 005e 2146     		mov	r1, r4
 370 0060 04A8     		add	r0, sp, #16
 371 0062 FFF7FEFF 		bl	bn256_sub
 372              	.LVL56:
 373 0066 10B9     		cbnz	r0, .L41
 374              	.LVL57:
 375              	.L31:
 376              		.loc 1 255 0
 377 0068 4FF0FF30 		mov	r0, #-1
 378 006c FDE0     		b	.L16
 379              	.LVL58:
 380              	.L41:
 381              		.loc 1 257 0
 382 006e 2146     		mov	r1, r4
 383 0070 3246     		mov	r2, r6
 384 0072 04A8     		add	r0, sp, #16
 385 0074 FFF7FEFF 		bl	bn256_sub_uint
 386              	.LVL59:
 387              		.loc 1 263 0
 388 0078 2CAB     		add	r3, sp, #176
 389 007a 0393     		str	r3, [sp, #12]
 390              	.LBB19:
 391              		.loc 1 268 0
 392 007c 2B46     		mov	r3, r5
 393              	.LBE19:
 394              		.loc 1 261 0
 395 007e 0CAC     		add	r4, sp, #48
 396              	.LVL60:
 397              		.loc 1 262 0
 398 0080 0DF17008 		add	r8, sp, #112
 399              		.loc 1 260 0
ARM GAS  /tmp/ccUVRMnq.s 			page 8


 400 0084 0095     		str	r5, [sp]
 401              		.loc 1 261 0
 402 0086 0194     		str	r4, [sp, #4]
 403              		.loc 1 262 0
 404 0088 CDF80880 		str	r8, [sp, #8]
 405              	.LBB20:
 406              		.loc 1 268 0
 407 008c 0DF5A47C 		add	ip, sp, #328
 408              	.L20:
 409 0090 6246     		mov	r2, ip
 410 0092 1868     		ldr	r0, [r3]	@ unaligned
 411 0094 5968     		ldr	r1, [r3, #4]	@ unaligned
 412 0096 0833     		adds	r3, r3, #8
 413 0098 03C2     		stmia	r2!, {r0, r1}
 414 009a 4B45     		cmp	r3, r9
 415 009c 9446     		mov	ip, r2
 416 009e F7D1     		bne	.L20
 417              		.loc 1 269 0
 418 00a0 0DF5B47C 		add	ip, sp, #360
 419 00a4 03F1200E 		add	lr, r3, #32
 420              	.L21:
 421 00a8 6246     		mov	r2, ip
 422 00aa 1868     		ldr	r0, [r3]	@ unaligned
 423 00ac 5968     		ldr	r1, [r3, #4]	@ unaligned
 424 00ae 0833     		adds	r3, r3, #8
 425 00b0 03C2     		stmia	r2!, {r0, r1}
 426 00b2 7345     		cmp	r3, lr
 427 00b4 9446     		mov	ip, r2
 428 00b6 F7D1     		bne	.L21
 429              		.loc 1 271 0
 430 00b8 4FF00109 		mov	r9, #1
 431              		.loc 1 270 0
 432 00bc 1C22     		movs	r2, #28
 433 00be 0021     		movs	r1, #0
 434 00c0 63A8     		add	r0, sp, #396
 435 00c2 FFF7FEFF 		bl	memset
 436              	.LVL61:
 437              		.loc 1 273 0
 438 00c6 52A9     		add	r1, sp, #328
 439 00c8 0846     		mov	r0, r1
 440              		.loc 1 271 0
 441 00ca CDF88891 		str	r9, [sp, #392]
 442              		.loc 1 273 0
 443 00ce FFF7FEFF 		bl	jpc_double_p256r1
 444              	.LVL62:
 445              		.loc 1 274 0
 446 00d2 2A46     		mov	r2, r5
 447 00d4 52A9     		add	r1, sp, #328
 448 00d6 6AA8     		add	r0, sp, #424
 449 00d8 FFF7FEFF 		bl	jpc_add_ac_p256r1
 450              	.LVL63:
 451              		.loc 1 275 0
 452 00dc 6AA9     		add	r1, sp, #424
 453 00de 2046     		mov	r0, r4
 454 00e0 FFF7FEFF 		bl	jpc_to_ac_p256r1
 455              	.LVL64:
 456 00e4 0028     		cmp	r0, #0
ARM GAS  /tmp/ccUVRMnq.s 			page 9


 457 00e6 BFDB     		blt	.L31
 458              		.loc 1 277 0
 459 00e8 52A9     		add	r1, sp, #328
 460 00ea 0846     		mov	r0, r1
 461 00ec FFF7FEFF 		bl	jpc_double_p256r1
 462              	.LVL65:
 463              		.loc 1 278 0
 464 00f0 2A46     		mov	r2, r5
 465 00f2 52A9     		add	r1, sp, #328
 466 00f4 6AA8     		add	r0, sp, #424
 467 00f6 FFF7FEFF 		bl	jpc_add_ac_p256r1
 468              	.LVL66:
 469              		.loc 1 279 0
 470 00fa 6AA9     		add	r1, sp, #424
 471 00fc 4046     		mov	r0, r8
 472 00fe FFF7FEFF 		bl	jpc_to_ac_p256r1
 473              	.LVL67:
 474 0102 0028     		cmp	r0, #0
 475 0104 B0DB     		blt	.L31
 476              		.loc 1 282 0
 477 0106 0FCC     		ldmia	r4!, {r0, r1, r2, r3}
 478 0108 0DF5A47C 		add	ip, sp, #328
 479 010c ACE80F00 		stmia	ip!, {r0, r1, r2, r3}
 480 0110 94E80F00 		ldm	r4, {r0, r1, r2, r3}
 481 0114 8CE80F00 		stm	ip, {r0, r1, r2, r3}
 482              		.loc 1 283 0
 483 0118 5AAC     		add	r4, sp, #360
 484 011a 0DF1500C 		add	ip, sp, #80
 485 011e BCE80F00 		ldmia	ip!, {r0, r1, r2, r3}
 486 0122 0FC4     		stmia	r4!, {r0, r1, r2, r3}
 487 0124 9CE80F00 		ldm	ip, {r0, r1, r2, r3}
 488 0128 84E80F00 		stm	r4, {r0, r1, r2, r3}
 489              		.loc 1 284 0
 490 012c 1C22     		movs	r2, #28
 491 012e 0021     		movs	r1, #0
 492 0130 63A8     		add	r0, sp, #396
 493 0132 FFF7FEFF 		bl	memset
 494              	.LVL68:
 495              		.loc 1 286 0
 496 0136 52A9     		add	r1, sp, #328
 497 0138 0846     		mov	r0, r1
 498              		.loc 1 285 0
 499 013a CDF88891 		str	r9, [sp, #392]
 500              		.loc 1 286 0
 501 013e FFF7FEFF 		bl	jpc_double_p256r1
 502              	.LVL69:
 503              		.loc 1 287 0
 504 0142 2A46     		mov	r2, r5
 505 0144 52A9     		add	r1, sp, #328
 506 0146 6AA8     		add	r0, sp, #424
 507 0148 FFF7FEFF 		bl	jpc_add_ac_p256r1
 508              	.LVL70:
 509              		.loc 1 288 0
 510 014c 6AA9     		add	r1, sp, #424
 511 014e 2CA8     		add	r0, sp, #176
 512 0150 FFF7FEFF 		bl	jpc_to_ac_p256r1
 513              	.LVL71:
ARM GAS  /tmp/ccUVRMnq.s 			page 10


 514 0154 0028     		cmp	r0, #0
 515 0156 87DB     		blt	.L31
 516              	.LVL72:
 517              	.LBE20:
 518              		.loc 1 294 0
 519 0158 CC46     		mov	ip, r9
 520              	.LBB21:
 521              	.LBB22:
 522              	.LBB23:
 523              		.loc 1 194 0
 524 015a 4FF00B09 		mov	r9, #11
 525              	.LBE23:
 526              	.LBE22:
 527              	.LBE21:
 528              	.LBB27:
 529              	.LBB28:
 530              		.loc 1 196 0
 531 015e 0DF11008 		add	r8, sp, #16
 532              	.LVL73:
 533 0162 D8F80030 		ldr	r3, [r8]
 534              	.LBE28:
 535              	.LBE27:
 536              	.LBB30:
 537              		.loc 1 300 0
 538 0166 3CAC     		add	r4, sp, #240
 539              	.LBE30:
 540              	.LBB31:
 541              	.LBB29:
 542              		.loc 1 196 0
 543 0168 03F00703 		and	r3, r3, #7
 544              	.LVL74:
 545              	.L23:
 546              	.LBE29:
 547              	.LBE31:
 548              	.LBB32:
 549              	.LBB26:
 550              	.LBB25:
 551              		.loc 1 192 0
 552 016c 0CF01F0E 		and	lr, ip, #31
 553 0170 5FFA8EF0 		uxtb	r0, lr
 554              	.LVL75:
 555              		.loc 1 194 0
 556 0174 B0FBF9F1 		udiv	r1, r0, r9
 557              		.loc 1 191 0
 558 0178 4FEA6C12 		asr	r2, ip, #5
 559              		.loc 1 194 0
 560 017c 02EB4202 		add	r2, r2, r2, lsl #1
 561 0180 0A44     		add	r2, r2, r1
 562              		.loc 1 193 0
 563 0182 09FB1101 		mls	r1, r9, r1, r0
 564 0186 01EB4101 		add	r1, r1, r1, lsl #1
 565 018a 0A28     		cmp	r0, #10
 566 018c 88BF     		it	hi
 567 018e 0131     		addhi	r1, r1, #1
 568 0190 1528     		cmp	r0, #21
 569 0192 88BF     		it	hi
 570 0194 0131     		addhi	r1, r1, #1
ARM GAS  /tmp/ccUVRMnq.s 			page 11


 571              		.loc 1 194 0
 572 0196 D2B2     		uxtb	r2, r2
 573              	.LVL76:
 574              		.loc 1 196 0
 575 0198 58F82200 		ldr	r0, [r8, r2, lsl #2]
 576              	.LVL77:
 577 019c C9B2     		uxtb	r1, r1
 578 019e 20FA01F1 		lsr	r1, r0, r1
 579              		.loc 1 197 0
 580 01a2 062A     		cmp	r2, #6
 581              		.loc 1 196 0
 582 01a4 01F00701 		and	r1, r1, #7
 583              	.LVL78:
 584              		.loc 1 197 0
 585 01a8 16D8     		bhi	.L24
 586 01aa BEF10A0F 		cmp	lr, #10
 587 01ae 02D0     		beq	.L25
 588 01b0 BEF1150F 		cmp	lr, #21
 589 01b4 10D1     		bne	.L24
 590              	.L25:
 591              	.LBB24:
 592              		.loc 1 210 0
 593 01b6 BEF10A0F 		cmp	lr, #10
 594 01ba 0BBF     		itete	eq
 595 01bc 4FF0020E 		moveq	lr, #2
 596              	.LVL79:
 597 01c0 4FF0010E 		movne	lr, #1
 598 01c4 0420     		moveq	r0, #4
 599 01c6 0620     		movne	r0, #6
 600              		.loc 1 202 0
 601 01c8 0132     		adds	r2, r2, #1
 602              	.LVL80:
 603 01ca D2B2     		uxtb	r2, r2
 604              	.LVL81:
 605              		.loc 1 214 0
 606 01cc 58F82220 		ldr	r2, [r8, r2, lsl #2]
 607              	.LVL82:
 608 01d0 02FA0EF2 		lsl	r2, r2, lr
 609 01d4 0240     		ands	r2, r2, r0
 610 01d6 1143     		orrs	r1, r1, r2
 611              	.LVL83:
 612              	.L24:
 613 01d8 CA43     		mvns	r2, r1
 614              	.LBE24:
 615              	.LBE25:
 616              	.LBE26:
 617              		.loc 1 300 0
 618 01da 11F0010F 		tst	r1, #1
 619 01de 02F00102 		and	r2, r2, #1
 620              	.LVL84:
 621 01e2 0CBF     		ite	eq
 622 01e4 C3F10703 		rsbeq	r3, r3, #7
 623              	.LVL85:
 624 01e8 03F1FF33 		addne	r3, r3, #-1
 625 01ec D001     		lsls	r0, r2, #7
 626 01ee 04EB0C0E 		add	lr, r4, ip
 627 01f2 40B2     		sxtb	r0, r0
ARM GAS  /tmp/ccUVRMnq.s 			page 12


 628 01f4 43F34703 		sbfx	r3, r3, #1, #8
 629              	.LBE32:
 630              		.loc 1 294 0
 631 01f8 0CF1010C 		add	ip, ip, #1
 632              	.LVL86:
 633              	.LBB33:
 634              		.loc 1 300 0
 635 01fc 0343     		orrs	r3, r3, r0
 636              	.LBE33:
 637              		.loc 1 294 0
 638 01fe BCF1560F 		cmp	ip, #86
 639              	.LBB34:
 640              		.loc 1 300 0
 641 0202 0EF8013C 		strb	r3, [lr, #-1]
 642              		.loc 1 301 0
 643 0206 02EB0103 		add	r3, r2, r1
 644              	.LVL87:
 645              	.LBE34:
 646              		.loc 1 294 0
 647 020a AFD1     		bne	.L23
 648              		.loc 1 303 0
 649 020c 013B     		subs	r3, r3, #1
 650              	.LVL88:
 651 020e 5B10     		asrs	r3, r3, #1
 652              	.LVL89:
 653              		.loc 1 305 0
 654 0210 2022     		movs	r2, #32
 655              	.LVL90:
 656 0212 0021     		movs	r1, #0
 657              	.LVL91:
 658 0214 62A8     		add	r0, sp, #392
 659              		.loc 1 303 0
 660 0216 84F85530 		strb	r3, [r4, #85]
 661              		.loc 1 306 0
 662 021a 4FF05508 		mov	r8, #85
 663              		.loc 1 305 0
 664 021e FFF7FEFF 		bl	memset
 665              	.LVL92:
 666              	.L29:
 667              		.loc 1 308 0 discriminator 3
 668 0222 52A9     		add	r1, sp, #328
 669 0224 0846     		mov	r0, r1
 670 0226 FFF7FEFF 		bl	jpc_double_p256r1
 671              	.LVL93:
 672              		.loc 1 309 0 discriminator 3
 673 022a 52A9     		add	r1, sp, #328
 674 022c 0846     		mov	r0, r1
 675 022e FFF7FEFF 		bl	jpc_double_p256r1
 676              	.LVL94:
 677              		.loc 1 310 0 discriminator 3
 678 0232 52A9     		add	r1, sp, #328
 679 0234 0846     		mov	r0, r1
 680 0236 FFF7FEFF 		bl	jpc_double_p256r1
 681              	.LVL95:
 682              		.loc 1 311 0 discriminator 3
 683 023a 14F80830 		ldrb	r3, [r4, r8]	@ zero_extendqisi2
 684 023e 52A9     		add	r1, sp, #328
ARM GAS  /tmp/ccUVRMnq.s 			page 13


 685 0240 03F00302 		and	r2, r3, #3
 686 0244 5DF82220 		ldr	r2, [sp, r2, lsl #2]
 687 0248 DB09     		lsrs	r3, r3, #7
 688 024a 0846     		mov	r0, r1
 689 024c FFF7FEFF 		bl	jpc_add_ac_signed_p256r1
 690              	.LVL96:
 691              		.loc 1 306 0 discriminator 3
 692 0250 18F1FF38 		adds	r8, r8, #-1
 693              	.LVL97:
 694 0254 E5D2     		bcs	.L29
 695              		.loc 1 314 0
 696 0256 66B9     		cbnz	r6, .L33
 697 0258 6AA8     		add	r0, sp, #424
 698              	.L30:
 699              	.LVL98:
 700              		.loc 1 315 0 discriminator 4
 701 025a 52A9     		add	r1, sp, #328
 702 025c 2A46     		mov	r2, r5
 703 025e FFF7FEFF 		bl	jpc_add_ac_p256r1
 704              	.LVL99:
 705              		.loc 1 317 0 discriminator 4
 706 0262 52A9     		add	r1, sp, #328
 707 0264 3846     		mov	r0, r7
 708 0266 FFF7FEFF 		bl	jpc_to_ac_p256r1
 709              	.LVL100:
 710              	.L16:
 711              		.loc 1 318 0
 712 026a 0DF5037D 		add	sp, sp, #524
 713              		.cfi_remember_state
 714              		.cfi_def_cfa_offset 28
 715              		@ sp needed
 716 026e BDE8F083 		pop	{r4, r5, r6, r7, r8, r9, pc}
 717              	.LVL101:
 718              	.L33:
 719              		.cfi_restore_state
 720              		.loc 1 314 0
 721 0272 52A8     		add	r0, sp, #328
 722 0274 F1E7     		b	.L30
 723              	.L44:
 724 0276 00BF     		.align	2
 725              	.L43:
 726 0278 00000000 		.word	.LANCHOR2
 727 027c 00000000 		.word	.LANCHOR3
 728 0280 00000000 		.word	.LANCHOR4
 729              		.cfi_endproc
 730              	.LFE4:
 731              		.size	compute_kP_p256r1, .-compute_kP_p256r1
 732              		.section	.text.ecdsa_p256r1,"ax",%progbits
 733              		.align	1
 734              		.global	ecdsa_p256r1
 735              		.syntax unified
 736              		.thumb
 737              		.thumb_func
 738              		.fpu softvfp
 739              		.type	ecdsa_p256r1, %function
 740              	ecdsa_p256r1:
 741              	.LFB5:
ARM GAS  /tmp/ccUVRMnq.s 			page 14


 742              		.loc 1 326 0
 743              		.cfi_startproc
 744              		@ args = 0, pretend = 0, frame = 192
 745              		@ frame_needed = 0, uses_anonymous_args = 0
 746              	.LVL102:
 747 0000 2DE9F043 		push	{r4, r5, r6, r7, r8, r9, lr}
 748              		.cfi_def_cfa_offset 28
 749              		.cfi_offset 4, -28
 750              		.cfi_offset 5, -24
 751              		.cfi_offset 6, -20
 752              		.cfi_offset 7, -16
 753              		.cfi_offset 8, -12
 754              		.cfi_offset 9, -8
 755              		.cfi_offset 14, -4
 756 0004 0646     		mov	r6, r0
 757 0006 0C46     		mov	r4, r1
 758 0008 9046     		mov	r8, r2
 759 000a 9946     		mov	r9, r3
 760              		.loc 1 342 0
 761 000c 364D     		ldr	r5, .L64
 762              		.loc 1 356 0
 763 000e 374F     		ldr	r7, .L64+4
 764              		.loc 1 326 0
 765 0010 B1B0     		sub	sp, sp, #196
 766              		.cfi_def_cfa_offset 224
 767              	.LVL103:
 768              	.L52:
 769              		.loc 1 339 0
 770 0012 6846     		mov	r0, sp
 771 0014 FFF7FEFF 		bl	bn256_random
 772              	.LVL104:
 773              		.loc 1 340 0
 774 0018 0122     		movs	r2, #1
 775 001a 6946     		mov	r1, sp
 776 001c 6846     		mov	r0, sp
 777 001e FFF7FEFF 		bl	bn256_add_uint
 778              	.LVL105:
 779 0022 F0B9     		cbnz	r0, .L47
 780              		.loc 1 342 0
 781 0024 2A46     		mov	r2, r5
 782 0026 6946     		mov	r1, sp
 783 0028 08A8     		add	r0, sp, #32
 784 002a FFF7FEFF 		bl	bn256_sub
 785              	.LVL106:
 786 002e C0B1     		cbz	r0, .L47
 787              		.loc 1 345 0
 788 0030 6946     		mov	r1, sp
 789 0032 10A8     		add	r0, sp, #64
 790 0034 FFF7FEFF 		bl	compute_kG_p256r1
 791              	.LVL107:
 792              		.loc 1 346 0
 793 0038 2A46     		mov	r2, r5
 794 003a 10A9     		add	r1, sp, #64
 795 003c 3046     		mov	r0, r6
 796 003e FFF7FEFF 		bl	bn256_sub
 797              	.LVL108:
 798              		.loc 1 347 0
ARM GAS  /tmp/ccUVRMnq.s 			page 15


 799 0042 0028     		cmp	r0, #0
 800 0044 40D0     		beq	.L49
 801              		.loc 1 348 0
 802 0046 3246     		mov	r2, r6
 803 0048 0DF1400C 		add	ip, sp, #64
 804 004c 0DF1600E 		add	lr, sp, #96
 805              	.LVL109:
 806              	.L50:
 807 0050 6346     		mov	r3, ip
 808 0052 03CB     		ldmia	r3!, {r0, r1}
 809 0054 7345     		cmp	r3, lr
 810 0056 1060     		str	r0, [r2]	@ unaligned
 811 0058 5160     		str	r1, [r2, #4]	@ unaligned
 812 005a 9C46     		mov	ip, r3
 813 005c 02F10802 		add	r2, r2, #8
 814 0060 F6D1     		bne	.L50
 815              	.L47:
 816              		.loc 1 352 0
 817 0062 3046     		mov	r0, r6
 818 0064 FFF7FEFF 		bl	bn256_is_zero
 819              	.LVL110:
 820 0068 0028     		cmp	r0, #0
 821 006a D2D1     		bne	.L52
 822              		.loc 1 354 0
 823 006c 2A46     		mov	r2, r5
 824 006e 6946     		mov	r1, sp
 825 0070 08A8     		add	r0, sp, #32
 826 0072 FFF7FEFF 		bl	mod_inv
 827              	.LVL111:
 828              		.loc 1 355 0
 829 0076 4A46     		mov	r2, r9
 830 0078 3146     		mov	r1, r6
 831 007a 20A8     		add	r0, sp, #128
 832 007c FFF7FEFF 		bl	bn256_mul
 833              	.LVL112:
 834              		.loc 1 356 0
 835 0080 3B46     		mov	r3, r7
 836 0082 2A46     		mov	r2, r5
 837 0084 20A9     		add	r1, sp, #128
 838 0086 2046     		mov	r0, r4
 839 0088 FFF7FEFF 		bl	mod_reduce
 840              	.LVL113:
 841              		.loc 1 357 0
 842 008c 4246     		mov	r2, r8
 843 008e 2146     		mov	r1, r4
 844 0090 2046     		mov	r0, r4
 845 0092 FFF7FEFF 		bl	bn256_add
 846              	.LVL114:
 847              		.loc 1 359 0
 848 0096 2A46     		mov	r2, r5
 849 0098 2146     		mov	r1, r4
 850              		.loc 1 358 0
 851 009a 18B3     		cbz	r0, .L53
 852              	.LVL115:
 853              		.loc 1 359 0
 854 009c 2046     		mov	r0, r4
 855              	.LVL116:
ARM GAS  /tmp/ccUVRMnq.s 			page 16


 856              	.L63:
 857              		.loc 1 361 0
 858 009e FFF7FEFF 		bl	bn256_sub
 859              	.LVL117:
 860              		.loc 1 362 0
 861 00a2 08AA     		add	r2, sp, #32
 862 00a4 2146     		mov	r1, r4
 863 00a6 20A8     		add	r0, sp, #128
 864 00a8 FFF7FEFF 		bl	bn256_mul
 865              	.LVL118:
 866              		.loc 1 363 0
 867 00ac 2046     		mov	r0, r4
 868 00ae 3B46     		mov	r3, r7
 869 00b0 2A46     		mov	r2, r5
 870 00b2 20A9     		add	r1, sp, #128
 871 00b4 FFF7FEFF 		bl	mod_reduce
 872              	.LVL119:
 873              		.loc 1 365 0
 874 00b8 2046     		mov	r0, r4
 875 00ba FFF7FEFF 		bl	bn256_is_zero
 876              	.LVL120:
 877 00be 0028     		cmp	r0, #0
 878 00c0 A7D1     		bne	.L52
 879              		.loc 1 369 0
 880 00c2 31B0     		add	sp, sp, #196
 881              		.cfi_remember_state
 882              		.cfi_def_cfa_offset 28
 883              		@ sp needed
 884 00c4 BDE8F083 		pop	{r4, r5, r6, r7, r8, r9, pc}
 885              	.LVL121:
 886              	.L49:
 887              		.cfi_restore_state
 888              		.loc 1 350 0
 889 00c8 3246     		mov	r2, r6
 890 00ca 10AB     		add	r3, sp, #64
 891 00cc 06F1200E 		add	lr, r6, #32
 892              	.LVL122:
 893              	.L51:
 894 00d0 9C46     		mov	ip, r3
 895 00d2 1068     		ldr	r0, [r2]	@ unaligned
 896 00d4 5168     		ldr	r1, [r2, #4]	@ unaligned
 897 00d6 0832     		adds	r2, r2, #8
 898 00d8 ACE80300 		stmia	ip!, {r0, r1}
 899 00dc 7245     		cmp	r2, lr
 900 00de 6346     		mov	r3, ip
 901 00e0 F6D1     		bne	.L51
 902 00e2 BEE7     		b	.L47
 903              	.LVL123:
 904              	.L53:
 905              		.loc 1 361 0
 906 00e4 20A8     		add	r0, sp, #128
 907              	.LVL124:
 908 00e6 DAE7     		b	.L63
 909              	.L65:
 910              		.align	2
 911              	.L64:
 912 00e8 00000000 		.word	.LANCHOR4
ARM GAS  /tmp/ccUVRMnq.s 			page 17


 913 00ec 00000000 		.word	.LANCHOR5
 914              		.cfi_endproc
 915              	.LFE5:
 916              		.size	ecdsa_p256r1, .-ecdsa_p256r1
 917              		.section	.text.check_secret_p256r1,"ax",%progbits
 918              		.align	1
 919              		.global	check_secret_p256r1
 920              		.syntax unified
 921              		.thumb
 922              		.thumb_func
 923              		.fpu softvfp
 924              		.type	check_secret_p256r1, %function
 925              	check_secret_p256r1:
 926              	.LFB6:
 927              		.loc 1 384 0
 928              		.cfi_startproc
 929              		@ args = 0, pretend = 0, frame = 128
 930              		@ frame_needed = 0, uses_anonymous_args = 0
 931              	.LVL125:
 932 0000 30B5     		push	{r4, r5, lr}
 933              		.cfi_def_cfa_offset 12
 934              		.cfi_offset 4, -12
 935              		.cfi_offset 5, -8
 936              		.cfi_offset 14, -4
 937 0002 A1B0     		sub	sp, sp, #132
 938              		.cfi_def_cfa_offset 144
 939              		.loc 1 384 0
 940 0004 0546     		mov	r5, r0
 941 0006 0C46     		mov	r4, r1
 942              		.loc 1 387 0
 943 0008 FFF7FEFF 		bl	bn256_is_zero
 944              	.LVL126:
 945 000c 10B1     		cbz	r0, .L67
 946              	.L69:
 947              		.loc 1 389 0
 948 000e 0020     		movs	r0, #0
 949              	.L66:
 950              		.loc 1 398 0
 951 0010 21B0     		add	sp, sp, #132
 952              		.cfi_remember_state
 953              		.cfi_def_cfa_offset 12
 954              		@ sp needed
 955 0012 30BD     		pop	{r4, r5, pc}
 956              	.LVL127:
 957              	.L67:
 958              		.cfi_restore_state
 959              		.loc 1 387 0 discriminator 1
 960 0014 2A46     		mov	r2, r5
 961 0016 0949     		ldr	r1, .L70
 962 0018 2046     		mov	r0, r4
 963 001a FFF7FEFF 		bl	bn256_sub
 964              	.LVL128:
 965 001e 0028     		cmp	r0, #0
 966 0020 F5D1     		bne	.L69
 967              		.loc 1 391 0
 968 0022 2946     		mov	r1, r5
 969 0024 6846     		mov	r0, sp
ARM GAS  /tmp/ccUVRMnq.s 			page 18


 970 0026 FFF7FEFF 		bl	compute_kG_p256r1
 971              	.LVL129:
 972              		.loc 1 392 0
 973 002a 2146     		mov	r1, r4
 974 002c 10A8     		add	r0, sp, #64
 975 002e FFF7FEFF 		bl	compute_kG_p256r1
 976              	.LVL130:
 977              		.loc 1 397 0
 978 0032 08A9     		add	r1, sp, #32
 979 0034 18A8     		add	r0, sp, #96
 980 0036 FFF7FEFF 		bl	bn256_cmp
 981              	.LVL131:
 982 003a E9E7     		b	.L66
 983              	.L71:
 984              		.align	2
 985              	.L70:
 986 003c 00000000 		.word	.LANCHOR4
 987              		.cfi_endproc
 988              	.LFE6:
 989              		.size	check_secret_p256r1, .-check_secret_p256r1
 990              		.section	.rodata.MU_lower,"a",%progbits
 991              		.align	2
 992              		.set	.LANCHOR5,. + 0
 993              		.type	MU_lower, %object
 994              		.size	MU_lower, 32
 995              	MU_lower:
 996 0000 FE9BDFEE 		.word	-287335426
 997 0004 85FD2F01 		.word	19922309
 998 0008 216C1ADF 		.word	-551916511
 999 000c 52051943 		.word	1125713234
 1000 0010 FFFFFFFF 		.word	-1
 1001 0014 FEFFFFFF 		.word	-2
 1002 0018 FFFFFFFF 		.word	-1
 1003 001c 00000000 		.word	0
 1004              		.section	.rodata.N,"a",%progbits
 1005              		.align	2
 1006              		.set	.LANCHOR4,. + 0
 1007              		.type	N, %object
 1008              		.size	N, 32
 1009              	N:
 1010 0000 512563FC 		.word	-60611247
 1011 0004 C2CAB9F3 		.word	-205927742
 1012 0008 849E17A7 		.word	-1491624316
 1013 000c ADFAE6BC 		.word	-1125713235
 1014 0010 FFFFFFFF 		.word	-1
 1015 0014 FFFFFFFF 		.word	-1
 1016 0018 00000000 		.word	0
 1017 001c FFFFFFFF 		.word	-1
 1018              		.section	.rodata.coefficient_a,"a",%progbits
 1019              		.align	2
 1020              		.set	.LANCHOR2,. + 0
 1021              		.type	coefficient_a, %object
 1022              		.size	coefficient_a, 32
 1023              	coefficient_a:
 1024 0000 FCFFFFFF 		.word	-4
 1025 0004 FFFFFFFF 		.word	-1
 1026 0008 FFFFFFFF 		.word	-1
ARM GAS  /tmp/ccUVRMnq.s 			page 19


 1027 000c 00000000 		.word	0
 1028 0010 00000000 		.word	0
 1029 0014 00000000 		.word	0
 1030 0018 01000000 		.word	1
 1031 001c FFFFFFFF 		.word	-1
 1032              		.section	.rodata.coefficient_b,"a",%progbits
 1033              		.align	2
 1034              		.set	.LANCHOR3,. + 0
 1035              		.type	coefficient_b, %object
 1036              		.size	coefficient_b, 32
 1037              	coefficient_b:
 1038 0000 4B60D227 		.word	668098635
 1039 0004 3E3CCE3B 		.word	1003371582
 1040 0008 F6B053CC 		.word	-866930442
 1041 000c B0061D65 		.word	1696401072
 1042 0010 BC869876 		.word	1989707452
 1043 0014 55BDEBB3 		.word	-1276396203
 1044 0018 E7933AAA 		.word	-1439001625
 1045 001c D835C65A 		.word	1522939352
 1046              		.section	.rodata.precomputed_2E_KG,"a",%progbits
 1047              		.align	2
 1048              		.set	.LANCHOR0,. + 0
 1049              		.type	precomputed_2E_KG, %object
 1050              		.size	precomputed_2E_KG, 960
 1051              	precomputed_2E_KG:
 1052 0000 43595A18 		.word	408574275
 1053 0004 229E5A3A 		.word	979017250
 1054 0008 B6DF655C 		.word	1550180278
 1055 000c 3619B91A 		.word	448338230
 1056 0010 DA712C26 		.word	640446938
 1057 0014 326B6521 		.word	560294706
 1058 0018 89AF22AF 		.word	-1356681335
 1059 001c 406BE37F 		.word	2145610560
 1060 0020 01A19C69 		.word	1771872513
 1061 0024 2C150DD5 		.word	-720562900
 1062 0028 12F28A7B 		.word	2072703506
 1063 002c 86D5B374 		.word	1957942662
 1064 0030 F1A6DC07 		.word	131901169
 1065 0034 04F4099F 		.word	-1626737660
 1066 0038 2436B625 		.word	632698404
 1067 003c 58D497E6 		.word	-426257320
 1068 0040 8E211275 		.word	1964122510
 1069 0044 39A94AA8 		.word	-1471502023
 1070 0048 4101CA74 		.word	1959395649
 1071 004c B021A5E9 		.word	-375053904
 1072 0050 02E9A218 		.word	413329666
 1073 0054 3A0B8857 		.word	1468533562
 1074 0058 A677A612 		.word	312899494
 1075 005c 66505B4A 		.word	1247498342
 1076 0060 40384F4C 		.word	1280260160
 1077 0064 7ADAEA0B 		.word	199940730
 1078 0068 9D6DE219 		.word	434269597
 1079 006c 54B16D62 		.word	1651355988
 1080 0070 407D62E1 		.word	-513639104
 1081 0074 FB0426C4 		.word	-1004141317
 1082 0078 F189C0EA 		.word	-356480527
 1083 007c 1C4613EB 		.word	-351058404
ARM GAS  /tmp/ccUVRMnq.s 			page 20


 1084 0080 8132A427 		.word	665072257
 1085 0084 09EDFAF9 		.word	-100995831
 1086 0088 BCEC0341 		.word	1090776252
 1087 008c 14C4525E 		.word	1582482452
 1088 0090 57C815A8 		.word	-1474967465
 1089 0094 7A9642C3 		.word	-1019046278
 1090 0098 0A226A1C 		.word	476717578
 1091 009c 29B88107 		.word	125941801
 1092 00a0 805FC5EA 		.word	-356163712
 1093 00a4 CE43835A 		.word	1518552014
 1094 00a8 E3054AE5 		.word	-448133661
 1095 00ac EE0EF888 		.word	-1997009170
 1096 00b0 34649112 		.word	311518260
 1097 00b4 4FA1B297 		.word	-1749900977
 1098 00b8 931515F0 		.word	-267053677
 1099 00bc 8DDE0C69 		.word	1762451085
 1100 00c0 2A2FF8F7 		.word	-134729942
 1101 00c4 5DC7E9AE 		.word	-1360410787
 1102 00c8 3AF4FD4A 		.word	1258157114
 1103 00cc 87354C9E 		.word	-1639172729
 1104 00d0 26133737 		.word	926356262
 1105 00d4 F42D62F5 		.word	-178115084
 1106 00d8 1736C76E 		.word	1858549271
 1107 00dc 565F538A 		.word	-1974247594
 1108 00e0 B7943022 		.word	573609143
 1109 00e4 ACA0F9C5 		.word	-973496148
 1110 00e8 69768C4C 		.word	1284273769
 1111 00ec 8633E5CD 		.word	-840617082
 1112 00f0 BF925A08 		.word	140153535
 1113 00f4 1928E037 		.word	937437209
 1114 00f8 D78BB068 		.word	1756400599
 1115 00fc 84C05504 		.word	72728708
 1116 0100 D9B57794 		.word	-1804093991
 1117 0104 2C6E0A0C 		.word	202010156
 1118 0108 44C46D87 		.word	-2022849468
 1119 010c 62BFA4F9 		.word	-106643614
 1120 0110 79C2CDB6 		.word	-1228029319
 1121 0114 49A95050 		.word	1347463497
 1122 0118 76827FB7 		.word	-1216380298
 1123 011c 7ADABA06 		.word	112908922
 1124 0120 C9DA48EA 		.word	-364324151
 1125 0124 D1AEB4C8 		.word	-927682863
 1126 0128 0F07A17E 		.word	2124482319
 1127 012c 4B8ABDDE 		.word	-558003637
 1128 0130 70EB6613 		.word	325512048
 1129 0134 10497D42 		.word	1115506960
 1130 0138 8AB16C0E 		.word	242004362
 1131 013c FD6D475B 		.word	1531407869
 1132 0140 0A348C27 		.word	663499786
 1133 0144 443E5C7C 		.word	2086420036
 1134 0148 3B6FD612 		.word	316043067
 1135 014c 6860544D 		.word	1297375336
 1136 0150 D8C523AE 		.word	-1373387304
 1137 0154 B151A729 		.word	698831281
 1138 0158 08C92E8A 		.word	-1976645368
 1139 015c 4E86293E 		.word	1042908750
 1140 0160 50B8DB26 		.word	651933776
ARM GAS  /tmp/ccUVRMnq.s 			page 21


 1141 0164 662A2D14 		.word	338504294
 1142 0168 80D75B76 		.word	1985730432
 1143 016c C44417AD 		.word	-1390983996
 1144 0170 EDD122E3 		.word	-484257299
 1145 0174 680E151F 		.word	521473640
 1146 0178 7E1EC33D 		.word	1036197502
 1147 017c EA909B23 		.word	597397738
 1148 0180 2A32537A 		.word	2052272682
 1149 0184 5216C478 		.word	2026116690
 1150 0188 8E6F7709 		.word	158822286
 1151 018c 67DE5D30 		.word	811458151
 1152 0190 D42E86F8 		.word	-125423916
 1153 0194 59B7CADB 		.word	-607471783
 1154 0198 F72FF749 		.word	1240936439
 1155 019c D94D0F82 		.word	-2112926247
 1156 01a0 D4EB5D2B 		.word	727575508
 1157 01a4 A644C56C 		.word	1824867494
 1158 01a8 C48C4E7B 		.word	2068745412
 1159 01ac 935DBE75 		.word	1975410067
 1160 01b0 D3145C21 		.word	559682771
 1161 01b4 1B1B481B 		.word	457710363
 1162 01b8 EC053A78 		.word	2017068524
 1163 01bc EC060414 		.word	335808236
 1164 01c0 07DF95E8 		.word	-392831225
 1165 01c4 103F706A 		.word	1785741072
 1166 01c8 D86B8701 		.word	25652184
 1167 01cc FAF375FD 		.word	-42601478
 1168 01d0 FE8FE00C 		.word	216043518
 1169 01d4 E7065BEB 		.word	-346355993
 1170 01d8 EEDF8327 		.word	662953966
 1171 01dc 54B8F668 		.word	1760999508
 1172 01e0 55267178 		.word	2020681301
 1173 01e4 8A6FC790 		.word	-1865977974
 1174 01e8 7FBF10F3 		.word	-217006209
 1175 01ec D29352CF 		.word	-816671790
 1176 01f0 2850A4FD 		.word	-39563224
 1177 01f4 4D04C8FB 		.word	-70777779
 1178 01f8 E60CE492 		.word	-1830548250
 1179 01fc BAFEE1CB 		.word	-874381638
 1180 0200 C1E49643 		.word	1133962433
 1181 0204 EACE98E9 		.word	-375861526
 1182 0208 74A2CE6A 		.word	1791926900
 1183 020c 0BEF82FC 		.word	-58527989
 1184 0210 27E95022 		.word	575727911
 1185 0214 9F720F23 		.word	588214943
 1186 0218 0901422F 		.word	792854793
 1187 021c 4DF9B2D0 		.word	-793577139
 1188 0220 66498DB3 		.word	-1282586266
 1189 0224 DDAD0543 		.word	1124445661
 1190 0228 453B4C62 		.word	1649163077
 1191 022c F838B810 		.word	280508664
 1192 0230 7A4E9558 		.word	1486179962
 1193 0234 6663B27D 		.word	2108842854
 1194 0238 E519078B 		.word	-1962468891
 1195 023c 82591497 		.word	-1760274046
 1196 0240 C99F3623 		.word	590782409
 1197 0244 26B7D64B 		.word	1272362790
ARM GAS  /tmp/ccUVRMnq.s 			page 22


 1198 0248 76B8D053 		.word	1406187638
 1199 024c 9E92F257 		.word	1475515038
 1200 0250 870634F2 		.word	-231471481
 1201 0254 A4CBD5C2 		.word	-1026176092
 1202 0258 BA6A864A 		.word	1250323130
 1203 025c 00101696 		.word	-1776939008
 1204 0260 5E7A402E 		.word	775977566
 1205 0264 CD7B9949 		.word	1234795469
 1206 0268 24CBDD92 		.word	-1830958300
 1207 026c 7D19AB69 		.word	1772820861
 1208 0270 1C13E58F 		.word	-1880812772
 1209 0274 43F2F12C 		.word	754053699
 1210 0278 445EE7CE 		.word	-823697852
 1211 027c AD9FCB7A 		.word	2060165037
 1212 0280 C0D4D223 		.word	601019584
 1213 0284 94834E25 		.word	625902484
 1214 0288 5B68EA7A 		.word	2062182491
 1215 028c 910C7FF5 		.word	-176223087
 1216 0290 EAAA756F 		.word	1869982442
 1217 0294 0F880DA6 		.word	-1509062641
 1218 0298 5BBF33A3 		.word	-1556889765
 1219 029c CC9AEB24 		.word	619420364
 1220 02a0 EA5DDA1C 		.word	484072938
 1221 02a4 CB4CDEE3 		.word	-471970613
 1222 02a8 4F6B1AC5 		.word	-988124337
 1223 02ac 4193EFFE 		.word	-17853631
 1224 02b0 4D4CAC8B 		.word	-1951642547
 1225 02b4 F8253174 		.word	1949378040
 1226 02b8 CC79D0AC 		.word	-1395623476
 1227 02bc C591F869 		.word	1777897925
 1228 02c0 B5762470 		.word	1881437877
 1229 02c4 354BE4EE 		.word	-287028427
 1230 02c8 58225CE4 		.word	-463723944
 1231 02cc A031D07E 		.word	2127573408
 1232 02d0 14856FBD 		.word	-1116764908
 1233 02d4 E7D122B4 		.word	-1272786457
 1234 02d8 07A17259 		.word	1500684551
 1235 02dc 7C541FE5 		.word	-450931588
 1236 02e0 3D34CFC9 		.word	-909167555
 1237 02e4 6FCD5BA2 		.word	-1571041937
 1238 02e8 4E187C09 		.word	159127630
 1239 02ec EE22A98C 		.word	-1935072530
 1240 02f0 069AFEA9 		.word	-1442932218
 1241 02f4 B3982FA6 		.word	-1506830157
 1242 02f8 8713BB25 		.word	633017223
 1243 02fc 2B9A301C 		.word	472947243
 1244 0300 59C46719 		.word	426230873
 1245 0304 EBDB9592 		.word	-1835672597
 1246 0308 8EC97234 		.word	879937934
 1247 030c 834801B0 		.word	-1342093181
 1248 0310 28180108 		.word	134289448
 1249 0314 779704C5 		.word	-989554825
 1250 0318 03E5C4A2 		.word	-1564154621
 1251 031c 8A7BB820 		.word	548961162
 1252 0320 77C257E0 		.word	-531119497
 1253 0324 5D176330 		.word	811800413
 1254 0328 DD82E58F 		.word	-1880784163
ARM GAS  /tmp/ccUVRMnq.s 			page 23


 1255 032c 3339D51B 		.word	466958643
 1256 0330 44A0695F 		.word	1600757828
 1257 0334 EFAD110D 		.word	219262447
 1258 0338 BE769791 		.word	-1852344642
 1259 033c 49FAC6F5 		.word	-171509175
 1260 0340 119ED50F 		.word	265657873
 1261 0344 764E948C 		.word	-1936437642
 1262 0348 5FAD2F10 		.word	271560031
 1263 034c A1CB7638 		.word	947309473
 1264 0350 56AA3FD8 		.word	-666916266
 1265 0354 FAC354A4 		.word	-1537948678
 1266 0358 B9102033 		.word	857739449
 1267 035c B9D1D71E 		.word	517460409
 1268 0360 89B82400 		.word	2406537
 1269 0364 271A01A1 		.word	-1593763289
 1270 0368 44D30CAC 		.word	-1408445628
 1271 036c DCD0E405 		.word	98881756
 1272 0370 242A6AEB 		.word	-345363932
 1273 0374 F020B552 		.word	1387602160
 1274 0378 7A251732 		.word	840377722
 1275 037c F0032B3A 		.word	975897584
 1276 0380 3D041DDF 		.word	-551746499
 1277 0384 AFC20FF2 		.word	-233848145
 1278 0388 625A8DB5 		.word	-1249027486
 1279 038c 0D2430F3 		.word	-214948851
 1280 0390 3B8C05A0 		.word	-1610249157
 1281 0394 9C227DFC 		.word	-58908004
 1282 0398 F6D98DC7 		.word	-947004938
 1283 039c 45E5FE15 		.word	369026373
 1284 03a0 DA8CC95B 		.word	1539935450
 1285 03a4 88821E50 		.word	1344176776
 1286 03a8 04AC46D0 		.word	-800674812
 1287 03ac E580EF41 		.word	1106215141
 1288 03b0 FB101246 		.word	1175589115
 1289 03b4 499F7D55 		.word	1434296137
 1290 03b8 813F75B8 		.word	-1200275583
 1291 03bc B2B6B54A 		.word	1253422770
 1292              		.section	.rodata.precomputed_KG,"a",%progbits
 1293              		.align	2
 1294              		.set	.LANCHOR1,. + 0
 1295              		.type	precomputed_KG, %object
 1296              		.size	precomputed_KG, 960
 1297              	precomputed_KG:
 1298 0000 96C298D8 		.word	-661077354
 1299 0004 4539A1F4 		.word	-190760635
 1300 0008 A033EB2D 		.word	770388896
 1301 000c 817D0377 		.word	1996717441
 1302 0010 F240A463 		.word	1671708914
 1303 0014 E5E6BCF8 		.word	-121837851
 1304 0018 47422CE1 		.word	-517193145
 1305 001c F2D1176B 		.word	1796723186
 1306 0020 F551BF37 		.word	935285237
 1307 0024 6840B6CB 		.word	-877248408
 1308 0028 CE5E316B 		.word	1798397646
 1309 002c 5733CE2B 		.word	734933847
 1310 0030 169E0F7C 		.word	2081398294
 1311 0034 4AEBE78E 		.word	-1897403574
ARM GAS  /tmp/ccUVRMnq.s 			page 24


 1312 0038 9B7F1AFE 		.word	-31817829
 1313 003c E242E34F 		.word	1340293858
 1314 0040 63DB148E 		.word	-1911235741
 1315 0044 B45CE790 		.word	-1863885644
 1316 0048 7E1F65AD 		.word	-1385881730
 1317 004c AA3B4929 		.word	692665258
 1318 0050 DE256E32 		.word	846079454
 1319 0054 2E599284 		.word	-2070783698
 1320 0058 A5AA1128 		.word	672246437
 1321 005c BC22A80F 		.word	262677180
 1322 0060 E72E465F 		.word	1598435047
 1323 0064 542411E4 		.word	-468638636
 1324 0068 F582FE50 		.word	1358856949
 1325 006c 50A6B134 		.word	884057680
 1326 0070 8B18DFB3 		.word	-1277224821
 1327 0074 BCD44A6F 		.word	1867175100
 1328 0078 0DA8DBF5 		.word	-170153971
 1329 007c E84AF4BF 		.word	-1074509080
 1330 0080 AF927909 		.word	158962351
 1331 0084 E21C3993 		.word	-1824973598
 1332 0088 FAF1350D 		.word	221639162
 1333 008c FD986CE9 		.word	-378758915
 1334 0090 8927E095 		.word	-1780471927
 1335 0094 DEC057B2 		.word	-1302871842
 1336 0098 6F72D689 		.word	-1982434705
 1337 009c BC4B0A30 		.word	805981116
 1338 00a0 A02781C0 		.word	-1065277536
 1339 00a4 91A254AA 		.word	-1437293935
 1340 00a8 A506D8A9 		.word	-1445460315
 1341 00ac ADEEB15B 		.word	1538387629
 1342 00b0 6F3C1EFF 		.word	-14795665
 1343 00b4 25DB1D7F 		.word	2132663077
 1344 00b8 44469BD0 		.word	-795130300
 1345 00bc E0C7AA72 		.word	1923794912
 1346 00c0 85BD89D7 		.word	-678838907
 1347 00c4 C94FC857 		.word	1472745417
 1348 00c8 C3EA97C2 		.word	-1030231357
 1349 00cc 7DFF35FC 		.word	-63570051
 1350 00d0 6E76C688 		.word	-2000259474
 1351 00d4 D52F98FB 		.word	-73912363
 1352 00d8 675EDBEE 		.word	-287613337
 1353 00dc 9B737D44 		.word	1149072283
 1354 00e0 325BE272 		.word	1927437106
 1355 00e4 C9337E0C 		.word	209597385
 1356 00e8 00E5FAA7 		.word	-1476729600
 1357 00ec 959B343D 		.word	1026857877
 1358 00f0 F7AF4A3A 		.word	977973239
 1359 00f4 959D2EE1 		.word	-517038699
 1360 00f8 EE314183 		.word	-2092879378
 1361 00fc AB25482D 		.word	759702955
 1362 0100 7F361D2A 		.word	706557567
 1363 0104 939C9413 		.word	328506515
 1364 0108 B7110A1A 		.word	436867511
 1365 010c 2BBD7FEF 		.word	-276841173
 1366 0110 60FC1DB9 		.word	-1189217184
 1367 0114 8B06C6DD 		.word	-574224757
 1368 0118 FF729C8A 		.word	-1969458433
ARM GAS  /tmp/ccUVRMnq.s 			page 25


 1369 011c 321995EF 		.word	-275441358
 1370 0120 A8D87673 		.word	1937168552
 1371 0124 A7356019 		.word	425735591
 1372 0128 4017CA95 		.word	-1781917888
 1373 012c 083B1823 		.word	588790536
 1374 0130 9C212C02 		.word	36446620
 1375 0134 0798EEC1 		.word	-1041328121
 1376 0138 9B2CBB7D 		.word	2109418651
 1377 013c C39F1E61 		.word	1629396931
 1378 0140 BCF4570B 		.word	190313660
 1379 0144 92B1E2CA 		.word	-891113070
 1380 0148 36BCC9C6 		.word	-959857610
 1381 014c 5EDF3629 		.word	691461982
 1382 0150 BF3812E1 		.word	-518899521
 1383 0154 8264EA7D 		.word	2112513154
 1384 0158 D8F5517B 		.word	2068968920
 1385 015c 79630655 		.word	1426482041
 1386 0160 4C968A34 		.word	881497676
 1387 0164 16E2FF44 		.word	1157620246
 1388 0168 E1FBDEDB 		.word	-606143519
 1389 016c 76D5B39F 		.word	-1615604362
 1390 0170 E5509D8D 		.word	-1919069979
 1391 0174 0140FA0A 		.word	184172545
 1392 0178 51B8EC8A 		.word	-1964197807
 1393 017c 84647115 		.word	359752836
 1394 0180 01DE5CFC 		.word	-61022719
 1395 0184 FFCA8EE4 		.word	-460403969
 1396 0188 265F710D 		.word	225533734
 1397 018c E784CD7C 		.word	2093843687
 1398 0190 91433EF4 		.word	-197246063
 1399 0194 83F4E8A2 		.word	-1561791357
 1400 0198 EA4111B2 		.word	-1307491862
 1401 019c 45775DEB 		.word	-346196155
 1402 01a0 79341A73 		.word	1931097209
 1403 01a4 E217C9CA 		.word	-892790814
 1404 01a8 45B64428 		.word	675591749
 1405 01ac FE2CF285 		.word	-2047726338
 1406 01b0 EE6C0058 		.word	1476422894
 1407 01b4 A1E69009 		.word	160491169
 1408 01b8 7BC1ECDB 		.word	-605240965
 1409 01bc EB72FDEA 		.word	-352488725
 1410 01c0 BE283731 		.word	825698494
 1411 01c4 FB0FF26C 		.word	1827803131
 1412 01c8 4AB9C6A3 		.word	-1547257526
 1413 01cc 91954396 		.word	-1773955695
 1414 01d0 C55F3144 		.word	1144086469
 1415 01d4 83FF3627 		.word	657915779
 1416 01d8 769284A7 		.word	-1484483978
 1417 01dc 7796D3A6 		.word	-1496082825
 1418 01e0 F4F557C3 		.word	-1017645580
 1419 01e4 33B8BAF2 		.word	-222644173
 1420 01e8 9B058422 		.word	579077531
 1421 01ec 0C924A82 		.word	-2109042164
 1422 01f0 DFEC272D 		.word	757591263
 1423 01f4 BDBAB866 		.word	1723382461
 1424 01f8 16880B9B 		.word	-1693743082
 1425 01fc 74844F67 		.word	1733264500
ARM GAS  /tmp/ccUVRMnq.s 			page 26


 1426 0200 3E8A7C67 		.word	1736215102
 1427 0204 048CF42D 		.word	771001348
 1428 0208 6BA50302 		.word	33793387
 1429 020c 082FE074 		.word	1960849160
 1430 0210 DBFEC7B8 		.word	-1194852645
 1431 0214 7D5F8531 		.word	830824317
 1432 0218 ADDDC972 		.word	1925832109
 1433 021c 769E764E 		.word	1316396662
 1434 0220 B0BB24B8 		.word	-1205552208
 1435 0224 6561C3A4 		.word	-1530699419
 1436 0228 A522913B 		.word	999367333
 1437 022c 6FE19AFB 		.word	-73735825
 1438 0230 81729406 		.word	110391937
 1439 0234 7205C01E 		.word	515900786
 1440 0238 630683DE 		.word	-561838493
 1441 023c 8290B942 		.word	1119457410
 1442 0240 B968A8DD 		.word	-576165703
 1443 0244 5051F96E 		.word	1861833040
 1444 0248 31E10C9C 		.word	-1676877519
 1445 024c 799EF8D1 		.word	-772235655
 1446 0250 78C4A108 		.word	144819320
 1447 0254 A01CDC7F 		.word	2145131680
 1448 0258 4DE06C1C 		.word	476897357
 1449 025c F68E8778 		.word	2022149878
 1450 0260 76D9E01F 		.word	534829430
 1451 0264 12B9629C 		.word	-1671251694
 1452 0268 4F8DE0BD 		.word	-1109357233
 1453 026c 0E57CE6A 		.word	1791907598
 1454 0270 EF9D3012 		.word	305176047
 1455 0274 2C1453DE 		.word	-564980692
 1456 0278 21C3727B 		.word	2071118625
 1457 027c 5D3FCBB6 		.word	-1228193955
 1458 0280 73351AC3 		.word	-1021692557
 1459 0284 D21E997F 		.word	2140741330
 1460 0288 96B44FD5 		.word	-716196714
 1461 028c 5BDD825B 		.word	1535303003
 1462 0290 AEFC2F81 		.word	-2127561554
 1463 0294 20525C59 		.word	1499222560
 1464 0298 87126B71 		.word	1902842503
 1465 029c 4DBC880C 		.word	210287693
 1466 02a0 A8AC485F 		.word	1598598312
 1467 02a4 63BF573A 		.word	978829155
 1468 02a8 F36425DF 		.word	-551197453
 1469 02ac F481817C 		.word	2088862196
 1470 02b0 AAE6049C 		.word	-1677400406
 1471 02b4 B3B5D118 		.word	416396723
 1472 02b8 C61D90F3 		.word	-208659002
 1473 02bc A3DE5DDD 		.word	-581050717
 1474 02c0 0CAD723E 		.word	1047702796
 1475 02c4 FB796AE9 		.word	-378897925
 1476 02c8 2F79BA42 		.word	1119516975
 1477 02cc 8CA2A043 		.word	1134600844
 1478 02d0 F3493E08 		.word	138299891
 1479 02d4 23A4E0EF 		.word	-270490589
 1480 02d8 6674316B 		.word	1798403174
 1481 02dc AF44F368 		.word	1760773295
 1482 02e0 4A4DB23F 		.word	1068649802
ARM GAS  /tmp/ccUVRMnq.s 			page 27


 1483 02e4 DB17FECD 		.word	-838985765
 1484 02e8 26C6F571 		.word	1911932454
 1485 02ec 22FC8B66 		.word	1720450082
 1486 02f0 F37FD624 		.word	618037235
 1487 02f4 3CD94E60 		.word	1615780156
 1488 02f8 200A54F8 		.word	-128710112
 1489 02fc 05C4B931 		.word	834257925
 1490 0300 7F2E58A2 		.word	-1571279233
 1491 0304 89476BD3 		.word	-747944055
 1492 0308 289CC34E 		.word	1321442344
 1493 030c 14101A0D 		.word	219811860
 1494 0310 A0D7BAED 		.word	-306522208
 1495 0314 C3623C66 		.word	1715233475
 1496 0318 B91D466F 		.word	1866866105
 1497 031c 4BBF5240 		.word	1079164747
 1498 0320 EB258D18 		.word	411903467
 1499 0324 C3275A23 		.word	593110979
 1500 0328 5BCCBF99 		.word	-1715483557
 1501 032c 39F324E7 		.word	-417008839
 1502 0330 C80CD771 		.word	1909918920
 1503 0334 BDE62B86 		.word	-2043943235
 1504 0338 61FCB090 		.word	-1867449247
 1505 033c 514DCFFE 		.word	-19968687
 1506 0340 ACCFD4A1 		.word	-1579888724
 1507 0344 106C3474 		.word	1949592592
 1508 0348 A4A72685 		.word	-2061064284
 1509 034c C05CDFAF 		.word	-1344316224
 1510 0350 7AFF2BF6 		.word	-164888710
 1511 0354 A8023212 		.word	305267368
 1512 0358 1AE402C8 		.word	-939334630
 1513 035c E2BADD1E 		.word	517847778
 1514 0360 44F803D6 		.word	-704382908
 1515 0364 2DAFA08F 		.word	-1885294803
 1516 0368 1719704C 		.word	1282414871
 1517 036c 7E6BE036 		.word	920677246
 1518 0370 A033DB73 		.word	1943745440
 1519 0374 52F4450C 		.word	205911122
 1520 0378 FCBC0E56 		.word	1443806460
 1521 037c 864D1043 		.word	1125141894
 1522 0380 E5781D0D 		.word	220035301
 1523 0384 11B51596 		.word	-1776962287
 1524 0388 4B74C425 		.word	633631819
 1525 038c 32DEB066 		.word	1722867250
 1526 0390 3A36AF6A 		.word	1789867578
 1527 0394 FB464A0A 		.word	172639995
 1528 0398 1CA2F784 		.word	-2064145892
 1529 039c B4268EB4 		.word	-1265752396
 1530 03a0 2D1BA021 		.word	564140845
 1531 03a4 F6B0EB06 		.word	116109558
 1532 03a8 980F7B8B 		.word	-1954869352
 1533 03ac 04E404C0 		.word	-1073421308
 1534 03b0 68F6D6FE 		.word	-19466648
 1535 03b4 CD1B1364 		.word	1678973901
 1536 03b8 AB3D4D4D 		.word	1296907691
 1537 03bc 4015C0FA 		.word	-88074944
 1538              		.text
 1539              	.Letext0:
ARM GAS  /tmp/ccUVRMnq.s 			page 28


 1540              		.file 2 "/usr/arm-none-eabi/include/machine/_default_types.h"
 1541              		.file 3 "/usr/arm-none-eabi/include/sys/_stdint.h"
 1542              		.file 4 "/usr/arm-none-eabi/include/sys/lock.h"
 1543              		.file 5 "/usr/arm-none-eabi/include/sys/_types.h"
 1544              		.file 6 "/usr/lib/gcc/arm-none-eabi/7.3.1/include/stddef.h"
 1545              		.file 7 "/usr/arm-none-eabi/include/sys/reent.h"
 1546              		.file 8 "bn.h"
 1547              		.file 9 "modp256r1.h"
 1548              		.file 10 "affine.h"
 1549              		.file 11 "jpc-ac_p256r1.h"
 1550              		.file 12 "ec_p256r1.c"
 1551              		.file 13 "mod.h"
 1552              		.file 14 "<built-in>"