ARM GAS  /tmp/ccYydiie.s 			page 1


   1              		.cpu cortex-m3
   2              		.eabi_attribute 20, 1
   3              		.eabi_attribute 21, 1
   4              		.eabi_attribute 23, 3
   5              		.eabi_attribute 24, 1
   6              		.eabi_attribute 25, 1
   7              		.eabi_attribute 26, 1
   8              		.eabi_attribute 30, 4
   9              		.eabi_attribute 34, 1
  10              		.eabi_attribute 18, 4
  11              		.file	"entry.c"
  12              		.text
  13              	.Ltext0:
  14              		.cfi_sections	.debug_frame
  15              		.section	.text.nmi,"ax",%progbits
  16              		.align	1
  17              		.syntax unified
  18              		.thumb
  19              		.thumb_func
  20              		.fpu softvfp
  21              		.type	nmi, %function
  22              	nmi:
  23              	.LFB14:
  24              		.file 1 "../chopstx/entry.c"
  25              		.loc 1 82 0
  26              		.cfi_startproc
  27              		@ Volatile: function does not return.
  28              		@ args = 0, pretend = 0, frame = 0
  29              		@ frame_needed = 0, uses_anonymous_args = 0
  30              		@ link register save eliminated.
  31              	.L2:
  32 0000 FEE7     		b	.L2
  33              		.cfi_endproc
  34              	.LFE14:
  35              		.size	nmi, .-nmi
  36              		.section	.text.hard_fault,"ax",%progbits
  37              		.align	1
  38              		.syntax unified
  39              		.thumb
  40              		.thumb_func
  41              		.fpu softvfp
  42              		.type	hard_fault, %function
  43              	hard_fault:
  44              	.LFB15:
  45              		.loc 1 87 0
  46              		.cfi_startproc
  47              		@ Volatile: function does not return.
  48              		@ args = 0, pretend = 0, frame = 0
  49              		@ frame_needed = 0, uses_anonymous_args = 0
  50              		@ link register save eliminated.
  51              	.L4:
  52 0000 FEE7     		b	.L4
  53              		.cfi_endproc
  54              	.LFE15:
  55              		.size	hard_fault, .-hard_fault
  56              		.section	.text.mem_manage,"ax",%progbits
  57              		.align	1
ARM GAS  /tmp/ccYydiie.s 			page 2


  58              		.syntax unified
  59              		.thumb
  60              		.thumb_func
  61              		.fpu softvfp
  62              		.type	mem_manage, %function
  63              	mem_manage:
  64              	.LFB16:
  65              		.loc 1 92 0
  66              		.cfi_startproc
  67              		@ Volatile: function does not return.
  68              		@ args = 0, pretend = 0, frame = 0
  69              		@ frame_needed = 0, uses_anonymous_args = 0
  70              		@ link register save eliminated.
  71              	.L6:
  72 0000 FEE7     		b	.L6
  73              		.cfi_endproc
  74              	.LFE16:
  75              		.size	mem_manage, .-mem_manage
  76              		.section	.text.bus_fault,"ax",%progbits
  77              		.align	1
  78              		.syntax unified
  79              		.thumb
  80              		.thumb_func
  81              		.fpu softvfp
  82              		.type	bus_fault, %function
  83              	bus_fault:
  84              	.LFB17:
  85              		.loc 1 97 0
  86              		.cfi_startproc
  87              		@ Volatile: function does not return.
  88              		@ args = 0, pretend = 0, frame = 0
  89              		@ frame_needed = 0, uses_anonymous_args = 0
  90              		@ link register save eliminated.
  91              	.L8:
  92 0000 FEE7     		b	.L8
  93              		.cfi_endproc
  94              	.LFE17:
  95              		.size	bus_fault, .-bus_fault
  96              		.section	.text.usage_fault,"ax",%progbits
  97              		.align	1
  98              		.syntax unified
  99              		.thumb
 100              		.thumb_func
 101              		.fpu softvfp
 102              		.type	usage_fault, %function
 103              	usage_fault:
 104              	.LFB18:
 105              		.loc 1 102 0
 106              		.cfi_startproc
 107              		@ Volatile: function does not return.
 108              		@ args = 0, pretend = 0, frame = 0
 109              		@ frame_needed = 0, uses_anonymous_args = 0
 110              		@ link register save eliminated.
 111              	.L10:
 112 0000 FEE7     		b	.L10
 113              		.cfi_endproc
 114              	.LFE18:
ARM GAS  /tmp/ccYydiie.s 			page 3


 115              		.size	usage_fault, .-usage_fault
 116              		.section	.text.none,"ax",%progbits
 117              		.align	1
 118              		.syntax unified
 119              		.thumb
 120              		.thumb_func
 121              		.fpu softvfp
 122              		.type	none, %function
 123              	none:
 124              	.LFB19:
 125              		.loc 1 107 0
 126              		.cfi_startproc
 127              		@ args = 0, pretend = 0, frame = 0
 128              		@ frame_needed = 0, uses_anonymous_args = 0
 129              		@ link register save eliminated.
 130              		.loc 1 108 0
 131 0000 7047     		bx	lr
 132              		.cfi_endproc
 133              	.LFE19:
 134              		.size	none, .-none
 135              		.section	.text.startup.0,"ax",%progbits
 136              		.align	1
 137              		.syntax unified
 138              		.thumb
 139              		.thumb_func
 140              		.fpu softvfp
 141              		.type	entry, %function
 142              	entry:
 143              	.LFB20:
 144              		.loc 1 124 0
 145              		.cfi_startproc
 146              		@ Naked Function: prologue and epilogue provided by programmer.
 147              		@ args = 0, pretend = 0, frame = 0
 148              		@ frame_needed = 0, uses_anonymous_args = 0
 149              		.loc 1 125 0
 150              		.syntax unified
 151              	@ 125 "../chopstx/entry.c" 1
 152 0000 FFF7FEFF 		bl	clock_init
 153 0004 4FF00000 		mov	r0, #0
 154 0008 1549     		ldr	r1, =_bss_start
 155 000a 164A     		ldr	r2, =_bss_end
 156              	0:
 157 000c 9142     		cmp	r1, r2
 158 000e 02D0     		beq	1f
 159 0010 41F8040B 		str	r0, [r1], #4
 160 0014 FAE7     		b	0b
 161              	1:
 162 0016 1449     		ldr	r1, =_data
 163 0018 144A     		ldr	r2, =_edata
 164 001a 154B     		ldr	r3, =_textdata
 165              	2:
 166 001c 9142     		cmp	r1, r2
 167 001e 04D0     		beq	3f
 168 0020 53F8040B 		ldr	r0, [r3], #4
 169 0024 41F8040B 		str	r0, [r1], #4
 170 0028 F8E7     		b	2b
 171              	3:
ARM GAS  /tmp/ccYydiie.s 			page 4


 172 002a 1248     		ldr	r0, =__process0_stack_end__
 173 002c A0F14000 		sub	r0, #64
 174 0030 80F30988 		msr	PSP, r0
 175 0034 4FF00201 		mov	r1, #2
 176 0038 81F31488 		msr	CONTROL, r1
 177 003c BFF36F8F 		isb
 178 0040 FFF7FEFF 		bl	chx_init
 179 0044 FFF7FEFF 		bl	chx_systick_init
 180 0048 FFF7FEFF 		bl	gpio_init
 181 004c 4FF00000 		mov	r0, #0
 182 0050 80F31188 		msr	BASEPRI, r0
 183 0054 62B6     		cpsie	i
 184 0056 0146     		mov	r1, r0
 185 0058 FFF7FEFF 		bl	main
 186              	4:
 187 005c FEE7     		b	4b
 188              	@ 0 "" 2
 189              		.loc 1 181 0
 190              		.thumb
 191              		.syntax unified
 192              		.cfi_endproc
 193              	.LFE20:
 194              		.size	entry, .-entry
 195 005e 0000     		.section	.text.clock_init,"ax",%progbits
 196              		.align	1
 197              		.syntax unified
 198              		.thumb
 199              		.thumb_func
 200              		.fpu softvfp
 201              		.type	clock_init, %function
 202              	clock_init:
 203              	.LFB12:
 204              		.file 2 "../chopstx/mcu/sys-stm32f103.h"
 205              		.loc 2 122 0
 206              		.cfi_startproc
 207              		@ args = 0, pretend = 0, frame = 0
 208              		@ frame_needed = 0, uses_anonymous_args = 0
 209              		@ link register save eliminated.
 210              		.loc 2 123 0
 211 0000 014B     		ldr	r3, .L14
 212 0002 5B6B     		ldr	r3, [r3, #52]
 213 0004 1847     		bx	r3	@ indirect register sibling call
 214              	.LVL0:
 215              	.L15:
 216 0006 00BF     		.align	2
 217              	.L14:
 218 0008 00000000 		.word	vector
 219              		.cfi_endproc
 220              	.LFE12:
 221              		.size	clock_init, .-clock_init
 222              		.section	.text.gpio_init,"ax",%progbits
 223              		.align	1
 224              		.syntax unified
 225              		.thumb
 226              		.thumb_func
 227              		.fpu softvfp
 228              		.type	gpio_init, %function
ARM GAS  /tmp/ccYydiie.s 			page 5


 229              	gpio_init:
 230              	.LFB13:
 231              		.loc 2 128 0
 232              		.cfi_startproc
 233              		@ args = 0, pretend = 0, frame = 0
 234              		@ frame_needed = 0, uses_anonymous_args = 0
 235              		@ link register save eliminated.
 236              		.loc 2 129 0
 237 0000 014B     		ldr	r3, .L17
 238 0002 9B6B     		ldr	r3, [r3, #56]
 239 0004 1847     		bx	r3	@ indirect register sibling call
 240              	.LVL1:
 241              	.L18:
 242 0006 00BF     		.align	2
 243              	.L17:
 244 0008 00000000 		.word	vector
 245              		.cfi_endproc
 246              	.LFE13:
 247              		.size	gpio_init, .-gpio_init
 248              		.global	vector_table
 249              		.section	.startup.vectors,"aw",%progbits
 250              		.align	2
 251              		.type	vector_table, %object
 252              		.size	vector_table, 312
 253              	vector_table:
 254 0000 E0FFFFFF 		.word	__main_stack_end__-32
 255 0004 00000000 		.word	entry
 256 0008 00000000 		.word	nmi
 257 000c 00000000 		.word	hard_fault
 258 0010 00000000 		.word	mem_manage
 259 0014 00000000 		.word	bus_fault
 260 0018 00000000 		.word	usage_fault
 261 001c 00000000 		.word	none
 262 0020 00000000 		.word	none
 263 0024 00000000 		.word	none
 264 0028 00000000 		.word	none
 265 002c 00000000 		.word	svc
 266 0030 00000000 		.word	none
 267 0034 00000000 		.word	none
 268 0038 00000000 		.word	preempt
 269 003c 00000000 		.word	chx_timer_expired
 270 0040 00000000 		.word	chx_handle_intr
 271 0044 00000000 		.word	chx_handle_intr
 272 0048 00000000 		.word	chx_handle_intr
 273 004c 00000000 		.word	chx_handle_intr
 274 0050 00000000 		.word	chx_handle_intr
 275 0054 00000000 		.word	chx_handle_intr
 276 0058 00000000 		.word	chx_handle_intr
 277 005c 00000000 		.word	chx_handle_intr
 278 0060 00000000 		.word	chx_handle_intr
 279 0064 00000000 		.word	chx_handle_intr
 280 0068 00000000 		.word	chx_handle_intr
 281 006c 00000000 		.word	chx_handle_intr
 282 0070 00000000 		.word	chx_handle_intr
 283 0074 00000000 		.word	chx_handle_intr
 284 0078 00000000 		.word	chx_handle_intr
 285 007c 00000000 		.word	chx_handle_intr
ARM GAS  /tmp/ccYydiie.s 			page 6


 286 0080 00000000 		.word	chx_handle_intr
 287 0084 00000000 		.word	chx_handle_intr
 288 0088 00000000 		.word	chx_handle_intr
 289 008c 00000000 		.word	chx_handle_intr
 290 0090 00000000 		.word	chx_handle_intr
 291 0094 00000000 		.word	chx_handle_intr
 292 0098 00000000 		.word	chx_handle_intr
 293 009c 00000000 		.word	chx_handle_intr
 294 00a0 00000000 		.word	chx_handle_intr
 295 00a4 00000000 		.word	chx_handle_intr
 296 00a8 00000000 		.word	chx_handle_intr
 297 00ac 00000000 		.word	chx_handle_intr
 298 00b0 00000000 		.word	chx_handle_intr
 299 00b4 00000000 		.word	chx_handle_intr
 300 00b8 00000000 		.word	chx_handle_intr
 301 00bc 00000000 		.word	chx_handle_intr
 302 00c0 00000000 		.word	chx_handle_intr
 303 00c4 00000000 		.word	chx_handle_intr
 304 00c8 00000000 		.word	chx_handle_intr
 305 00cc 00000000 		.word	chx_handle_intr
 306 00d0 00000000 		.word	chx_handle_intr
 307 00d4 00000000 		.word	chx_handle_intr
 308 00d8 00000000 		.word	chx_handle_intr
 309 00dc 00000000 		.word	chx_handle_intr
 310 00e0 00000000 		.word	chx_handle_intr
 311 00e4 00000000 		.word	chx_handle_intr
 312 00e8 00000000 		.word	chx_handle_intr
 313 00ec 00000000 		.word	chx_handle_intr
 314 00f0 00000000 		.word	chx_handle_intr
 315 00f4 00000000 		.word	chx_handle_intr
 316 00f8 00000000 		.word	chx_handle_intr
 317 00fc 00000000 		.word	chx_handle_intr
 318 0100 00000000 		.word	chx_handle_intr
 319 0104 00000000 		.word	chx_handle_intr
 320 0108 00000000 		.word	chx_handle_intr
 321 010c 00000000 		.word	chx_handle_intr
 322 0110 00000000 		.word	chx_handle_intr
 323 0114 00000000 		.word	chx_handle_intr
 324 0118 00000000 		.word	chx_handle_intr
 325 011c 00000000 		.word	chx_handle_intr
 326 0120 00000000 		.word	chx_handle_intr
 327 0124 00000000 		.word	chx_handle_intr
 328 0128 00000000 		.word	chx_handle_intr
 329 012c 00000000 		.word	chx_handle_intr
 330 0130 00000000 		.word	chx_handle_intr
 331 0134 00000000 		.word	chx_handle_intr
 332              		.text
 333              	.Letext0:
 334              		.file 3 "/usr/arm-none-eabi/include/machine/_default_types.h"
 335              		.file 4 "/usr/arm-none-eabi/include/sys/_stdint.h"
 336              		.file 5 "/usr/arm-none-eabi/include/sys/lock.h"
 337              		.file 6 "/usr/arm-none-eabi/include/sys/_types.h"
 338              		.file 7 "/usr/lib/gcc/arm-none-eabi/7.3.1/include/stddef.h"
 339              		.file 8 "/usr/arm-none-eabi/include/sys/reent.h"
 340              		.file 9 "/usr/arm-none-eabi/include/stdlib.h"
 341              		.file 10 "../chopstx/chopstx.h"