ARM GAS  /tmp/ccjYL3qA.s 			page 1


   1              		.cpu cortex-m3
   2              		.eabi_attribute 20, 1
   3              		.eabi_attribute 21, 1
   4              		.eabi_attribute 23, 3
   5              		.eabi_attribute 24, 1
   6              		.eabi_attribute 25, 1
   7              		.eabi_attribute 26, 1
   8              		.eabi_attribute 30, 4
   9              		.eabi_attribute 34, 1
  10              		.eabi_attribute 18, 4
  11              		.file	"eventflag.c"
  12              		.text
  13              	.Ltext0:
  14              		.cfi_sections	.debug_frame
  15              		.section	.text.eventflag_check,"ax",%progbits
  16              		.align	1
  17              		.syntax unified
  18              		.thumb
  19              		.thumb_func
  20              		.fpu softvfp
  21              		.type	eventflag_check, %function
  22              	eventflag_check:
  23              	.LFB1:
  24              		.file 1 "../chopstx/eventflag.c"
  25              		.loc 1 46 0
  26              		.cfi_startproc
  27              		@ args = 0, pretend = 0, frame = 0
  28              		@ frame_needed = 0, uses_anonymous_args = 0
  29              		@ link register save eliminated.
  30              	.LVL0:
  31              		.loc 1 49 0
  32 0000 0068     		ldr	r0, [r0]
  33              	.LVL1:
  34              		.loc 1 50 0
  35 0002 0030     		adds	r0, r0, #0
  36 0004 18BF     		it	ne
  37 0006 0120     		movne	r0, #1
  38 0008 7047     		bx	lr
  39              		.cfi_endproc
  40              	.LFE1:
  41              		.size	eventflag_check, .-eventflag_check
  42              		.section	.text.eventflag_init,"ax",%progbits
  43              		.align	1
  44              		.global	eventflag_init
  45              		.syntax unified
  46              		.thumb
  47              		.thumb_func
  48              		.fpu softvfp
  49              		.type	eventflag_init, %function
  50              	eventflag_init:
  51              	.LFB0:
  52              		.loc 1 37 0
  53              		.cfi_startproc
  54              		@ args = 0, pretend = 0, frame = 0
  55              		@ frame_needed = 0, uses_anonymous_args = 0
  56              	.LVL2:
  57              		.loc 1 38 0
ARM GAS  /tmp/ccjYL3qA.s 			page 2


  58 0000 0023     		movs	r3, #0
  59              		.loc 1 37 0
  60 0002 10B5     		push	{r4, lr}
  61              		.cfi_def_cfa_offset 8
  62              		.cfi_offset 4, -8
  63              		.cfi_offset 14, -4
  64              		.loc 1 37 0
  65 0004 0446     		mov	r4, r0
  66              		.loc 1 38 0
  67 0006 40F8143B 		str	r3, [r0], #20
  68              	.LVL3:
  69              		.loc 1 39 0
  70 000a FFF7FEFF 		bl	chopstx_cond_init
  71              	.LVL4:
  72              		.loc 1 40 0
  73 000e 201D     		adds	r0, r4, #4
  74              		.loc 1 41 0
  75 0010 BDE81040 		pop	{r4, lr}
  76              		.cfi_restore 14
  77              		.cfi_restore 4
  78              		.cfi_def_cfa_offset 0
  79              	.LVL5:
  80              		.loc 1 40 0
  81 0014 FFF7FEBF 		b	chopstx_mutex_init
  82              	.LVL6:
  83              		.cfi_endproc
  84              	.LFE0:
  85              		.size	eventflag_init, .-eventflag_init
  86              		.section	.text.eventflag_prepare_poll,"ax",%progbits
  87              		.align	1
  88              		.global	eventflag_prepare_poll
  89              		.syntax unified
  90              		.thumb
  91              		.thumb_func
  92              		.fpu softvfp
  93              		.type	eventflag_prepare_poll, %function
  94              	eventflag_prepare_poll:
  95              	.LFB2:
  96              		.loc 1 55 0
  97              		.cfi_startproc
  98              		@ args = 0, pretend = 0, frame = 0
  99              		@ frame_needed = 0, uses_anonymous_args = 0
 100              		@ link register save eliminated.
 101              	.LVL7:
 102              		.loc 1 56 0
 103 0000 0023     		movs	r3, #0
 104 0002 0B60     		str	r3, [r1]
 105              		.loc 1 58 0
 106 0004 00F11403 		add	r3, r0, #20
 107 0008 4B60     		str	r3, [r1, #4]
 108              		.loc 1 59 0
 109 000a 031D     		adds	r3, r0, #4
 110 000c 8B60     		str	r3, [r1, #8]
 111              		.loc 1 60 0
 112 000e 024B     		ldr	r3, .L4
 113              		.loc 1 61 0
 114 0010 C1E90330 		strd	r3, r0, [r1, #12]
ARM GAS  /tmp/ccjYL3qA.s 			page 3


 115              		.loc 1 62 0
 116 0014 7047     		bx	lr
 117              	.L5:
 118 0016 00BF     		.align	2
 119              	.L4:
 120 0018 00000000 		.word	eventflag_check
 121              		.cfi_endproc
 122              	.LFE2:
 123              		.size	eventflag_prepare_poll, .-eventflag_prepare_poll
 124              		.section	.text.eventflag_get,"ax",%progbits
 125              		.align	1
 126              		.global	eventflag_get
 127              		.syntax unified
 128              		.thumb
 129              		.thumb_func
 130              		.fpu softvfp
 131              		.type	eventflag_get, %function
 132              	eventflag_get:
 133              	.LFB3:
 134              		.loc 1 67 0
 135              		.cfi_startproc
 136              		@ args = 0, pretend = 0, frame = 0
 137              		@ frame_needed = 0, uses_anonymous_args = 0
 138              	.LVL8:
 139 0000 70B5     		push	{r4, r5, r6, lr}
 140              		.cfi_def_cfa_offset 16
 141              		.cfi_offset 4, -16
 142              		.cfi_offset 5, -12
 143              		.cfi_offset 6, -8
 144              		.cfi_offset 14, -4
 145              		.loc 1 67 0
 146 0002 0546     		mov	r5, r0
 147              		.loc 1 71 0
 148 0004 061D     		adds	r6, r0, #4
 149 0006 3046     		mov	r0, r6
 150              	.LVL9:
 151 0008 FFF7FEFF 		bl	chopstx_mutex_lock
 152              	.LVL10:
 153              		.loc 1 72 0
 154 000c 2B68     		ldr	r3, [r5]
 155              		.loc 1 80 0
 156 000e 3046     		mov	r0, r6
 157              		.loc 1 72 0
 158 0010 93FAA3F2 		rbit	r2, r3
 159 0014 002B     		cmp	r3, #0
 160 0016 B2FA82F2 		clz	r2, r2
 161 001a 08BF     		it	eq
 162 001c 4FF0FF32 		moveq	r2, #-1
 163              	.LVL11:
 164              		.loc 1 73 0
 165 0020 541C     		adds	r4, r2, #1
 166              	.LVL12:
 167              		.loc 1 75 0
 168 0022 1FBF     		itttt	ne
 169 0024 0124     		movne	r4, #1
 170              	.LVL13:
 171 0026 9440     		lslne	r4, r4, r2
ARM GAS  /tmp/ccjYL3qA.s 			page 4


 172              	.LVL14:
 173              		.loc 1 76 0
 174 0028 A343     		bicne	r3, r3, r4
 175 002a 2B60     		strne	r3, [r5]
 176              		.loc 1 80 0
 177 002c FFF7FEFF 		bl	chopstx_mutex_unlock
 178              	.LVL15:
 179              		.loc 1 83 0
 180 0030 2046     		mov	r0, r4
 181 0032 70BD     		pop	{r4, r5, r6, pc}
 182              		.cfi_endproc
 183              	.LFE3:
 184              		.size	eventflag_get, .-eventflag_get
 185              		.section	.text.eventflag_wait,"ax",%progbits
 186              		.align	1
 187              		.global	eventflag_wait
 188              		.syntax unified
 189              		.thumb
 190              		.thumb_func
 191              		.fpu softvfp
 192              		.type	eventflag_wait, %function
 193              	eventflag_wait:
 194              	.LFB4:
 195              		.loc 1 88 0
 196              		.cfi_startproc
 197              		@ args = 0, pretend = 0, frame = 0
 198              		@ frame_needed = 0, uses_anonymous_args = 0
 199              	.LVL16:
 200 0000 70B5     		push	{r4, r5, r6, lr}
 201              		.cfi_def_cfa_offset 16
 202              		.cfi_offset 4, -16
 203              		.cfi_offset 5, -12
 204              		.cfi_offset 6, -8
 205              		.cfi_offset 14, -4
 206              		.loc 1 88 0
 207 0002 0546     		mov	r5, r0
 208              		.loc 1 92 0
 209 0004 061D     		adds	r6, r0, #4
 210 0006 3046     		mov	r0, r6
 211              	.LVL17:
 212 0008 FFF7FEFF 		bl	chopstx_mutex_lock
 213              	.LVL18:
 214              		.loc 1 93 0
 215 000c 2B68     		ldr	r3, [r5]
 216 000e 23B9     		cbnz	r3, .L11
 217              		.loc 1 94 0
 218 0010 3146     		mov	r1, r6
 219 0012 05F11400 		add	r0, r5, #20
 220 0016 FFF7FEFF 		bl	chopstx_cond_wait
 221              	.LVL19:
 222              	.L11:
 223              		.loc 1 96 0
 224 001a 2B68     		ldr	r3, [r5]
 225              		.loc 1 104 0
 226 001c 3046     		mov	r0, r6
 227              		.loc 1 96 0
 228 001e 93FAA3F2 		rbit	r2, r3
ARM GAS  /tmp/ccjYL3qA.s 			page 5


 229 0022 002B     		cmp	r3, #0
 230 0024 B2FA82F2 		clz	r2, r2
 231 0028 08BF     		it	eq
 232 002a 4FF0FF32 		moveq	r2, #-1
 233              	.LVL20:
 234              		.loc 1 97 0
 235 002e 541C     		adds	r4, r2, #1
 236              	.LVL21:
 237              		.loc 1 99 0
 238 0030 1FBF     		itttt	ne
 239 0032 0124     		movne	r4, #1
 240              	.LVL22:
 241 0034 9440     		lslne	r4, r4, r2
 242              	.LVL23:
 243              		.loc 1 100 0
 244 0036 A343     		bicne	r3, r3, r4
 245 0038 2B60     		strne	r3, [r5]
 246              		.loc 1 104 0
 247 003a FFF7FEFF 		bl	chopstx_mutex_unlock
 248              	.LVL24:
 249              		.loc 1 107 0
 250 003e 2046     		mov	r0, r4
 251 0040 70BD     		pop	{r4, r5, r6, pc}
 252              		.cfi_endproc
 253              	.LFE4:
 254              		.size	eventflag_wait, .-eventflag_wait
 255              		.section	.text.eventflag_wait_timeout,"ax",%progbits
 256              		.align	1
 257              		.global	eventflag_wait_timeout
 258              		.syntax unified
 259              		.thumb
 260              		.thumb_func
 261              		.fpu softvfp
 262              		.type	eventflag_wait_timeout, %function
 263              	eventflag_wait_timeout:
 264              	.LFB5:
 265              		.loc 1 112 0
 266              		.cfi_startproc
 267              		@ args = 0, pretend = 0, frame = 32
 268              		@ frame_needed = 0, uses_anonymous_args = 0
 269              	.LVL25:
 270 0000 10B5     		push	{r4, lr}
 271              		.cfi_def_cfa_offset 8
 272              		.cfi_offset 4, -8
 273              		.cfi_offset 14, -4
 274 0002 88B0     		sub	sp, sp, #32
 275              		.cfi_def_cfa_offset 40
 276              		.loc 1 114 0
 277 0004 03AB     		add	r3, sp, #12
 278 0006 0293     		str	r3, [sp, #8]
 279              	.LVL26:
 280              	.LBB4:
 281              	.LBB5:
 282              		.loc 1 56 0
 283 0008 0023     		movs	r3, #0
 284              	.LVL27:
 285              	.LBE5:
ARM GAS  /tmp/ccjYL3qA.s 			page 6


 286              	.LBE4:
 287              		.loc 1 112 0
 288 000a 0446     		mov	r4, r0
 289              	.LBB8:
 290              	.LBB6:
 291              		.loc 1 56 0
 292 000c 0393     		str	r3, [sp, #12]
 293              		.loc 1 58 0
 294 000e 00F11403 		add	r3, r0, #20
 295 0012 0493     		str	r3, [sp, #16]
 296              		.loc 1 59 0
 297 0014 031D     		adds	r3, r0, #4
 298 0016 0593     		str	r3, [sp, #20]
 299              		.loc 1 60 0
 300 0018 064B     		ldr	r3, .L16
 301              	.LBE6:
 302              	.LBE8:
 303              		.loc 1 112 0
 304 001a 0191     		str	r1, [sp, #4]
 305              	.LBB9:
 306              	.LBB7:
 307              		.loc 1 61 0
 308 001c CDE90630 		strd	r3, r0, [sp, #24]
 309              	.LVL28:
 310              	.LBE7:
 311              	.LBE9:
 312              		.loc 1 117 0
 313 0020 02AA     		add	r2, sp, #8
 314 0022 0121     		movs	r1, #1
 315              	.LVL29:
 316 0024 01A8     		add	r0, sp, #4
 317              	.LVL30:
 318 0026 FFF7FEFF 		bl	chopstx_poll
 319              	.LVL31:
 320              		.loc 1 118 0
 321 002a 2046     		mov	r0, r4
 322 002c FFF7FEFF 		bl	eventflag_get
 323              	.LVL32:
 324              		.loc 1 119 0
 325 0030 08B0     		add	sp, sp, #32
 326              		.cfi_def_cfa_offset 8
 327              		@ sp needed
 328 0032 10BD     		pop	{r4, pc}
 329              	.LVL33:
 330              	.L17:
 331              		.align	2
 332              	.L16:
 333 0034 00000000 		.word	eventflag_check
 334              		.cfi_endproc
 335              	.LFE5:
 336              		.size	eventflag_wait_timeout, .-eventflag_wait_timeout
 337              		.section	.text.eventflag_signal,"ax",%progbits
 338              		.align	1
 339              		.global	eventflag_signal
 340              		.syntax unified
 341              		.thumb
 342              		.thumb_func
ARM GAS  /tmp/ccjYL3qA.s 			page 7


 343              		.fpu softvfp
 344              		.type	eventflag_signal, %function
 345              	eventflag_signal:
 346              	.LFB6:
 347              		.loc 1 124 0
 348              		.cfi_startproc
 349              		@ args = 0, pretend = 0, frame = 0
 350              		@ frame_needed = 0, uses_anonymous_args = 0
 351              	.LVL34:
 352 0000 70B5     		push	{r4, r5, r6, lr}
 353              		.cfi_def_cfa_offset 16
 354              		.cfi_offset 4, -16
 355              		.cfi_offset 5, -12
 356              		.cfi_offset 6, -8
 357              		.cfi_offset 14, -4
 358              		.loc 1 124 0
 359 0002 0446     		mov	r4, r0
 360              		.loc 1 125 0
 361 0004 051D     		adds	r5, r0, #4
 362              		.loc 1 124 0
 363 0006 0E46     		mov	r6, r1
 364              		.loc 1 125 0
 365 0008 2846     		mov	r0, r5
 366              	.LVL35:
 367 000a FFF7FEFF 		bl	chopstx_mutex_lock
 368              	.LVL36:
 369              		.loc 1 126 0
 370 000e 2046     		mov	r0, r4
 371 0010 2368     		ldr	r3, [r4]
 372 0012 3343     		orrs	r3, r3, r6
 373 0014 40F8143B 		str	r3, [r0], #20
 374              		.loc 1 127 0
 375 0018 FFF7FEFF 		bl	chopstx_cond_signal
 376              	.LVL37:
 377              		.loc 1 128 0
 378 001c 2846     		mov	r0, r5
 379              		.loc 1 129 0
 380 001e BDE87040 		pop	{r4, r5, r6, lr}
 381              		.cfi_restore 14
 382              		.cfi_restore 6
 383              		.cfi_restore 5
 384              		.cfi_restore 4
 385              		.cfi_def_cfa_offset 0
 386              	.LVL38:
 387              		.loc 1 128 0
 388 0022 FFF7FEBF 		b	chopstx_mutex_unlock
 389              	.LVL39:
 390              		.cfi_endproc
 391              	.LFE6:
 392              		.size	eventflag_signal, .-eventflag_signal
 393              		.text
 394              	.Letext0:
 395              		.file 2 "/usr/arm-none-eabi/include/machine/_default_types.h"
 396              		.file 3 "/usr/arm-none-eabi/include/sys/_stdint.h"
 397              		.file 4 "/usr/arm-none-eabi/include/sys/lock.h"
 398              		.file 5 "/usr/arm-none-eabi/include/sys/_types.h"
 399              		.file 6 "/usr/lib/gcc/arm-none-eabi/7.3.1/include/stddef.h"
ARM GAS  /tmp/ccjYL3qA.s 			page 8


 400              		.file 7 "/usr/arm-none-eabi/include/sys/reent.h"
 401              		.file 8 "/usr/arm-none-eabi/include/stdlib.h"
 402              		.file 9 "../chopstx/chopstx.h"
 403              		.file 10 "../chopstx/eventflag.h"
 404              		.section	.debug_info,"",%progbits
 405              	.Ldebug_info0:
 406 0000 DE0D0000 		.4byte	0xdde
 407 0004 0400     		.2byte	0x4
 408 0006 00000000 		.4byte	.Ldebug_abbrev0
 409 000a 04       		.byte	0x4
 410 000b 01       		.uleb128 0x1
 411 000c 0E060000 		.4byte	.LASF171
 412 0010 0C       		.byte	0xc
 413 0011 C4020000 		.4byte	.LASF172
 414 0015 33010000 		.4byte	.LASF173
 415 0019 20000000 		.4byte	.Ldebug_ranges0+0x20
 416 001d 00000000 		.4byte	0
 417 0021 00000000 		.4byte	.Ldebug_line0
 418 0025 02       		.uleb128 0x2
 419 0026 01       		.byte	0x1
 420 0027 06       		.byte	0x6
 421 0028 F1000000 		.4byte	.LASF0
 422 002c 02       		.uleb128 0x2
 423 002d 01       		.byte	0x1
 424 002e 08       		.byte	0x8
 425 002f 6F040000 		.4byte	.LASF1
 426 0033 02       		.uleb128 0x2
 427 0034 02       		.byte	0x2
 428 0035 05       		.byte	0x5
 429 0036 8B040000 		.4byte	.LASF2
 430 003a 03       		.uleb128 0x3
 431 003b B7050000 		.4byte	.LASF5
 432 003f 02       		.byte	0x2
 433 0040 39       		.byte	0x39
 434 0041 45000000 		.4byte	0x45
 435 0045 02       		.uleb128 0x2
 436 0046 02       		.byte	0x2
 437 0047 07       		.byte	0x7
 438 0048 EF020000 		.4byte	.LASF3
 439 004c 02       		.uleb128 0x2
 440 004d 04       		.byte	0x4
 441 004e 05       		.byte	0x5
 442 004f 75010000 		.4byte	.LASF4
 443 0053 03       		.uleb128 0x3
 444 0054 0D020000 		.4byte	.LASF6
 445 0058 02       		.byte	0x2
 446 0059 4F       		.byte	0x4f
 447 005a 5E000000 		.4byte	0x5e
 448 005e 02       		.uleb128 0x2
 449 005f 04       		.byte	0x4
 450 0060 07       		.byte	0x7
 451 0061 AC020000 		.4byte	.LASF7
 452 0065 02       		.uleb128 0x2
 453 0066 08       		.byte	0x8
 454 0067 05       		.byte	0x5
 455 0068 E3000000 		.4byte	.LASF8
 456 006c 02       		.uleb128 0x2
ARM GAS  /tmp/ccjYL3qA.s 			page 9


 457 006d 08       		.byte	0x8
 458 006e 07       		.byte	0x7
 459 006f 69000000 		.4byte	.LASF9
 460 0073 04       		.uleb128 0x4
 461 0074 04       		.byte	0x4
 462 0075 05       		.byte	0x5
 463 0076 696E7400 		.ascii	"int\000"
 464 007a 03       		.uleb128 0x3
 465 007b C6040000 		.4byte	.LASF10
 466 007f 02       		.byte	0x2
 467 0080 E8       		.byte	0xe8
 468 0081 85000000 		.4byte	0x85
 469 0085 02       		.uleb128 0x2
 470 0086 04       		.byte	0x4
 471 0087 07       		.byte	0x7
 472 0088 5B020000 		.4byte	.LASF11
 473 008c 03       		.uleb128 0x3
 474 008d A9010000 		.4byte	.LASF12
 475 0091 03       		.byte	0x3
 476 0092 24       		.byte	0x24
 477 0093 3A000000 		.4byte	0x3a
 478 0097 03       		.uleb128 0x3
 479 0098 64050000 		.4byte	.LASF13
 480 009c 03       		.byte	0x3
 481 009d 30       		.byte	0x30
 482 009e 53000000 		.4byte	0x53
 483 00a2 03       		.uleb128 0x3
 484 00a3 12000000 		.4byte	.LASF14
 485 00a7 03       		.byte	0x3
 486 00a8 52       		.byte	0x52
 487 00a9 7A000000 		.4byte	0x7a
 488 00ad 02       		.uleb128 0x2
 489 00ae 08       		.byte	0x8
 490 00af 04       		.byte	0x4
 491 00b0 86030000 		.4byte	.LASF15
 492 00b4 03       		.uleb128 0x3
 493 00b5 44030000 		.4byte	.LASF16
 494 00b9 04       		.byte	0x4
 495 00ba 22       		.byte	0x22
 496 00bb BF000000 		.4byte	0xbf
 497 00bf 05       		.uleb128 0x5
 498 00c0 04       		.byte	0x4
 499 00c1 C5000000 		.4byte	0xc5
 500 00c5 06       		.uleb128 0x6
 501 00c6 5D050000 		.4byte	.LASF123
 502 00ca 03       		.uleb128 0x3
 503 00cb F1030000 		.4byte	.LASF17
 504 00cf 05       		.byte	0x5
 505 00d0 2C       		.byte	0x2c
 506 00d1 4C000000 		.4byte	0x4c
 507 00d5 03       		.uleb128 0x3
 508 00d6 89050000 		.4byte	.LASF18
 509 00da 05       		.byte	0x5
 510 00db 72       		.byte	0x72
 511 00dc 4C000000 		.4byte	0x4c
 512 00e0 07       		.uleb128 0x7
 513 00e1 4C030000 		.4byte	.LASF19
ARM GAS  /tmp/ccjYL3qA.s 			page 10


 514 00e5 06       		.byte	0x6
 515 00e6 6501     		.2byte	0x165
 516 00e8 85000000 		.4byte	0x85
 517 00ec 08       		.uleb128 0x8
 518 00ed 04       		.byte	0x4
 519 00ee 05       		.byte	0x5
 520 00ef A6       		.byte	0xa6
 521 00f0 0B010000 		.4byte	0x10b
 522 00f4 09       		.uleb128 0x9
 523 00f5 3E030000 		.4byte	.LASF20
 524 00f9 05       		.byte	0x5
 525 00fa A8       		.byte	0xa8
 526 00fb E0000000 		.4byte	0xe0
 527 00ff 09       		.uleb128 0x9
 528 0100 68020000 		.4byte	.LASF21
 529 0104 05       		.byte	0x5
 530 0105 A9       		.byte	0xa9
 531 0106 0B010000 		.4byte	0x10b
 532 010a 00       		.byte	0
 533 010b 0A       		.uleb128 0xa
 534 010c 2C000000 		.4byte	0x2c
 535 0110 1B010000 		.4byte	0x11b
 536 0114 0B       		.uleb128 0xb
 537 0115 85000000 		.4byte	0x85
 538 0119 03       		.byte	0x3
 539 011a 00       		.byte	0
 540 011b 0C       		.uleb128 0xc
 541 011c 08       		.byte	0x8
 542 011d 05       		.byte	0x5
 543 011e A3       		.byte	0xa3
 544 011f 3C010000 		.4byte	0x13c
 545 0123 0D       		.uleb128 0xd
 546 0124 55050000 		.4byte	.LASF22
 547 0128 05       		.byte	0x5
 548 0129 A5       		.byte	0xa5
 549 012a 73000000 		.4byte	0x73
 550 012e 00       		.byte	0
 551 012f 0D       		.uleb128 0xd
 552 0130 06060000 		.4byte	.LASF23
 553 0134 05       		.byte	0x5
 554 0135 AA       		.byte	0xaa
 555 0136 EC000000 		.4byte	0xec
 556 013a 04       		.byte	0x4
 557 013b 00       		.byte	0
 558 013c 03       		.uleb128 0x3
 559 013d B3040000 		.4byte	.LASF24
 560 0141 05       		.byte	0x5
 561 0142 AB       		.byte	0xab
 562 0143 1B010000 		.4byte	0x11b
 563 0147 03       		.uleb128 0x3
 564 0148 1E020000 		.4byte	.LASF25
 565 014c 05       		.byte	0x5
 566 014d AF       		.byte	0xaf
 567 014e B4000000 		.4byte	0xb4
 568 0152 0E       		.uleb128 0xe
 569 0153 04       		.byte	0x4
 570 0154 05       		.uleb128 0x5
ARM GAS  /tmp/ccjYL3qA.s 			page 11


 571 0155 04       		.byte	0x4
 572 0156 5A010000 		.4byte	0x15a
 573 015a 02       		.uleb128 0x2
 574 015b 01       		.byte	0x1
 575 015c 08       		.byte	0x8
 576 015d 98050000 		.4byte	.LASF26
 577 0161 0F       		.uleb128 0xf
 578 0162 5A010000 		.4byte	0x15a
 579 0166 03       		.uleb128 0x3
 580 0167 C4060000 		.4byte	.LASF27
 581 016b 07       		.byte	0x7
 582 016c 16       		.byte	0x16
 583 016d 5E000000 		.4byte	0x5e
 584 0171 10       		.uleb128 0x10
 585 0172 2F020000 		.4byte	.LASF32
 586 0176 18       		.byte	0x18
 587 0177 07       		.byte	0x7
 588 0178 2F       		.byte	0x2f
 589 0179 C4010000 		.4byte	0x1c4
 590 017d 0D       		.uleb128 0xd
 591 017e E5050000 		.4byte	.LASF28
 592 0182 07       		.byte	0x7
 593 0183 31       		.byte	0x31
 594 0184 C4010000 		.4byte	0x1c4
 595 0188 00       		.byte	0
 596 0189 11       		.uleb128 0x11
 597 018a 5F6B00   		.ascii	"_k\000"
 598 018d 07       		.byte	0x7
 599 018e 32       		.byte	0x32
 600 018f 73000000 		.4byte	0x73
 601 0193 04       		.byte	0x4
 602 0194 0D       		.uleb128 0xd
 603 0195 25050000 		.4byte	.LASF29
 604 0199 07       		.byte	0x7
 605 019a 32       		.byte	0x32
 606 019b 73000000 		.4byte	0x73
 607 019f 08       		.byte	0x8
 608 01a0 0D       		.uleb128 0xd
 609 01a1 18020000 		.4byte	.LASF30
 610 01a5 07       		.byte	0x7
 611 01a6 32       		.byte	0x32
 612 01a7 73000000 		.4byte	0x73
 613 01ab 0C       		.byte	0xc
 614 01ac 0D       		.uleb128 0xd
 615 01ad 0C070000 		.4byte	.LASF31
 616 01b1 07       		.byte	0x7
 617 01b2 32       		.byte	0x32
 618 01b3 73000000 		.4byte	0x73
 619 01b7 10       		.byte	0x10
 620 01b8 11       		.uleb128 0x11
 621 01b9 5F7800   		.ascii	"_x\000"
 622 01bc 07       		.byte	0x7
 623 01bd 33       		.byte	0x33
 624 01be CA010000 		.4byte	0x1ca
 625 01c2 14       		.byte	0x14
 626 01c3 00       		.byte	0
 627 01c4 05       		.uleb128 0x5
ARM GAS  /tmp/ccjYL3qA.s 			page 12


 628 01c5 04       		.byte	0x4
 629 01c6 71010000 		.4byte	0x171
 630 01ca 0A       		.uleb128 0xa
 631 01cb 66010000 		.4byte	0x166
 632 01cf DA010000 		.4byte	0x1da
 633 01d3 0B       		.uleb128 0xb
 634 01d4 85000000 		.4byte	0x85
 635 01d8 00       		.byte	0
 636 01d9 00       		.byte	0
 637 01da 10       		.uleb128 0x10
 638 01db 56020000 		.4byte	.LASF33
 639 01df 24       		.byte	0x24
 640 01e0 07       		.byte	0x7
 641 01e1 37       		.byte	0x37
 642 01e2 53020000 		.4byte	0x253
 643 01e6 0D       		.uleb128 0xd
 644 01e7 C3000000 		.4byte	.LASF34
 645 01eb 07       		.byte	0x7
 646 01ec 39       		.byte	0x39
 647 01ed 73000000 		.4byte	0x73
 648 01f1 00       		.byte	0
 649 01f2 0D       		.uleb128 0xd
 650 01f3 AE050000 		.4byte	.LASF35
 651 01f7 07       		.byte	0x7
 652 01f8 3A       		.byte	0x3a
 653 01f9 73000000 		.4byte	0x73
 654 01fd 04       		.byte	0x4
 655 01fe 0D       		.uleb128 0xd
 656 01ff 6D050000 		.4byte	.LASF36
 657 0203 07       		.byte	0x7
 658 0204 3B       		.byte	0x3b
 659 0205 73000000 		.4byte	0x73
 660 0209 08       		.byte	0x8
 661 020a 0D       		.uleb128 0xd
 662 020b C9070000 		.4byte	.LASF37
 663 020f 07       		.byte	0x7
 664 0210 3C       		.byte	0x3c
 665 0211 73000000 		.4byte	0x73
 666 0215 0C       		.byte	0xc
 667 0216 0D       		.uleb128 0xd
 668 0217 B9030000 		.4byte	.LASF38
 669 021b 07       		.byte	0x7
 670 021c 3D       		.byte	0x3d
 671 021d 73000000 		.4byte	0x73
 672 0221 10       		.byte	0x10
 673 0222 0D       		.uleb128 0xd
 674 0223 7C030000 		.4byte	.LASF39
 675 0227 07       		.byte	0x7
 676 0228 3E       		.byte	0x3e
 677 0229 73000000 		.4byte	0x73
 678 022d 14       		.byte	0x14
 679 022e 0D       		.uleb128 0xd
 680 022f 11070000 		.4byte	.LASF40
 681 0233 07       		.byte	0x7
 682 0234 3F       		.byte	0x3f
 683 0235 73000000 		.4byte	0x73
 684 0239 18       		.byte	0x18
ARM GAS  /tmp/ccjYL3qA.s 			page 13


 685 023a 0D       		.uleb128 0xd
 686 023b 95040000 		.4byte	.LASF41
 687 023f 07       		.byte	0x7
 688 0240 40       		.byte	0x40
 689 0241 73000000 		.4byte	0x73
 690 0245 1C       		.byte	0x1c
 691 0246 0D       		.uleb128 0xd
 692 0247 74070000 		.4byte	.LASF42
 693 024b 07       		.byte	0x7
 694 024c 41       		.byte	0x41
 695 024d 73000000 		.4byte	0x73
 696 0251 20       		.byte	0x20
 697 0252 00       		.byte	0
 698 0253 12       		.uleb128 0x12
 699 0254 52010000 		.4byte	.LASF43
 700 0258 0801     		.2byte	0x108
 701 025a 07       		.byte	0x7
 702 025b 4A       		.byte	0x4a
 703 025c 93020000 		.4byte	0x293
 704 0260 0D       		.uleb128 0xd
 705 0261 EB010000 		.4byte	.LASF44
 706 0265 07       		.byte	0x7
 707 0266 4B       		.byte	0x4b
 708 0267 93020000 		.4byte	0x293
 709 026b 00       		.byte	0
 710 026c 0D       		.uleb128 0xd
 711 026d 00000000 		.4byte	.LASF45
 712 0271 07       		.byte	0x7
 713 0272 4C       		.byte	0x4c
 714 0273 93020000 		.4byte	0x293
 715 0277 80       		.byte	0x80
 716 0278 13       		.uleb128 0x13
 717 0279 C2050000 		.4byte	.LASF46
 718 027d 07       		.byte	0x7
 719 027e 4E       		.byte	0x4e
 720 027f 66010000 		.4byte	0x166
 721 0283 0001     		.2byte	0x100
 722 0285 13       		.uleb128 0x13
 723 0286 8B010000 		.4byte	.LASF47
 724 028a 07       		.byte	0x7
 725 028b 51       		.byte	0x51
 726 028c 66010000 		.4byte	0x166
 727 0290 0401     		.2byte	0x104
 728 0292 00       		.byte	0
 729 0293 0A       		.uleb128 0xa
 730 0294 52010000 		.4byte	0x152
 731 0298 A3020000 		.4byte	0x2a3
 732 029c 0B       		.uleb128 0xb
 733 029d 85000000 		.4byte	0x85
 734 02a1 1F       		.byte	0x1f
 735 02a2 00       		.byte	0
 736 02a3 12       		.uleb128 0x12
 737 02a4 D4030000 		.4byte	.LASF48
 738 02a8 9001     		.2byte	0x190
 739 02aa 07       		.byte	0x7
 740 02ab 5D       		.byte	0x5d
 741 02ac E1020000 		.4byte	0x2e1
ARM GAS  /tmp/ccjYL3qA.s 			page 14


 742 02b0 0D       		.uleb128 0xd
 743 02b1 E5050000 		.4byte	.LASF28
 744 02b5 07       		.byte	0x7
 745 02b6 5E       		.byte	0x5e
 746 02b7 E1020000 		.4byte	0x2e1
 747 02bb 00       		.byte	0
 748 02bc 0D       		.uleb128 0xd
 749 02bd EF040000 		.4byte	.LASF49
 750 02c1 07       		.byte	0x7
 751 02c2 5F       		.byte	0x5f
 752 02c3 73000000 		.4byte	0x73
 753 02c7 04       		.byte	0x4
 754 02c8 0D       		.uleb128 0xd
 755 02c9 08020000 		.4byte	.LASF50
 756 02cd 07       		.byte	0x7
 757 02ce 61       		.byte	0x61
 758 02cf E7020000 		.4byte	0x2e7
 759 02d3 08       		.byte	0x8
 760 02d4 0D       		.uleb128 0xd
 761 02d5 52010000 		.4byte	.LASF43
 762 02d9 07       		.byte	0x7
 763 02da 62       		.byte	0x62
 764 02db 53020000 		.4byte	0x253
 765 02df 88       		.byte	0x88
 766 02e0 00       		.byte	0
 767 02e1 05       		.uleb128 0x5
 768 02e2 04       		.byte	0x4
 769 02e3 A3020000 		.4byte	0x2a3
 770 02e7 0A       		.uleb128 0xa
 771 02e8 F7020000 		.4byte	0x2f7
 772 02ec F7020000 		.4byte	0x2f7
 773 02f0 0B       		.uleb128 0xb
 774 02f1 85000000 		.4byte	0x85
 775 02f5 1F       		.byte	0x1f
 776 02f6 00       		.byte	0
 777 02f7 05       		.uleb128 0x5
 778 02f8 04       		.byte	0x4
 779 02f9 FD020000 		.4byte	0x2fd
 780 02fd 14       		.uleb128 0x14
 781 02fe 10       		.uleb128 0x10
 782 02ff 9F040000 		.4byte	.LASF51
 783 0303 08       		.byte	0x8
 784 0304 07       		.byte	0x7
 785 0305 75       		.byte	0x75
 786 0306 23030000 		.4byte	0x323
 787 030a 0D       		.uleb128 0xd
 788 030b 1E010000 		.4byte	.LASF52
 789 030f 07       		.byte	0x7
 790 0310 76       		.byte	0x76
 791 0311 23030000 		.4byte	0x323
 792 0315 00       		.byte	0
 793 0316 0D       		.uleb128 0xd
 794 0317 0C000000 		.4byte	.LASF53
 795 031b 07       		.byte	0x7
 796 031c 77       		.byte	0x77
 797 031d 73000000 		.4byte	0x73
 798 0321 04       		.byte	0x4
ARM GAS  /tmp/ccjYL3qA.s 			page 15


 799 0322 00       		.byte	0
 800 0323 05       		.uleb128 0x5
 801 0324 04       		.byte	0x4
 802 0325 2C000000 		.4byte	0x2c
 803 0329 10       		.uleb128 0x10
 804 032a BE040000 		.4byte	.LASF54
 805 032e 68       		.byte	0x68
 806 032f 07       		.byte	0x7
 807 0330 B5       		.byte	0xb5
 808 0331 53040000 		.4byte	0x453
 809 0335 11       		.uleb128 0x11
 810 0336 5F7000   		.ascii	"_p\000"
 811 0339 07       		.byte	0x7
 812 033a B6       		.byte	0xb6
 813 033b 23030000 		.4byte	0x323
 814 033f 00       		.byte	0
 815 0340 11       		.uleb128 0x11
 816 0341 5F7200   		.ascii	"_r\000"
 817 0344 07       		.byte	0x7
 818 0345 B7       		.byte	0xb7
 819 0346 73000000 		.4byte	0x73
 820 034a 04       		.byte	0x4
 821 034b 11       		.uleb128 0x11
 822 034c 5F7700   		.ascii	"_w\000"
 823 034f 07       		.byte	0x7
 824 0350 B8       		.byte	0xb8
 825 0351 73000000 		.4byte	0x73
 826 0355 08       		.byte	0x8
 827 0356 0D       		.uleb128 0xd
 828 0357 84010000 		.4byte	.LASF55
 829 035b 07       		.byte	0x7
 830 035c B9       		.byte	0xb9
 831 035d 33000000 		.4byte	0x33
 832 0361 0C       		.byte	0xc
 833 0362 0D       		.uleb128 0xd
 834 0363 BE020000 		.4byte	.LASF56
 835 0367 07       		.byte	0x7
 836 0368 BA       		.byte	0xba
 837 0369 33000000 		.4byte	0x33
 838 036d 0E       		.byte	0xe
 839 036e 11       		.uleb128 0x11
 840 036f 5F626600 		.ascii	"_bf\000"
 841 0373 07       		.byte	0x7
 842 0374 BB       		.byte	0xbb
 843 0375 FE020000 		.4byte	0x2fe
 844 0379 10       		.byte	0x10
 845 037a 0D       		.uleb128 0xd
 846 037b 80000000 		.4byte	.LASF57
 847 037f 07       		.byte	0x7
 848 0380 BC       		.byte	0xbc
 849 0381 73000000 		.4byte	0x73
 850 0385 18       		.byte	0x18
 851 0386 0D       		.uleb128 0xd
 852 0387 65010000 		.4byte	.LASF58
 853 038b 07       		.byte	0x7
 854 038c C3       		.byte	0xc3
 855 038d 52010000 		.4byte	0x152
ARM GAS  /tmp/ccjYL3qA.s 			page 16


 856 0391 1C       		.byte	0x1c
 857 0392 0D       		.uleb128 0xd
 858 0393 46020000 		.4byte	.LASF59
 859 0397 07       		.byte	0x7
 860 0398 C5       		.byte	0xc5
 861 0399 AE050000 		.4byte	0x5ae
 862 039d 20       		.byte	0x20
 863 039e 0D       		.uleb128 0xd
 864 039f 75030000 		.4byte	.LASF60
 865 03a3 07       		.byte	0x7
 866 03a4 C7       		.byte	0xc7
 867 03a5 D8050000 		.4byte	0x5d8
 868 03a9 24       		.byte	0x24
 869 03aa 0D       		.uleb128 0xd
 870 03ab 77050000 		.4byte	.LASF61
 871 03af 07       		.byte	0x7
 872 03b0 CA       		.byte	0xca
 873 03b1 FC050000 		.4byte	0x5fc
 874 03b5 28       		.byte	0x28
 875 03b6 0D       		.uleb128 0xd
 876 03b7 8E070000 		.4byte	.LASF62
 877 03bb 07       		.byte	0x7
 878 03bc CB       		.byte	0xcb
 879 03bd 16060000 		.4byte	0x616
 880 03c1 2C       		.byte	0x2c
 881 03c2 11       		.uleb128 0x11
 882 03c3 5F756200 		.ascii	"_ub\000"
 883 03c7 07       		.byte	0x7
 884 03c8 CE       		.byte	0xce
 885 03c9 FE020000 		.4byte	0x2fe
 886 03cd 30       		.byte	0x30
 887 03ce 11       		.uleb128 0x11
 888 03cf 5F757000 		.ascii	"_up\000"
 889 03d3 07       		.byte	0x7
 890 03d4 CF       		.byte	0xcf
 891 03d5 23030000 		.4byte	0x323
 892 03d9 38       		.byte	0x38
 893 03da 11       		.uleb128 0x11
 894 03db 5F757200 		.ascii	"_ur\000"
 895 03df 07       		.byte	0x7
 896 03e0 D0       		.byte	0xd0
 897 03e1 73000000 		.4byte	0x73
 898 03e5 3C       		.byte	0x3c
 899 03e6 0D       		.uleb128 0xd
 900 03e7 18010000 		.4byte	.LASF63
 901 03eb 07       		.byte	0x7
 902 03ec D3       		.byte	0xd3
 903 03ed 1C060000 		.4byte	0x61c
 904 03f1 40       		.byte	0x40
 905 03f2 0D       		.uleb128 0xd
 906 03f3 54070000 		.4byte	.LASF64
 907 03f7 07       		.byte	0x7
 908 03f8 D4       		.byte	0xd4
 909 03f9 2C060000 		.4byte	0x62c
 910 03fd 43       		.byte	0x43
 911 03fe 11       		.uleb128 0x11
 912 03ff 5F6C6200 		.ascii	"_lb\000"
ARM GAS  /tmp/ccjYL3qA.s 			page 17


 913 0403 07       		.byte	0x7
 914 0404 D7       		.byte	0xd7
 915 0405 FE020000 		.4byte	0x2fe
 916 0409 44       		.byte	0x44
 917 040a 0D       		.uleb128 0xd
 918 040b A0010000 		.4byte	.LASF65
 919 040f 07       		.byte	0x7
 920 0410 DA       		.byte	0xda
 921 0411 73000000 		.4byte	0x73
 922 0415 4C       		.byte	0x4c
 923 0416 0D       		.uleb128 0xd
 924 0417 C4010000 		.4byte	.LASF66
 925 041b 07       		.byte	0x7
 926 041c DB       		.byte	0xdb
 927 041d CA000000 		.4byte	0xca
 928 0421 50       		.byte	0x50
 929 0422 0D       		.uleb128 0xd
 930 0423 3E000000 		.4byte	.LASF67
 931 0427 07       		.byte	0x7
 932 0428 DE       		.byte	0xde
 933 0429 71040000 		.4byte	0x471
 934 042d 54       		.byte	0x54
 935 042e 0D       		.uleb128 0xd
 936 042f 53030000 		.4byte	.LASF68
 937 0433 07       		.byte	0x7
 938 0434 E2       		.byte	0xe2
 939 0435 47010000 		.4byte	0x147
 940 0439 58       		.byte	0x58
 941 043a 0D       		.uleb128 0xd
 942 043b 27000000 		.4byte	.LASF69
 943 043f 07       		.byte	0x7
 944 0440 E4       		.byte	0xe4
 945 0441 3C010000 		.4byte	0x13c
 946 0445 5C       		.byte	0x5c
 947 0446 0D       		.uleb128 0xd
 948 0447 65030000 		.4byte	.LASF70
 949 044b 07       		.byte	0x7
 950 044c E5       		.byte	0xe5
 951 044d 73000000 		.4byte	0x73
 952 0451 64       		.byte	0x64
 953 0452 00       		.byte	0
 954 0453 15       		.uleb128 0x15
 955 0454 73000000 		.4byte	0x73
 956 0458 71040000 		.4byte	0x471
 957 045c 16       		.uleb128 0x16
 958 045d 71040000 		.4byte	0x471
 959 0461 16       		.uleb128 0x16
 960 0462 52010000 		.4byte	0x152
 961 0466 16       		.uleb128 0x16
 962 0467 54010000 		.4byte	0x154
 963 046b 16       		.uleb128 0x16
 964 046c 73000000 		.4byte	0x73
 965 0470 00       		.byte	0
 966 0471 05       		.uleb128 0x5
 967 0472 04       		.byte	0x4
 968 0473 7C040000 		.4byte	0x47c
 969 0477 0F       		.uleb128 0xf
ARM GAS  /tmp/ccjYL3qA.s 			page 18


 970 0478 71040000 		.4byte	0x471
 971 047c 17       		.uleb128 0x17
 972 047d 2D050000 		.4byte	.LASF71
 973 0481 2804     		.2byte	0x428
 974 0483 07       		.byte	0x7
 975 0484 6002     		.2byte	0x260
 976 0486 AE050000 		.4byte	0x5ae
 977 048a 18       		.uleb128 0x18
 978 048b 91050000 		.4byte	.LASF72
 979 048f 07       		.byte	0x7
 980 0490 6202     		.2byte	0x262
 981 0492 73000000 		.4byte	0x73
 982 0496 00       		.byte	0
 983 0497 18       		.uleb128 0x18
 984 0498 93010000 		.4byte	.LASF73
 985 049c 07       		.byte	0x7
 986 049d 6702     		.2byte	0x267
 987 049f 83060000 		.4byte	0x683
 988 04a3 04       		.byte	0x4
 989 04a4 18       		.uleb128 0x18
 990 04a5 79020000 		.4byte	.LASF74
 991 04a9 07       		.byte	0x7
 992 04aa 6702     		.2byte	0x267
 993 04ac 83060000 		.4byte	0x683
 994 04b0 08       		.byte	0x8
 995 04b1 18       		.uleb128 0x18
 996 04b2 27020000 		.4byte	.LASF75
 997 04b6 07       		.byte	0x7
 998 04b7 6702     		.2byte	0x267
 999 04b9 83060000 		.4byte	0x683
 1000 04bd 0C       		.byte	0xc
 1001 04be 18       		.uleb128 0x18
 1002 04bf EA040000 		.4byte	.LASF76
 1003 04c3 07       		.byte	0x7
 1004 04c4 6902     		.2byte	0x269
 1005 04c6 73000000 		.4byte	0x73
 1006 04ca 10       		.byte	0x10
 1007 04cb 18       		.uleb128 0x18
 1008 04cc 1C000000 		.4byte	.LASF77
 1009 04d0 07       		.byte	0x7
 1010 04d1 6A02     		.2byte	0x26a
 1011 04d3 65080000 		.4byte	0x865
 1012 04d7 14       		.byte	0x14
 1013 04d8 18       		.uleb128 0x18
 1014 04d9 0C050000 		.4byte	.LASF78
 1015 04dd 07       		.byte	0x7
 1016 04de 6D02     		.2byte	0x26d
 1017 04e0 73000000 		.4byte	0x73
 1018 04e4 30       		.byte	0x30
 1019 04e5 18       		.uleb128 0x18
 1020 04e6 FA040000 		.4byte	.LASF79
 1021 04ea 07       		.byte	0x7
 1022 04eb 6E02     		.2byte	0x26e
 1023 04ed 7A080000 		.4byte	0x87a
 1024 04f1 34       		.byte	0x34
 1025 04f2 18       		.uleb128 0x18
 1026 04f3 E6030000 		.4byte	.LASF80
ARM GAS  /tmp/ccjYL3qA.s 			page 19


 1027 04f7 07       		.byte	0x7
 1028 04f8 7002     		.2byte	0x270
 1029 04fa 73000000 		.4byte	0x73
 1030 04fe 38       		.byte	0x38
 1031 04ff 18       		.uleb128 0x18
 1032 0500 02050000 		.4byte	.LASF81
 1033 0504 07       		.byte	0x7
 1034 0505 7202     		.2byte	0x272
 1035 0507 8B080000 		.4byte	0x88b
 1036 050b 3C       		.byte	0x3c
 1037 050c 18       		.uleb128 0x18
 1038 050d 36030000 		.4byte	.LASF82
 1039 0511 07       		.byte	0x7
 1040 0512 7502     		.2byte	0x275
 1041 0514 C4010000 		.4byte	0x1c4
 1042 0518 40       		.byte	0x40
 1043 0519 18       		.uleb128 0x18
 1044 051a 4C020000 		.4byte	.LASF83
 1045 051e 07       		.byte	0x7
 1046 051f 7602     		.2byte	0x276
 1047 0521 73000000 		.4byte	0x73
 1048 0525 44       		.byte	0x44
 1049 0526 18       		.uleb128 0x18
 1050 0527 AD070000 		.4byte	.LASF84
 1051 052b 07       		.byte	0x7
 1052 052c 7702     		.2byte	0x277
 1053 052e C4010000 		.4byte	0x1c4
 1054 0532 48       		.byte	0x48
 1055 0533 18       		.uleb128 0x18
 1056 0534 24040000 		.4byte	.LASF85
 1057 0538 07       		.byte	0x7
 1058 0539 7802     		.2byte	0x278
 1059 053b 91080000 		.4byte	0x891
 1060 053f 4C       		.byte	0x4c
 1061 0540 18       		.uleb128 0x18
 1062 0541 95020000 		.4byte	.LASF86
 1063 0545 07       		.byte	0x7
 1064 0546 7B02     		.2byte	0x27b
 1065 0548 73000000 		.4byte	0x73
 1066 054c 50       		.byte	0x50
 1067 054d 18       		.uleb128 0x18
 1068 054e BC010000 		.4byte	.LASF87
 1069 0552 07       		.byte	0x7
 1070 0553 7C02     		.2byte	0x27c
 1071 0555 54010000 		.4byte	0x154
 1072 0559 54       		.byte	0x54
 1073 055a 18       		.uleb128 0x18
 1074 055b 7D040000 		.4byte	.LASF88
 1075 055f 07       		.byte	0x7
 1076 0560 9F02     		.2byte	0x29f
 1077 0562 43080000 		.4byte	0x843
 1078 0566 58       		.byte	0x58
 1079 0567 19       		.uleb128 0x19
 1080 0568 D4030000 		.4byte	.LASF48
 1081 056c 07       		.byte	0x7
 1082 056d A302     		.2byte	0x2a3
 1083 056f E1020000 		.4byte	0x2e1
ARM GAS  /tmp/ccjYL3qA.s 			page 20


 1084 0573 4801     		.2byte	0x148
 1085 0575 19       		.uleb128 0x19
 1086 0576 14030000 		.4byte	.LASF89
 1087 057a 07       		.byte	0x7
 1088 057b A402     		.2byte	0x2a4
 1089 057d A3020000 		.4byte	0x2a3
 1090 0581 4C01     		.2byte	0x14c
 1091 0583 19       		.uleb128 0x19
 1092 0584 34070000 		.4byte	.LASF90
 1093 0588 07       		.byte	0x7
 1094 0589 A802     		.2byte	0x2a8
 1095 058b A2080000 		.4byte	0x8a2
 1096 058f DC02     		.2byte	0x2dc
 1097 0591 19       		.uleb128 0x19
 1098 0592 6D010000 		.4byte	.LASF91
 1099 0596 07       		.byte	0x7
 1100 0597 AD02     		.2byte	0x2ad
 1101 0599 48060000 		.4byte	0x648
 1102 059d E002     		.2byte	0x2e0
 1103 059f 19       		.uleb128 0x19
 1104 05a0 4D010000 		.4byte	.LASF92
 1105 05a4 07       		.byte	0x7
 1106 05a5 AF02     		.2byte	0x2af
 1107 05a7 AE080000 		.4byte	0x8ae
 1108 05ab EC02     		.2byte	0x2ec
 1109 05ad 00       		.byte	0
 1110 05ae 05       		.uleb128 0x5
 1111 05af 04       		.byte	0x4
 1112 05b0 53040000 		.4byte	0x453
 1113 05b4 15       		.uleb128 0x15
 1114 05b5 73000000 		.4byte	0x73
 1115 05b9 D2050000 		.4byte	0x5d2
 1116 05bd 16       		.uleb128 0x16
 1117 05be 71040000 		.4byte	0x471
 1118 05c2 16       		.uleb128 0x16
 1119 05c3 52010000 		.4byte	0x152
 1120 05c7 16       		.uleb128 0x16
 1121 05c8 D2050000 		.4byte	0x5d2
 1122 05cc 16       		.uleb128 0x16
 1123 05cd 73000000 		.4byte	0x73
 1124 05d1 00       		.byte	0
 1125 05d2 05       		.uleb128 0x5
 1126 05d3 04       		.byte	0x4
 1127 05d4 61010000 		.4byte	0x161
 1128 05d8 05       		.uleb128 0x5
 1129 05d9 04       		.byte	0x4
 1130 05da B4050000 		.4byte	0x5b4
 1131 05de 15       		.uleb128 0x15
 1132 05df D5000000 		.4byte	0xd5
 1133 05e3 FC050000 		.4byte	0x5fc
 1134 05e7 16       		.uleb128 0x16
 1135 05e8 71040000 		.4byte	0x471
 1136 05ec 16       		.uleb128 0x16
 1137 05ed 52010000 		.4byte	0x152
 1138 05f1 16       		.uleb128 0x16
 1139 05f2 D5000000 		.4byte	0xd5
 1140 05f6 16       		.uleb128 0x16
ARM GAS  /tmp/ccjYL3qA.s 			page 21


 1141 05f7 73000000 		.4byte	0x73
 1142 05fb 00       		.byte	0
 1143 05fc 05       		.uleb128 0x5
 1144 05fd 04       		.byte	0x4
 1145 05fe DE050000 		.4byte	0x5de
 1146 0602 15       		.uleb128 0x15
 1147 0603 73000000 		.4byte	0x73
 1148 0607 16060000 		.4byte	0x616
 1149 060b 16       		.uleb128 0x16
 1150 060c 71040000 		.4byte	0x471
 1151 0610 16       		.uleb128 0x16
 1152 0611 52010000 		.4byte	0x152
 1153 0615 00       		.byte	0
 1154 0616 05       		.uleb128 0x5
 1155 0617 04       		.byte	0x4
 1156 0618 02060000 		.4byte	0x602
 1157 061c 0A       		.uleb128 0xa
 1158 061d 2C000000 		.4byte	0x2c
 1159 0621 2C060000 		.4byte	0x62c
 1160 0625 0B       		.uleb128 0xb
 1161 0626 85000000 		.4byte	0x85
 1162 062a 02       		.byte	0x2
 1163 062b 00       		.byte	0
 1164 062c 0A       		.uleb128 0xa
 1165 062d 2C000000 		.4byte	0x2c
 1166 0631 3C060000 		.4byte	0x63c
 1167 0635 0B       		.uleb128 0xb
 1168 0636 85000000 		.4byte	0x85
 1169 063a 00       		.byte	0
 1170 063b 00       		.byte	0
 1171 063c 07       		.uleb128 0x7
 1172 063d AC040000 		.4byte	.LASF93
 1173 0641 07       		.byte	0x7
 1174 0642 1F01     		.2byte	0x11f
 1175 0644 29030000 		.4byte	0x329
 1176 0648 1A       		.uleb128 0x1a
 1177 0649 1B070000 		.4byte	.LASF94
 1178 064d 0C       		.byte	0xc
 1179 064e 07       		.byte	0x7
 1180 064f 2301     		.2byte	0x123
 1181 0651 7D060000 		.4byte	0x67d
 1182 0655 18       		.uleb128 0x18
 1183 0656 E5050000 		.4byte	.LASF28
 1184 065a 07       		.byte	0x7
 1185 065b 2501     		.2byte	0x125
 1186 065d 7D060000 		.4byte	0x67d
 1187 0661 00       		.byte	0
 1188 0662 18       		.uleb128 0x18
 1189 0663 E8020000 		.4byte	.LASF95
 1190 0667 07       		.byte	0x7
 1191 0668 2601     		.2byte	0x126
 1192 066a 73000000 		.4byte	0x73
 1193 066e 04       		.byte	0x4
 1194 066f 18       		.uleb128 0x18
 1195 0670 A6040000 		.4byte	.LASF96
 1196 0674 07       		.byte	0x7
 1197 0675 2701     		.2byte	0x127
ARM GAS  /tmp/ccjYL3qA.s 			page 22


 1198 0677 83060000 		.4byte	0x683
 1199 067b 08       		.byte	0x8
 1200 067c 00       		.byte	0
 1201 067d 05       		.uleb128 0x5
 1202 067e 04       		.byte	0x4
 1203 067f 48060000 		.4byte	0x648
 1204 0683 05       		.uleb128 0x5
 1205 0684 04       		.byte	0x4
 1206 0685 3C060000 		.4byte	0x63c
 1207 0689 1A       		.uleb128 0x1a
 1208 068a 34050000 		.4byte	.LASF97
 1209 068e 0E       		.byte	0xe
 1210 068f 07       		.byte	0x7
 1211 0690 3F01     		.2byte	0x13f
 1212 0692 BE060000 		.4byte	0x6be
 1213 0696 18       		.uleb128 0x18
 1214 0697 3C050000 		.4byte	.LASF98
 1215 069b 07       		.byte	0x7
 1216 069c 4001     		.2byte	0x140
 1217 069e BE060000 		.4byte	0x6be
 1218 06a2 00       		.byte	0
 1219 06a3 18       		.uleb128 0x18
 1220 06a4 DF050000 		.4byte	.LASF99
 1221 06a8 07       		.byte	0x7
 1222 06a9 4101     		.2byte	0x141
 1223 06ab BE060000 		.4byte	0x6be
 1224 06af 06       		.byte	0x6
 1225 06b0 18       		.uleb128 0x18
 1226 06b1 BF060000 		.4byte	.LASF100
 1227 06b5 07       		.byte	0x7
 1228 06b6 4201     		.2byte	0x142
 1229 06b8 45000000 		.4byte	0x45
 1230 06bc 0C       		.byte	0xc
 1231 06bd 00       		.byte	0
 1232 06be 0A       		.uleb128 0xa
 1233 06bf 45000000 		.4byte	0x45
 1234 06c3 CE060000 		.4byte	0x6ce
 1235 06c7 0B       		.uleb128 0xb
 1236 06c8 85000000 		.4byte	0x85
 1237 06cc 02       		.byte	0x2
 1238 06cd 00       		.byte	0
 1239 06ce 1B       		.uleb128 0x1b
 1240 06cf D0       		.byte	0xd0
 1241 06d0 07       		.byte	0x7
 1242 06d1 8002     		.2byte	0x280
 1243 06d3 CF070000 		.4byte	0x7cf
 1244 06d7 18       		.uleb128 0x18
 1245 06d8 F5060000 		.4byte	.LASF101
 1246 06dc 07       		.byte	0x7
 1247 06dd 8202     		.2byte	0x282
 1248 06df 85000000 		.4byte	0x85
 1249 06e3 00       		.byte	0
 1250 06e4 18       		.uleb128 0x18
 1251 06e5 F9050000 		.4byte	.LASF102
 1252 06e9 07       		.byte	0x7
 1253 06ea 8302     		.2byte	0x283
 1254 06ec 54010000 		.4byte	0x154
ARM GAS  /tmp/ccjYL3qA.s 			page 23


 1255 06f0 04       		.byte	0x4
 1256 06f1 18       		.uleb128 0x18
 1257 06f2 29030000 		.4byte	.LASF103
 1258 06f6 07       		.byte	0x7
 1259 06f7 8402     		.2byte	0x284
 1260 06f9 CF070000 		.4byte	0x7cf
 1261 06fd 08       		.byte	0x8
 1262 06fe 18       		.uleb128 0x18
 1263 06ff 7F070000 		.4byte	.LASF104
 1264 0703 07       		.byte	0x7
 1265 0704 8502     		.2byte	0x285
 1266 0706 DA010000 		.4byte	0x1da
 1267 070a 24       		.byte	0x24
 1268 070b 18       		.uleb128 0x18
 1269 070c 37020000 		.4byte	.LASF105
 1270 0710 07       		.byte	0x7
 1271 0711 8602     		.2byte	0x286
 1272 0713 73000000 		.4byte	0x73
 1273 0717 48       		.byte	0x48
 1274 0718 18       		.uleb128 0x18
 1275 0719 D2040000 		.4byte	.LASF106
 1276 071d 07       		.byte	0x7
 1277 071e 8702     		.2byte	0x287
 1278 0720 6C000000 		.4byte	0x6c
 1279 0724 50       		.byte	0x50
 1280 0725 18       		.uleb128 0x18
 1281 0726 95070000 		.4byte	.LASF107
 1282 072a 07       		.byte	0x7
 1283 072b 8802     		.2byte	0x288
 1284 072d 89060000 		.4byte	0x689
 1285 0731 58       		.byte	0x58
 1286 0732 18       		.uleb128 0x18
 1287 0733 DD040000 		.4byte	.LASF108
 1288 0737 07       		.byte	0x7
 1289 0738 8902     		.2byte	0x289
 1290 073a 3C010000 		.4byte	0x13c
 1291 073e 68       		.byte	0x68
 1292 073f 18       		.uleb128 0x18
 1293 0740 9A070000 		.4byte	.LASF109
 1294 0744 07       		.byte	0x7
 1295 0745 8A02     		.2byte	0x28a
 1296 0747 3C010000 		.4byte	0x13c
 1297 074b 70       		.byte	0x70
 1298 074c 18       		.uleb128 0x18
 1299 074d 54040000 		.4byte	.LASF110
 1300 0751 07       		.byte	0x7
 1301 0752 8B02     		.2byte	0x28b
 1302 0754 3C010000 		.4byte	0x13c
 1303 0758 78       		.byte	0x78
 1304 0759 18       		.uleb128 0x18
 1305 075a 2A070000 		.4byte	.LASF111
 1306 075e 07       		.byte	0x7
 1307 075f 8C02     		.2byte	0x28c
 1308 0761 DF070000 		.4byte	0x7df
 1309 0765 80       		.byte	0x80
 1310 0766 18       		.uleb128 0x18
 1311 0767 1D030000 		.4byte	.LASF112
ARM GAS  /tmp/ccjYL3qA.s 			page 24


 1312 076b 07       		.byte	0x7
 1313 076c 8D02     		.2byte	0x28d
 1314 076e EF070000 		.4byte	0x7ef
 1315 0772 88       		.byte	0x88
 1316 0773 18       		.uleb128 0x18
 1317 0774 CC060000 		.4byte	.LASF113
 1318 0778 07       		.byte	0x7
 1319 0779 8E02     		.2byte	0x28e
 1320 077b 73000000 		.4byte	0x73
 1321 077f A0       		.byte	0xa0
 1322 0780 18       		.uleb128 0x18
 1323 0781 DD010000 		.4byte	.LASF114
 1324 0785 07       		.byte	0x7
 1325 0786 8F02     		.2byte	0x28f
 1326 0788 3C010000 		.4byte	0x13c
 1327 078c A4       		.byte	0xa4
 1328 078d 18       		.uleb128 0x18
 1329 078e A1000000 		.4byte	.LASF115
 1330 0792 07       		.byte	0x7
 1331 0793 9002     		.2byte	0x290
 1332 0795 3C010000 		.4byte	0x13c
 1333 0799 AC       		.byte	0xac
 1334 079a 18       		.uleb128 0x18
 1335 079b CC010000 		.4byte	.LASF116
 1336 079f 07       		.byte	0x7
 1337 07a0 9102     		.2byte	0x291
 1338 07a2 3C010000 		.4byte	0x13c
 1339 07a6 B4       		.byte	0xb4
 1340 07a7 18       		.uleb128 0x18
 1341 07a8 49000000 		.4byte	.LASF117
 1342 07ac 07       		.byte	0x7
 1343 07ad 9202     		.2byte	0x292
 1344 07af 3C010000 		.4byte	0x13c
 1345 07b3 BC       		.byte	0xbc
 1346 07b4 18       		.uleb128 0x18
 1347 07b5 58000000 		.4byte	.LASF118
 1348 07b9 07       		.byte	0x7
 1349 07ba 9302     		.2byte	0x293
 1350 07bc 3C010000 		.4byte	0x13c
 1351 07c0 C4       		.byte	0xc4
 1352 07c1 18       		.uleb128 0x18
 1353 07c2 82040000 		.4byte	.LASF119
 1354 07c6 07       		.byte	0x7
 1355 07c7 9402     		.2byte	0x294
 1356 07c9 73000000 		.4byte	0x73
 1357 07cd CC       		.byte	0xcc
 1358 07ce 00       		.byte	0
 1359 07cf 0A       		.uleb128 0xa
 1360 07d0 5A010000 		.4byte	0x15a
 1361 07d4 DF070000 		.4byte	0x7df
 1362 07d8 0B       		.uleb128 0xb
 1363 07d9 85000000 		.4byte	0x85
 1364 07dd 19       		.byte	0x19
 1365 07de 00       		.byte	0
 1366 07df 0A       		.uleb128 0xa
 1367 07e0 5A010000 		.4byte	0x15a
 1368 07e4 EF070000 		.4byte	0x7ef
ARM GAS  /tmp/ccjYL3qA.s 			page 25


 1369 07e8 0B       		.uleb128 0xb
 1370 07e9 85000000 		.4byte	0x85
 1371 07ed 07       		.byte	0x7
 1372 07ee 00       		.byte	0
 1373 07ef 0A       		.uleb128 0xa
 1374 07f0 5A010000 		.4byte	0x15a
 1375 07f4 FF070000 		.4byte	0x7ff
 1376 07f8 0B       		.uleb128 0xb
 1377 07f9 85000000 		.4byte	0x85
 1378 07fd 17       		.byte	0x17
 1379 07fe 00       		.byte	0
 1380 07ff 1B       		.uleb128 0x1b
 1381 0800 F0       		.byte	0xf0
 1382 0801 07       		.byte	0x7
 1383 0802 9902     		.2byte	0x299
 1384 0804 23080000 		.4byte	0x823
 1385 0808 18       		.uleb128 0x18
 1386 0809 A0030000 		.4byte	.LASF120
 1387 080d 07       		.byte	0x7
 1388 080e 9C02     		.2byte	0x29c
 1389 0810 23080000 		.4byte	0x823
 1390 0814 00       		.byte	0
 1391 0815 18       		.uleb128 0x18
 1392 0816 21070000 		.4byte	.LASF121
 1393 081a 07       		.byte	0x7
 1394 081b 9D02     		.2byte	0x29d
 1395 081d 33080000 		.4byte	0x833
 1396 0821 78       		.byte	0x78
 1397 0822 00       		.byte	0
 1398 0823 0A       		.uleb128 0xa
 1399 0824 23030000 		.4byte	0x323
 1400 0828 33080000 		.4byte	0x833
 1401 082c 0B       		.uleb128 0xb
 1402 082d 85000000 		.4byte	0x85
 1403 0831 1D       		.byte	0x1d
 1404 0832 00       		.byte	0
 1405 0833 0A       		.uleb128 0xa
 1406 0834 85000000 		.4byte	0x85
 1407 0838 43080000 		.4byte	0x843
 1408 083c 0B       		.uleb128 0xb
 1409 083d 85000000 		.4byte	0x85
 1410 0841 1D       		.byte	0x1d
 1411 0842 00       		.byte	0
 1412 0843 1C       		.uleb128 0x1c
 1413 0844 F0       		.byte	0xf0
 1414 0845 07       		.byte	0x7
 1415 0846 7E02     		.2byte	0x27e
 1416 0848 65080000 		.4byte	0x865
 1417 084c 1D       		.uleb128 0x1d
 1418 084d 2D050000 		.4byte	.LASF71
 1419 0851 07       		.byte	0x7
 1420 0852 9502     		.2byte	0x295
 1421 0854 CE060000 		.4byte	0x6ce
 1422 0858 1D       		.uleb128 0x1d
 1423 0859 5A070000 		.4byte	.LASF122
 1424 085d 07       		.byte	0x7
 1425 085e 9E02     		.2byte	0x29e
ARM GAS  /tmp/ccjYL3qA.s 			page 26


 1426 0860 FF070000 		.4byte	0x7ff
 1427 0864 00       		.byte	0
 1428 0865 0A       		.uleb128 0xa
 1429 0866 5A010000 		.4byte	0x15a
 1430 086a 75080000 		.4byte	0x875
 1431 086e 0B       		.uleb128 0xb
 1432 086f 85000000 		.4byte	0x85
 1433 0873 18       		.byte	0x18
 1434 0874 00       		.byte	0
 1435 0875 06       		.uleb128 0x6
 1436 0876 89000000 		.4byte	.LASF124
 1437 087a 05       		.uleb128 0x5
 1438 087b 04       		.byte	0x4
 1439 087c 75080000 		.4byte	0x875
 1440 0880 1E       		.uleb128 0x1e
 1441 0881 8B080000 		.4byte	0x88b
 1442 0885 16       		.uleb128 0x16
 1443 0886 71040000 		.4byte	0x471
 1444 088a 00       		.byte	0
 1445 088b 05       		.uleb128 0x5
 1446 088c 04       		.byte	0x4
 1447 088d 80080000 		.4byte	0x880
 1448 0891 05       		.uleb128 0x5
 1449 0892 04       		.byte	0x4
 1450 0893 C4010000 		.4byte	0x1c4
 1451 0897 1E       		.uleb128 0x1e
 1452 0898 A2080000 		.4byte	0x8a2
 1453 089c 16       		.uleb128 0x16
 1454 089d 73000000 		.4byte	0x73
 1455 08a1 00       		.byte	0
 1456 08a2 05       		.uleb128 0x5
 1457 08a3 04       		.byte	0x4
 1458 08a4 A8080000 		.4byte	0x8a8
 1459 08a8 05       		.uleb128 0x5
 1460 08a9 04       		.byte	0x4
 1461 08aa 97080000 		.4byte	0x897
 1462 08ae 0A       		.uleb128 0xa
 1463 08af 3C060000 		.4byte	0x63c
 1464 08b3 BE080000 		.4byte	0x8be
 1465 08b7 0B       		.uleb128 0xb
 1466 08b8 85000000 		.4byte	0x85
 1467 08bc 02       		.byte	0x2
 1468 08bd 00       		.byte	0
 1469 08be 1F       		.uleb128 0x1f
 1470 08bf 7D050000 		.4byte	.LASF125
 1471 08c3 07       		.byte	0x7
 1472 08c4 2E03     		.2byte	0x32e
 1473 08c6 71040000 		.4byte	0x471
 1474 08ca 1F       		.uleb128 0x1f
 1475 08cb D9060000 		.4byte	.LASF126
 1476 08cf 07       		.byte	0x7
 1477 08d0 2F03     		.2byte	0x32f
 1478 08d2 77040000 		.4byte	0x477
 1479 08d6 20       		.uleb128 0x20
 1480 08d7 DC030000 		.4byte	.LASF127
 1481 08db 08       		.byte	0x8
 1482 08dc 63       		.byte	0x63
ARM GAS  /tmp/ccjYL3qA.s 			page 27


 1483 08dd 54010000 		.4byte	0x154
 1484 08e1 10       		.uleb128 0x10
 1485 08e2 05040000 		.4byte	.LASF128
 1486 08e6 08       		.byte	0x8
 1487 08e7 09       		.byte	0x9
 1488 08e8 1D       		.byte	0x1d
 1489 08e9 06090000 		.4byte	0x906
 1490 08ed 0D       		.uleb128 0xd
 1491 08ee B0000000 		.4byte	.LASF129
 1492 08f2 09       		.byte	0x9
 1493 08f3 1E       		.byte	0x1e
 1494 08f4 0B090000 		.4byte	0x90b
 1495 08f8 00       		.byte	0
 1496 08f9 0D       		.uleb128 0xd
 1497 08fa 39000000 		.4byte	.LASF130
 1498 08fe 09       		.byte	0x9
 1499 08ff 1E       		.byte	0x1e
 1500 0900 0B090000 		.4byte	0x90b
 1501 0904 04       		.byte	0x4
 1502 0905 00       		.byte	0
 1503 0906 06       		.uleb128 0x6
 1504 0907 62040000 		.4byte	.LASF131
 1505 090b 05       		.uleb128 0x5
 1506 090c 04       		.byte	0x4
 1507 090d 06090000 		.4byte	0x906
 1508 0911 03       		.uleb128 0x3
 1509 0912 6F020000 		.4byte	.LASF132
 1510 0916 09       		.byte	0x9
 1511 0917 21       		.byte	0x21
 1512 0918 A2000000 		.4byte	0xa2
 1513 091c 20       		.uleb128 0x20
 1514 091d 94000000 		.4byte	.LASF133
 1515 0921 09       		.byte	0x9
 1516 0922 24       		.byte	0x24
 1517 0923 11090000 		.4byte	0x911
 1518 0927 21       		.uleb128 0x21
 1519 0928 DB020000 		.4byte	.LASF174
 1520 092c 00       		.byte	0
 1521 092d 09       		.byte	0x9
 1522 092e 34       		.byte	0x34
 1523 092f 10       		.uleb128 0x10
 1524 0930 6D030000 		.4byte	.LASF134
 1525 0934 10       		.byte	0x10
 1526 0935 09       		.byte	0x9
 1527 0936 38       		.byte	0x38
 1528 0937 6A090000 		.4byte	0x96a
 1529 093b 11       		.uleb128 0x11
 1530 093c 7100     		.ascii	"q\000"
 1531 093e 09       		.byte	0x9
 1532 093f 39       		.byte	0x39
 1533 0940 E1080000 		.4byte	0x8e1
 1534 0944 00       		.byte	0
 1535 0945 0D       		.uleb128 0xd
 1536 0946 B2070000 		.4byte	.LASF135
 1537 094a 09       		.byte	0x9
 1538 094b 3A       		.byte	0x3a
 1539 094c 27090000 		.4byte	0x927
ARM GAS  /tmp/ccjYL3qA.s 			page 28


 1540 0950 08       		.byte	0x8
 1541 0951 0D       		.uleb128 0xd
 1542 0952 9A010000 		.4byte	.LASF136
 1543 0956 09       		.byte	0x9
 1544 0957 3B       		.byte	0x3b
 1545 0958 6F090000 		.4byte	0x96f
 1546 095c 08       		.byte	0x8
 1547 095d 0D       		.uleb128 0xd
 1548 095e A8070000 		.4byte	.LASF137
 1549 0962 09       		.byte	0x9
 1550 0963 3C       		.byte	0x3c
 1551 0964 75090000 		.4byte	0x975
 1552 0968 0C       		.byte	0xc
 1553 0969 00       		.byte	0
 1554 096a 06       		.uleb128 0x6
 1555 096b 0D010000 		.4byte	.LASF138
 1556 096f 05       		.uleb128 0x5
 1557 0970 04       		.byte	0x4
 1558 0971 6A090000 		.4byte	0x96a
 1559 0975 05       		.uleb128 0x5
 1560 0976 04       		.byte	0x4
 1561 0977 2F090000 		.4byte	0x92f
 1562 097b 03       		.uleb128 0x3
 1563 097c FD000000 		.4byte	.LASF139
 1564 0980 09       		.byte	0x9
 1565 0981 3D       		.byte	0x3d
 1566 0982 2F090000 		.4byte	0x92f
 1567 0986 10       		.uleb128 0x10
 1568 0987 30000000 		.4byte	.LASF140
 1569 098b 08       		.byte	0x8
 1570 098c 09       		.byte	0x9
 1571 098d 46       		.byte	0x46
 1572 098e A9090000 		.4byte	0x9a9
 1573 0992 11       		.uleb128 0x11
 1574 0993 7100     		.ascii	"q\000"
 1575 0995 09       		.byte	0x9
 1576 0996 47       		.byte	0x47
 1577 0997 E1080000 		.4byte	0x8e1
 1578 099b 00       		.byte	0
 1579 099c 0D       		.uleb128 0xd
 1580 099d B2070000 		.4byte	.LASF135
 1581 09a1 09       		.byte	0x9
 1582 09a2 48       		.byte	0x48
 1583 09a3 27090000 		.4byte	0x927
 1584 09a7 08       		.byte	0x8
 1585 09a8 00       		.byte	0
 1586 09a9 03       		.uleb128 0x3
 1587 09aa 9D020000 		.4byte	.LASF141
 1588 09ae 09       		.byte	0x9
 1589 09af 49       		.byte	0x49
 1590 09b0 86090000 		.4byte	0x986
 1591 09b4 22       		.uleb128 0x22
 1592 09b5 07       		.byte	0x7
 1593 09b6 01       		.byte	0x1
 1594 09b7 2C000000 		.4byte	0x2c
 1595 09bb 09       		.byte	0x9
 1596 09bc 76       		.byte	0x76
ARM GAS  /tmp/ccjYL3qA.s 			page 29


 1597 09bd D4090000 		.4byte	0x9d4
 1598 09c1 23       		.uleb128 0x23
 1599 09c2 02030000 		.4byte	.LASF142
 1600 09c6 00       		.byte	0
 1601 09c7 23       		.uleb128 0x23
 1602 09c8 A7030000 		.4byte	.LASF143
 1603 09cc 01       		.byte	0x1
 1604 09cd 23       		.uleb128 0x23
 1605 09ce B7070000 		.4byte	.LASF144
 1606 09d2 02       		.byte	0x2
 1607 09d3 00       		.byte	0
 1608 09d4 10       		.uleb128 0x10
 1609 09d5 92030000 		.4byte	.LASF145
 1610 09d9 04       		.byte	0x4
 1611 09da 09       		.byte	0x9
 1612 09db 7C       		.byte	0x7c
 1613 09dc F9090000 		.4byte	0x9f9
 1614 09e0 0D       		.uleb128 0xd
 1615 09e1 44000000 		.4byte	.LASF146
 1616 09e5 09       		.byte	0x9
 1617 09e6 7D       		.byte	0x7d
 1618 09e7 8C000000 		.4byte	0x8c
 1619 09eb 00       		.byte	0
 1620 09ec 0D       		.uleb128 0xd
 1621 09ed F4040000 		.4byte	.LASF147
 1622 09f1 09       		.byte	0x9
 1623 09f2 7E       		.byte	0x7e
 1624 09f3 8C000000 		.4byte	0x8c
 1625 09f7 02       		.byte	0x2
 1626 09f8 00       		.byte	0
 1627 09f9 10       		.uleb128 0x10
 1628 09fa B5000000 		.4byte	.LASF148
 1629 09fe 14       		.byte	0x14
 1630 09ff 09       		.byte	0x9
 1631 0a00 81       		.byte	0x81
 1632 0a01 4E0A0000 		.4byte	0xa4e
 1633 0a05 0D       		.uleb128 0xd
 1634 0a06 44000000 		.4byte	.LASF146
 1635 0a0a 09       		.byte	0x9
 1636 0a0b 82       		.byte	0x82
 1637 0a0c 8C000000 		.4byte	0x8c
 1638 0a10 00       		.byte	0
 1639 0a11 0D       		.uleb128 0xd
 1640 0a12 F4040000 		.4byte	.LASF147
 1641 0a16 09       		.byte	0x9
 1642 0a17 83       		.byte	0x83
 1643 0a18 8C000000 		.4byte	0x8c
 1644 0a1c 02       		.byte	0x2
 1645 0a1d 0D       		.uleb128 0xd
 1646 0a1e 60010000 		.4byte	.LASF149
 1647 0a22 09       		.byte	0x9
 1648 0a23 85       		.byte	0x85
 1649 0a24 4E0A0000 		.4byte	0xa4e
 1650 0a28 04       		.byte	0x4
 1651 0a29 0D       		.uleb128 0xd
 1652 0a2a 69040000 		.4byte	.LASF150
 1653 0a2e 09       		.byte	0x9
ARM GAS  /tmp/ccjYL3qA.s 			page 30


 1654 0a2f 86       		.byte	0x86
 1655 0a30 540A0000 		.4byte	0xa54
 1656 0a34 08       		.byte	0x8
 1657 0a35 0D       		.uleb128 0xd
 1658 0a36 7E010000 		.4byte	.LASF151
 1659 0a3a 09       		.byte	0x9
 1660 0a3b 87       		.byte	0x87
 1661 0a3c 690A0000 		.4byte	0xa69
 1662 0a40 0C       		.byte	0xc
 1663 0a41 11       		.uleb128 0x11
 1664 0a42 61726700 		.ascii	"arg\000"
 1665 0a46 09       		.byte	0x9
 1666 0a47 88       		.byte	0x88
 1667 0a48 52010000 		.4byte	0x152
 1668 0a4c 10       		.byte	0x10
 1669 0a4d 00       		.byte	0
 1670 0a4e 05       		.uleb128 0x5
 1671 0a4f 04       		.byte	0x4
 1672 0a50 A9090000 		.4byte	0x9a9
 1673 0a54 05       		.uleb128 0x5
 1674 0a55 04       		.byte	0x4
 1675 0a56 7B090000 		.4byte	0x97b
 1676 0a5a 15       		.uleb128 0x15
 1677 0a5b 73000000 		.4byte	0x73
 1678 0a5f 690A0000 		.4byte	0xa69
 1679 0a63 16       		.uleb128 0x16
 1680 0a64 52010000 		.4byte	0x152
 1681 0a68 00       		.byte	0
 1682 0a69 05       		.uleb128 0x5
 1683 0a6a 04       		.byte	0x4
 1684 0a6b 5A0A0000 		.4byte	0xa5a
 1685 0a6f 03       		.uleb128 0x3
 1686 0a70 81020000 		.4byte	.LASF152
 1687 0a74 09       		.byte	0x9
 1688 0a75 8A       		.byte	0x8a
 1689 0a76 F9090000 		.4byte	0x9f9
 1690 0a7a 03       		.uleb128 0x3
 1691 0a7b 59030000 		.4byte	.LASF153
 1692 0a7f 0A       		.byte	0xa
 1693 0a80 01       		.byte	0x1
 1694 0a81 97000000 		.4byte	0x97
 1695 0a85 10       		.uleb128 0x10
 1696 0a86 B2010000 		.4byte	.LASF154
 1697 0a8a 1C       		.byte	0x1c
 1698 0a8b 0A       		.byte	0xa
 1699 0a8c 03       		.byte	0x3
 1700 0a8d B60A0000 		.4byte	0xab6
 1701 0a91 0D       		.uleb128 0xd
 1702 0a92 3E070000 		.4byte	.LASF155
 1703 0a96 0A       		.byte	0xa
 1704 0a97 04       		.byte	0x4
 1705 0a98 7A0A0000 		.4byte	0xa7a
 1706 0a9c 00       		.byte	0
 1707 0a9d 0D       		.uleb128 0xd
 1708 0a9e 69040000 		.4byte	.LASF150
 1709 0aa2 0A       		.byte	0xa
 1710 0aa3 05       		.byte	0x5
ARM GAS  /tmp/ccjYL3qA.s 			page 31


 1711 0aa4 7B090000 		.4byte	0x97b
 1712 0aa8 04       		.byte	0x4
 1713 0aa9 0D       		.uleb128 0xd
 1714 0aaa 60010000 		.4byte	.LASF149
 1715 0aae 0A       		.byte	0xa
 1716 0aaf 06       		.byte	0x6
 1717 0ab0 A9090000 		.4byte	0x9a9
 1718 0ab4 14       		.byte	0x14
 1719 0ab5 00       		.byte	0
 1720 0ab6 24       		.uleb128 0x24
 1721 0ab7 9D050000 		.4byte	.LASF162
 1722 0abb 01       		.byte	0x1
 1723 0abc 7B       		.byte	0x7b
 1724 0abd 00000000 		.4byte	.LFB6
 1725 0ac1 26000000 		.4byte	.LFE6-.LFB6
 1726 0ac5 01       		.uleb128 0x1
 1727 0ac6 9C       		.byte	0x9c
 1728 0ac7 220B0000 		.4byte	0xb22
 1729 0acb 25       		.uleb128 0x25
 1730 0acc 657600   		.ascii	"ev\000"
 1731 0acf 01       		.byte	0x1
 1732 0ad0 7B       		.byte	0x7b
 1733 0ad1 220B0000 		.4byte	0xb22
 1734 0ad5 00000000 		.4byte	.LLST11
 1735 0ad9 25       		.uleb128 0x25
 1736 0ada 6D00     		.ascii	"m\000"
 1737 0adc 01       		.byte	0x1
 1738 0add 7B       		.byte	0x7b
 1739 0ade 7A0A0000 		.4byte	0xa7a
 1740 0ae2 39000000 		.4byte	.LLST12
 1741 0ae6 26       		.uleb128 0x26
 1742 0ae7 0E000000 		.4byte	.LVL36
 1743 0aeb 940D0000 		.4byte	0xd94
 1744 0aef FA0A0000 		.4byte	0xafa
 1745 0af3 27       		.uleb128 0x27
 1746 0af4 01       		.uleb128 0x1
 1747 0af5 50       		.byte	0x50
 1748 0af6 02       		.uleb128 0x2
 1749 0af7 75       		.byte	0x75
 1750 0af8 00       		.sleb128 0
 1751 0af9 00       		.byte	0
 1752 0afa 26       		.uleb128 0x26
 1753 0afb 1C000000 		.4byte	.LVL37
 1754 0aff 9F0D0000 		.4byte	0xd9f
 1755 0b03 0E0B0000 		.4byte	0xb0e
 1756 0b07 27       		.uleb128 0x27
 1757 0b08 01       		.uleb128 0x1
 1758 0b09 50       		.byte	0x50
 1759 0b0a 02       		.uleb128 0x2
 1760 0b0b 74       		.byte	0x74
 1761 0b0c 14       		.sleb128 20
 1762 0b0d 00       		.byte	0
 1763 0b0e 28       		.uleb128 0x28
 1764 0b0f 26000000 		.4byte	.LVL39
 1765 0b13 AA0D0000 		.4byte	0xdaa
 1766 0b17 27       		.uleb128 0x27
 1767 0b18 01       		.uleb128 0x1
ARM GAS  /tmp/ccjYL3qA.s 			page 32


 1768 0b19 50       		.byte	0x50
 1769 0b1a 05       		.uleb128 0x5
 1770 0b1b F3       		.byte	0xf3
 1771 0b1c 01       		.uleb128 0x1
 1772 0b1d 50       		.byte	0x50
 1773 0b1e 23       		.byte	0x23
 1774 0b1f 04       		.uleb128 0x4
 1775 0b20 00       		.byte	0
 1776 0b21 00       		.byte	0
 1777 0b22 05       		.uleb128 0x5
 1778 0b23 04       		.byte	0x4
 1779 0b24 850A0000 		.4byte	0xa85
 1780 0b28 29       		.uleb128 0x29
 1781 0b29 CC000000 		.4byte	.LASF159
 1782 0b2d 01       		.byte	0x1
 1783 0b2e 6F       		.byte	0x6f
 1784 0b2f 7A0A0000 		.4byte	0xa7a
 1785 0b33 00000000 		.4byte	.LFB5
 1786 0b37 38000000 		.4byte	.LFE5-.LFB5
 1787 0b3b 01       		.uleb128 0x1
 1788 0b3c 9C       		.byte	0x9c
 1789 0b3d D00B0000 		.4byte	0xbd0
 1790 0b41 25       		.uleb128 0x25
 1791 0b42 657600   		.ascii	"ev\000"
 1792 0b45 01       		.byte	0x1
 1793 0b46 6F       		.byte	0x6f
 1794 0b47 220B0000 		.4byte	0xb22
 1795 0b4b 65000000 		.4byte	.LLST7
 1796 0b4f 2A       		.uleb128 0x2a
 1797 0b50 0C040000 		.4byte	.LASF156
 1798 0b54 01       		.byte	0x1
 1799 0b55 6F       		.byte	0x6f
 1800 0b56 97000000 		.4byte	0x97
 1801 0b5a 91000000 		.4byte	.LLST8
 1802 0b5e 2B       		.uleb128 0x2b
 1803 0b5f 02070000 		.4byte	.LASF157
 1804 0b63 01       		.byte	0x1
 1805 0b64 71       		.byte	0x71
 1806 0b65 6F0A0000 		.4byte	0xa6f
 1807 0b69 02       		.uleb128 0x2
 1808 0b6a 91       		.byte	0x91
 1809 0b6b 64       		.sleb128 -28
 1810 0b6c 2B       		.uleb128 0x2b
 1811 0b6d EC060000 		.4byte	.LASF158
 1812 0b71 01       		.byte	0x1
 1813 0b72 72       		.byte	0x72
 1814 0b73 D00B0000 		.4byte	0xbd0
 1815 0b77 02       		.uleb128 0x2
 1816 0b78 91       		.byte	0x91
 1817 0b79 60       		.sleb128 -32
 1818 0b7a 2C       		.uleb128 0x2c
 1819 0b7b C80C0000 		.4byte	0xcc8
 1820 0b7f 08000000 		.4byte	.LBB4
 1821 0b83 00000000 		.4byte	.Ldebug_ranges0+0
 1822 0b87 01       		.byte	0x1
 1823 0b88 74       		.byte	0x74
 1824 0b89 A00B0000 		.4byte	0xba0
ARM GAS  /tmp/ccjYL3qA.s 			page 33


 1825 0b8d 2D       		.uleb128 0x2d
 1826 0b8e DE0C0000 		.4byte	0xcde
 1827 0b92 BC000000 		.4byte	.LLST9
 1828 0b96 2D       		.uleb128 0x2d
 1829 0b97 D40C0000 		.4byte	0xcd4
 1830 0b9b DB000000 		.4byte	.LLST10
 1831 0b9f 00       		.byte	0
 1832 0ba0 26       		.uleb128 0x26
 1833 0ba1 2A000000 		.4byte	.LVL31
 1834 0ba5 B50D0000 		.4byte	0xdb5
 1835 0ba9 BF0B0000 		.4byte	0xbbf
 1836 0bad 27       		.uleb128 0x27
 1837 0bae 01       		.uleb128 0x1
 1838 0baf 50       		.byte	0x50
 1839 0bb0 02       		.uleb128 0x2
 1840 0bb1 91       		.byte	0x91
 1841 0bb2 5C       		.sleb128 -36
 1842 0bb3 27       		.uleb128 0x27
 1843 0bb4 01       		.uleb128 0x1
 1844 0bb5 51       		.byte	0x51
 1845 0bb6 01       		.uleb128 0x1
 1846 0bb7 31       		.byte	0x31
 1847 0bb8 27       		.uleb128 0x27
 1848 0bb9 01       		.uleb128 0x1
 1849 0bba 52       		.byte	0x52
 1850 0bbb 02       		.uleb128 0x2
 1851 0bbc 91       		.byte	0x91
 1852 0bbd 60       		.sleb128 -32
 1853 0bbe 00       		.byte	0
 1854 0bbf 2E       		.uleb128 0x2e
 1855 0bc0 30000000 		.4byte	.LVL32
 1856 0bc4 640C0000 		.4byte	0xc64
 1857 0bc8 27       		.uleb128 0x27
 1858 0bc9 01       		.uleb128 0x1
 1859 0bca 50       		.byte	0x50
 1860 0bcb 02       		.uleb128 0x2
 1861 0bcc 74       		.byte	0x74
 1862 0bcd 00       		.sleb128 0
 1863 0bce 00       		.byte	0
 1864 0bcf 00       		.byte	0
 1865 0bd0 0A       		.uleb128 0xa
 1866 0bd1 E00B0000 		.4byte	0xbe0
 1867 0bd5 E00B0000 		.4byte	0xbe0
 1868 0bd9 0B       		.uleb128 0xb
 1869 0bda 85000000 		.4byte	0x85
 1870 0bde 00       		.byte	0
 1871 0bdf 00       		.byte	0
 1872 0be0 05       		.uleb128 0x5
 1873 0be1 04       		.byte	0x4
 1874 0be2 D4090000 		.4byte	0x9d4
 1875 0be6 29       		.uleb128 0x29
 1876 0be7 24010000 		.4byte	.LASF160
 1877 0beb 01       		.byte	0x1
 1878 0bec 57       		.byte	0x57
 1879 0bed 7A0A0000 		.4byte	0xa7a
 1880 0bf1 00000000 		.4byte	.LFB4
 1881 0bf5 42000000 		.4byte	.LFE4-.LFB4
ARM GAS  /tmp/ccjYL3qA.s 			page 34


 1882 0bf9 01       		.uleb128 0x1
 1883 0bfa 9C       		.byte	0x9c
 1884 0bfb 640C0000 		.4byte	0xc64
 1885 0bff 25       		.uleb128 0x25
 1886 0c00 657600   		.ascii	"ev\000"
 1887 0c03 01       		.byte	0x1
 1888 0c04 57       		.byte	0x57
 1889 0c05 220B0000 		.4byte	0xb22
 1890 0c09 EE000000 		.4byte	.LLST5
 1891 0c0d 2F       		.uleb128 0x2f
 1892 0c0e 6E00     		.ascii	"n\000"
 1893 0c10 01       		.byte	0x1
 1894 0c11 59       		.byte	0x59
 1895 0c12 73000000 		.4byte	0x73
 1896 0c16 0C010000 		.4byte	.LLST6
 1897 0c1a 30       		.uleb128 0x30
 1898 0c1b 6D00     		.ascii	"m\000"
 1899 0c1d 01       		.byte	0x1
 1900 0c1e 5A       		.byte	0x5a
 1901 0c1f 7A0A0000 		.4byte	0xa7a
 1902 0c23 01       		.uleb128 0x1
 1903 0c24 54       		.byte	0x54
 1904 0c25 26       		.uleb128 0x26
 1905 0c26 0C000000 		.4byte	.LVL18
 1906 0c2a 940D0000 		.4byte	0xd94
 1907 0c2e 390C0000 		.4byte	0xc39
 1908 0c32 27       		.uleb128 0x27
 1909 0c33 01       		.uleb128 0x1
 1910 0c34 50       		.byte	0x50
 1911 0c35 02       		.uleb128 0x2
 1912 0c36 76       		.byte	0x76
 1913 0c37 00       		.sleb128 0
 1914 0c38 00       		.byte	0
 1915 0c39 26       		.uleb128 0x26
 1916 0c3a 1A000000 		.4byte	.LVL19
 1917 0c3e C00D0000 		.4byte	0xdc0
 1918 0c42 530C0000 		.4byte	0xc53
 1919 0c46 27       		.uleb128 0x27
 1920 0c47 01       		.uleb128 0x1
 1921 0c48 50       		.byte	0x50
 1922 0c49 02       		.uleb128 0x2
 1923 0c4a 75       		.byte	0x75
 1924 0c4b 14       		.sleb128 20
 1925 0c4c 27       		.uleb128 0x27
 1926 0c4d 01       		.uleb128 0x1
 1927 0c4e 51       		.byte	0x51
 1928 0c4f 02       		.uleb128 0x2
 1929 0c50 76       		.byte	0x76
 1930 0c51 00       		.sleb128 0
 1931 0c52 00       		.byte	0
 1932 0c53 2E       		.uleb128 0x2e
 1933 0c54 3E000000 		.4byte	.LVL24
 1934 0c58 AA0D0000 		.4byte	0xdaa
 1935 0c5c 27       		.uleb128 0x27
 1936 0c5d 01       		.uleb128 0x1
 1937 0c5e 50       		.byte	0x50
 1938 0c5f 02       		.uleb128 0x2
ARM GAS  /tmp/ccjYL3qA.s 			page 35


 1939 0c60 76       		.byte	0x76
 1940 0c61 00       		.sleb128 0
 1941 0c62 00       		.byte	0
 1942 0c63 00       		.byte	0
 1943 0c64 29       		.uleb128 0x29
 1944 0c65 EB050000 		.4byte	.LASF161
 1945 0c69 01       		.byte	0x1
 1946 0c6a 42       		.byte	0x42
 1947 0c6b 7A0A0000 		.4byte	0xa7a
 1948 0c6f 00000000 		.4byte	.LFB3
 1949 0c73 34000000 		.4byte	.LFE3-.LFB3
 1950 0c77 01       		.uleb128 0x1
 1951 0c78 9C       		.byte	0x9c
 1952 0c79 C80C0000 		.4byte	0xcc8
 1953 0c7d 25       		.uleb128 0x25
 1954 0c7e 657600   		.ascii	"ev\000"
 1955 0c81 01       		.byte	0x1
 1956 0c82 42       		.byte	0x42
 1957 0c83 220B0000 		.4byte	0xb22
 1958 0c87 39010000 		.4byte	.LLST3
 1959 0c8b 2F       		.uleb128 0x2f
 1960 0c8c 6E00     		.ascii	"n\000"
 1961 0c8e 01       		.byte	0x1
 1962 0c8f 44       		.byte	0x44
 1963 0c90 73000000 		.4byte	0x73
 1964 0c94 57010000 		.4byte	.LLST4
 1965 0c98 30       		.uleb128 0x30
 1966 0c99 6D00     		.ascii	"m\000"
 1967 0c9b 01       		.byte	0x1
 1968 0c9c 45       		.byte	0x45
 1969 0c9d 7A0A0000 		.4byte	0xa7a
 1970 0ca1 01       		.uleb128 0x1
 1971 0ca2 54       		.byte	0x54
 1972 0ca3 26       		.uleb128 0x26
 1973 0ca4 0C000000 		.4byte	.LVL10
 1974 0ca8 940D0000 		.4byte	0xd94
 1975 0cac B70C0000 		.4byte	0xcb7
 1976 0cb0 27       		.uleb128 0x27
 1977 0cb1 01       		.uleb128 0x1
 1978 0cb2 50       		.byte	0x50
 1979 0cb3 02       		.uleb128 0x2
 1980 0cb4 76       		.byte	0x76
 1981 0cb5 00       		.sleb128 0
 1982 0cb6 00       		.byte	0
 1983 0cb7 2E       		.uleb128 0x2e
 1984 0cb8 30000000 		.4byte	.LVL15
 1985 0cbc AA0D0000 		.4byte	0xdaa
 1986 0cc0 27       		.uleb128 0x27
 1987 0cc1 01       		.uleb128 0x1
 1988 0cc2 50       		.byte	0x50
 1989 0cc3 02       		.uleb128 0x2
 1990 0cc4 76       		.byte	0x76
 1991 0cc5 00       		.sleb128 0
 1992 0cc6 00       		.byte	0
 1993 0cc7 00       		.byte	0
 1994 0cc8 31       		.uleb128 0x31
 1995 0cc9 3D040000 		.4byte	.LASF175
ARM GAS  /tmp/ccjYL3qA.s 			page 36


 1996 0ccd 01       		.byte	0x1
 1997 0cce 36       		.byte	0x36
 1998 0ccf 01       		.byte	0x1
 1999 0cd0 EA0C0000 		.4byte	0xcea
 2000 0cd4 32       		.uleb128 0x32
 2001 0cd5 657600   		.ascii	"ev\000"
 2002 0cd8 01       		.byte	0x1
 2003 0cd9 36       		.byte	0x36
 2004 0cda 220B0000 		.4byte	0xb22
 2005 0cde 33       		.uleb128 0x33
 2006 0cdf 02070000 		.4byte	.LASF157
 2007 0ce3 01       		.byte	0x1
 2008 0ce4 36       		.byte	0x36
 2009 0ce5 EA0C0000 		.4byte	0xcea
 2010 0ce9 00       		.byte	0
 2011 0cea 05       		.uleb128 0x5
 2012 0ceb 04       		.byte	0x4
 2013 0cec 6F0A0000 		.4byte	0xa6f
 2014 0cf0 34       		.uleb128 0x34
 2015 0cf1 44070000 		.4byte	.LASF176
 2016 0cf5 01       		.byte	0x1
 2017 0cf6 2D       		.byte	0x2d
 2018 0cf7 73000000 		.4byte	0x73
 2019 0cfb 00000000 		.4byte	.LFB1
 2020 0cff 0A000000 		.4byte	.LFE1-.LFB1
 2021 0d03 01       		.uleb128 0x1
 2022 0d04 9C       		.byte	0x9c
 2023 0d05 270D0000 		.4byte	0xd27
 2024 0d09 25       		.uleb128 0x25
 2025 0d0a 61726700 		.ascii	"arg\000"
 2026 0d0e 01       		.byte	0x1
 2027 0d0f 2D       		.byte	0x2d
 2028 0d10 52010000 		.4byte	0x152
 2029 0d14 84010000 		.4byte	.LLST0
 2030 0d18 2F       		.uleb128 0x2f
 2031 0d19 657600   		.ascii	"ev\000"
 2032 0d1c 01       		.byte	0x1
 2033 0d1d 2F       		.byte	0x2f
 2034 0d1e 220B0000 		.4byte	0xb22
 2035 0d22 A5010000 		.4byte	.LLST1
 2036 0d26 00       		.byte	0
 2037 0d27 24       		.uleb128 0x24
 2038 0d28 2E040000 		.4byte	.LASF163
 2039 0d2c 01       		.byte	0x1
 2040 0d2d 24       		.byte	0x24
 2041 0d2e 00000000 		.4byte	.LFB0
 2042 0d32 18000000 		.4byte	.LFE0-.LFB0
 2043 0d36 01       		.uleb128 0x1
 2044 0d37 9C       		.byte	0x9c
 2045 0d38 720D0000 		.4byte	0xd72
 2046 0d3c 25       		.uleb128 0x25
 2047 0d3d 657600   		.ascii	"ev\000"
 2048 0d40 01       		.byte	0x1
 2049 0d41 24       		.byte	0x24
 2050 0d42 220B0000 		.4byte	0xb22
 2051 0d46 C6010000 		.4byte	.LLST2
 2052 0d4a 26       		.uleb128 0x26
ARM GAS  /tmp/ccjYL3qA.s 			page 37


 2053 0d4b 0E000000 		.4byte	.LVL4
 2054 0d4f CB0D0000 		.4byte	0xdcb
 2055 0d53 5E0D0000 		.4byte	0xd5e
 2056 0d57 27       		.uleb128 0x27
 2057 0d58 01       		.uleb128 0x1
 2058 0d59 50       		.byte	0x50
 2059 0d5a 02       		.uleb128 0x2
 2060 0d5b 74       		.byte	0x74
 2061 0d5c 14       		.sleb128 20
 2062 0d5d 00       		.byte	0
 2063 0d5e 28       		.uleb128 0x28
 2064 0d5f 18000000 		.4byte	.LVL6
 2065 0d63 D60D0000 		.4byte	0xdd6
 2066 0d67 27       		.uleb128 0x27
 2067 0d68 01       		.uleb128 0x1
 2068 0d69 50       		.byte	0x50
 2069 0d6a 05       		.uleb128 0x5
 2070 0d6b F3       		.byte	0xf3
 2071 0d6c 01       		.uleb128 0x1
 2072 0d6d 50       		.byte	0x50
 2073 0d6e 23       		.byte	0x23
 2074 0d6f 04       		.uleb128 0x4
 2075 0d70 00       		.byte	0
 2076 0d71 00       		.byte	0
 2077 0d72 35       		.uleb128 0x35
 2078 0d73 C80C0000 		.4byte	0xcc8
 2079 0d77 00000000 		.4byte	.LFB2
 2080 0d7b 1C000000 		.4byte	.LFE2-.LFB2
 2081 0d7f 01       		.uleb128 0x1
 2082 0d80 9C       		.byte	0x9c
 2083 0d81 940D0000 		.4byte	0xd94
 2084 0d85 36       		.uleb128 0x36
 2085 0d86 D40C0000 		.4byte	0xcd4
 2086 0d8a 01       		.uleb128 0x1
 2087 0d8b 50       		.byte	0x50
 2088 0d8c 36       		.uleb128 0x36
 2089 0d8d DE0C0000 		.4byte	0xcde
 2090 0d91 01       		.uleb128 0x1
 2091 0d92 51       		.byte	0x51
 2092 0d93 00       		.byte	0
 2093 0d94 37       		.uleb128 0x37
 2094 0d95 11040000 		.4byte	.LASF164
 2095 0d99 11040000 		.4byte	.LASF164
 2096 0d9d 09       		.byte	0x9
 2097 0d9e 42       		.byte	0x42
 2098 0d9f 37       		.uleb128 0x37
 2099 0da0 CB050000 		.4byte	.LASF165
 2100 0da4 CB050000 		.4byte	.LASF165
 2101 0da8 09       		.byte	0x9
 2102 0da9 4F       		.byte	0x4f
 2103 0daa 37       		.uleb128 0x37
 2104 0dab F3010000 		.4byte	.LASF166
 2105 0daf F3010000 		.4byte	.LASF166
 2106 0db3 09       		.byte	0x9
 2107 0db4 44       		.byte	0x44
 2108 0db5 37       		.uleb128 0x37
 2109 0db6 F8030000 		.4byte	.LASF167
ARM GAS  /tmp/ccjYL3qA.s 			page 38


 2110 0dba F8030000 		.4byte	.LASF167
 2111 0dbe 09       		.byte	0x9
 2112 0dbf A1       		.byte	0xa1
 2113 0dc0 37       		.uleb128 0x37
 2114 0dc1 62070000 		.4byte	.LASF168
 2115 0dc5 62070000 		.4byte	.LASF168
 2116 0dc9 09       		.byte	0x9
 2117 0dca 4E       		.byte	0x4e
 2118 0dcb 37       		.uleb128 0x37
 2119 0dcc C2030000 		.4byte	.LASF169
 2120 0dd0 C2030000 		.4byte	.LASF169
 2121 0dd4 09       		.byte	0x9
 2122 0dd5 4C       		.byte	0x4c
 2123 0dd6 37       		.uleb128 0x37
 2124 0dd7 42050000 		.4byte	.LASF170
 2125 0ddb 42050000 		.4byte	.LASF170
 2126 0ddf 09       		.byte	0x9
 2127 0de0 40       		.byte	0x40
 2128 0de1 00       		.byte	0
 2129              		.section	.debug_abbrev,"",%progbits
 2130              	.Ldebug_abbrev0:
 2131 0000 01       		.uleb128 0x1
 2132 0001 11       		.uleb128 0x11
 2133 0002 01       		.byte	0x1
 2134 0003 25       		.uleb128 0x25
 2135 0004 0E       		.uleb128 0xe
 2136 0005 13       		.uleb128 0x13
 2137 0006 0B       		.uleb128 0xb
 2138 0007 03       		.uleb128 0x3
 2139 0008 0E       		.uleb128 0xe
 2140 0009 1B       		.uleb128 0x1b
 2141 000a 0E       		.uleb128 0xe
 2142 000b 55       		.uleb128 0x55
 2143 000c 17       		.uleb128 0x17
 2144 000d 11       		.uleb128 0x11
 2145 000e 01       		.uleb128 0x1
 2146 000f 10       		.uleb128 0x10
 2147 0010 17       		.uleb128 0x17
 2148 0011 00       		.byte	0
 2149 0012 00       		.byte	0
 2150 0013 02       		.uleb128 0x2
 2151 0014 24       		.uleb128 0x24
 2152 0015 00       		.byte	0
 2153 0016 0B       		.uleb128 0xb
 2154 0017 0B       		.uleb128 0xb
 2155 0018 3E       		.uleb128 0x3e
 2156 0019 0B       		.uleb128 0xb
 2157 001a 03       		.uleb128 0x3
 2158 001b 0E       		.uleb128 0xe
 2159 001c 00       		.byte	0
 2160 001d 00       		.byte	0
 2161 001e 03       		.uleb128 0x3
 2162 001f 16       		.uleb128 0x16
 2163 0020 00       		.byte	0
 2164 0021 03       		.uleb128 0x3
 2165 0022 0E       		.uleb128 0xe
 2166 0023 3A       		.uleb128 0x3a
ARM GAS  /tmp/ccjYL3qA.s 			page 39


 2167 0024 0B       		.uleb128 0xb
 2168 0025 3B       		.uleb128 0x3b
 2169 0026 0B       		.uleb128 0xb
 2170 0027 49       		.uleb128 0x49
 2171 0028 13       		.uleb128 0x13
 2172 0029 00       		.byte	0
 2173 002a 00       		.byte	0
 2174 002b 04       		.uleb128 0x4
 2175 002c 24       		.uleb128 0x24
 2176 002d 00       		.byte	0
 2177 002e 0B       		.uleb128 0xb
 2178 002f 0B       		.uleb128 0xb
 2179 0030 3E       		.uleb128 0x3e
 2180 0031 0B       		.uleb128 0xb
 2181 0032 03       		.uleb128 0x3
 2182 0033 08       		.uleb128 0x8
 2183 0034 00       		.byte	0
 2184 0035 00       		.byte	0
 2185 0036 05       		.uleb128 0x5
 2186 0037 0F       		.uleb128 0xf
 2187 0038 00       		.byte	0
 2188 0039 0B       		.uleb128 0xb
 2189 003a 0B       		.uleb128 0xb
 2190 003b 49       		.uleb128 0x49
 2191 003c 13       		.uleb128 0x13
 2192 003d 00       		.byte	0
 2193 003e 00       		.byte	0
 2194 003f 06       		.uleb128 0x6
 2195 0040 13       		.uleb128 0x13
 2196 0041 00       		.byte	0
 2197 0042 03       		.uleb128 0x3
 2198 0043 0E       		.uleb128 0xe
 2199 0044 3C       		.uleb128 0x3c
 2200 0045 19       		.uleb128 0x19
 2201 0046 00       		.byte	0
 2202 0047 00       		.byte	0
 2203 0048 07       		.uleb128 0x7
 2204 0049 16       		.uleb128 0x16
 2205 004a 00       		.byte	0
 2206 004b 03       		.uleb128 0x3
 2207 004c 0E       		.uleb128 0xe
 2208 004d 3A       		.uleb128 0x3a
 2209 004e 0B       		.uleb128 0xb
 2210 004f 3B       		.uleb128 0x3b
 2211 0050 05       		.uleb128 0x5
 2212 0051 49       		.uleb128 0x49
 2213 0052 13       		.uleb128 0x13
 2214 0053 00       		.byte	0
 2215 0054 00       		.byte	0
 2216 0055 08       		.uleb128 0x8
 2217 0056 17       		.uleb128 0x17
 2218 0057 01       		.byte	0x1
 2219 0058 0B       		.uleb128 0xb
 2220 0059 0B       		.uleb128 0xb
 2221 005a 3A       		.uleb128 0x3a
 2222 005b 0B       		.uleb128 0xb
 2223 005c 3B       		.uleb128 0x3b
ARM GAS  /tmp/ccjYL3qA.s 			page 40


 2224 005d 0B       		.uleb128 0xb
 2225 005e 01       		.uleb128 0x1
 2226 005f 13       		.uleb128 0x13
 2227 0060 00       		.byte	0
 2228 0061 00       		.byte	0
 2229 0062 09       		.uleb128 0x9
 2230 0063 0D       		.uleb128 0xd
 2231 0064 00       		.byte	0
 2232 0065 03       		.uleb128 0x3
 2233 0066 0E       		.uleb128 0xe
 2234 0067 3A       		.uleb128 0x3a
 2235 0068 0B       		.uleb128 0xb
 2236 0069 3B       		.uleb128 0x3b
 2237 006a 0B       		.uleb128 0xb
 2238 006b 49       		.uleb128 0x49
 2239 006c 13       		.uleb128 0x13
 2240 006d 00       		.byte	0
 2241 006e 00       		.byte	0
 2242 006f 0A       		.uleb128 0xa
 2243 0070 01       		.uleb128 0x1
 2244 0071 01       		.byte	0x1
 2245 0072 49       		.uleb128 0x49
 2246 0073 13       		.uleb128 0x13
 2247 0074 01       		.uleb128 0x1
 2248 0075 13       		.uleb128 0x13
 2249 0076 00       		.byte	0
 2250 0077 00       		.byte	0
 2251 0078 0B       		.uleb128 0xb
 2252 0079 21       		.uleb128 0x21
 2253 007a 00       		.byte	0
 2254 007b 49       		.uleb128 0x49
 2255 007c 13       		.uleb128 0x13
 2256 007d 2F       		.uleb128 0x2f
 2257 007e 0B       		.uleb128 0xb
 2258 007f 00       		.byte	0
 2259 0080 00       		.byte	0
 2260 0081 0C       		.uleb128 0xc
 2261 0082 13       		.uleb128 0x13
 2262 0083 01       		.byte	0x1
 2263 0084 0B       		.uleb128 0xb
 2264 0085 0B       		.uleb128 0xb
 2265 0086 3A       		.uleb128 0x3a
 2266 0087 0B       		.uleb128 0xb
 2267 0088 3B       		.uleb128 0x3b
 2268 0089 0B       		.uleb128 0xb
 2269 008a 01       		.uleb128 0x1
 2270 008b 13       		.uleb128 0x13
 2271 008c 00       		.byte	0
 2272 008d 00       		.byte	0
 2273 008e 0D       		.uleb128 0xd
 2274 008f 0D       		.uleb128 0xd
 2275 0090 00       		.byte	0
 2276 0091 03       		.uleb128 0x3
 2277 0092 0E       		.uleb128 0xe
 2278 0093 3A       		.uleb128 0x3a
 2279 0094 0B       		.uleb128 0xb
 2280 0095 3B       		.uleb128 0x3b
ARM GAS  /tmp/ccjYL3qA.s 			page 41


 2281 0096 0B       		.uleb128 0xb
 2282 0097 49       		.uleb128 0x49
 2283 0098 13       		.uleb128 0x13
 2284 0099 38       		.uleb128 0x38
 2285 009a 0B       		.uleb128 0xb
 2286 009b 00       		.byte	0
 2287 009c 00       		.byte	0
 2288 009d 0E       		.uleb128 0xe
 2289 009e 0F       		.uleb128 0xf
 2290 009f 00       		.byte	0
 2291 00a0 0B       		.uleb128 0xb
 2292 00a1 0B       		.uleb128 0xb
 2293 00a2 00       		.byte	0
 2294 00a3 00       		.byte	0
 2295 00a4 0F       		.uleb128 0xf
 2296 00a5 26       		.uleb128 0x26
 2297 00a6 00       		.byte	0
 2298 00a7 49       		.uleb128 0x49
 2299 00a8 13       		.uleb128 0x13
 2300 00a9 00       		.byte	0
 2301 00aa 00       		.byte	0
 2302 00ab 10       		.uleb128 0x10
 2303 00ac 13       		.uleb128 0x13
 2304 00ad 01       		.byte	0x1
 2305 00ae 03       		.uleb128 0x3
 2306 00af 0E       		.uleb128 0xe
 2307 00b0 0B       		.uleb128 0xb
 2308 00b1 0B       		.uleb128 0xb
 2309 00b2 3A       		.uleb128 0x3a
 2310 00b3 0B       		.uleb128 0xb
 2311 00b4 3B       		.uleb128 0x3b
 2312 00b5 0B       		.uleb128 0xb
 2313 00b6 01       		.uleb128 0x1
 2314 00b7 13       		.uleb128 0x13
 2315 00b8 00       		.byte	0
 2316 00b9 00       		.byte	0
 2317 00ba 11       		.uleb128 0x11
 2318 00bb 0D       		.uleb128 0xd
 2319 00bc 00       		.byte	0
 2320 00bd 03       		.uleb128 0x3
 2321 00be 08       		.uleb128 0x8
 2322 00bf 3A       		.uleb128 0x3a
 2323 00c0 0B       		.uleb128 0xb
 2324 00c1 3B       		.uleb128 0x3b
 2325 00c2 0B       		.uleb128 0xb
 2326 00c3 49       		.uleb128 0x49
 2327 00c4 13       		.uleb128 0x13
 2328 00c5 38       		.uleb128 0x38
 2329 00c6 0B       		.uleb128 0xb
 2330 00c7 00       		.byte	0
 2331 00c8 00       		.byte	0
 2332 00c9 12       		.uleb128 0x12
 2333 00ca 13       		.uleb128 0x13
 2334 00cb 01       		.byte	0x1
 2335 00cc 03       		.uleb128 0x3
 2336 00cd 0E       		.uleb128 0xe
 2337 00ce 0B       		.uleb128 0xb
ARM GAS  /tmp/ccjYL3qA.s 			page 42


 2338 00cf 05       		.uleb128 0x5
 2339 00d0 3A       		.uleb128 0x3a
 2340 00d1 0B       		.uleb128 0xb
 2341 00d2 3B       		.uleb128 0x3b
 2342 00d3 0B       		.uleb128 0xb
 2343 00d4 01       		.uleb128 0x1
 2344 00d5 13       		.uleb128 0x13
 2345 00d6 00       		.byte	0
 2346 00d7 00       		.byte	0
 2347 00d8 13       		.uleb128 0x13
 2348 00d9 0D       		.uleb128 0xd
 2349 00da 00       		.byte	0
 2350 00db 03       		.uleb128 0x3
 2351 00dc 0E       		.uleb128 0xe
 2352 00dd 3A       		.uleb128 0x3a
 2353 00de 0B       		.uleb128 0xb
 2354 00df 3B       		.uleb128 0x3b
 2355 00e0 0B       		.uleb128 0xb
 2356 00e1 49       		.uleb128 0x49
 2357 00e2 13       		.uleb128 0x13
 2358 00e3 38       		.uleb128 0x38
 2359 00e4 05       		.uleb128 0x5
 2360 00e5 00       		.byte	0
 2361 00e6 00       		.byte	0
 2362 00e7 14       		.uleb128 0x14
 2363 00e8 15       		.uleb128 0x15
 2364 00e9 00       		.byte	0
 2365 00ea 27       		.uleb128 0x27
 2366 00eb 19       		.uleb128 0x19
 2367 00ec 00       		.byte	0
 2368 00ed 00       		.byte	0
 2369 00ee 15       		.uleb128 0x15
 2370 00ef 15       		.uleb128 0x15
 2371 00f0 01       		.byte	0x1
 2372 00f1 27       		.uleb128 0x27
 2373 00f2 19       		.uleb128 0x19
 2374 00f3 49       		.uleb128 0x49
 2375 00f4 13       		.uleb128 0x13
 2376 00f5 01       		.uleb128 0x1
 2377 00f6 13       		.uleb128 0x13
 2378 00f7 00       		.byte	0
 2379 00f8 00       		.byte	0
 2380 00f9 16       		.uleb128 0x16
 2381 00fa 05       		.uleb128 0x5
 2382 00fb 00       		.byte	0
 2383 00fc 49       		.uleb128 0x49
 2384 00fd 13       		.uleb128 0x13
 2385 00fe 00       		.byte	0
 2386 00ff 00       		.byte	0
 2387 0100 17       		.uleb128 0x17
 2388 0101 13       		.uleb128 0x13
 2389 0102 01       		.byte	0x1
 2390 0103 03       		.uleb128 0x3
 2391 0104 0E       		.uleb128 0xe
 2392 0105 0B       		.uleb128 0xb
 2393 0106 05       		.uleb128 0x5
 2394 0107 3A       		.uleb128 0x3a
ARM GAS  /tmp/ccjYL3qA.s 			page 43


 2395 0108 0B       		.uleb128 0xb
 2396 0109 3B       		.uleb128 0x3b
 2397 010a 05       		.uleb128 0x5
 2398 010b 01       		.uleb128 0x1
 2399 010c 13       		.uleb128 0x13
 2400 010d 00       		.byte	0
 2401 010e 00       		.byte	0
 2402 010f 18       		.uleb128 0x18
 2403 0110 0D       		.uleb128 0xd
 2404 0111 00       		.byte	0
 2405 0112 03       		.uleb128 0x3
 2406 0113 0E       		.uleb128 0xe
 2407 0114 3A       		.uleb128 0x3a
 2408 0115 0B       		.uleb128 0xb
 2409 0116 3B       		.uleb128 0x3b
 2410 0117 05       		.uleb128 0x5
 2411 0118 49       		.uleb128 0x49
 2412 0119 13       		.uleb128 0x13
 2413 011a 38       		.uleb128 0x38
 2414 011b 0B       		.uleb128 0xb
 2415 011c 00       		.byte	0
 2416 011d 00       		.byte	0
 2417 011e 19       		.uleb128 0x19
 2418 011f 0D       		.uleb128 0xd
 2419 0120 00       		.byte	0
 2420 0121 03       		.uleb128 0x3
 2421 0122 0E       		.uleb128 0xe
 2422 0123 3A       		.uleb128 0x3a
 2423 0124 0B       		.uleb128 0xb
 2424 0125 3B       		.uleb128 0x3b
 2425 0126 05       		.uleb128 0x5
 2426 0127 49       		.uleb128 0x49
 2427 0128 13       		.uleb128 0x13
 2428 0129 38       		.uleb128 0x38
 2429 012a 05       		.uleb128 0x5
 2430 012b 00       		.byte	0
 2431 012c 00       		.byte	0
 2432 012d 1A       		.uleb128 0x1a
 2433 012e 13       		.uleb128 0x13
 2434 012f 01       		.byte	0x1
 2435 0130 03       		.uleb128 0x3
 2436 0131 0E       		.uleb128 0xe
 2437 0132 0B       		.uleb128 0xb
 2438 0133 0B       		.uleb128 0xb
 2439 0134 3A       		.uleb128 0x3a
 2440 0135 0B       		.uleb128 0xb
 2441 0136 3B       		.uleb128 0x3b
 2442 0137 05       		.uleb128 0x5
 2443 0138 01       		.uleb128 0x1
 2444 0139 13       		.uleb128 0x13
 2445 013a 00       		.byte	0
 2446 013b 00       		.byte	0
 2447 013c 1B       		.uleb128 0x1b
 2448 013d 13       		.uleb128 0x13
 2449 013e 01       		.byte	0x1
 2450 013f 0B       		.uleb128 0xb
 2451 0140 0B       		.uleb128 0xb
ARM GAS  /tmp/ccjYL3qA.s 			page 44


 2452 0141 3A       		.uleb128 0x3a
 2453 0142 0B       		.uleb128 0xb
 2454 0143 3B       		.uleb128 0x3b
 2455 0144 05       		.uleb128 0x5
 2456 0145 01       		.uleb128 0x1
 2457 0146 13       		.uleb128 0x13
 2458 0147 00       		.byte	0
 2459 0148 00       		.byte	0
 2460 0149 1C       		.uleb128 0x1c
 2461 014a 17       		.uleb128 0x17
 2462 014b 01       		.byte	0x1
 2463 014c 0B       		.uleb128 0xb
 2464 014d 0B       		.uleb128 0xb
 2465 014e 3A       		.uleb128 0x3a
 2466 014f 0B       		.uleb128 0xb
 2467 0150 3B       		.uleb128 0x3b
 2468 0151 05       		.uleb128 0x5
 2469 0152 01       		.uleb128 0x1
 2470 0153 13       		.uleb128 0x13
 2471 0154 00       		.byte	0
 2472 0155 00       		.byte	0
 2473 0156 1D       		.uleb128 0x1d
 2474 0157 0D       		.uleb128 0xd
 2475 0158 00       		.byte	0
 2476 0159 03       		.uleb128 0x3
 2477 015a 0E       		.uleb128 0xe
 2478 015b 3A       		.uleb128 0x3a
 2479 015c 0B       		.uleb128 0xb
 2480 015d 3B       		.uleb128 0x3b
 2481 015e 05       		.uleb128 0x5
 2482 015f 49       		.uleb128 0x49
 2483 0160 13       		.uleb128 0x13
 2484 0161 00       		.byte	0
 2485 0162 00       		.byte	0
 2486 0163 1E       		.uleb128 0x1e
 2487 0164 15       		.uleb128 0x15
 2488 0165 01       		.byte	0x1
 2489 0166 27       		.uleb128 0x27
 2490 0167 19       		.uleb128 0x19
 2491 0168 01       		.uleb128 0x1
 2492 0169 13       		.uleb128 0x13
 2493 016a 00       		.byte	0
 2494 016b 00       		.byte	0
 2495 016c 1F       		.uleb128 0x1f
 2496 016d 34       		.uleb128 0x34
 2497 016e 00       		.byte	0
 2498 016f 03       		.uleb128 0x3
 2499 0170 0E       		.uleb128 0xe
 2500 0171 3A       		.uleb128 0x3a
 2501 0172 0B       		.uleb128 0xb
 2502 0173 3B       		.uleb128 0x3b
 2503 0174 05       		.uleb128 0x5
 2504 0175 49       		.uleb128 0x49
 2505 0176 13       		.uleb128 0x13
 2506 0177 3F       		.uleb128 0x3f
 2507 0178 19       		.uleb128 0x19
 2508 0179 3C       		.uleb128 0x3c
ARM GAS  /tmp/ccjYL3qA.s 			page 45


 2509 017a 19       		.uleb128 0x19
 2510 017b 00       		.byte	0
 2511 017c 00       		.byte	0
 2512 017d 20       		.uleb128 0x20
 2513 017e 34       		.uleb128 0x34
 2514 017f 00       		.byte	0
 2515 0180 03       		.uleb128 0x3
 2516 0181 0E       		.uleb128 0xe
 2517 0182 3A       		.uleb128 0x3a
 2518 0183 0B       		.uleb128 0xb
 2519 0184 3B       		.uleb128 0x3b
 2520 0185 0B       		.uleb128 0xb
 2521 0186 49       		.uleb128 0x49
 2522 0187 13       		.uleb128 0x13
 2523 0188 3F       		.uleb128 0x3f
 2524 0189 19       		.uleb128 0x19
 2525 018a 3C       		.uleb128 0x3c
 2526 018b 19       		.uleb128 0x19
 2527 018c 00       		.byte	0
 2528 018d 00       		.byte	0
 2529 018e 21       		.uleb128 0x21
 2530 018f 13       		.uleb128 0x13
 2531 0190 00       		.byte	0
 2532 0191 03       		.uleb128 0x3
 2533 0192 0E       		.uleb128 0xe
 2534 0193 0B       		.uleb128 0xb
 2535 0194 0B       		.uleb128 0xb
 2536 0195 3A       		.uleb128 0x3a
 2537 0196 0B       		.uleb128 0xb
 2538 0197 3B       		.uleb128 0x3b
 2539 0198 0B       		.uleb128 0xb
 2540 0199 00       		.byte	0
 2541 019a 00       		.byte	0
 2542 019b 22       		.uleb128 0x22
 2543 019c 04       		.uleb128 0x4
 2544 019d 01       		.byte	0x1
 2545 019e 3E       		.uleb128 0x3e
 2546 019f 0B       		.uleb128 0xb
 2547 01a0 0B       		.uleb128 0xb
 2548 01a1 0B       		.uleb128 0xb
 2549 01a2 49       		.uleb128 0x49
 2550 01a3 13       		.uleb128 0x13
 2551 01a4 3A       		.uleb128 0x3a
 2552 01a5 0B       		.uleb128 0xb
 2553 01a6 3B       		.uleb128 0x3b
 2554 01a7 0B       		.uleb128 0xb
 2555 01a8 01       		.uleb128 0x1
 2556 01a9 13       		.uleb128 0x13
 2557 01aa 00       		.byte	0
 2558 01ab 00       		.byte	0
 2559 01ac 23       		.uleb128 0x23
 2560 01ad 28       		.uleb128 0x28
 2561 01ae 00       		.byte	0
 2562 01af 03       		.uleb128 0x3
 2563 01b0 0E       		.uleb128 0xe
 2564 01b1 1C       		.uleb128 0x1c
 2565 01b2 0B       		.uleb128 0xb
ARM GAS  /tmp/ccjYL3qA.s 			page 46


 2566 01b3 00       		.byte	0
 2567 01b4 00       		.byte	0
 2568 01b5 24       		.uleb128 0x24
 2569 01b6 2E       		.uleb128 0x2e
 2570 01b7 01       		.byte	0x1
 2571 01b8 3F       		.uleb128 0x3f
 2572 01b9 19       		.uleb128 0x19
 2573 01ba 03       		.uleb128 0x3
 2574 01bb 0E       		.uleb128 0xe
 2575 01bc 3A       		.uleb128 0x3a
 2576 01bd 0B       		.uleb128 0xb
 2577 01be 3B       		.uleb128 0x3b
 2578 01bf 0B       		.uleb128 0xb
 2579 01c0 27       		.uleb128 0x27
 2580 01c1 19       		.uleb128 0x19
 2581 01c2 11       		.uleb128 0x11
 2582 01c3 01       		.uleb128 0x1
 2583 01c4 12       		.uleb128 0x12
 2584 01c5 06       		.uleb128 0x6
 2585 01c6 40       		.uleb128 0x40
 2586 01c7 18       		.uleb128 0x18
 2587 01c8 9742     		.uleb128 0x2117
 2588 01ca 19       		.uleb128 0x19
 2589 01cb 01       		.uleb128 0x1
 2590 01cc 13       		.uleb128 0x13
 2591 01cd 00       		.byte	0
 2592 01ce 00       		.byte	0
 2593 01cf 25       		.uleb128 0x25
 2594 01d0 05       		.uleb128 0x5
 2595 01d1 00       		.byte	0
 2596 01d2 03       		.uleb128 0x3
 2597 01d3 08       		.uleb128 0x8
 2598 01d4 3A       		.uleb128 0x3a
 2599 01d5 0B       		.uleb128 0xb
 2600 01d6 3B       		.uleb128 0x3b
 2601 01d7 0B       		.uleb128 0xb
 2602 01d8 49       		.uleb128 0x49
 2603 01d9 13       		.uleb128 0x13
 2604 01da 02       		.uleb128 0x2
 2605 01db 17       		.uleb128 0x17
 2606 01dc 00       		.byte	0
 2607 01dd 00       		.byte	0
 2608 01de 26       		.uleb128 0x26
 2609 01df 898201   		.uleb128 0x4109
 2610 01e2 01       		.byte	0x1
 2611 01e3 11       		.uleb128 0x11
 2612 01e4 01       		.uleb128 0x1
 2613 01e5 31       		.uleb128 0x31
 2614 01e6 13       		.uleb128 0x13
 2615 01e7 01       		.uleb128 0x1
 2616 01e8 13       		.uleb128 0x13
 2617 01e9 00       		.byte	0
 2618 01ea 00       		.byte	0
 2619 01eb 27       		.uleb128 0x27
 2620 01ec 8A8201   		.uleb128 0x410a
 2621 01ef 00       		.byte	0
 2622 01f0 02       		.uleb128 0x2
ARM GAS  /tmp/ccjYL3qA.s 			page 47


 2623 01f1 18       		.uleb128 0x18
 2624 01f2 9142     		.uleb128 0x2111
 2625 01f4 18       		.uleb128 0x18
 2626 01f5 00       		.byte	0
 2627 01f6 00       		.byte	0
 2628 01f7 28       		.uleb128 0x28
 2629 01f8 898201   		.uleb128 0x4109
 2630 01fb 01       		.byte	0x1
 2631 01fc 11       		.uleb128 0x11
 2632 01fd 01       		.uleb128 0x1
 2633 01fe 9542     		.uleb128 0x2115
 2634 0200 19       		.uleb128 0x19
 2635 0201 31       		.uleb128 0x31
 2636 0202 13       		.uleb128 0x13
 2637 0203 00       		.byte	0
 2638 0204 00       		.byte	0
 2639 0205 29       		.uleb128 0x29
 2640 0206 2E       		.uleb128 0x2e
 2641 0207 01       		.byte	0x1
 2642 0208 3F       		.uleb128 0x3f
 2643 0209 19       		.uleb128 0x19
 2644 020a 03       		.uleb128 0x3
 2645 020b 0E       		.uleb128 0xe
 2646 020c 3A       		.uleb128 0x3a
 2647 020d 0B       		.uleb128 0xb
 2648 020e 3B       		.uleb128 0x3b
 2649 020f 0B       		.uleb128 0xb
 2650 0210 27       		.uleb128 0x27
 2651 0211 19       		.uleb128 0x19
 2652 0212 49       		.uleb128 0x49
 2653 0213 13       		.uleb128 0x13
 2654 0214 11       		.uleb128 0x11
 2655 0215 01       		.uleb128 0x1
 2656 0216 12       		.uleb128 0x12
 2657 0217 06       		.uleb128 0x6
 2658 0218 40       		.uleb128 0x40
 2659 0219 18       		.uleb128 0x18
 2660 021a 9742     		.uleb128 0x2117
 2661 021c 19       		.uleb128 0x19
 2662 021d 01       		.uleb128 0x1
 2663 021e 13       		.uleb128 0x13
 2664 021f 00       		.byte	0
 2665 0220 00       		.byte	0
 2666 0221 2A       		.uleb128 0x2a
 2667 0222 05       		.uleb128 0x5
 2668 0223 00       		.byte	0
 2669 0224 03       		.uleb128 0x3
 2670 0225 0E       		.uleb128 0xe
 2671 0226 3A       		.uleb128 0x3a
 2672 0227 0B       		.uleb128 0xb
 2673 0228 3B       		.uleb128 0x3b
 2674 0229 0B       		.uleb128 0xb
 2675 022a 49       		.uleb128 0x49
 2676 022b 13       		.uleb128 0x13
 2677 022c 02       		.uleb128 0x2
 2678 022d 17       		.uleb128 0x17
 2679 022e 00       		.byte	0
ARM GAS  /tmp/ccjYL3qA.s 			page 48


 2680 022f 00       		.byte	0
 2681 0230 2B       		.uleb128 0x2b
 2682 0231 34       		.uleb128 0x34
 2683 0232 00       		.byte	0
 2684 0233 03       		.uleb128 0x3
 2685 0234 0E       		.uleb128 0xe
 2686 0235 3A       		.uleb128 0x3a
 2687 0236 0B       		.uleb128 0xb
 2688 0237 3B       		.uleb128 0x3b
 2689 0238 0B       		.uleb128 0xb
 2690 0239 49       		.uleb128 0x49
 2691 023a 13       		.uleb128 0x13
 2692 023b 02       		.uleb128 0x2
 2693 023c 18       		.uleb128 0x18
 2694 023d 00       		.byte	0
 2695 023e 00       		.byte	0
 2696 023f 2C       		.uleb128 0x2c
 2697 0240 1D       		.uleb128 0x1d
 2698 0241 01       		.byte	0x1
 2699 0242 31       		.uleb128 0x31
 2700 0243 13       		.uleb128 0x13
 2701 0244 52       		.uleb128 0x52
 2702 0245 01       		.uleb128 0x1
 2703 0246 55       		.uleb128 0x55
 2704 0247 17       		.uleb128 0x17
 2705 0248 58       		.uleb128 0x58
 2706 0249 0B       		.uleb128 0xb
 2707 024a 59       		.uleb128 0x59
 2708 024b 0B       		.uleb128 0xb
 2709 024c 01       		.uleb128 0x1
 2710 024d 13       		.uleb128 0x13
 2711 024e 00       		.byte	0
 2712 024f 00       		.byte	0
 2713 0250 2D       		.uleb128 0x2d
 2714 0251 05       		.uleb128 0x5
 2715 0252 00       		.byte	0
 2716 0253 31       		.uleb128 0x31
 2717 0254 13       		.uleb128 0x13
 2718 0255 02       		.uleb128 0x2
 2719 0256 17       		.uleb128 0x17
 2720 0257 00       		.byte	0
 2721 0258 00       		.byte	0
 2722 0259 2E       		.uleb128 0x2e
 2723 025a 898201   		.uleb128 0x4109
 2724 025d 01       		.byte	0x1
 2725 025e 11       		.uleb128 0x11
 2726 025f 01       		.uleb128 0x1
 2727 0260 31       		.uleb128 0x31
 2728 0261 13       		.uleb128 0x13
 2729 0262 00       		.byte	0
 2730 0263 00       		.byte	0
 2731 0264 2F       		.uleb128 0x2f
 2732 0265 34       		.uleb128 0x34
 2733 0266 00       		.byte	0
 2734 0267 03       		.uleb128 0x3
 2735 0268 08       		.uleb128 0x8
 2736 0269 3A       		.uleb128 0x3a
ARM GAS  /tmp/ccjYL3qA.s 			page 49


 2737 026a 0B       		.uleb128 0xb
 2738 026b 3B       		.uleb128 0x3b
 2739 026c 0B       		.uleb128 0xb
 2740 026d 49       		.uleb128 0x49
 2741 026e 13       		.uleb128 0x13
 2742 026f 02       		.uleb128 0x2
 2743 0270 17       		.uleb128 0x17
 2744 0271 00       		.byte	0
 2745 0272 00       		.byte	0
 2746 0273 30       		.uleb128 0x30
 2747 0274 34       		.uleb128 0x34
 2748 0275 00       		.byte	0
 2749 0276 03       		.uleb128 0x3
 2750 0277 08       		.uleb128 0x8
 2751 0278 3A       		.uleb128 0x3a
 2752 0279 0B       		.uleb128 0xb
 2753 027a 3B       		.uleb128 0x3b
 2754 027b 0B       		.uleb128 0xb
 2755 027c 49       		.uleb128 0x49
 2756 027d 13       		.uleb128 0x13
 2757 027e 02       		.uleb128 0x2
 2758 027f 18       		.uleb128 0x18
 2759 0280 00       		.byte	0
 2760 0281 00       		.byte	0
 2761 0282 31       		.uleb128 0x31
 2762 0283 2E       		.uleb128 0x2e
 2763 0284 01       		.byte	0x1
 2764 0285 3F       		.uleb128 0x3f
 2765 0286 19       		.uleb128 0x19
 2766 0287 03       		.uleb128 0x3
 2767 0288 0E       		.uleb128 0xe
 2768 0289 3A       		.uleb128 0x3a
 2769 028a 0B       		.uleb128 0xb
 2770 028b 3B       		.uleb128 0x3b
 2771 028c 0B       		.uleb128 0xb
 2772 028d 27       		.uleb128 0x27
 2773 028e 19       		.uleb128 0x19
 2774 028f 20       		.uleb128 0x20
 2775 0290 0B       		.uleb128 0xb
 2776 0291 01       		.uleb128 0x1
 2777 0292 13       		.uleb128 0x13
 2778 0293 00       		.byte	0
 2779 0294 00       		.byte	0
 2780 0295 32       		.uleb128 0x32
 2781 0296 05       		.uleb128 0x5
 2782 0297 00       		.byte	0
 2783 0298 03       		.uleb128 0x3
 2784 0299 08       		.uleb128 0x8
 2785 029a 3A       		.uleb128 0x3a
 2786 029b 0B       		.uleb128 0xb
 2787 029c 3B       		.uleb128 0x3b
 2788 029d 0B       		.uleb128 0xb
 2789 029e 49       		.uleb128 0x49
 2790 029f 13       		.uleb128 0x13
 2791 02a0 00       		.byte	0
 2792 02a1 00       		.byte	0
 2793 02a2 33       		.uleb128 0x33
ARM GAS  /tmp/ccjYL3qA.s 			page 50


 2794 02a3 05       		.uleb128 0x5
 2795 02a4 00       		.byte	0
 2796 02a5 03       		.uleb128 0x3
 2797 02a6 0E       		.uleb128 0xe
 2798 02a7 3A       		.uleb128 0x3a
 2799 02a8 0B       		.uleb128 0xb
 2800 02a9 3B       		.uleb128 0x3b
 2801 02aa 0B       		.uleb128 0xb
 2802 02ab 49       		.uleb128 0x49
 2803 02ac 13       		.uleb128 0x13
 2804 02ad 00       		.byte	0
 2805 02ae 00       		.byte	0
 2806 02af 34       		.uleb128 0x34
 2807 02b0 2E       		.uleb128 0x2e
 2808 02b1 01       		.byte	0x1
 2809 02b2 03       		.uleb128 0x3
 2810 02b3 0E       		.uleb128 0xe
 2811 02b4 3A       		.uleb128 0x3a
 2812 02b5 0B       		.uleb128 0xb
 2813 02b6 3B       		.uleb128 0x3b
 2814 02b7 0B       		.uleb128 0xb
 2815 02b8 27       		.uleb128 0x27
 2816 02b9 19       		.uleb128 0x19
 2817 02ba 49       		.uleb128 0x49
 2818 02bb 13       		.uleb128 0x13
 2819 02bc 11       		.uleb128 0x11
 2820 02bd 01       		.uleb128 0x1
 2821 02be 12       		.uleb128 0x12
 2822 02bf 06       		.uleb128 0x6
 2823 02c0 40       		.uleb128 0x40
 2824 02c1 18       		.uleb128 0x18
 2825 02c2 9742     		.uleb128 0x2117
 2826 02c4 19       		.uleb128 0x19
 2827 02c5 01       		.uleb128 0x1
 2828 02c6 13       		.uleb128 0x13
 2829 02c7 00       		.byte	0
 2830 02c8 00       		.byte	0
 2831 02c9 35       		.uleb128 0x35
 2832 02ca 2E       		.uleb128 0x2e
 2833 02cb 01       		.byte	0x1
 2834 02cc 31       		.uleb128 0x31
 2835 02cd 13       		.uleb128 0x13
 2836 02ce 11       		.uleb128 0x11
 2837 02cf 01       		.uleb128 0x1
 2838 02d0 12       		.uleb128 0x12
 2839 02d1 06       		.uleb128 0x6
 2840 02d2 40       		.uleb128 0x40
 2841 02d3 18       		.uleb128 0x18
 2842 02d4 9742     		.uleb128 0x2117
 2843 02d6 19       		.uleb128 0x19
 2844 02d7 01       		.uleb128 0x1
 2845 02d8 13       		.uleb128 0x13
 2846 02d9 00       		.byte	0
 2847 02da 00       		.byte	0
 2848 02db 36       		.uleb128 0x36
 2849 02dc 05       		.uleb128 0x5
 2850 02dd 00       		.byte	0
ARM GAS  /tmp/ccjYL3qA.s 			page 51


 2851 02de 31       		.uleb128 0x31
 2852 02df 13       		.uleb128 0x13
 2853 02e0 02       		.uleb128 0x2
 2854 02e1 18       		.uleb128 0x18
 2855 02e2 00       		.byte	0
 2856 02e3 00       		.byte	0
 2857 02e4 37       		.uleb128 0x37
 2858 02e5 2E       		.uleb128 0x2e
 2859 02e6 00       		.byte	0
 2860 02e7 3F       		.uleb128 0x3f
 2861 02e8 19       		.uleb128 0x19
 2862 02e9 3C       		.uleb128 0x3c
 2863 02ea 19       		.uleb128 0x19
 2864 02eb 6E       		.uleb128 0x6e
 2865 02ec 0E       		.uleb128 0xe
 2866 02ed 03       		.uleb128 0x3
 2867 02ee 0E       		.uleb128 0xe
 2868 02ef 3A       		.uleb128 0x3a
 2869 02f0 0B       		.uleb128 0xb
 2870 02f1 3B       		.uleb128 0x3b
 2871 02f2 0B       		.uleb128 0xb
 2872 02f3 00       		.byte	0
 2873 02f4 00       		.byte	0
 2874 02f5 00       		.byte	0
 2875              		.section	.debug_loc,"",%progbits
 2876              	.Ldebug_loc0:
 2877              	.LLST11:
 2878 0000 00000000 		.4byte	.LVL34
 2879 0004 0A000000 		.4byte	.LVL35
 2880 0008 0100     		.2byte	0x1
 2881 000a 50       		.byte	0x50
 2882 000b 0A000000 		.4byte	.LVL35
 2883 000f 22000000 		.4byte	.LVL38
 2884 0013 0100     		.2byte	0x1
 2885 0015 54       		.byte	0x54
 2886 0016 22000000 		.4byte	.LVL38
 2887 001a 25000000 		.4byte	.LVL39-1
 2888 001e 0300     		.2byte	0x3
 2889 0020 70       		.byte	0x70
 2890 0021 7C       		.sleb128 -4
 2891 0022 9F       		.byte	0x9f
 2892 0023 25000000 		.4byte	.LVL39-1
 2893 0027 26000000 		.4byte	.LFE6
 2894 002b 0400     		.2byte	0x4
 2895 002d F3       		.byte	0xf3
 2896 002e 01       		.uleb128 0x1
 2897 002f 50       		.byte	0x50
 2898 0030 9F       		.byte	0x9f
 2899 0031 00000000 		.4byte	0
 2900 0035 00000000 		.4byte	0
 2901              	.LLST12:
 2902 0039 00000000 		.4byte	.LVL34
 2903 003d 0D000000 		.4byte	.LVL36-1
 2904 0041 0100     		.2byte	0x1
 2905 0043 51       		.byte	0x51
 2906 0044 0D000000 		.4byte	.LVL36-1
 2907 0048 22000000 		.4byte	.LVL38
ARM GAS  /tmp/ccjYL3qA.s 			page 52


 2908 004c 0100     		.2byte	0x1
 2909 004e 56       		.byte	0x56
 2910 004f 22000000 		.4byte	.LVL38
 2911 0053 26000000 		.4byte	.LFE6
 2912 0057 0400     		.2byte	0x4
 2913 0059 F3       		.byte	0xf3
 2914 005a 01       		.uleb128 0x1
 2915 005b 51       		.byte	0x51
 2916 005c 9F       		.byte	0x9f
 2917 005d 00000000 		.4byte	0
 2918 0061 00000000 		.4byte	0
 2919              	.LLST7:
 2920 0065 00000000 		.4byte	.LVL25
 2921 0069 26000000 		.4byte	.LVL30
 2922 006d 0100     		.2byte	0x1
 2923 006f 50       		.byte	0x50
 2924 0070 26000000 		.4byte	.LVL30
 2925 0074 34000000 		.4byte	.LVL33
 2926 0078 0100     		.2byte	0x1
 2927 007a 54       		.byte	0x54
 2928 007b 34000000 		.4byte	.LVL33
 2929 007f 38000000 		.4byte	.LFE5
 2930 0083 0400     		.2byte	0x4
 2931 0085 F3       		.byte	0xf3
 2932 0086 01       		.uleb128 0x1
 2933 0087 50       		.byte	0x50
 2934 0088 9F       		.byte	0x9f
 2935 0089 00000000 		.4byte	0
 2936 008d 00000000 		.4byte	0
 2937              	.LLST8:
 2938 0091 00000000 		.4byte	.LVL25
 2939 0095 24000000 		.4byte	.LVL29
 2940 0099 0100     		.2byte	0x1
 2941 009b 51       		.byte	0x51
 2942 009c 24000000 		.4byte	.LVL29
 2943 00a0 26000000 		.4byte	.LVL30
 2944 00a4 0200     		.2byte	0x2
 2945 00a6 91       		.byte	0x91
 2946 00a7 5C       		.sleb128 -36
 2947 00a8 26000000 		.4byte	.LVL30
 2948 00ac 29000000 		.4byte	.LVL31-1
 2949 00b0 0200     		.2byte	0x2
 2950 00b2 70       		.byte	0x70
 2951 00b3 00       		.sleb128 0
 2952 00b4 00000000 		.4byte	0
 2953 00b8 00000000 		.4byte	0
 2954              	.LLST9:
 2955 00bc 08000000 		.4byte	.LVL26
 2956 00c0 0A000000 		.4byte	.LVL27
 2957 00c4 0100     		.2byte	0x1
 2958 00c6 53       		.byte	0x53
 2959 00c7 0A000000 		.4byte	.LVL27
 2960 00cb 20000000 		.4byte	.LVL28
 2961 00cf 0200     		.2byte	0x2
 2962 00d1 91       		.byte	0x91
 2963 00d2 60       		.sleb128 -32
 2964 00d3 00000000 		.4byte	0
ARM GAS  /tmp/ccjYL3qA.s 			page 53


 2965 00d7 00000000 		.4byte	0
 2966              	.LLST10:
 2967 00db 08000000 		.4byte	.LVL26
 2968 00df 20000000 		.4byte	.LVL28
 2969 00e3 0100     		.2byte	0x1
 2970 00e5 50       		.byte	0x50
 2971 00e6 00000000 		.4byte	0
 2972 00ea 00000000 		.4byte	0
 2973              	.LLST5:
 2974 00ee 00000000 		.4byte	.LVL16
 2975 00f2 08000000 		.4byte	.LVL17
 2976 00f6 0100     		.2byte	0x1
 2977 00f8 50       		.byte	0x50
 2978 00f9 08000000 		.4byte	.LVL17
 2979 00fd 42000000 		.4byte	.LFE4
 2980 0101 0100     		.2byte	0x1
 2981 0103 55       		.byte	0x55
 2982 0104 00000000 		.4byte	0
 2983 0108 00000000 		.4byte	0
 2984              	.LLST6:
 2985 010c 2E000000 		.4byte	.LVL20
 2986 0110 30000000 		.4byte	.LVL21
 2987 0114 0300     		.2byte	0x3
 2988 0116 72       		.byte	0x72
 2989 0117 01       		.sleb128 1
 2990 0118 9F       		.byte	0x9f
 2991 0119 30000000 		.4byte	.LVL21
 2992 011d 34000000 		.4byte	.LVL22
 2993 0121 0100     		.2byte	0x1
 2994 0123 54       		.byte	0x54
 2995 0124 34000000 		.4byte	.LVL22
 2996 0128 3D000000 		.4byte	.LVL24-1
 2997 012c 0300     		.2byte	0x3
 2998 012e 72       		.byte	0x72
 2999 012f 01       		.sleb128 1
 3000 0130 9F       		.byte	0x9f
 3001 0131 00000000 		.4byte	0
 3002 0135 00000000 		.4byte	0
 3003              	.LLST3:
 3004 0139 00000000 		.4byte	.LVL8
 3005 013d 08000000 		.4byte	.LVL9
 3006 0141 0100     		.2byte	0x1
 3007 0143 50       		.byte	0x50
 3008 0144 08000000 		.4byte	.LVL9
 3009 0148 34000000 		.4byte	.LFE3
 3010 014c 0100     		.2byte	0x1
 3011 014e 55       		.byte	0x55
 3012 014f 00000000 		.4byte	0
 3013 0153 00000000 		.4byte	0
 3014              	.LLST4:
 3015 0157 20000000 		.4byte	.LVL11
 3016 015b 22000000 		.4byte	.LVL12
 3017 015f 0300     		.2byte	0x3
 3018 0161 72       		.byte	0x72
 3019 0162 01       		.sleb128 1
 3020 0163 9F       		.byte	0x9f
 3021 0164 22000000 		.4byte	.LVL12
ARM GAS  /tmp/ccjYL3qA.s 			page 54


 3022 0168 26000000 		.4byte	.LVL13
 3023 016c 0100     		.2byte	0x1
 3024 016e 54       		.byte	0x54
 3025 016f 26000000 		.4byte	.LVL13
 3026 0173 2F000000 		.4byte	.LVL15-1
 3027 0177 0300     		.2byte	0x3
 3028 0179 72       		.byte	0x72
 3029 017a 01       		.sleb128 1
 3030 017b 9F       		.byte	0x9f
 3031 017c 00000000 		.4byte	0
 3032 0180 00000000 		.4byte	0
 3033              	.LLST0:
 3034 0184 00000000 		.4byte	.LVL0
 3035 0188 02000000 		.4byte	.LVL1
 3036 018c 0100     		.2byte	0x1
 3037 018e 50       		.byte	0x50
 3038 018f 02000000 		.4byte	.LVL1
 3039 0193 0A000000 		.4byte	.LFE1
 3040 0197 0400     		.2byte	0x4
 3041 0199 F3       		.byte	0xf3
 3042 019a 01       		.uleb128 0x1
 3043 019b 50       		.byte	0x50
 3044 019c 9F       		.byte	0x9f
 3045 019d 00000000 		.4byte	0
 3046 01a1 00000000 		.4byte	0
 3047              	.LLST1:
 3048 01a5 00000000 		.4byte	.LVL0
 3049 01a9 02000000 		.4byte	.LVL1
 3050 01ad 0100     		.2byte	0x1
 3051 01af 50       		.byte	0x50
 3052 01b0 02000000 		.4byte	.LVL1
 3053 01b4 0A000000 		.4byte	.LFE1
 3054 01b8 0400     		.2byte	0x4
 3055 01ba F3       		.byte	0xf3
 3056 01bb 01       		.uleb128 0x1
 3057 01bc 50       		.byte	0x50
 3058 01bd 9F       		.byte	0x9f
 3059 01be 00000000 		.4byte	0
 3060 01c2 00000000 		.4byte	0
 3061              	.LLST2:
 3062 01c6 00000000 		.4byte	.LVL2
 3063 01ca 0A000000 		.4byte	.LVL3
 3064 01ce 0100     		.2byte	0x1
 3065 01d0 50       		.byte	0x50
 3066 01d1 0A000000 		.4byte	.LVL3
 3067 01d5 14000000 		.4byte	.LVL5
 3068 01d9 0100     		.2byte	0x1
 3069 01db 54       		.byte	0x54
 3070 01dc 14000000 		.4byte	.LVL5
 3071 01e0 17000000 		.4byte	.LVL6-1
 3072 01e4 0300     		.2byte	0x3
 3073 01e6 70       		.byte	0x70
 3074 01e7 7C       		.sleb128 -4
 3075 01e8 9F       		.byte	0x9f
 3076 01e9 17000000 		.4byte	.LVL6-1
 3077 01ed 18000000 		.4byte	.LFE0
 3078 01f1 0400     		.2byte	0x4
ARM GAS  /tmp/ccjYL3qA.s 			page 55


 3079 01f3 F3       		.byte	0xf3
 3080 01f4 01       		.uleb128 0x1
 3081 01f5 50       		.byte	0x50
 3082 01f6 9F       		.byte	0x9f
 3083 01f7 00000000 		.4byte	0
 3084 01fb 00000000 		.4byte	0
 3085              		.section	.debug_aranges,"",%progbits
 3086 0000 4C000000 		.4byte	0x4c
 3087 0004 0200     		.2byte	0x2
 3088 0006 00000000 		.4byte	.Ldebug_info0
 3089 000a 04       		.byte	0x4
 3090 000b 00       		.byte	0
 3091 000c 0000     		.2byte	0
 3092 000e 0000     		.2byte	0
 3093 0010 00000000 		.4byte	.LFB1
 3094 0014 0A000000 		.4byte	.LFE1-.LFB1
 3095 0018 00000000 		.4byte	.LFB0
 3096 001c 18000000 		.4byte	.LFE0-.LFB0
 3097 0020 00000000 		.4byte	.LFB2
 3098 0024 1C000000 		.4byte	.LFE2-.LFB2
 3099 0028 00000000 		.4byte	.LFB3
 3100 002c 34000000 		.4byte	.LFE3-.LFB3
 3101 0030 00000000 		.4byte	.LFB4
 3102 0034 42000000 		.4byte	.LFE4-.LFB4
 3103 0038 00000000 		.4byte	.LFB5
 3104 003c 38000000 		.4byte	.LFE5-.LFB5
 3105 0040 00000000 		.4byte	.LFB6
 3106 0044 26000000 		.4byte	.LFE6-.LFB6
 3107 0048 00000000 		.4byte	0
 3108 004c 00000000 		.4byte	0
 3109              		.section	.debug_ranges,"",%progbits
 3110              	.Ldebug_ranges0:
 3111 0000 08000000 		.4byte	.LBB4
 3112 0004 0A000000 		.4byte	.LBE4
 3113 0008 0C000000 		.4byte	.LBB8
 3114 000c 1A000000 		.4byte	.LBE8
 3115 0010 1C000000 		.4byte	.LBB9
 3116 0014 20000000 		.4byte	.LBE9
 3117 0018 00000000 		.4byte	0
 3118 001c 00000000 		.4byte	0
 3119 0020 00000000 		.4byte	.LFB1
 3120 0024 0A000000 		.4byte	.LFE1
 3121 0028 00000000 		.4byte	.LFB0
 3122 002c 18000000 		.4byte	.LFE0
 3123 0030 00000000 		.4byte	.LFB2
 3124 0034 1C000000 		.4byte	.LFE2
 3125 0038 00000000 		.4byte	.LFB3
 3126 003c 34000000 		.4byte	.LFE3
 3127 0040 00000000 		.4byte	.LFB4
 3128 0044 42000000 		.4byte	.LFE4
 3129 0048 00000000 		.4byte	.LFB5
 3130 004c 38000000 		.4byte	.LFE5
 3131 0050 00000000 		.4byte	.LFB6
 3132 0054 26000000 		.4byte	.LFE6
 3133 0058 00000000 		.4byte	0
 3134 005c 00000000 		.4byte	0
 3135              		.section	.debug_line,"",%progbits
ARM GAS  /tmp/ccjYL3qA.s 			page 56


 3136              	.Ldebug_line0:
 3137 0000 E7010000 		.section	.debug_str,"MS",%progbits,1
 3137      02002901 
 3137      00000201 
 3137      FB0E0D00 
 3137      01010101 
 3138              	.LASF45:
 3139 0000 5F64736F 		.ascii	"_dso_handle\000"
 3139      5F68616E 
 3139      646C6500 
 3140              	.LASF53:
 3141 000c 5F73697A 		.ascii	"_size\000"
 3141      6500
 3142              	.LASF14:
 3143 0012 75696E74 		.ascii	"uintptr_t\000"
 3143      7074725F 
 3143      7400
 3144              	.LASF77:
 3145 001c 5F656D65 		.ascii	"_emergency\000"
 3145      7267656E 
 3145      637900
 3146              	.LASF69:
 3147 0027 5F6D6273 		.ascii	"_mbstate\000"
 3147      74617465 
 3147      00
 3148              	.LASF140:
 3149 0030 6368785F 		.ascii	"chx_cond\000"
 3149      636F6E64 
 3149      00
 3150              	.LASF130:
 3151 0039 70726576 		.ascii	"prev\000"
 3151      00
 3152              	.LASF67:
 3153 003e 5F646174 		.ascii	"_data\000"
 3153      6100
 3154              	.LASF146:
 3155 0044 74797065 		.ascii	"type\000"
 3155      00
 3156              	.LASF117:
 3157 0049 5F776372 		.ascii	"_wcrtomb_state\000"
 3157      746F6D62 
 3157      5F737461 
 3157      746500
 3158              	.LASF118:
 3159 0058 5F776373 		.ascii	"_wcsrtombs_state\000"
 3159      72746F6D 
 3159      62735F73 
 3159      74617465 
 3159      00
 3160              	.LASF9:
 3161 0069 6C6F6E67 		.ascii	"long long unsigned int\000"
 3161      206C6F6E 
 3161      6720756E 
 3161      7369676E 
 3161      65642069 
 3162              	.LASF57:
 3163 0080 5F6C6266 		.ascii	"_lbfsize\000"
ARM GAS  /tmp/ccjYL3qA.s 			page 57


 3163      73697A65 
 3163      00
 3164              	.LASF124:
 3165 0089 5F5F6C6F 		.ascii	"__locale_t\000"
 3165      63616C65 
 3165      5F7400
 3166              	.LASF133:
 3167 0094 63686F70 		.ascii	"chopstx_main\000"
 3167      7374785F 
 3167      6D61696E 
 3167      00
 3168              	.LASF115:
 3169 00a1 5F6D6272 		.ascii	"_mbrtowc_state\000"
 3169      746F7763 
 3169      5F737461 
 3169      746500
 3170              	.LASF129:
 3171 00b0 6E657874 		.ascii	"next\000"
 3171      00
 3172              	.LASF148:
 3173 00b5 6368785F 		.ascii	"chx_poll_cond\000"
 3173      706F6C6C 
 3173      5F636F6E 
 3173      6400
 3174              	.LASF34:
 3175 00c3 5F5F746D 		.ascii	"__tm_sec\000"
 3175      5F736563 
 3175      00
 3176              	.LASF159:
 3177 00cc 6576656E 		.ascii	"eventflag_wait_timeout\000"
 3177      74666C61 
 3177      675F7761 
 3177      69745F74 
 3177      696D656F 
 3178              	.LASF8:
 3179 00e3 6C6F6E67 		.ascii	"long long int\000"
 3179      206C6F6E 
 3179      6720696E 
 3179      7400
 3180              	.LASF0:
 3181 00f1 7369676E 		.ascii	"signed char\000"
 3181      65642063 
 3181      68617200 
 3182              	.LASF139:
 3183 00fd 63686F70 		.ascii	"chopstx_mutex_t\000"
 3183      7374785F 
 3183      6D757465 
 3183      785F7400 
 3184              	.LASF138:
 3185 010d 6368785F 		.ascii	"chx_thread\000"
 3185      74687265 
 3185      616400
 3186              	.LASF63:
 3187 0118 5F756275 		.ascii	"_ubuf\000"
 3187      6600
 3188              	.LASF52:
 3189 011e 5F626173 		.ascii	"_base\000"
ARM GAS  /tmp/ccjYL3qA.s 			page 58


 3189      6500
 3190              	.LASF160:
 3191 0124 6576656E 		.ascii	"eventflag_wait\000"
 3191      74666C61 
 3191      675F7761 
 3191      697400
 3192              	.LASF173:
 3193 0133 2F686F6D 		.ascii	"/home/jshuo/u2f-token/src\000"
 3193      652F6A73 
 3193      68756F2F 
 3193      7532662D 
 3193      746F6B65 
 3194              	.LASF92:
 3195 014d 5F5F7366 		.ascii	"__sf\000"
 3195      00
 3196              	.LASF43:
 3197 0152 5F6F6E5F 		.ascii	"_on_exit_args\000"
 3197      65786974 
 3197      5F617267 
 3197      7300
 3198              	.LASF149:
 3199 0160 636F6E64 		.ascii	"cond\000"
 3199      00
 3200              	.LASF58:
 3201 0165 5F636F6F 		.ascii	"_cookie\000"
 3201      6B696500 
 3202              	.LASF91:
 3203 016d 5F5F7367 		.ascii	"__sglue\000"
 3203      6C756500 
 3204              	.LASF4:
 3205 0175 6C6F6E67 		.ascii	"long int\000"
 3205      20696E74 
 3205      00
 3206              	.LASF151:
 3207 017e 63686563 		.ascii	"check\000"
 3207      6B00
 3208              	.LASF55:
 3209 0184 5F666C61 		.ascii	"_flags\000"
 3209      677300
 3210              	.LASF47:
 3211 018b 5F69735F 		.ascii	"_is_cxa\000"
 3211      63786100 
 3212              	.LASF73:
 3213 0193 5F737464 		.ascii	"_stdin\000"
 3213      696E00
 3214              	.LASF136:
 3215 019a 6F776E65 		.ascii	"owner\000"
 3215      7200
 3216              	.LASF65:
 3217 01a0 5F626C6B 		.ascii	"_blksize\000"
 3217      73697A65 
 3217      00
 3218              	.LASF12:
 3219 01a9 75696E74 		.ascii	"uint16_t\000"
 3219      31365F74 
 3219      00
 3220              	.LASF154:
ARM GAS  /tmp/ccjYL3qA.s 			page 59


 3221 01b2 6576656E 		.ascii	"eventflag\000"
 3221      74666C61 
 3221      6700
 3222              	.LASF87:
 3223 01bc 5F637674 		.ascii	"_cvtbuf\000"
 3223      62756600 
 3224              	.LASF66:
 3225 01c4 5F6F6666 		.ascii	"_offset\000"
 3225      73657400 
 3226              	.LASF116:
 3227 01cc 5F6D6273 		.ascii	"_mbsrtowcs_state\000"
 3227      72746F77 
 3227      63735F73 
 3227      74617465 
 3227      00
 3228              	.LASF114:
 3229 01dd 5F6D6272 		.ascii	"_mbrlen_state\000"
 3229      6C656E5F 
 3229      73746174 
 3229      6500
 3230              	.LASF44:
 3231 01eb 5F666E61 		.ascii	"_fnargs\000"
 3231      72677300 
 3232              	.LASF166:
 3233 01f3 63686F70 		.ascii	"chopstx_mutex_unlock\000"
 3233      7374785F 
 3233      6D757465 
 3233      785F756E 
 3233      6C6F636B 
 3234              	.LASF50:
 3235 0208 5F666E73 		.ascii	"_fns\000"
 3235      00
 3236              	.LASF6:
 3237 020d 5F5F7569 		.ascii	"__uint32_t\000"
 3237      6E743332 
 3237      5F7400
 3238              	.LASF30:
 3239 0218 5F736967 		.ascii	"_sign\000"
 3239      6E00
 3240              	.LASF25:
 3241 021e 5F666C6F 		.ascii	"_flock_t\000"
 3241      636B5F74 
 3241      00
 3242              	.LASF75:
 3243 0227 5F737464 		.ascii	"_stderr\000"
 3243      65727200 
 3244              	.LASF32:
 3245 022f 5F426967 		.ascii	"_Bigint\000"
 3245      696E7400 
 3246              	.LASF105:
 3247 0237 5F67616D 		.ascii	"_gamma_signgam\000"
 3247      6D615F73 
 3247      69676E67 
 3247      616D00
 3248              	.LASF59:
 3249 0246 5F726561 		.ascii	"_read\000"
 3249      6400
ARM GAS  /tmp/ccjYL3qA.s 			page 60


 3250              	.LASF83:
 3251 024c 5F726573 		.ascii	"_result_k\000"
 3251      756C745F 
 3251      6B00
 3252              	.LASF33:
 3253 0256 5F5F746D 		.ascii	"__tm\000"
 3253      00
 3254              	.LASF11:
 3255 025b 756E7369 		.ascii	"unsigned int\000"
 3255      676E6564 
 3255      20696E74 
 3255      00
 3256              	.LASF21:
 3257 0268 5F5F7763 		.ascii	"__wchb\000"
 3257      686200
 3258              	.LASF132:
 3259 026f 63686F70 		.ascii	"chopstx_t\000"
 3259      7374785F 
 3259      7400
 3260              	.LASF74:
 3261 0279 5F737464 		.ascii	"_stdout\000"
 3261      6F757400 
 3262              	.LASF152:
 3263 0281 63686F70 		.ascii	"chopstx_poll_cond_t\000"
 3263      7374785F 
 3263      706F6C6C 
 3263      5F636F6E 
 3263      645F7400 
 3264              	.LASF86:
 3265 0295 5F637674 		.ascii	"_cvtlen\000"
 3265      6C656E00 
 3266              	.LASF141:
 3267 029d 63686F70 		.ascii	"chopstx_cond_t\000"
 3267      7374785F 
 3267      636F6E64 
 3267      5F7400
 3268              	.LASF7:
 3269 02ac 6C6F6E67 		.ascii	"long unsigned int\000"
 3269      20756E73 
 3269      69676E65 
 3269      6420696E 
 3269      7400
 3270              	.LASF56:
 3271 02be 5F66696C 		.ascii	"_file\000"
 3271      6500
 3272              	.LASF172:
 3273 02c4 2E2E2F63 		.ascii	"../chopstx/eventflag.c\000"
 3273      686F7073 
 3273      74782F65 
 3273      76656E74 
 3273      666C6167 
 3274              	.LASF174:
 3275 02db 6368785F 		.ascii	"chx_spinlock\000"
 3275      7370696E 
 3275      6C6F636B 
 3275      00
 3276              	.LASF95:
ARM GAS  /tmp/ccjYL3qA.s 			page 61


 3277 02e8 5F6E696F 		.ascii	"_niobs\000"
 3277      627300
 3278              	.LASF3:
 3279 02ef 73686F72 		.ascii	"short unsigned int\000"
 3279      7420756E 
 3279      7369676E 
 3279      65642069 
 3279      6E7400
 3280              	.LASF142:
 3281 0302 43484F50 		.ascii	"CHOPSTX_POLL_COND\000"
 3281      5354585F 
 3281      504F4C4C 
 3281      5F434F4E 
 3281      4400
 3282              	.LASF89:
 3283 0314 5F617465 		.ascii	"_atexit0\000"
 3283      78697430 
 3283      00
 3284              	.LASF112:
 3285 031d 5F736967 		.ascii	"_signal_buf\000"
 3285      6E616C5F 
 3285      62756600 
 3286              	.LASF103:
 3287 0329 5F617363 		.ascii	"_asctime_buf\000"
 3287      74696D65 
 3287      5F627566 
 3287      00
 3288              	.LASF82:
 3289 0336 5F726573 		.ascii	"_result\000"
 3289      756C7400 
 3290              	.LASF20:
 3291 033e 5F5F7763 		.ascii	"__wch\000"
 3291      6800
 3292              	.LASF16:
 3293 0344 5F4C4F43 		.ascii	"_LOCK_T\000"
 3293      4B5F5400 
 3294              	.LASF19:
 3295 034c 77696E74 		.ascii	"wint_t\000"
 3295      5F7400
 3296              	.LASF68:
 3297 0353 5F6C6F63 		.ascii	"_lock\000"
 3297      6B00
 3298              	.LASF153:
 3299 0359 6576656E 		.ascii	"eventmask_t\000"
 3299      746D6173 
 3299      6B5F7400 
 3300              	.LASF70:
 3301 0365 5F666C61 		.ascii	"_flags2\000"
 3301      67733200 
 3302              	.LASF134:
 3303 036d 6368785F 		.ascii	"chx_mtx\000"
 3303      6D747800 
 3304              	.LASF60:
 3305 0375 5F777269 		.ascii	"_write\000"
 3305      746500
 3306              	.LASF39:
 3307 037c 5F5F746D 		.ascii	"__tm_year\000"
ARM GAS  /tmp/ccjYL3qA.s 			page 62


 3307      5F796561 
 3307      7200
 3308              	.LASF15:
 3309 0386 6C6F6E67 		.ascii	"long double\000"
 3309      20646F75 
 3309      626C6500 
 3310              	.LASF145:
 3311 0392 6368785F 		.ascii	"chx_poll_head\000"
 3311      706F6C6C 
 3311      5F686561 
 3311      6400
 3312              	.LASF120:
 3313 03a0 5F6E6578 		.ascii	"_nextf\000"
 3313      746600
 3314              	.LASF143:
 3315 03a7 43484F50 		.ascii	"CHOPSTX_POLL_INTR\000"
 3315      5354585F 
 3315      504F4C4C 
 3315      5F494E54 
 3315      5200
 3316              	.LASF38:
 3317 03b9 5F5F746D 		.ascii	"__tm_mon\000"
 3317      5F6D6F6E 
 3317      00
 3318              	.LASF169:
 3319 03c2 63686F70 		.ascii	"chopstx_cond_init\000"
 3319      7374785F 
 3319      636F6E64 
 3319      5F696E69 
 3319      7400
 3320              	.LASF48:
 3321 03d4 5F617465 		.ascii	"_atexit\000"
 3321      78697400 
 3322              	.LASF127:
 3323 03dc 7375626F 		.ascii	"suboptarg\000"
 3323      70746172 
 3323      6700
 3324              	.LASF80:
 3325 03e6 5F5F7364 		.ascii	"__sdidinit\000"
 3325      6964696E 
 3325      697400
 3326              	.LASF17:
 3327 03f1 5F6F6666 		.ascii	"_off_t\000"
 3327      5F7400
 3328              	.LASF167:
 3329 03f8 63686F70 		.ascii	"chopstx_poll\000"
 3329      7374785F 
 3329      706F6C6C 
 3329      00
 3330              	.LASF128:
 3331 0405 6368785F 		.ascii	"chx_qh\000"
 3331      716800
 3332              	.LASF156:
 3333 040c 75736563 		.ascii	"usec\000"
 3333      00
 3334              	.LASF164:
 3335 0411 63686F70 		.ascii	"chopstx_mutex_lock\000"
ARM GAS  /tmp/ccjYL3qA.s 			page 63


 3335      7374785F 
 3335      6D757465 
 3335      785F6C6F 
 3335      636B00
 3336              	.LASF85:
 3337 0424 5F667265 		.ascii	"_freelist\000"
 3337      656C6973 
 3337      7400
 3338              	.LASF163:
 3339 042e 6576656E 		.ascii	"eventflag_init\000"
 3339      74666C61 
 3339      675F696E 
 3339      697400
 3340              	.LASF175:
 3341 043d 6576656E 		.ascii	"eventflag_prepare_poll\000"
 3341      74666C61 
 3341      675F7072 
 3341      65706172 
 3341      655F706F 
 3342              	.LASF110:
 3343 0454 5F776374 		.ascii	"_wctomb_state\000"
 3343      6F6D625F 
 3343      73746174 
 3343      6500
 3344              	.LASF131:
 3345 0462 6368785F 		.ascii	"chx_pq\000"
 3345      707100
 3346              	.LASF150:
 3347 0469 6D757465 		.ascii	"mutex\000"
 3347      7800
 3348              	.LASF1:
 3349 046f 756E7369 		.ascii	"unsigned char\000"
 3349      676E6564 
 3349      20636861 
 3349      7200
 3350              	.LASF88:
 3351 047d 5F6E6577 		.ascii	"_new\000"
 3351      00
 3352              	.LASF119:
 3353 0482 5F685F65 		.ascii	"_h_errno\000"
 3353      72726E6F 
 3353      00
 3354              	.LASF2:
 3355 048b 73686F72 		.ascii	"short int\000"
 3355      7420696E 
 3355      7400
 3356              	.LASF41:
 3357 0495 5F5F746D 		.ascii	"__tm_yday\000"
 3357      5F796461 
 3357      7900
 3358              	.LASF51:
 3359 049f 5F5F7362 		.ascii	"__sbuf\000"
 3359      756600
 3360              	.LASF96:
 3361 04a6 5F696F62 		.ascii	"_iobs\000"
 3361      7300
 3362              	.LASF93:
ARM GAS  /tmp/ccjYL3qA.s 			page 64


 3363 04ac 5F5F4649 		.ascii	"__FILE\000"
 3363      4C4500
 3364              	.LASF24:
 3365 04b3 5F6D6273 		.ascii	"_mbstate_t\000"
 3365      74617465 
 3365      5F7400
 3366              	.LASF54:
 3367 04be 5F5F7346 		.ascii	"__sFILE\000"
 3367      494C4500 
 3368              	.LASF10:
 3369 04c6 5F5F7569 		.ascii	"__uintptr_t\000"
 3369      6E747074 
 3369      725F7400 
 3370              	.LASF106:
 3371 04d2 5F72616E 		.ascii	"_rand_next\000"
 3371      645F6E65 
 3371      787400
 3372              	.LASF108:
 3373 04dd 5F6D626C 		.ascii	"_mblen_state\000"
 3373      656E5F73 
 3373      74617465 
 3373      00
 3374              	.LASF76:
 3375 04ea 5F696E63 		.ascii	"_inc\000"
 3375      00
 3376              	.LASF49:
 3377 04ef 5F696E64 		.ascii	"_ind\000"
 3377      00
 3378              	.LASF147:
 3379 04f4 72656164 		.ascii	"ready\000"
 3379      7900
 3380              	.LASF79:
 3381 04fa 5F6C6F63 		.ascii	"_locale\000"
 3381      616C6500 
 3382              	.LASF81:
 3383 0502 5F5F636C 		.ascii	"__cleanup\000"
 3383      65616E75 
 3383      7000
 3384              	.LASF78:
 3385 050c 5F756E73 		.ascii	"_unspecified_locale_info\000"
 3385      70656369 
 3385      66696564 
 3385      5F6C6F63 
 3385      616C655F 
 3386              	.LASF29:
 3387 0525 5F6D6178 		.ascii	"_maxwds\000"
 3387      77647300 
 3388              	.LASF71:
 3389 052d 5F726565 		.ascii	"_reent\000"
 3389      6E7400
 3390              	.LASF97:
 3391 0534 5F72616E 		.ascii	"_rand48\000"
 3391      64343800 
 3392              	.LASF98:
 3393 053c 5F736565 		.ascii	"_seed\000"
 3393      6400
 3394              	.LASF170:
ARM GAS  /tmp/ccjYL3qA.s 			page 65


 3395 0542 63686F70 		.ascii	"chopstx_mutex_init\000"
 3395      7374785F 
 3395      6D757465 
 3395      785F696E 
 3395      697400
 3396              	.LASF22:
 3397 0555 5F5F636F 		.ascii	"__count\000"
 3397      756E7400 
 3398              	.LASF123:
 3399 055d 5F5F6C6F 		.ascii	"__lock\000"
 3399      636B00
 3400              	.LASF13:
 3401 0564 75696E74 		.ascii	"uint32_t\000"
 3401      33325F74 
 3401      00
 3402              	.LASF36:
 3403 056d 5F5F746D 		.ascii	"__tm_hour\000"
 3403      5F686F75 
 3403      7200
 3404              	.LASF61:
 3405 0577 5F736565 		.ascii	"_seek\000"
 3405      6B00
 3406              	.LASF125:
 3407 057d 5F696D70 		.ascii	"_impure_ptr\000"
 3407      7572655F 
 3407      70747200 
 3408              	.LASF18:
 3409 0589 5F66706F 		.ascii	"_fpos_t\000"
 3409      735F7400 
 3410              	.LASF72:
 3411 0591 5F657272 		.ascii	"_errno\000"
 3411      6E6F00
 3412              	.LASF26:
 3413 0598 63686172 		.ascii	"char\000"
 3413      00
 3414              	.LASF162:
 3415 059d 6576656E 		.ascii	"eventflag_signal\000"
 3415      74666C61 
 3415      675F7369 
 3415      676E616C 
 3415      00
 3416              	.LASF35:
 3417 05ae 5F5F746D 		.ascii	"__tm_min\000"
 3417      5F6D696E 
 3417      00
 3418              	.LASF5:
 3419 05b7 5F5F7569 		.ascii	"__uint16_t\000"
 3419      6E743136 
 3419      5F7400
 3420              	.LASF46:
 3421 05c2 5F666E74 		.ascii	"_fntypes\000"
 3421      79706573 
 3421      00
 3422              	.LASF165:
 3423 05cb 63686F70 		.ascii	"chopstx_cond_signal\000"
 3423      7374785F 
 3423      636F6E64 
ARM GAS  /tmp/ccjYL3qA.s 			page 66


 3423      5F736967 
 3423      6E616C00 
 3424              	.LASF99:
 3425 05df 5F6D756C 		.ascii	"_mult\000"
 3425      7400
 3426              	.LASF28:
 3427 05e5 5F6E6578 		.ascii	"_next\000"
 3427      7400
 3428              	.LASF161:
 3429 05eb 6576656E 		.ascii	"eventflag_get\000"
 3429      74666C61 
 3429      675F6765 
 3429      7400
 3430              	.LASF102:
 3431 05f9 5F737472 		.ascii	"_strtok_last\000"
 3431      746F6B5F 
 3431      6C617374 
 3431      00
 3432              	.LASF23:
 3433 0606 5F5F7661 		.ascii	"__value\000"
 3433      6C756500 
 3434              	.LASF171:
 3435 060e 474E5520 		.ascii	"GNU C11 7.3.1 20180622 (release) [ARM/embedded-7-br"
 3435      43313120 
 3435      372E332E 
 3435      31203230 
 3435      31383036 
 3436 0641 616E6368 		.ascii	"anch revision 261907] -mcpu=cortex-m3 -mthumb -mno-"
 3436      20726576 
 3436      6973696F 
 3436      6E203236 
 3436      31393037 
 3437 0674 7468756D 		.ascii	"thumb-interwork -g -O3 -Os -ffunction-sections -fda"
 3437      622D696E 
 3437      74657277 
 3437      6F726B20 
 3437      2D67202D 
 3438 06a7 74612D73 		.ascii	"ta-sections -fno-common\000"
 3438      65637469 
 3438      6F6E7320 
 3438      2D666E6F 
 3438      2D636F6D 
 3439              	.LASF100:
 3440 06bf 5F616464 		.ascii	"_add\000"
 3440      00
 3441              	.LASF27:
 3442 06c4 5F5F554C 		.ascii	"__ULong\000"
 3442      6F6E6700 
 3443              	.LASF113:
 3444 06cc 5F676574 		.ascii	"_getdate_err\000"
 3444      64617465 
 3444      5F657272 
 3444      00
 3445              	.LASF126:
 3446 06d9 5F676C6F 		.ascii	"_global_impure_ptr\000"
 3446      62616C5F 
 3446      696D7075 
ARM GAS  /tmp/ccjYL3qA.s 			page 67


 3446      72655F70 
 3446      747200
 3447              	.LASF158:
 3448 06ec 70645F61 		.ascii	"pd_array\000"
 3448      72726179 
 3448      00
 3449              	.LASF101:
 3450 06f5 5F756E75 		.ascii	"_unused_rand\000"
 3450      7365645F 
 3450      72616E64 
 3450      00
 3451              	.LASF157:
 3452 0702 706F6C6C 		.ascii	"poll_desc\000"
 3452      5F646573 
 3452      6300
 3453              	.LASF31:
 3454 070c 5F776473 		.ascii	"_wds\000"
 3454      00
 3455              	.LASF40:
 3456 0711 5F5F746D 		.ascii	"__tm_wday\000"
 3456      5F776461 
 3456      7900
 3457              	.LASF94:
 3458 071b 5F676C75 		.ascii	"_glue\000"
 3458      6500
 3459              	.LASF121:
 3460 0721 5F6E6D61 		.ascii	"_nmalloc\000"
 3460      6C6C6F63 
 3460      00
 3461              	.LASF111:
 3462 072a 5F6C3634 		.ascii	"_l64a_buf\000"
 3462      615F6275 
 3462      6600
 3463              	.LASF90:
 3464 0734 5F736967 		.ascii	"_sig_func\000"
 3464      5F66756E 
 3464      6300
 3465              	.LASF155:
 3466 073e 666C6167 		.ascii	"flags\000"
 3466      7300
 3467              	.LASF176:
 3468 0744 6576656E 		.ascii	"eventflag_check\000"
 3468      74666C61 
 3468      675F6368 
 3468      65636B00 
 3469              	.LASF64:
 3470 0754 5F6E6275 		.ascii	"_nbuf\000"
 3470      6600
 3471              	.LASF122:
 3472 075a 5F756E75 		.ascii	"_unused\000"
 3472      73656400 
 3473              	.LASF168:
 3474 0762 63686F70 		.ascii	"chopstx_cond_wait\000"
 3474      7374785F 
 3474      636F6E64 
 3474      5F776169 
 3474      7400
ARM GAS  /tmp/ccjYL3qA.s 			page 68


 3475              	.LASF42:
 3476 0774 5F5F746D 		.ascii	"__tm_isdst\000"
 3476      5F697364 
 3476      737400
 3477              	.LASF104:
 3478 077f 5F6C6F63 		.ascii	"_localtime_buf\000"
 3478      616C7469 
 3478      6D655F62 
 3478      756600
 3479              	.LASF62:
 3480 078e 5F636C6F 		.ascii	"_close\000"
 3480      736500
 3481              	.LASF107:
 3482 0795 5F723438 		.ascii	"_r48\000"
 3482      00
 3483              	.LASF109:
 3484 079a 5F6D6274 		.ascii	"_mbtowc_state\000"
 3484      6F77635F 
 3484      73746174 
 3484      6500
 3485              	.LASF137:
 3486 07a8 6C697374 		.ascii	"list\000"
 3486      00
 3487              	.LASF84:
 3488 07ad 5F703573 		.ascii	"_p5s\000"
 3488      00
 3489              	.LASF135:
 3490 07b2 6C6F636B 		.ascii	"lock\000"
 3490      00
 3491              	.LASF144:
 3492 07b7 43484F50 		.ascii	"CHOPSTX_POLL_JOIN\000"
 3492      5354585F 
 3492      504F4C4C 
 3492      5F4A4F49 
 3492      4E00
 3493              	.LASF37:
 3494 07c9 5F5F746D 		.ascii	"__tm_mday\000"
 3494      5F6D6461 
 3494      7900
 3495              		.ident	"GCC: (GNU Tools for Arm Embedded Processors 7-2018-q3-update) 7.3.1 20180622 (release) [AR
ARM GAS  /tmp/ccjYL3qA.s 			page 69


DEFINED SYMBOLS
                            *ABS*:0000000000000000 eventflag.c
     /tmp/ccjYL3qA.s:16     .text.eventflag_check:0000000000000000 $t
     /tmp/ccjYL3qA.s:22     .text.eventflag_check:0000000000000000 eventflag_check
     /tmp/ccjYL3qA.s:43     .text.eventflag_init:0000000000000000 $t
     /tmp/ccjYL3qA.s:50     .text.eventflag_init:0000000000000000 eventflag_init
     /tmp/ccjYL3qA.s:87     .text.eventflag_prepare_poll:0000000000000000 $t
     /tmp/ccjYL3qA.s:94     .text.eventflag_prepare_poll:0000000000000000 eventflag_prepare_poll
     /tmp/ccjYL3qA.s:120    .text.eventflag_prepare_poll:0000000000000018 $d
     /tmp/ccjYL3qA.s:125    .text.eventflag_get:0000000000000000 $t
     /tmp/ccjYL3qA.s:132    .text.eventflag_get:0000000000000000 eventflag_get
     /tmp/ccjYL3qA.s:186    .text.eventflag_wait:0000000000000000 $t
     /tmp/ccjYL3qA.s:193    .text.eventflag_wait:0000000000000000 eventflag_wait
     /tmp/ccjYL3qA.s:256    .text.eventflag_wait_timeout:0000000000000000 $t
     /tmp/ccjYL3qA.s:263    .text.eventflag_wait_timeout:0000000000000000 eventflag_wait_timeout
     /tmp/ccjYL3qA.s:333    .text.eventflag_wait_timeout:0000000000000034 $d
     /tmp/ccjYL3qA.s:338    .text.eventflag_signal:0000000000000000 $t
     /tmp/ccjYL3qA.s:345    .text.eventflag_signal:0000000000000000 eventflag_signal

UNDEFINED SYMBOLS
chopstx_cond_init
chopstx_mutex_init
chopstx_mutex_lock
chopstx_mutex_unlock
chopstx_cond_wait
chopstx_poll
chopstx_cond_signal
