ARM GAS  /tmp/ccjYL3qA.s 			page 1


   1              		.cpu cortex-m3
   2              		.eabi_attribute 20, 1
   3              		.eabi_attribute 21, 1
   4              		.eabi_attribute 23, 3
   5              		.eabi_attribute 24, 1
   6              		.eabi_attribute 25, 1
   7              		.eabi_attribute 26, 1
   8              		.eabi_attribute 30, 4
   9              		.eabi_attribute 34, 1
  10              		.eabi_attribute 18, 4
  11              		.file	"eventflag.c"
  12              		.text
  13              	.Ltext0:
  14              		.cfi_sections	.debug_frame
  15              		.section	.text.eventflag_check,"ax",%progbits
  16              		.align	1
  17              		.syntax unified
  18              		.thumb
  19              		.thumb_func
  20              		.fpu softvfp
  21              		.type	eventflag_check, %function
  22              	eventflag_check:
  23              	.LFB1:
  24              		.file 1 "../chopstx/eventflag.c"
  25              		.loc 1 46 0
  26              		.cfi_startproc
  27              		@ args = 0, pretend = 0, frame = 0
  28              		@ frame_needed = 0, uses_anonymous_args = 0
  29              		@ link register save eliminated.
  30              	.LVL0:
  31              		.loc 1 49 0
  32 0000 0068     		ldr	r0, [r0]
  33              	.LVL1:
  34              		.loc 1 50 0
  35 0002 0030     		adds	r0, r0, #0
  36 0004 18BF     		it	ne
  37 0006 0120     		movne	r0, #1
  38 0008 7047     		bx	lr
  39              		.cfi_endproc
  40              	.LFE1:
  41              		.size	eventflag_check, .-eventflag_check
  42              		.section	.text.eventflag_init,"ax",%progbits
  43              		.align	1
  44              		.global	eventflag_init
  45              		.syntax unified
  46              		.thumb
  47              		.thumb_func
  48              		.fpu softvfp
  49              		.type	eventflag_init, %function
  50              	eventflag_init:
  51              	.LFB0:
  52              		.loc 1 37 0
  53              		.cfi_startproc
  54              		@ args = 0, pretend = 0, frame = 0
  55              		@ frame_needed = 0, uses_anonymous_args = 0
  56              	.LVL2:
  57              		.loc 1 38 0
ARM GAS  /tmp/ccjYL3qA.s 			page 2


  58 0000 0023     		movs	r3, #0
  59              		.loc 1 37 0
  60 0002 10B5     		push	{r4, lr}
  61              		.cfi_def_cfa_offset 8
  62              		.cfi_offset 4, -8
  63              		.cfi_offset 14, -4
  64              		.loc 1 37 0
  65 0004 0446     		mov	r4, r0
  66              		.loc 1 38 0
  67 0006 40F8143B 		str	r3, [r0], #20
  68              	.LVL3:
  69              		.loc 1 39 0
  70 000a FFF7FEFF 		bl	chopstx_cond_init
  71              	.LVL4:
  72              		.loc 1 40 0
  73 000e 201D     		adds	r0, r4, #4
  74              		.loc 1 41 0
  75 0010 BDE81040 		pop	{r4, lr}
  76              		.cfi_restore 14
  77              		.cfi_restore 4
  78              		.cfi_def_cfa_offset 0
  79              	.LVL5:
  80              		.loc 1 40 0
  81 0014 FFF7FEBF 		b	chopstx_mutex_init
  82              	.LVL6:
  83              		.cfi_endproc
  84              	.LFE0:
  85              		.size	eventflag_init, .-eventflag_init
  86              		.section	.text.eventflag_prepare_poll,"ax",%progbits
  87              		.align	1
  88              		.global	eventflag_prepare_poll
  89              		.syntax unified
  90              		.thumb
  91              		.thumb_func
  92              		.fpu softvfp
  93              		.type	eventflag_prepare_poll, %function
  94              	eventflag_prepare_poll:
  95              	.LFB2:
  96              		.loc 1 55 0
  97              		.cfi_startproc
  98              		@ args = 0, pretend = 0, frame = 0
  99              		@ frame_needed = 0, uses_anonymous_args = 0
 100              		@ link register save eliminated.
 101              	.LVL7:
 102              		.loc 1 56 0
 103 0000 0023     		movs	r3, #0
 104 0002 0B60     		str	r3, [r1]
 105              		.loc 1 58 0
 106 0004 00F11403 		add	r3, r0, #20
 107 0008 4B60     		str	r3, [r1, #4]
 108              		.loc 1 59 0
 109 000a 031D     		adds	r3, r0, #4
 110 000c 8B60     		str	r3, [r1, #8]
 111              		.loc 1 60 0
 112 000e 024B     		ldr	r3, .L4
 113              		.loc 1 61 0
 114 0010 C1E90330 		strd	r3, r0, [r1, #12]
ARM GAS  /tmp/ccjYL3qA.s 			page 3


 115              		.loc 1 62 0
 116 0014 7047     		bx	lr
 117              	.L5:
 118 0016 00BF     		.align	2
 119              	.L4:
 120 0018 00000000 		.word	eventflag_check
 121              		.cfi_endproc
 122              	.LFE2:
 123              		.size	eventflag_prepare_poll, .-eventflag_prepare_poll
 124              		.section	.text.eventflag_get,"ax",%progbits
 125              		.align	1
 126              		.global	eventflag_get
 127              		.syntax unified
 128              		.thumb
 129              		.thumb_func
 130              		.fpu softvfp
 131              		.type	eventflag_get, %function
 132              	eventflag_get:
 133              	.LFB3:
 134              		.loc 1 67 0
 135              		.cfi_startproc
 136              		@ args = 0, pretend = 0, frame = 0
 137              		@ frame_needed = 0, uses_anonymous_args = 0
 138              	.LVL8:
 139 0000 70B5     		push	{r4, r5, r6, lr}
 140              		.cfi_def_cfa_offset 16
 141              		.cfi_offset 4, -16
 142              		.cfi_offset 5, -12
 143              		.cfi_offset 6, -8
 144              		.cfi_offset 14, -4
 145              		.loc 1 67 0
 146 0002 0546     		mov	r5, r0
 147              		.loc 1 71 0
 148 0004 061D     		adds	r6, r0, #4
 149 0006 3046     		mov	r0, r6
 150              	.LVL9:
 151 0008 FFF7FEFF 		bl	chopstx_mutex_lock
 152              	.LVL10:
 153              		.loc 1 72 0
 154 000c 2B68     		ldr	r3, [r5]
 155              		.loc 1 80 0
 156 000e 3046     		mov	r0, r6
 157              		.loc 1 72 0
 158 0010 93FAA3F2 		rbit	r2, r3
 159 0014 002B     		cmp	r3, #0
 160 0016 B2FA82F2 		clz	r2, r2
 161 001a 08BF     		it	eq
 162 001c 4FF0FF32 		moveq	r2, #-1
 163              	.LVL11:
 164              		.loc 1 73 0
 165 0020 541C     		adds	r4, r2, #1
 166              	.LVL12:
 167              		.loc 1 75 0
 168 0022 1FBF     		itttt	ne
 169 0024 0124     		movne	r4, #1
 170              	.LVL13:
 171 0026 9440     		lslne	r4, r4, r2
ARM GAS  /tmp/ccjYL3qA.s 			page 4


 172              	.LVL14:
 173              		.loc 1 76 0
 174 0028 A343     		bicne	r3, r3, r4
 175 002a 2B60     		strne	r3, [r5]
 176              		.loc 1 80 0
 177 002c FFF7FEFF 		bl	chopstx_mutex_unlock
 178              	.LVL15:
 179              		.loc 1 83 0
 180 0030 2046     		mov	r0, r4
 181 0032 70BD     		pop	{r4, r5, r6, pc}
 182              		.cfi_endproc
 183              	.LFE3:
 184              		.size	eventflag_get, .-eventflag_get
 185              		.section	.text.eventflag_wait,"ax",%progbits
 186              		.align	1
 187              		.global	eventflag_wait
 188              		.syntax unified
 189              		.thumb
 190              		.thumb_func
 191              		.fpu softvfp
 192              		.type	eventflag_wait, %function
 193              	eventflag_wait:
 194              	.LFB4:
 195              		.loc 1 88 0
 196              		.cfi_startproc
 197              		@ args = 0, pretend = 0, frame = 0
 198              		@ frame_needed = 0, uses_anonymous_args = 0
 199              	.LVL16:
 200 0000 70B5     		push	{r4, r5, r6, lr}
 201              		.cfi_def_cfa_offset 16
 202              		.cfi_offset 4, -16
 203              		.cfi_offset 5, -12
 204              		.cfi_offset 6, -8
 205              		.cfi_offset 14, -4
 206              		.loc 1 88 0
 207 0002 0546     		mov	r5, r0
 208              		.loc 1 92 0
 209 0004 061D     		adds	r6, r0, #4
 210 0006 3046     		mov	r0, r6
 211              	.LVL17:
 212 0008 FFF7FEFF 		bl	chopstx_mutex_lock
 213              	.LVL18:
 214              		.loc 1 93 0
 215 000c 2B68     		ldr	r3, [r5]
 216 000e 23B9     		cbnz	r3, .L11
 217              		.loc 1 94 0
 218 0010 3146     		mov	r1, r6
 219 0012 05F11400 		add	r0, r5, #20
 220 0016 FFF7FEFF 		bl	chopstx_cond_wait
 221              	.LVL19:
 222              	.L11:
 223              		.loc 1 96 0
 224 001a 2B68     		ldr	r3, [r5]
 225              		.loc 1 104 0
 226 001c 3046     		mov	r0, r6
 227              		.loc 1 96 0
 228 001e 93FAA3F2 		rbit	r2, r3
ARM GAS  /tmp/ccjYL3qA.s 			page 5


 229 0022 002B     		cmp	r3, #0
 230 0024 B2FA82F2 		clz	r2, r2
 231 0028 08BF     		it	eq
 232 002a 4FF0FF32 		moveq	r2, #-1
 233              	.LVL20:
 234              		.loc 1 97 0
 235 002e 541C     		adds	r4, r2, #1
 236              	.LVL21:
 237              		.loc 1 99 0
 238 0030 1FBF     		itttt	ne
 239 0032 0124     		movne	r4, #1
 240              	.LVL22:
 241 0034 9440     		lslne	r4, r4, r2
 242              	.LVL23:
 243              		.loc 1 100 0
 244 0036 A343     		bicne	r3, r3, r4
 245 0038 2B60     		strne	r3, [r5]
 246              		.loc 1 104 0
 247 003a FFF7FEFF 		bl	chopstx_mutex_unlock
 248              	.LVL24:
 249              		.loc 1 107 0
 250 003e 2046     		mov	r0, r4
 251 0040 70BD     		pop	{r4, r5, r6, pc}
 252              		.cfi_endproc
 253              	.LFE4:
 254              		.size	eventflag_wait, .-eventflag_wait
 255              		.section	.text.eventflag_wait_timeout,"ax",%progbits
 256              		.align	1
 257              		.global	eventflag_wait_timeout
 258              		.syntax unified
 259              		.thumb
 260              		.thumb_func
 261              		.fpu softvfp
 262              		.type	eventflag_wait_timeout, %function
 263              	eventflag_wait_timeout:
 264              	.LFB5:
 265              		.loc 1 112 0
 266              		.cfi_startproc
 267              		@ args = 0, pretend = 0, frame = 32
 268              		@ frame_needed = 0, uses_anonymous_args = 0
 269              	.LVL25:
 270 0000 10B5     		push	{r4, lr}
 271              		.cfi_def_cfa_offset 8
 272              		.cfi_offset 4, -8
 273              		.cfi_offset 14, -4
 274 0002 88B0     		sub	sp, sp, #32
 275              		.cfi_def_cfa_offset 40
 276              		.loc 1 114 0
 277 0004 03AB     		add	r3, sp, #12
 278 0006 0293     		str	r3, [sp, #8]
 279              	.LVL26:
 280              	.LBB4:
 281              	.LBB5:
 282              		.loc 1 56 0
 283 0008 0023     		movs	r3, #0
 284              	.LVL27:
 285              	.LBE5:
ARM GAS  /tmp/ccjYL3qA.s 			page 6


 286              	.LBE4:
 287              		.loc 1 112 0
 288 000a 0446     		mov	r4, r0
 289              	.LBB8:
 290              	.LBB6:
 291              		.loc 1 56 0
 292 000c 0393     		str	r3, [sp, #12]
 293              		.loc 1 58 0
 294 000e 00F11403 		add	r3, r0, #20
 295 0012 0493     		str	r3, [sp, #16]
 296              		.loc 1 59 0
 297 0014 031D     		adds	r3, r0, #4
 298 0016 0593     		str	r3, [sp, #20]
 299              		.loc 1 60 0
 300 0018 064B     		ldr	r3, .L16
 301              	.LBE6:
 302              	.LBE8:
 303              		.loc 1 112 0
 304 001a 0191     		str	r1, [sp, #4]
 305              	.LBB9:
 306              	.LBB7:
 307              		.loc 1 61 0
 308 001c CDE90630 		strd	r3, r0, [sp, #24]
 309              	.LVL28:
 310              	.LBE7:
 311              	.LBE9:
 312              		.loc 1 117 0
 313 0020 02AA     		add	r2, sp, #8
 314 0022 0121     		movs	r1, #1
 315              	.LVL29:
 316 0024 01A8     		add	r0, sp, #4
 317              	.LVL30:
 318 0026 FFF7FEFF 		bl	chopstx_poll
 319              	.LVL31:
 320              		.loc 1 118 0
 321 002a 2046     		mov	r0, r4
 322 002c FFF7FEFF 		bl	eventflag_get
 323              	.LVL32:
 324              		.loc 1 119 0
 325 0030 08B0     		add	sp, sp, #32
 326              		.cfi_def_cfa_offset 8
 327              		@ sp needed
 328 0032 10BD     		pop	{r4, pc}
 329              	.LVL33:
 330              	.L17:
 331              		.align	2
 332              	.L16:
 333 0034 00000000 		.word	eventflag_check
 334              		.cfi_endproc
 335              	.LFE5:
 336              		.size	eventflag_wait_timeout, .-eventflag_wait_timeout
 337              		.section	.text.eventflag_signal,"ax",%progbits
 338              		.align	1
 339              		.global	eventflag_signal
 340              		.syntax unified
 341              		.thumb
 342              		.thumb_func
ARM GAS  /tmp/ccjYL3qA.s 			page 7


 343              		.fpu softvfp
 344              		.type	eventflag_signal, %function
 345              	eventflag_signal:
 346              	.LFB6:
 347              		.loc 1 124 0
 348              		.cfi_startproc
 349              		@ args = 0, pretend = 0, frame = 0
 350              		@ frame_needed = 0, uses_anonymous_args = 0
 351              	.LVL34:
 352 0000 70B5     		push	{r4, r5, r6, lr}
 353              		.cfi_def_cfa_offset 16
 354              		.cfi_offset 4, -16
 355              		.cfi_offset 5, -12
 356              		.cfi_offset 6, -8
 357              		.cfi_offset 14, -4
 358              		.loc 1 124 0
 359 0002 0446     		mov	r4, r0
 360              		.loc 1 125 0
 361 0004 051D     		adds	r5, r0, #4
 362              		.loc 1 124 0
 363 0006 0E46     		mov	r6, r1
 364              		.loc 1 125 0
 365 0008 2846     		mov	r0, r5
 366              	.LVL35:
 367 000a FFF7FEFF 		bl	chopstx_mutex_lock
 368              	.LVL36:
 369              		.loc 1 126 0
 370 000e 2046     		mov	r0, r4
 371 0010 2368     		ldr	r3, [r4]
 372 0012 3343     		orrs	r3, r3, r6
 373 0014 40F8143B 		str	r3, [r0], #20
 374              		.loc 1 127 0
 375 0018 FFF7FEFF 		bl	chopstx_cond_signal
 376              	.LVL37:
 377              		.loc 1 128 0
 378 001c 2846     		mov	r0, r5
 379              		.loc 1 129 0
 380 001e BDE87040 		pop	{r4, r5, r6, lr}
 381              		.cfi_restore 14
 382              		.cfi_restore 6
 383              		.cfi_restore 5
 384              		.cfi_restore 4
 385              		.cfi_def_cfa_offset 0
 386              	.LVL38:
 387              		.loc 1 128 0
 388 0022 FFF7FEBF 		b	chopstx_mutex_unlock
 389              	.LVL39:
 390              		.cfi_endproc
 391              	.LFE6:
 392              		.size	eventflag_signal, .-eventflag_signal
 393              		.text
 394              	.Letext0:
 395              		.file 2 "/usr/arm-none-eabi/include/machine/_default_types.h"
 396              		.file 3 "/usr/arm-none-eabi/include/sys/_stdint.h"
 397              		.file 4 "/usr/arm-none-eabi/include/sys/lock.h"
 398              		.file 5 "/usr/arm-none-eabi/include/sys/_types.h"
 399              		.file 6 "/usr/lib/gcc/arm-none-eabi/7.3.1/include/stddef.h"
ARM GAS  /tmp/ccjYL3qA.s 			page 8


 400              		.file 7 "/usr/arm-none-eabi/include/sys/reent.h"
 401              		.file 8 "/usr/arm-none-eabi/include/stdlib.h"
 402              		.file 9 "../chopstx/chopstx.h"
 403              		.file 10 "../chopstx/eventflag.h"