ARM GAS  /tmp/ccGtdFQ3.s 			page 1


   1              		.cpu cortex-m3
   2              		.eabi_attribute 20, 1
   3              		.eabi_attribute 21, 1
   4              		.eabi_attribute 23, 3
   5              		.eabi_attribute 24, 1
   6              		.eabi_attribute 25, 1
   7              		.eabi_attribute 26, 1
   8              		.eabi_attribute 30, 4
   9              		.eabi_attribute 34, 1
  10              		.eabi_attribute 18, 4
  11              		.file	"hmac.c"
  12              		.text
  13              	.Ltext0:
  14              		.cfi_sections	.debug_frame
  15              		.section	.text._hmac_sha256_finish,"ax",%progbits
  16              		.align	1
  17              		.syntax unified
  18              		.thumb
  19              		.thumb_func
  20              		.fpu softvfp
  21              		.type	_hmac_sha256_finish, %function
  22              	_hmac_sha256_finish:
  23              	.LFB2:
  24              		.file 1 "hmac.c"
  25              		.loc 1 50 0
  26              		.cfi_startproc
  27              		@ args = 0, pretend = 0, frame = 0
  28              		@ frame_needed = 0, uses_anonymous_args = 0
  29              		@ link register save eliminated.
  30              	.LVL0:
  31              		.loc 1 52 0
  32 0000 1830     		adds	r0, r0, #24
  33              	.LVL1:
  34 0002 FFF7FEBF 		b	sha256_finish
  35              	.LVL2:
  36              		.cfi_endproc
  37              	.LFE2:
  38              		.size	_hmac_sha256_finish, .-_hmac_sha256_finish
  39              		.section	.text._hmac_sha256_update,"ax",%progbits
  40              		.align	1
  41              		.syntax unified
  42              		.thumb
  43              		.thumb_func
  44              		.fpu softvfp
  45              		.type	_hmac_sha256_update, %function
  46              	_hmac_sha256_update:
  47              	.LFB1:
  48              		.loc 1 43 0
  49              		.cfi_startproc
  50              		@ args = 0, pretend = 0, frame = 0
  51              		@ frame_needed = 0, uses_anonymous_args = 0
  52              		@ link register save eliminated.
  53              	.LVL3:
  54              		.loc 1 45 0
  55 0000 1830     		adds	r0, r0, #24
  56              	.LVL4:
  57 0002 FFF7FEBF 		b	sha256_update
ARM GAS  /tmp/ccGtdFQ3.s 			page 2


  58              	.LVL5:
  59              		.cfi_endproc
  60              	.LFE1:
  61              		.size	_hmac_sha256_update, .-_hmac_sha256_update
  62              		.section	.text._hmac_sha256_init,"ax",%progbits
  63              		.align	1
  64              		.syntax unified
  65              		.thumb
  66              		.thumb_func
  67              		.fpu softvfp
  68              		.type	_hmac_sha256_init, %function
  69              	_hmac_sha256_init:
  70              	.LFB0:
  71              		.loc 1 35 0
  72              		.cfi_startproc
  73              		@ args = 0, pretend = 0, frame = 0
  74              		@ frame_needed = 0, uses_anonymous_args = 0
  75              		@ link register save eliminated.
  76              	.LVL6:
  77              		.loc 1 37 0
  78 0000 1830     		adds	r0, r0, #24
  79              	.LVL7:
  80 0002 FFF7FEBF 		b	sha256_start
  81              	.LVL8:
  82              		.cfi_endproc
  83              	.LFE0:
  84              		.size	_hmac_sha256_init, .-_hmac_sha256_init
  85              		.section	.text.hmac_sha256_init,"ax",%progbits
  86              		.align	1
  87              		.global	hmac_sha256_init
  88              		.syntax unified
  89              		.thumb
  90              		.thumb_func
  91              		.fpu softvfp
  92              		.type	hmac_sha256_init, %function
  93              	hmac_sha256_init:
  94              	.LFB6:
  95              		.loc 1 101 0
  96              		.cfi_startproc
  97              		@ args = 0, pretend = 0, frame = 0
  98              		@ frame_needed = 0, uses_anonymous_args = 0
  99              	.LVL9:
 100              		.loc 1 102 0
 101 0000 164B     		ldr	r3, .L9
 102              		.loc 1 101 0
 103 0002 70B5     		push	{r4, r5, r6, lr}
 104              		.cfi_def_cfa_offset 16
 105              		.cfi_offset 4, -16
 106              		.cfi_offset 5, -12
 107              		.cfi_offset 6, -8
 108              		.cfi_offset 14, -4
 109              		.loc 1 102 0
 110 0004 0360     		str	r3, [r0]
 111              		.loc 1 103 0
 112 0006 164B     		ldr	r3, .L9+4
 113              		.loc 1 106 0
 114 0008 4022     		movs	r2, #64
ARM GAS  /tmp/ccGtdFQ3.s 			page 3


 115              		.loc 1 103 0
 116 000a 4360     		str	r3, [r0, #4]
 117              		.loc 1 104 0
 118 000c 154B     		ldr	r3, .L9+8
 119              		.loc 1 101 0
 120 000e 0446     		mov	r4, r0
 121              		.loc 1 104 0
 122 0010 8360     		str	r3, [r0, #8]
 123              		.loc 1 106 0
 124 0012 2023     		movs	r3, #32
 125 0014 C0E90323 		strd	r2, r3, [r0, #12]
 126              		.loc 1 107 0
 127 0018 00F18003 		add	r3, r0, #128
 128 001c 4361     		str	r3, [r0, #20]
 129              	.LVL10:
 130              	.LBB4:
 131              	.LBB5:
 132              		.loc 1 62 0
 133 001e 0023     		movs	r3, #0
 134              		.loc 1 60 0
 135 0020 00F1C005 		add	r5, r0, #192
 136              	.LVL11:
 137              	.L5:
 138              		.loc 1 62 0
 139 0024 2269     		ldr	r2, [r4, #16]
 140 0026 9342     		cmp	r3, r2
 141 0028 0FD3     		bcc	.L6
 142              		.loc 1 65 0
 143 002a 3620     		movs	r0, #54
 144              	.LVL12:
 145 002c 2B44     		add	r3, r3, r5
 146              	.LVL13:
 147              	.L7:
 148              		.loc 1 64 0
 149 002e E168     		ldr	r1, [r4, #12]
 150 0030 5A1B     		subs	r2, r3, r5
 151              	.LVL14:
 152 0032 9142     		cmp	r1, r2
 153 0034 0FD8     		bhi	.L8
 154              		.loc 1 67 0
 155 0036 2368     		ldr	r3, [r4]
 156 0038 2046     		mov	r0, r4
 157 003a 9847     		blx	r3
 158              	.LVL15:
 159              		.loc 1 68 0
 160 003c 6368     		ldr	r3, [r4, #4]
 161 003e E268     		ldr	r2, [r4, #12]
 162 0040 2946     		mov	r1, r5
 163 0042 2046     		mov	r0, r4
 164              	.LBE5:
 165              	.LBE4:
 166              		.loc 1 109 0
 167 0044 BDE87040 		pop	{r4, r5, r6, lr}
 168              		.cfi_remember_state
 169              		.cfi_restore 14
 170              		.cfi_restore 6
 171              		.cfi_restore 5
ARM GAS  /tmp/ccGtdFQ3.s 			page 4


 172              		.cfi_restore 4
 173              		.cfi_def_cfa_offset 0
 174              	.LVL16:
 175              	.LBB7:
 176              	.LBB6:
 177              		.loc 1 68 0
 178 0048 1847     		bx	r3	@ indirect register sibling call
 179              	.LVL17:
 180              	.L6:
 181              		.cfi_restore_state
 182              		.loc 1 63 0
 183 004a CA5C     		ldrb	r2, [r1, r3]	@ zero_extendqisi2
 184 004c 82F03602 		eor	r2, r2, #54
 185 0050 EA54     		strb	r2, [r5, r3]
 186              		.loc 1 62 0
 187 0052 0133     		adds	r3, r3, #1
 188              	.LVL18:
 189 0054 E6E7     		b	.L5
 190              	.LVL19:
 191              	.L8:
 192              		.loc 1 65 0
 193 0056 03F8010B 		strb	r0, [r3], #1
 194              	.LVL20:
 195 005a E8E7     		b	.L7
 196              	.L10:
 197              		.align	2
 198              	.L9:
 199 005c 00000000 		.word	_hmac_sha256_init
 200 0060 00000000 		.word	_hmac_sha256_update
 201 0064 00000000 		.word	_hmac_sha256_finish
 202              	.LBE6:
 203              	.LBE7:
 204              		.cfi_endproc
 205              	.LFE6:
 206              		.size	hmac_sha256_init, .-hmac_sha256_init
 207              		.section	.text.hmac_sha256_update,"ax",%progbits
 208              		.align	1
 209              		.global	hmac_sha256_update
 210              		.syntax unified
 211              		.thumb
 212              		.thumb_func
 213              		.fpu softvfp
 214              		.type	hmac_sha256_update, %function
 215              	hmac_sha256_update:
 216              	.LFB7:
 217              		.loc 1 114 0
 218              		.cfi_startproc
 219              		@ args = 0, pretend = 0, frame = 0
 220              		@ frame_needed = 0, uses_anonymous_args = 0
 221              		@ link register save eliminated.
 222              	.LVL21:
 223              	.LBB10:
 224              	.LBB11:
 225              		.loc 1 76 0
 226 0000 4368     		ldr	r3, [r0, #4]
 227 0002 1847     		bx	r3	@ indirect register sibling call
 228              	.LVL22:
ARM GAS  /tmp/ccGtdFQ3.s 			page 5


 229              	.LBE11:
 230              	.LBE10:
 231              		.cfi_endproc
 232              	.LFE7:
 233              		.size	hmac_sha256_update, .-hmac_sha256_update
 234              		.section	.text.hmac_sha256_finish,"ax",%progbits
 235              		.align	1
 236              		.global	hmac_sha256_finish
 237              		.syntax unified
 238              		.thumb
 239              		.thumb_func
 240              		.fpu softvfp
 241              		.type	hmac_sha256_finish, %function
 242              	hmac_sha256_finish:
 243              	.LFB8:
 244              		.loc 1 121 0
 245              		.cfi_startproc
 246              		@ args = 0, pretend = 0, frame = 0
 247              		@ frame_needed = 0, uses_anonymous_args = 0
 248              	.LVL23:
 249 0000 70B5     		push	{r4, r5, r6, lr}
 250              		.cfi_def_cfa_offset 16
 251              		.cfi_offset 4, -16
 252              		.cfi_offset 5, -12
 253              		.cfi_offset 6, -8
 254              		.cfi_offset 14, -4
 255              	.LBB14:
 256              	.LBB15:
 257              		.loc 1 84 0
 258 0002 D0E90435 		ldrd	r3, r5, [r0, #16]
 259              	.LBE15:
 260              	.LBE14:
 261              		.loc 1 121 0
 262 0006 0446     		mov	r4, r0
 263              	.LBB19:
 264              	.LBB16:
 265              		.loc 1 84 0
 266 0008 05EB4305 		add	r5, r5, r3, lsl #1
 267              	.LBE16:
 268              	.LBE19:
 269              		.loc 1 121 0
 270 000c 1646     		mov	r6, r2
 271              	.LVL24:
 272              	.LBB20:
 273              	.LBB17:
 274              		.loc 1 86 0
 275 000e 0023     		movs	r3, #0
 276              	.LVL25:
 277              	.L13:
 278 0010 2269     		ldr	r2, [r4, #16]
 279 0012 9342     		cmp	r3, r2
 280 0014 1CD3     		bcc	.L14
 281              		.loc 1 89 0
 282 0016 5C20     		movs	r0, #92
 283              	.LVL26:
 284 0018 2B44     		add	r3, r3, r5
 285              	.LVL27:
ARM GAS  /tmp/ccGtdFQ3.s 			page 6


 286              	.L15:
 287              		.loc 1 88 0
 288 001a E168     		ldr	r1, [r4, #12]
 289 001c 5A1B     		subs	r2, r3, r5
 290              	.LVL28:
 291 001e 9142     		cmp	r1, r2
 292 0020 1CD8     		bhi	.L16
 293              		.loc 1 91 0
 294 0022 3146     		mov	r1, r6
 295 0024 A368     		ldr	r3, [r4, #8]
 296 0026 2046     		mov	r0, r4
 297 0028 9847     		blx	r3
 298              	.LVL29:
 299              		.loc 1 93 0
 300 002a 2368     		ldr	r3, [r4]
 301 002c 2046     		mov	r0, r4
 302 002e 9847     		blx	r3
 303              	.LVL30:
 304              		.loc 1 94 0
 305 0030 6368     		ldr	r3, [r4, #4]
 306 0032 E268     		ldr	r2, [r4, #12]
 307 0034 2946     		mov	r1, r5
 308 0036 2046     		mov	r0, r4
 309 0038 9847     		blx	r3
 310              	.LVL31:
 311              		.loc 1 95 0
 312 003a 6368     		ldr	r3, [r4, #4]
 313 003c 3146     		mov	r1, r6
 314 003e 2046     		mov	r0, r4
 315 0040 2269     		ldr	r2, [r4, #16]
 316 0042 9847     		blx	r3
 317              	.LVL32:
 318              		.loc 1 96 0
 319 0044 A368     		ldr	r3, [r4, #8]
 320 0046 3146     		mov	r1, r6
 321 0048 2046     		mov	r0, r4
 322              	.LBE17:
 323              	.LBE20:
 324              		.loc 1 123 0
 325 004a BDE87040 		pop	{r4, r5, r6, lr}
 326              		.cfi_remember_state
 327              		.cfi_restore 14
 328              		.cfi_restore 6
 329              		.cfi_restore 5
 330              		.cfi_restore 4
 331              		.cfi_def_cfa_offset 0
 332              	.LVL33:
 333              	.LBB21:
 334              	.LBB18:
 335              		.loc 1 96 0
 336 004e 1847     		bx	r3	@ indirect register sibling call
 337              	.LVL34:
 338              	.L14:
 339              		.cfi_restore_state
 340              		.loc 1 87 0
 341 0050 CA5C     		ldrb	r2, [r1, r3]	@ zero_extendqisi2
 342 0052 82F05C02 		eor	r2, r2, #92
ARM GAS  /tmp/ccGtdFQ3.s 			page 7


 343 0056 EA54     		strb	r2, [r5, r3]
 344              		.loc 1 86 0
 345 0058 0133     		adds	r3, r3, #1
 346              	.LVL35:
 347 005a D9E7     		b	.L13
 348              	.LVL36:
 349              	.L16:
 350              		.loc 1 89 0
 351 005c 03F8010B 		strb	r0, [r3], #1
 352              	.LVL37:
 353 0060 DBE7     		b	.L15
 354              	.LBE18:
 355              	.LBE21:
 356              		.cfi_endproc
 357              	.LFE8:
 358              		.size	hmac_sha256_finish, .-hmac_sha256_finish
 359              		.text
 360              	.Letext0:
 361              		.file 2 "/usr/arm-none-eabi/include/machine/_default_types.h"
 362              		.file 3 "/usr/arm-none-eabi/include/sys/_stdint.h"
 363              		.file 4 "sha256.h"
 364              		.file 5 "hmac.h"