ARM GAS  /tmp/cciilhez.s 			page 1


   1              		.cpu cortex-m3
   2              		.eabi_attribute 20, 1
   3              		.eabi_attribute 21, 1
   4              		.eabi_attribute 23, 3
   5              		.eabi_attribute 24, 1
   6              		.eabi_attribute 25, 1
   7              		.eabi_attribute 26, 1
   8              		.eabi_attribute 30, 4
   9              		.eabi_attribute 34, 1
  10              		.eabi_attribute 18, 4
  11              		.file	"jpc_p256r1.c"
  12              		.text
  13              	.Ltext0:
  14              		.cfi_sections	.debug_frame
  15              		.section	.text.jpc_double_p256r1,"ax",%progbits
  16              		.align	1
  17              		.global	jpc_double_p256r1
  18              		.syntax unified
  19              		.thumb
  20              		.thumb_func
  21              		.fpu softvfp
  22              		.type	jpc_double_p256r1, %function
  23              	jpc_double_p256r1:
  24              	.LFB0:
  25              		.file 1 "jpc.c"
  26              		.loc 1 34 0
  27              		.cfi_startproc
  28              		@ args = 0, pretend = 0, frame = 128
  29              		@ frame_needed = 0, uses_anonymous_args = 0
  30              	.LVL0:
  31 0000 2DE9F043 		push	{r4, r5, r6, r7, r8, r9, lr}
  32              		.cfi_def_cfa_offset 28
  33              		.cfi_offset 4, -28
  34              		.cfi_offset 5, -24
  35              		.cfi_offset 6, -20
  36              		.cfi_offset 7, -16
  37              		.cfi_offset 8, -12
  38              		.cfi_offset 9, -8
  39              		.cfi_offset 14, -4
  40              		.loc 1 38 0
  41 0004 01F14008 		add	r8, r1, #64
  42              		.loc 1 34 0
  43 0008 A1B0     		sub	sp, sp, #132
  44              		.cfi_def_cfa_offset 160
  45              		.loc 1 34 0
  46 000a 0646     		mov	r6, r0
  47              		.loc 1 38 0
  48 000c 4046     		mov	r0, r8
  49              	.LVL1:
  50              		.loc 1 34 0
  51 000e 0F46     		mov	r7, r1
  52              		.loc 1 38 0
  53 0010 FFF7FEFF 		bl	bn256_is_zero
  54              	.LVL2:
  55 0014 0028     		cmp	r0, #0
  56 0016 67D1     		bne	.L1
  57              	.LVL3:
ARM GAS  /tmp/cciilhez.s 			page 2


  58              		.loc 1 43 0
  59 0018 6D46     		mov	r5, sp
  60              		.loc 1 42 0
  61 001a 07F12009 		add	r9, r7, #32
  62 001e 4946     		mov	r1, r9
  63 0020 6846     		mov	r0, sp
  64              		.loc 1 43 0
  65 0022 08AC     		add	r4, sp, #32
  66              		.loc 1 42 0
  67 0024 FFF7FEFF 		bl	modp256r1_sqr
  68              	.LVL4:
  69              		.loc 1 43 0
  70 0028 0FCD     		ldmia	r5!, {r0, r1, r2, r3}
  71 002a 0FC4     		stmia	r4!, {r0, r1, r2, r3}
  72 002c 95E80F00 		ldm	r5, {r0, r1, r2, r3}
  73 0030 84E80F00 		stm	r4, {r0, r1, r2, r3}
  74              		.loc 1 44 0
  75 0034 3A46     		mov	r2, r7
  76 0036 6946     		mov	r1, sp
  77 0038 6846     		mov	r0, sp
  78 003a FFF7FEFF 		bl	modp256r1_mul
  79              	.LVL5:
  80              		.loc 1 45 0
  81 003e 0222     		movs	r2, #2
  82 0040 6946     		mov	r1, sp
  83 0042 6846     		mov	r0, sp
  84 0044 FFF7FEFF 		bl	modp256r1_shift
  85              	.LVL6:
  86              		.loc 1 47 0
  87 0048 08A9     		add	r1, sp, #32
  88 004a 0846     		mov	r0, r1
  89 004c FFF7FEFF 		bl	modp256r1_sqr
  90              	.LVL7:
  91              		.loc 1 48 0
  92 0050 08A9     		add	r1, sp, #32
  93 0052 0322     		movs	r2, #3
  94 0054 0846     		mov	r0, r1
  95 0056 FFF7FEFF 		bl	modp256r1_shift
  96              	.LVL8:
  97              		.loc 1 51 0
  98 005a 4146     		mov	r1, r8
  99 005c 18A8     		add	r0, sp, #96
 100 005e FFF7FEFF 		bl	modp256r1_sqr
 101              	.LVL9:
 102              		.loc 1 52 0
 103 0062 18AA     		add	r2, sp, #96
 104 0064 3946     		mov	r1, r7
 105 0066 10A8     		add	r0, sp, #64
 106 0068 FFF7FEFF 		bl	modp256r1_sub
 107              	.LVL10:
 108              		.loc 1 53 0
 109 006c 18A9     		add	r1, sp, #96
 110 006e 0846     		mov	r0, r1
 111 0070 3A46     		mov	r2, r7
 112 0072 FFF7FEFF 		bl	modp256r1_add
 113              	.LVL11:
 114              		.loc 1 54 0
ARM GAS  /tmp/cciilhez.s 			page 3


 115 0076 18A9     		add	r1, sp, #96
 116 0078 0846     		mov	r0, r1
 117 007a 10AA     		add	r2, sp, #64
 118 007c FFF7FEFF 		bl	modp256r1_mul
 119              	.LVL12:
 120              		.loc 1 55 0
 121 0080 0122     		movs	r2, #1
 122 0082 18A9     		add	r1, sp, #96
 123 0084 10A8     		add	r0, sp, #64
 124 0086 FFF7FEFF 		bl	modp256r1_shift
 125              	.LVL13:
 126              		.loc 1 56 0
 127 008a 10A9     		add	r1, sp, #64
 128 008c 18AA     		add	r2, sp, #96
 129 008e 0846     		mov	r0, r1
 130 0090 FFF7FEFF 		bl	modp256r1_add
 131              	.LVL14:
 132              		.loc 1 65 0
 133 0094 10A9     		add	r1, sp, #64
 134 0096 3046     		mov	r0, r6
 135 0098 FFF7FEFF 		bl	modp256r1_sqr
 136              	.LVL15:
 137              		.loc 1 66 0
 138 009c 0122     		movs	r2, #1
 139 009e 6946     		mov	r1, sp
 140 00a0 18A8     		add	r0, sp, #96
 141 00a2 FFF7FEFF 		bl	modp256r1_shift
 142              	.LVL16:
 143              		.loc 1 69 0
 144 00a6 06F14004 		add	r4, r6, #64
 145              		.loc 1 67 0
 146 00aa 18AA     		add	r2, sp, #96
 147 00ac 3146     		mov	r1, r6
 148 00ae 3046     		mov	r0, r6
 149 00b0 FFF7FEFF 		bl	modp256r1_sub
 150              	.LVL17:
 151              		.loc 1 69 0
 152 00b4 4246     		mov	r2, r8
 153 00b6 4946     		mov	r1, r9
 154 00b8 2046     		mov	r0, r4
 155 00ba FFF7FEFF 		bl	modp256r1_mul
 156              	.LVL18:
 157              		.loc 1 70 0
 158 00be 0122     		movs	r2, #1
 159 00c0 2146     		mov	r1, r4
 160 00c2 2046     		mov	r0, r4
 161 00c4 FFF7FEFF 		bl	modp256r1_shift
 162              	.LVL19:
 163              		.loc 1 72 0
 164 00c8 3246     		mov	r2, r6
 165 00ca 6946     		mov	r1, sp
 166 00cc 18A8     		add	r0, sp, #96
 167 00ce FFF7FEFF 		bl	modp256r1_sub
 168              	.LVL20:
 169              		.loc 1 73 0
 170 00d2 18AA     		add	r2, sp, #96
 171 00d4 1046     		mov	r0, r2
ARM GAS  /tmp/cciilhez.s 			page 4


 172 00d6 10A9     		add	r1, sp, #64
 173 00d8 FFF7FEFF 		bl	modp256r1_mul
 174              	.LVL21:
 175              		.loc 1 74 0
 176 00dc 08AA     		add	r2, sp, #32
 177 00de 18A9     		add	r1, sp, #96
 178 00e0 06F12000 		add	r0, r6, #32
 179 00e4 FFF7FEFF 		bl	modp256r1_sub
 180              	.LVL22:
 181              	.L1:
 182              		.loc 1 75 0
 183 00e8 21B0     		add	sp, sp, #132
 184              		.cfi_def_cfa_offset 28
 185              		@ sp needed
 186 00ea BDE8F083 		pop	{r4, r5, r6, r7, r8, r9, pc}
 187              		.cfi_endproc
 188              	.LFE0:
 189              		.size	jpc_double_p256r1, .-jpc_double_p256r1
 190              		.section	.text.jpc_add_ac_signed_p256r1,"ax",%progbits
 191              		.align	1
 192              		.global	jpc_add_ac_signed_p256r1
 193              		.syntax unified
 194              		.thumb
 195              		.thumb_func
 196              		.fpu softvfp
 197              		.type	jpc_add_ac_signed_p256r1, %function
 198              	jpc_add_ac_signed_p256r1:
 199              	.LFB1:
 200              		.loc 1 87 0
 201              		.cfi_startproc
 202              		@ args = 0, pretend = 0, frame = 160
 203              		@ frame_needed = 0, uses_anonymous_args = 0
 204              	.LVL23:
 205 0000 2DE9F04F 		push	{r4, r5, r6, r7, r8, r9, r10, fp, lr}
 206              		.cfi_def_cfa_offset 36
 207              		.cfi_offset 4, -36
 208              		.cfi_offset 5, -32
 209              		.cfi_offset 6, -28
 210              		.cfi_offset 7, -24
 211              		.cfi_offset 8, -20
 212              		.cfi_offset 9, -16
 213              		.cfi_offset 10, -12
 214              		.cfi_offset 11, -8
 215              		.cfi_offset 14, -4
 216              		.loc 1 99 0
 217 0004 01F1400B 		add	fp, r1, #64
 218              		.loc 1 87 0
 219 0008 A9B0     		sub	sp, sp, #164
 220              		.cfi_def_cfa_offset 200
 221              		.loc 1 87 0
 222 000a 0446     		mov	r4, r0
 223              		.loc 1 99 0
 224 000c 5846     		mov	r0, fp
 225              	.LVL24:
 226              		.loc 1 87 0
 227 000e 9046     		mov	r8, r2
 228 0010 8946     		mov	r9, r1
ARM GAS  /tmp/cciilhez.s 			page 5


 229 0012 9A46     		mov	r10, r3
 230              		.loc 1 99 0
 231 0014 FFF7FEFF 		bl	bn256_is_zero
 232              	.LVL25:
 233 0018 08F12007 		add	r7, r8, #32
 234 001c 88B3     		cbz	r0, .L5
 235              		.loc 1 101 0
 236 001e 2346     		mov	r3, r4
 237              	.LVL26:
 238              	.L6:
 239 0020 58F8042B 		ldr	r2, [r8], #4	@ unaligned
 240 0024 B845     		cmp	r8, r7
 241 0026 43F8042B 		str	r2, [r3], #4	@ unaligned
 242 002a F9D1     		bne	.L6
 243 002c 04F12003 		add	r3, r4, #32
 244 0030 07F1200C 		add	ip, r7, #32
 245              		.loc 1 104 0
 246 0034 3A46     		mov	r2, r7
 247              		.loc 1 102 0
 248 0036 BAF1000F 		cmp	r10, #0
 249 003a 18D0     		beq	.L10
 250              	.LVL27:
 251              		.loc 1 104 0
 252 003c 20AE     		add	r6, sp, #128
 253              	.LVL28:
 254              	.L8:
 255 003e 3546     		mov	r5, r6
 256 0040 1068     		ldr	r0, [r2]	@ unaligned
 257 0042 5168     		ldr	r1, [r2, #4]	@ unaligned
 258 0044 0832     		adds	r2, r2, #8
 259 0046 03C5     		stmia	r5!, {r0, r1}
 260 0048 6245     		cmp	r2, ip
 261 004a 2E46     		mov	r6, r5
 262 004c F7D1     		bne	.L8
 263              		.loc 1 105 0
 264 004e 3A46     		mov	r2, r7
 265 0050 1846     		mov	r0, r3
 266 0052 5049     		ldr	r1, .L21
 267              	.LVL29:
 268              	.L19:
 269              		.loc 1 110 0
 270 0054 FFF7FEFF 		bl	bn256_sub
 271              	.LVL30:
 272              		.loc 1 112 0
 273 0058 1C22     		movs	r2, #28
 274 005a 0021     		movs	r1, #0
 275 005c 04F14400 		add	r0, r4, #68
 276 0060 FFF7FEFF 		bl	memset
 277              	.LVL31:
 278              		.loc 1 113 0
 279 0064 0123     		movs	r3, #1
 280 0066 2364     		str	r3, [r4, #64]
 281              	.LVL32:
 282              	.L4:
 283              		.loc 1 159 0
 284 0068 29B0     		add	sp, sp, #164
 285              		.cfi_remember_state
ARM GAS  /tmp/cciilhez.s 			page 6


 286              		.cfi_def_cfa_offset 36
 287              		@ sp needed
 288 006a BDE8F08F 		pop	{r4, r5, r6, r7, r8, r9, r10, fp, pc}
 289              	.LVL33:
 290              	.L10:
 291              		.cfi_restore_state
 292              		.loc 1 109 0
 293 006e 52F8041B 		ldr	r1, [r2], #4	@ unaligned
 294 0072 6245     		cmp	r2, ip
 295 0074 43F8041B 		str	r1, [r3], #4	@ unaligned
 296 0078 F9D1     		bne	.L10
 297              		.loc 1 110 0
 298 007a 3A46     		mov	r2, r7
 299 007c 4549     		ldr	r1, .L21
 300 007e 20A8     		add	r0, sp, #128
 301 0080 E8E7     		b	.L19
 302              	.LVL34:
 303              	.L5:
 304              		.loc 1 118 0
 305 0082 6E46     		mov	r6, sp
 306              		.loc 1 117 0
 307 0084 5946     		mov	r1, fp
 308 0086 6846     		mov	r0, sp
 309              		.loc 1 118 0
 310 0088 08AD     		add	r5, sp, #32
 311              		.loc 1 117 0
 312 008a FFF7FEFF 		bl	modp256r1_sqr
 313              	.LVL35:
 314              		.loc 1 118 0
 315 008e 0FCE     		ldmia	r6!, {r0, r1, r2, r3}
 316 0090 0FC5     		stmia	r5!, {r0, r1, r2, r3}
 317 0092 96E80F00 		ldm	r6, {r0, r1, r2, r3}
 318 0096 85E80F00 		stm	r5, {r0, r1, r2, r3}
 319              		.loc 1 119 0
 320 009a 4246     		mov	r2, r8
 321 009c 6946     		mov	r1, sp
 322 009e 6846     		mov	r0, sp
 323 00a0 FFF7FEFF 		bl	modp256r1_mul
 324              	.LVL36:
 325              		.loc 1 121 0
 326 00a4 08A9     		add	r1, sp, #32
 327 00a6 5A46     		mov	r2, fp
 328 00a8 0846     		mov	r0, r1
 329 00aa FFF7FEFF 		bl	modp256r1_mul
 330              	.LVL37:
 331              		.loc 1 124 0
 332 00ae 3A46     		mov	r2, r7
 333 00b0 3849     		ldr	r1, .L21
 334              		.loc 1 122 0
 335 00b2 BAF1000F 		cmp	r10, #0
 336 00b6 18D0     		beq	.L12
 337              		.loc 1 124 0
 338 00b8 10A8     		add	r0, sp, #64
 339 00ba FFF7FEFF 		bl	bn256_sub
 340              	.LVL38:
 341              		.loc 1 125 0
 342 00be 10AA     		add	r2, sp, #64
ARM GAS  /tmp/cciilhez.s 			page 7


 343              	.L20:
 344              		.loc 1 130 0
 345 00c0 08A9     		add	r1, sp, #32
 346 00c2 0846     		mov	r0, r1
 347 00c4 FFF7FEFF 		bl	modp256r1_mul
 348              	.LVL39:
 349              		.loc 1 133 0
 350 00c8 6946     		mov	r1, sp
 351 00ca 4846     		mov	r0, r9
 352 00cc FFF7FEFF 		bl	bn256_cmp
 353              	.LVL40:
 354 00d0 09F12007 		add	r7, r9, #32
 355 00d4 70B9     		cbnz	r0, .L14
 356              		.loc 1 133 0 is_stmt 0 discriminator 1
 357 00d6 08A9     		add	r1, sp, #32
 358 00d8 3846     		mov	r0, r7
 359 00da FFF7FEFF 		bl	bn256_cmp
 360              	.LVL41:
 361 00de 48B9     		cbnz	r0, .L14
 362              		.loc 1 135 0 is_stmt 1
 363 00e0 4946     		mov	r1, r9
 364 00e2 2046     		mov	r0, r4
 365 00e4 FFF7FEFF 		bl	jpc_double_p256r1
 366              	.LVL42:
 367              		.loc 1 136 0
 368 00e8 BEE7     		b	.L4
 369              	.L12:
 370              		.loc 1 129 0
 371 00ea 20A8     		add	r0, sp, #128
 372 00ec FFF7FEFF 		bl	bn256_sub
 373              	.LVL43:
 374              		.loc 1 130 0
 375 00f0 3A46     		mov	r2, r7
 376 00f2 E5E7     		b	.L20
 377              	.L14:
 378              		.loc 1 150 0
 379 00f4 6D46     		mov	r5, sp
 380              		.loc 1 139 0
 381 00f6 4A46     		mov	r2, r9
 382 00f8 6946     		mov	r1, sp
 383 00fa 10A8     		add	r0, sp, #64
 384 00fc FFF7FEFF 		bl	modp256r1_sub
 385              	.LVL44:
 386              		.loc 1 140 0
 387 0100 3A46     		mov	r2, r7
 388 0102 08A9     		add	r1, sp, #32
 389 0104 18A8     		add	r0, sp, #96
 390 0106 FFF7FEFF 		bl	modp256r1_sub
 391              	.LVL45:
 392              		.loc 1 142 0
 393 010a 10AA     		add	r2, sp, #64
 394 010c 5946     		mov	r1, fp
 395 010e 04F14000 		add	r0, r4, #64
 396 0112 FFF7FEFF 		bl	modp256r1_mul
 397              	.LVL46:
 398              		.loc 1 144 0
 399 0116 10A9     		add	r1, sp, #64
ARM GAS  /tmp/cciilhez.s 			page 8


 400 0118 6846     		mov	r0, sp
 401 011a FFF7FEFF 		bl	modp256r1_sqr
 402              	.LVL47:
 403              		.loc 1 145 0
 404 011e 10AA     		add	r2, sp, #64
 405 0120 6946     		mov	r1, sp
 406 0122 08A8     		add	r0, sp, #32
 407 0124 FFF7FEFF 		bl	modp256r1_mul
 408              	.LVL48:
 409              		.loc 1 147 0
 410 0128 6A46     		mov	r2, sp
 411 012a 4946     		mov	r1, r9
 412 012c 10A8     		add	r0, sp, #64
 413 012e FFF7FEFF 		bl	modp256r1_mul
 414              	.LVL49:
 415              		.loc 1 150 0
 416 0132 10AE     		add	r6, sp, #64
 417              		.loc 1 149 0
 418 0134 18A9     		add	r1, sp, #96
 419 0136 2046     		mov	r0, r4
 420 0138 FFF7FEFF 		bl	modp256r1_sqr
 421              	.LVL50:
 422              		.loc 1 150 0
 423 013c 0FCE     		ldmia	r6!, {r0, r1, r2, r3}
 424 013e 0FC5     		stmia	r5!, {r0, r1, r2, r3}
 425 0140 96E80F00 		ldm	r6, {r0, r1, r2, r3}
 426 0144 85E80F00 		stm	r5, {r0, r1, r2, r3}
 427              		.loc 1 151 0
 428 0148 10A9     		add	r1, sp, #64
 429 014a 0846     		mov	r0, r1
 430 014c 0122     		movs	r2, #1
 431 014e FFF7FEFF 		bl	modp256r1_shift
 432              	.LVL51:
 433              		.loc 1 152 0
 434 0152 10A9     		add	r1, sp, #64
 435 0154 08AA     		add	r2, sp, #32
 436 0156 0846     		mov	r0, r1
 437 0158 FFF7FEFF 		bl	modp256r1_add
 438              	.LVL52:
 439              		.loc 1 153 0
 440 015c 10AA     		add	r2, sp, #64
 441 015e 2146     		mov	r1, r4
 442 0160 2046     		mov	r0, r4
 443 0162 FFF7FEFF 		bl	modp256r1_sub
 444              	.LVL53:
 445              		.loc 1 155 0
 446 0166 2246     		mov	r2, r4
 447 0168 6946     		mov	r1, sp
 448 016a 10A8     		add	r0, sp, #64
 449 016c FFF7FEFF 		bl	modp256r1_sub
 450              	.LVL54:
 451              		.loc 1 156 0
 452 0170 10A9     		add	r1, sp, #64
 453 0172 18AA     		add	r2, sp, #96
 454 0174 0846     		mov	r0, r1
 455 0176 FFF7FEFF 		bl	modp256r1_mul
 456              	.LVL55:
ARM GAS  /tmp/cciilhez.s 			page 9


 457              		.loc 1 157 0
 458 017a 08AA     		add	r2, sp, #32
 459 017c 3946     		mov	r1, r7
 460 017e 6846     		mov	r0, sp
 461 0180 FFF7FEFF 		bl	modp256r1_mul
 462              	.LVL56:
 463              		.loc 1 158 0
 464 0184 6A46     		mov	r2, sp
 465 0186 10A9     		add	r1, sp, #64
 466 0188 04F12000 		add	r0, r4, #32
 467 018c FFF7FEFF 		bl	modp256r1_sub
 468              	.LVL57:
 469 0190 6AE7     		b	.L4
 470              	.L22:
 471 0192 00BF     		.align	2
 472              	.L21:
 473 0194 00000000 		.word	p256r1
 474              		.cfi_endproc
 475              	.LFE1:
 476              		.size	jpc_add_ac_signed_p256r1, .-jpc_add_ac_signed_p256r1
 477              		.section	.text.jpc_add_ac_p256r1,"ax",%progbits
 478              		.align	1
 479              		.global	jpc_add_ac_p256r1
 480              		.syntax unified
 481              		.thumb
 482              		.thumb_func
 483              		.fpu softvfp
 484              		.type	jpc_add_ac_p256r1, %function
 485              	jpc_add_ac_p256r1:
 486              	.LFB2:
 487              		.loc 1 170 0
 488              		.cfi_startproc
 489              		@ args = 0, pretend = 0, frame = 0
 490              		@ frame_needed = 0, uses_anonymous_args = 0
 491              		@ link register save eliminated.
 492              	.LVL58:
 493              		.loc 1 171 0
 494 0000 0023     		movs	r3, #0
 495 0002 FFF7FEBF 		b	jpc_add_ac_signed_p256r1
 496              	.LVL59:
 497              		.cfi_endproc
 498              	.LFE2:
 499              		.size	jpc_add_ac_p256r1, .-jpc_add_ac_p256r1
 500              		.section	.text.jpc_to_ac_p256r1,"ax",%progbits
 501              		.align	1
 502              		.global	jpc_to_ac_p256r1
 503              		.syntax unified
 504              		.thumb
 505              		.thumb_func
 506              		.fpu softvfp
 507              		.type	jpc_to_ac_p256r1, %function
 508              	jpc_to_ac_p256r1:
 509              	.LFB3:
 510              		.loc 1 185 0
 511              		.cfi_startproc
 512              		@ args = 0, pretend = 0, frame = 64
 513              		@ frame_needed = 0, uses_anonymous_args = 0
ARM GAS  /tmp/cciilhez.s 			page 10


 514              	.LVL60:
 515 0000 F0B5     		push	{r4, r5, r6, r7, lr}
 516              		.cfi_def_cfa_offset 20
 517              		.cfi_offset 4, -20
 518              		.cfi_offset 5, -16
 519              		.cfi_offset 6, -12
 520              		.cfi_offset 7, -8
 521              		.cfi_offset 14, -4
 522              		.loc 1 188 0
 523 0002 01F14007 		add	r7, r1, #64
 524              		.loc 1 185 0
 525 0006 91B0     		sub	sp, sp, #68
 526              		.cfi_def_cfa_offset 88
 527              		.loc 1 185 0
 528 0008 0646     		mov	r6, r0
 529              		.loc 1 188 0
 530 000a 3846     		mov	r0, r7
 531              	.LVL61:
 532              		.loc 1 185 0
 533 000c 0D46     		mov	r5, r1
 534              		.loc 1 188 0
 535 000e FFF7FEFF 		bl	bn256_is_zero
 536              	.LVL62:
 537 0012 0446     		mov	r4, r0
 538 0014 E0B9     		cbnz	r0, .L26
 539              		.loc 1 191 0
 540 0016 104A     		ldr	r2, .L27
 541 0018 3946     		mov	r1, r7
 542 001a 6846     		mov	r0, sp
 543 001c FFF7FEFF 		bl	mod_inv
 544              	.LVL63:
 545              		.loc 1 193 0
 546 0020 6946     		mov	r1, sp
 547 0022 08A8     		add	r0, sp, #32
 548 0024 FFF7FEFF 		bl	modp256r1_sqr
 549              	.LVL64:
 550              		.loc 1 194 0
 551 0028 08AA     		add	r2, sp, #32
 552 002a 6946     		mov	r1, sp
 553 002c 6846     		mov	r0, sp
 554 002e FFF7FEFF 		bl	modp256r1_mul
 555              	.LVL65:
 556              		.loc 1 196 0
 557 0032 08AA     		add	r2, sp, #32
 558 0034 2946     		mov	r1, r5
 559 0036 3046     		mov	r0, r6
 560 0038 FFF7FEFF 		bl	modp256r1_mul
 561              	.LVL66:
 562              		.loc 1 197 0
 563 003c 6A46     		mov	r2, sp
 564 003e 05F12001 		add	r1, r5, #32
 565 0042 06F12000 		add	r0, r6, #32
 566 0046 FFF7FEFF 		bl	modp256r1_mul
 567              	.LVL67:
 568              	.L24:
 569              		.loc 1 199 0
 570 004a 2046     		mov	r0, r4
ARM GAS  /tmp/cciilhez.s 			page 11


 571 004c 11B0     		add	sp, sp, #68
 572              		.cfi_remember_state
 573              		.cfi_def_cfa_offset 20
 574              		@ sp needed
 575 004e F0BD     		pop	{r4, r5, r6, r7, pc}
 576              	.LVL68:
 577              	.L26:
 578              		.cfi_restore_state
 579              		.loc 1 189 0
 580 0050 4FF0FF34 		mov	r4, #-1
 581 0054 F9E7     		b	.L24
 582              	.L28:
 583 0056 00BF     		.align	2
 584              	.L27:
 585 0058 00000000 		.word	p256r1
 586              		.cfi_endproc
 587              	.LFE3:
 588              		.size	jpc_to_ac_p256r1, .-jpc_to_ac_p256r1
 589              		.text
 590              	.Letext0:
 591              		.file 2 "/usr/arm-none-eabi/include/machine/_default_types.h"
 592              		.file 3 "/usr/arm-none-eabi/include/sys/_stdint.h"
 593              		.file 4 "/usr/arm-none-eabi/include/sys/lock.h"
 594              		.file 5 "/usr/arm-none-eabi/include/sys/_types.h"
 595              		.file 6 "/usr/lib/gcc/arm-none-eabi/7.3.1/include/stddef.h"
 596              		.file 7 "/usr/arm-none-eabi/include/sys/reent.h"
 597              		.file 8 "bn.h"
 598              		.file 9 "modp256r1.h"
 599              		.file 10 "affine.h"
 600              		.file 11 "jpc-ac_p256r1.h"
 601              		.file 12 "mod.h"
 602              		.file 13 "<built-in>"