ARM GAS  /tmp/ccFrTm8K.s 			page 1


   1              		.cpu cortex-m3
   2              		.eabi_attribute 20, 1
   3              		.eabi_attribute 21, 1
   4              		.eabi_attribute 23, 3
   5              		.eabi_attribute 24, 1
   6              		.eabi_attribute 25, 1
   7              		.eabi_attribute 26, 1
   8              		.eabi_attribute 30, 4
   9              		.eabi_attribute 34, 1
  10              		.eabi_attribute 18, 4
  11              		.file	"modp256r1.c"
  12              		.text
  13              	.Ltext0:
  14              		.cfi_sections	.debug_frame
  15              		.section	.text.modp256r1_add,"ax",%progbits
  16              		.align	1
  17              		.global	modp256r1_add
  18              		.syntax unified
  19              		.thumb
  20              		.thumb_func
  21              		.fpu softvfp
  22              		.type	modp256r1_add, %function
  23              	modp256r1_add:
  24              	.LFB0:
  25              		.file 1 "modp256r1.c"
  26              		.loc 1 66 0
  27              		.cfi_startproc
  28              		@ args = 0, pretend = 0, frame = 32
  29              		@ frame_needed = 0, uses_anonymous_args = 0
  30              	.LVL0:
  31 0000 30B5     		push	{r4, r5, lr}
  32              		.cfi_def_cfa_offset 12
  33              		.cfi_offset 4, -12
  34              		.cfi_offset 5, -8
  35              		.cfi_offset 14, -4
  36 0002 89B0     		sub	sp, sp, #36
  37              		.cfi_def_cfa_offset 48
  38              		.loc 1 66 0
  39 0004 0446     		mov	r4, r0
  40              		.loc 1 70 0
  41 0006 FFF7FEFF 		bl	bn256_add
  42              	.LVL1:
  43              		.loc 1 71 0
  44 000a 0C4A     		ldr	r2, .L5
  45              		.loc 1 70 0
  46 000c B0FA80F5 		clz	r5, r0
  47              		.loc 1 71 0
  48 0010 2146     		mov	r1, r4
  49 0012 6846     		mov	r0, sp
  50 0014 FFF7FEFF 		bl	bn256_sub
  51              	.LVL2:
  52              		.loc 1 70 0
  53 0018 6D09     		lsrs	r5, r5, #5
  54              	.LVL3:
  55              		.loc 1 72 0
  56 001a 0542     		tst	r5, r0
  57 001c 0BD1     		bne	.L1
ARM GAS  /tmp/ccFrTm8K.s 			page 2


  58              		.loc 1 76 0
  59 001e 6A46     		mov	r2, sp
  60 0020 2346     		mov	r3, r4
  61 0022 08AD     		add	r5, sp, #32
  62              	.LVL4:
  63              	.L3:
  64 0024 1446     		mov	r4, r2
  65 0026 03CC     		ldmia	r4!, {r0, r1}
  66 0028 AC42     		cmp	r4, r5
  67 002a 1860     		str	r0, [r3]	@ unaligned
  68 002c 5960     		str	r1, [r3, #4]	@ unaligned
  69 002e 2246     		mov	r2, r4
  70 0030 03F10803 		add	r3, r3, #8
  71 0034 F6D1     		bne	.L3
  72              	.L1:
  73              		.loc 1 77 0
  74 0036 09B0     		add	sp, sp, #36
  75              		.cfi_def_cfa_offset 12
  76              		@ sp needed
  77 0038 30BD     		pop	{r4, r5, pc}
  78              	.L6:
  79 003a 00BF     		.align	2
  80              	.L5:
  81 003c 00000000 		.word	.LANCHOR0
  82              		.cfi_endproc
  83              	.LFE0:
  84              		.size	modp256r1_add, .-modp256r1_add
  85              		.section	.text.modp256r1_sub,"ax",%progbits
  86              		.align	1
  87              		.global	modp256r1_sub
  88              		.syntax unified
  89              		.thumb
  90              		.thumb_func
  91              		.fpu softvfp
  92              		.type	modp256r1_sub, %function
  93              	modp256r1_sub:
  94              	.LFB1:
  95              		.loc 1 84 0
  96              		.cfi_startproc
  97              		@ args = 0, pretend = 0, frame = 32
  98              		@ frame_needed = 0, uses_anonymous_args = 0
  99              	.LVL5:
 100 0000 30B5     		push	{r4, r5, lr}
 101              		.cfi_def_cfa_offset 12
 102              		.cfi_offset 4, -12
 103              		.cfi_offset 5, -8
 104              		.cfi_offset 14, -4
 105 0002 89B0     		sub	sp, sp, #36
 106              		.cfi_def_cfa_offset 48
 107              		.loc 1 84 0
 108 0004 0446     		mov	r4, r0
 109              		.loc 1 88 0
 110 0006 FFF7FEFF 		bl	bn256_sub
 111              	.LVL6:
 112 000a 0546     		mov	r5, r0
 113              	.LVL7:
 114              		.loc 1 89 0
ARM GAS  /tmp/ccFrTm8K.s 			page 3


 115 000c 094A     		ldr	r2, .L14
 116 000e 2146     		mov	r1, r4
 117 0010 6846     		mov	r0, sp
 118              	.LVL8:
 119 0012 FFF7FEFF 		bl	bn256_add
 120              	.LVL9:
 121              		.loc 1 90 0
 122 0016 5DB1     		cbz	r5, .L7
 123              		.loc 1 91 0
 124 0018 6A46     		mov	r2, sp
 125 001a 2346     		mov	r3, r4
 126 001c 08AD     		add	r5, sp, #32
 127              	.LVL10:
 128              	.L9:
 129 001e 1446     		mov	r4, r2
 130 0020 03CC     		ldmia	r4!, {r0, r1}
 131 0022 AC42     		cmp	r4, r5
 132 0024 1860     		str	r0, [r3]	@ unaligned
 133 0026 5960     		str	r1, [r3, #4]	@ unaligned
 134 0028 2246     		mov	r2, r4
 135 002a 03F10803 		add	r3, r3, #8
 136 002e F6D1     		bne	.L9
 137              	.L7:
 138              		.loc 1 94 0
 139 0030 09B0     		add	sp, sp, #36
 140              		.cfi_def_cfa_offset 12
 141              		@ sp needed
 142 0032 30BD     		pop	{r4, r5, pc}
 143              	.L15:
 144              		.align	2
 145              	.L14:
 146 0034 00000000 		.word	.LANCHOR0
 147              		.cfi_endproc
 148              	.LFE1:
 149              		.size	modp256r1_sub, .-modp256r1_sub
 150              		.section	.text.modp256r1_reduce,"ax",%progbits
 151              		.align	1
 152              		.global	modp256r1_reduce
 153              		.syntax unified
 154              		.thumb
 155              		.thumb_func
 156              		.fpu softvfp
 157              		.type	modp256r1_reduce, %function
 158              	modp256r1_reduce:
 159              	.LFB2:
 160              		.loc 1 101 0
 161              		.cfi_startproc
 162              		@ args = 0, pretend = 0, frame = 64
 163              		@ frame_needed = 0, uses_anonymous_args = 0
 164              	.LVL11:
 165              		.loc 1 115 0
 166 0000 CB69     		ldr	r3, [r1, #28]
 167              		.loc 1 101 0
 168 0002 2DE9F041 		push	{r4, r5, r6, r7, r8, lr}
 169              		.cfi_def_cfa_offset 24
 170              		.cfi_offset 4, -24
 171              		.cfi_offset 5, -20
ARM GAS  /tmp/ccFrTm8K.s 			page 4


 172              		.cfi_offset 6, -16
 173              		.cfi_offset 7, -12
 174              		.cfi_offset 8, -8
 175              		.cfi_offset 14, -4
 176              		.loc 1 115 0
 177 0006 C361     		str	r3, [r0, #28]
 178              		.loc 1 116 0
 179 0008 8B69     		ldr	r3, [r1, #24]
 180              		.loc 1 101 0
 181 000a 90B0     		sub	sp, sp, #64
 182              		.cfi_def_cfa_offset 88
 183              		.loc 1 116 0
 184 000c 8361     		str	r3, [r0, #24]
 185              		.loc 1 117 0
 186 000e 4B69     		ldr	r3, [r1, #20]
 187              		.loc 1 123 0
 188 0010 0DF12008 		add	r8, sp, #32
 189              		.loc 1 117 0
 190 0014 4361     		str	r3, [r0, #20]
 191              		.loc 1 118 0
 192 0016 0B69     		ldr	r3, [r1, #16]
 193              		.loc 1 101 0
 194 0018 0546     		mov	r5, r0
 195              		.loc 1 118 0
 196 001a 0361     		str	r3, [r0, #16]
 197              		.loc 1 119 0
 198 001c CB68     		ldr	r3, [r1, #12]
 199              		.loc 1 101 0
 200 001e 0C46     		mov	r4, r1
 201              		.loc 1 119 0
 202 0020 C360     		str	r3, [r0, #12]
 203              		.loc 1 120 0
 204 0022 8B68     		ldr	r3, [r1, #8]
 205              		.loc 1 123 0
 206 0024 7B4A     		ldr	r2, .L26
 207              		.loc 1 120 0
 208 0026 8360     		str	r3, [r0, #8]
 209              		.loc 1 121 0
 210 0028 4B68     		ldr	r3, [r1, #4]
 211 002a 4360     		str	r3, [r0, #4]
 212              		.loc 1 122 0
 213 002c 0B68     		ldr	r3, [r1]
 214              		.loc 1 123 0
 215 002e 0146     		mov	r1, r0
 216              	.LVL12:
 217              		.loc 1 122 0
 218 0030 0360     		str	r3, [r0]
 219              		.loc 1 123 0
 220 0032 4046     		mov	r0, r8
 221              	.LVL13:
 222 0034 FFF7FEFF 		bl	bn256_sub
 223              	.LVL14:
 224              		.loc 1 124 0
 225 0038 58B9     		cbnz	r0, .L17
 226              		.loc 1 127 0
 227 003a 4646     		mov	r6, r8
 228 003c 2A46     		mov	r2, r5
ARM GAS  /tmp/ccFrTm8K.s 			page 5


 229 003e 10AF     		add	r7, sp, #64
 230              	.LVL15:
 231              	.L18:
 232 0040 3346     		mov	r3, r6
 233 0042 03CB     		ldmia	r3!, {r0, r1}
 234 0044 BB42     		cmp	r3, r7
 235 0046 1060     		str	r0, [r2]	@ unaligned
 236 0048 5160     		str	r1, [r2, #4]	@ unaligned
 237 004a 1E46     		mov	r6, r3
 238 004c 02F10802 		add	r2, r2, #8
 239 0050 F6D1     		bne	.L18
 240              	.L17:
 241              		.loc 1 135 0
 242 0052 0026     		movs	r6, #0
 243              		.loc 1 130 0
 244 0054 E36B     		ldr	r3, [r4, #60]
 245              		.loc 1 137 0
 246 0056 6A46     		mov	r2, sp
 247              		.loc 1 130 0
 248 0058 0793     		str	r3, [sp, #28]
 249              		.loc 1 131 0
 250 005a A36B     		ldr	r3, [r4, #56]
 251              		.loc 1 137 0
 252 005c 2946     		mov	r1, r5
 253              		.loc 1 131 0
 254 005e 0693     		str	r3, [sp, #24]
 255              		.loc 1 132 0
 256 0060 636B     		ldr	r3, [r4, #52]
 257              		.loc 1 137 0
 258 0062 2846     		mov	r0, r5
 259              		.loc 1 132 0
 260 0064 0593     		str	r3, [sp, #20]
 261              		.loc 1 133 0
 262 0066 236B     		ldr	r3, [r4, #48]
 263              		.loc 1 135 0
 264 0068 CDE90066 		strd	r6, r6, [sp]
 265              		.loc 1 133 0
 266 006c 0493     		str	r3, [sp, #16]
 267              		.loc 1 134 0
 268 006e E36A     		ldr	r3, [r4, #44]
 269              		.loc 1 135 0
 270 0070 0296     		str	r6, [sp, #8]
 271              		.loc 1 134 0
 272 0072 0393     		str	r3, [sp, #12]
 273              		.loc 1 137 0
 274 0074 FFF7FEFF 		bl	modp256r1_add
 275              	.LVL16:
 276              		.loc 1 138 0
 277 0078 6A46     		mov	r2, sp
 278 007a 2946     		mov	r1, r5
 279 007c 2846     		mov	r0, r5
 280 007e FFF7FEFF 		bl	modp256r1_add
 281              	.LVL17:
 282              		.loc 1 141 0
 283 0082 E36B     		ldr	r3, [r4, #60]
 284              		.loc 1 147 0
 285 0084 6A46     		mov	r2, sp
ARM GAS  /tmp/ccFrTm8K.s 			page 6


 286              		.loc 1 141 0
 287 0086 0693     		str	r3, [sp, #24]
 288              		.loc 1 142 0
 289 0088 A36B     		ldr	r3, [r4, #56]
 290              		.loc 1 147 0
 291 008a 2946     		mov	r1, r5
 292              		.loc 1 142 0
 293 008c 0593     		str	r3, [sp, #20]
 294              		.loc 1 143 0
 295 008e 636B     		ldr	r3, [r4, #52]
 296              		.loc 1 147 0
 297 0090 2846     		mov	r0, r5
 298              		.loc 1 143 0
 299 0092 0493     		str	r3, [sp, #16]
 300              		.loc 1 144 0
 301 0094 236B     		ldr	r3, [r4, #48]
 302              		.loc 1 140 0
 303 0096 0796     		str	r6, [sp, #28]
 304              		.loc 1 144 0
 305 0098 0393     		str	r3, [sp, #12]
 306              		.loc 1 145 0
 307 009a CDE90066 		strd	r6, r6, [sp]
 308 009e 0296     		str	r6, [sp, #8]
 309              		.loc 1 147 0
 310 00a0 FFF7FEFF 		bl	modp256r1_add
 311              	.LVL18:
 312              		.loc 1 148 0
 313 00a4 6A46     		mov	r2, sp
 314 00a6 2946     		mov	r1, r5
 315 00a8 2846     		mov	r0, r5
 316 00aa FFF7FEFF 		bl	modp256r1_add
 317              	.LVL19:
 318              		.loc 1 150 0
 319 00ae E36B     		ldr	r3, [r4, #60]
 320              		.loc 1 157 0
 321 00b0 6A46     		mov	r2, sp
 322              		.loc 1 150 0
 323 00b2 0793     		str	r3, [sp, #28]
 324              		.loc 1 151 0
 325 00b4 A36B     		ldr	r3, [r4, #56]
 326              		.loc 1 157 0
 327 00b6 2946     		mov	r1, r5
 328              		.loc 1 151 0
 329 00b8 0693     		str	r3, [sp, #24]
 330              		.loc 1 153 0
 331 00ba A36A     		ldr	r3, [r4, #40]
 332              		.loc 1 157 0
 333 00bc 2846     		mov	r0, r5
 334              		.loc 1 153 0
 335 00be 0293     		str	r3, [sp, #8]
 336              		.loc 1 154 0
 337 00c0 636A     		ldr	r3, [r4, #36]
 338              		.loc 1 152 0
 339 00c2 CDE90366 		strd	r6, r6, [sp, #12]
 340              		.loc 1 154 0
 341 00c6 0193     		str	r3, [sp, #4]
 342              		.loc 1 155 0
ARM GAS  /tmp/ccFrTm8K.s 			page 7


 343 00c8 236A     		ldr	r3, [r4, #32]
 344              		.loc 1 152 0
 345 00ca 0596     		str	r6, [sp, #20]
 346              		.loc 1 155 0
 347 00cc 0093     		str	r3, [sp]
 348              		.loc 1 157 0
 349 00ce FFF7FEFF 		bl	modp256r1_add
 350              	.LVL20:
 351              		.loc 1 159 0
 352 00d2 236A     		ldr	r3, [r4, #32]
 353              		.loc 1 161 0
 354 00d4 E26B     		ldr	r2, [r4, #60]
 355              		.loc 1 159 0
 356 00d6 0793     		str	r3, [sp, #28]
 357              		.loc 1 161 0
 358 00d8 0592     		str	r2, [sp, #20]
 359              		.loc 1 160 0
 360 00da 636B     		ldr	r3, [r4, #52]
 361              		.loc 1 162 0
 362 00dc A26B     		ldr	r2, [r4, #56]
 363              		.loc 1 160 0
 364 00de 0693     		str	r3, [sp, #24]
 365              		.loc 1 163 0
 366 00e0 CDE90332 		strd	r3, r2, [sp, #12]
 367              		.loc 1 164 0
 368 00e4 E36A     		ldr	r3, [r4, #44]
 369              		.loc 1 167 0
 370 00e6 4B4A     		ldr	r2, .L26
 371              		.loc 1 164 0
 372 00e8 0293     		str	r3, [sp, #8]
 373              		.loc 1 165 0
 374 00ea A36A     		ldr	r3, [r4, #40]
 375              		.loc 1 167 0
 376 00ec 6946     		mov	r1, sp
 377              		.loc 1 165 0
 378 00ee 0193     		str	r3, [sp, #4]
 379              		.loc 1 166 0
 380 00f0 636A     		ldr	r3, [r4, #36]
 381              		.loc 1 167 0
 382 00f2 4046     		mov	r0, r8
 383              		.loc 1 166 0
 384 00f4 0093     		str	r3, [sp]
 385              		.loc 1 167 0
 386 00f6 FFF7FEFF 		bl	bn256_sub
 387              	.LVL21:
 388              		.loc 1 168 0
 389 00fa 38B9     		cbnz	r0, .L19
 390              		.loc 1 171 0
 391 00fc 6E46     		mov	r6, sp
 392 00fe 4746     		mov	r7, r8
 393 0100 0FCF     		ldmia	r7!, {r0, r1, r2, r3}
 394              	.LVL22:
 395 0102 0FC6     		stmia	r6!, {r0, r1, r2, r3}
 396 0104 97E80F00 		ldm	r7, {r0, r1, r2, r3}
 397 0108 86E80F00 		stm	r6, {r0, r1, r2, r3}
 398              	.L19:
 399              		.loc 1 173 0
ARM GAS  /tmp/ccFrTm8K.s 			page 8


 400 010c 6A46     		mov	r2, sp
 401 010e 2946     		mov	r1, r5
 402 0110 2846     		mov	r0, r5
 403 0112 FFF7FEFF 		bl	modp256r1_add
 404              	.LVL23:
 405              		.loc 1 175 0
 406 0116 A36A     		ldr	r3, [r4, #40]
 407              		.loc 1 181 0
 408 0118 3E4A     		ldr	r2, .L26
 409              		.loc 1 175 0
 410 011a 0793     		str	r3, [sp, #28]
 411              		.loc 1 176 0
 412 011c 236A     		ldr	r3, [r4, #32]
 413              		.loc 1 181 0
 414 011e 6946     		mov	r1, sp
 415              		.loc 1 176 0
 416 0120 0693     		str	r3, [sp, #24]
 417              		.loc 1 177 0
 418 0122 0023     		movs	r3, #0
 419 0124 CDE90333 		strd	r3, r3, [sp, #12]
 420 0128 0593     		str	r3, [sp, #20]
 421              		.loc 1 178 0
 422 012a 636B     		ldr	r3, [r4, #52]
 423              		.loc 1 181 0
 424 012c 4046     		mov	r0, r8
 425              		.loc 1 178 0
 426 012e 0293     		str	r3, [sp, #8]
 427              		.loc 1 179 0
 428 0130 236B     		ldr	r3, [r4, #48]
 429 0132 0193     		str	r3, [sp, #4]
 430              		.loc 1 180 0
 431 0134 E36A     		ldr	r3, [r4, #44]
 432 0136 0093     		str	r3, [sp]
 433              		.loc 1 181 0
 434 0138 FFF7FEFF 		bl	bn256_sub
 435              	.LVL24:
 436              		.loc 1 182 0
 437 013c 38B9     		cbnz	r0, .L20
 438              		.loc 1 185 0
 439 013e 6E46     		mov	r6, sp
 440 0140 4746     		mov	r7, r8
 441 0142 0FCF     		ldmia	r7!, {r0, r1, r2, r3}
 442              	.LVL25:
 443 0144 0FC6     		stmia	r6!, {r0, r1, r2, r3}
 444 0146 97E80F00 		ldm	r7, {r0, r1, r2, r3}
 445 014a 86E80F00 		stm	r6, {r0, r1, r2, r3}
 446              	.L20:
 447              		.loc 1 187 0
 448 014e 6A46     		mov	r2, sp
 449 0150 2946     		mov	r1, r5
 450 0152 2846     		mov	r0, r5
 451 0154 FFF7FEFF 		bl	modp256r1_sub
 452              	.LVL26:
 453              		.loc 1 189 0
 454 0158 E36A     		ldr	r3, [r4, #44]
 455              		.loc 1 196 0
 456 015a 2E4A     		ldr	r2, .L26
ARM GAS  /tmp/ccFrTm8K.s 			page 9


 457              		.loc 1 189 0
 458 015c 0793     		str	r3, [sp, #28]
 459              		.loc 1 190 0
 460 015e 636A     		ldr	r3, [r4, #36]
 461              		.loc 1 196 0
 462 0160 6946     		mov	r1, sp
 463              		.loc 1 190 0
 464 0162 0693     		str	r3, [sp, #24]
 465              		.loc 1 191 0
 466 0164 0023     		movs	r3, #0
 467 0166 CDE90433 		strd	r3, r3, [sp, #16]
 468              		.loc 1 192 0
 469 016a E36B     		ldr	r3, [r4, #60]
 470              		.loc 1 196 0
 471 016c 4046     		mov	r0, r8
 472              		.loc 1 192 0
 473 016e 0393     		str	r3, [sp, #12]
 474              		.loc 1 193 0
 475 0170 A36B     		ldr	r3, [r4, #56]
 476 0172 0293     		str	r3, [sp, #8]
 477              		.loc 1 194 0
 478 0174 636B     		ldr	r3, [r4, #52]
 479 0176 0193     		str	r3, [sp, #4]
 480              		.loc 1 195 0
 481 0178 236B     		ldr	r3, [r4, #48]
 482 017a 0093     		str	r3, [sp]
 483              		.loc 1 196 0
 484 017c FFF7FEFF 		bl	bn256_sub
 485              	.LVL27:
 486              		.loc 1 197 0
 487 0180 38B9     		cbnz	r0, .L21
 488              		.loc 1 200 0
 489 0182 6E46     		mov	r6, sp
 490 0184 4746     		mov	r7, r8
 491 0186 0FCF     		ldmia	r7!, {r0, r1, r2, r3}
 492              	.LVL28:
 493 0188 0FC6     		stmia	r6!, {r0, r1, r2, r3}
 494 018a 97E80F00 		ldm	r7, {r0, r1, r2, r3}
 495 018e 86E80F00 		stm	r6, {r0, r1, r2, r3}
 496              	.L21:
 497              		.loc 1 205 0
 498 0192 0026     		movs	r6, #0
 499              		.loc 1 202 0
 500 0194 6A46     		mov	r2, sp
 501 0196 2946     		mov	r1, r5
 502 0198 2846     		mov	r0, r5
 503 019a FFF7FEFF 		bl	modp256r1_sub
 504              	.LVL29:
 505              		.loc 1 204 0
 506 019e 236B     		ldr	r3, [r4, #48]
 507              		.loc 1 213 0
 508 01a0 6A46     		mov	r2, sp
 509              		.loc 1 204 0
 510 01a2 0793     		str	r3, [sp, #28]
 511              		.loc 1 206 0
 512 01a4 A36A     		ldr	r3, [r4, #40]
 513              		.loc 1 213 0
ARM GAS  /tmp/ccFrTm8K.s 			page 10


 514 01a6 2946     		mov	r1, r5
 515              		.loc 1 206 0
 516 01a8 0593     		str	r3, [sp, #20]
 517              		.loc 1 207 0
 518 01aa 636A     		ldr	r3, [r4, #36]
 519              		.loc 1 213 0
 520 01ac 2846     		mov	r0, r5
 521              		.loc 1 207 0
 522 01ae 0493     		str	r3, [sp, #16]
 523              		.loc 1 208 0
 524 01b0 236A     		ldr	r3, [r4, #32]
 525              		.loc 1 205 0
 526 01b2 0696     		str	r6, [sp, #24]
 527              		.loc 1 208 0
 528 01b4 0393     		str	r3, [sp, #12]
 529              		.loc 1 209 0
 530 01b6 E36B     		ldr	r3, [r4, #60]
 531 01b8 0293     		str	r3, [sp, #8]
 532              		.loc 1 210 0
 533 01ba A36B     		ldr	r3, [r4, #56]
 534 01bc 0193     		str	r3, [sp, #4]
 535              		.loc 1 211 0
 536 01be 636B     		ldr	r3, [r4, #52]
 537 01c0 0093     		str	r3, [sp]
 538              		.loc 1 213 0
 539 01c2 FFF7FEFF 		bl	modp256r1_sub
 540              	.LVL30:
 541              		.loc 1 215 0
 542 01c6 636B     		ldr	r3, [r4, #52]
 543              		.loc 1 224 0
 544 01c8 6A46     		mov	r2, sp
 545              		.loc 1 216 0
 546 01ca CDE90663 		strd	r6, r3, [sp, #24]
 547              		.loc 1 217 0
 548 01ce E36A     		ldr	r3, [r4, #44]
 549              		.loc 1 224 0
 550 01d0 2946     		mov	r1, r5
 551              		.loc 1 217 0
 552 01d2 0593     		str	r3, [sp, #20]
 553              		.loc 1 218 0
 554 01d4 A36A     		ldr	r3, [r4, #40]
 555              		.loc 1 224 0
 556 01d6 2846     		mov	r0, r5
 557              		.loc 1 218 0
 558 01d8 0493     		str	r3, [sp, #16]
 559              		.loc 1 219 0
 560 01da 636A     		ldr	r3, [r4, #36]
 561              		.loc 1 220 0
 562 01dc CDE90263 		strd	r6, r3, [sp, #8]
 563              		.loc 1 221 0
 564 01e0 E36B     		ldr	r3, [r4, #60]
 565 01e2 0193     		str	r3, [sp, #4]
 566              		.loc 1 222 0
 567 01e4 A36B     		ldr	r3, [r4, #56]
 568 01e6 0093     		str	r3, [sp]
 569              		.loc 1 224 0
 570 01e8 FFF7FEFF 		bl	modp256r1_sub
ARM GAS  /tmp/ccFrTm8K.s 			page 11


 571              	.LVL31:
 572              		.loc 1 226 0
 573 01ec 094A     		ldr	r2, .L26
 574 01ee 2946     		mov	r1, r5
 575 01f0 6846     		mov	r0, sp
 576 01f2 FFF7FEFF 		bl	bn256_sub
 577              	.LVL32:
 578              		.loc 1 227 0
 579 01f6 48B9     		cbnz	r0, .L16
 580              		.loc 1 230 0
 581 01f8 6B46     		mov	r3, sp
 582              	.LVL33:
 583              	.L23:
 584 01fa 1A46     		mov	r2, r3
 585 01fc 03CA     		ldmia	r2!, {r0, r1}
 586 01fe 4245     		cmp	r2, r8
 587 0200 2860     		str	r0, [r5]	@ unaligned
 588 0202 6960     		str	r1, [r5, #4]	@ unaligned
 589 0204 1346     		mov	r3, r2
 590 0206 05F10805 		add	r5, r5, #8
 591 020a F6D1     		bne	.L23
 592              	.L16:
 593              		.loc 1 241 0
 594 020c 10B0     		add	sp, sp, #64
 595              		.cfi_def_cfa_offset 24
 596              		@ sp needed
 597 020e BDE8F081 		pop	{r4, r5, r6, r7, r8, pc}
 598              	.LVL34:
 599              	.L27:
 600 0212 00BF     		.align	2
 601              	.L26:
 602 0214 00000000 		.word	.LANCHOR0
 603              		.cfi_endproc
 604              	.LFE2:
 605              		.size	modp256r1_reduce, .-modp256r1_reduce
 606              		.section	.text.modp256r1_mul,"ax",%progbits
 607              		.align	1
 608              		.global	modp256r1_mul
 609              		.syntax unified
 610              		.thumb
 611              		.thumb_func
 612              		.fpu softvfp
 613              		.type	modp256r1_mul, %function
 614              	modp256r1_mul:
 615              	.LFB3:
 616              		.loc 1 248 0
 617              		.cfi_startproc
 618              		@ args = 0, pretend = 0, frame = 64
 619              		@ frame_needed = 0, uses_anonymous_args = 0
 620              	.LVL35:
 621 0000 10B5     		push	{r4, lr}
 622              		.cfi_def_cfa_offset 8
 623              		.cfi_offset 4, -8
 624              		.cfi_offset 14, -4
 625 0002 0446     		mov	r4, r0
 626 0004 90B0     		sub	sp, sp, #64
 627              		.cfi_def_cfa_offset 72
ARM GAS  /tmp/ccFrTm8K.s 			page 12


 628              		.loc 1 251 0
 629 0006 6846     		mov	r0, sp
 630              	.LVL36:
 631 0008 FFF7FEFF 		bl	bn256_mul
 632              	.LVL37:
 633              		.loc 1 252 0
 634 000c 6946     		mov	r1, sp
 635 000e 2046     		mov	r0, r4
 636 0010 FFF7FEFF 		bl	modp256r1_reduce
 637              	.LVL38:
 638              		.loc 1 253 0
 639 0014 10B0     		add	sp, sp, #64
 640              		.cfi_def_cfa_offset 8
 641              		@ sp needed
 642 0016 10BD     		pop	{r4, pc}
 643              		.cfi_endproc
 644              	.LFE3:
 645              		.size	modp256r1_mul, .-modp256r1_mul
 646              		.section	.text.modp256r1_sqr,"ax",%progbits
 647              		.align	1
 648              		.global	modp256r1_sqr
 649              		.syntax unified
 650              		.thumb
 651              		.thumb_func
 652              		.fpu softvfp
 653              		.type	modp256r1_sqr, %function
 654              	modp256r1_sqr:
 655              	.LFB4:
 656              		.loc 1 260 0
 657              		.cfi_startproc
 658              		@ args = 0, pretend = 0, frame = 64
 659              		@ frame_needed = 0, uses_anonymous_args = 0
 660              	.LVL39:
 661 0000 10B5     		push	{r4, lr}
 662              		.cfi_def_cfa_offset 8
 663              		.cfi_offset 4, -8
 664              		.cfi_offset 14, -4
 665 0002 0446     		mov	r4, r0
 666 0004 90B0     		sub	sp, sp, #64
 667              		.cfi_def_cfa_offset 72
 668              		.loc 1 263 0
 669 0006 6846     		mov	r0, sp
 670              	.LVL40:
 671 0008 FFF7FEFF 		bl	bn256_sqr
 672              	.LVL41:
 673              		.loc 1 264 0
 674 000c 6946     		mov	r1, sp
 675 000e 2046     		mov	r0, r4
 676 0010 FFF7FEFF 		bl	modp256r1_reduce
 677              	.LVL42:
 678              		.loc 1 265 0
 679 0014 10B0     		add	sp, sp, #64
 680              		.cfi_def_cfa_offset 8
 681              		@ sp needed
 682 0016 10BD     		pop	{r4, pc}
 683              		.cfi_endproc
 684              	.LFE4:
ARM GAS  /tmp/ccFrTm8K.s 			page 13


 685              		.size	modp256r1_sqr, .-modp256r1_sqr
 686              		.section	.text.modp256r1_shift,"ax",%progbits
 687              		.align	1
 688              		.global	modp256r1_shift
 689              		.syntax unified
 690              		.thumb
 691              		.thumb_func
 692              		.fpu softvfp
 693              		.type	modp256r1_shift, %function
 694              	modp256r1_shift:
 695              	.LFB5:
 696              		.loc 1 274 0
 697              		.cfi_startproc
 698              		@ args = 0, pretend = 0, frame = 32
 699              		@ frame_needed = 0, uses_anonymous_args = 0
 700              	.LVL43:
 701 0000 70B5     		push	{r4, r5, r6, lr}
 702              		.cfi_def_cfa_offset 16
 703              		.cfi_offset 4, -16
 704              		.cfi_offset 5, -12
 705              		.cfi_offset 6, -8
 706              		.cfi_offset 14, -4
 707 0002 1646     		mov	r6, r2
 708 0004 88B0     		sub	sp, sp, #32
 709              		.cfi_def_cfa_offset 48
 710              		.loc 1 274 0
 711 0006 0446     		mov	r4, r0
 712              		.loc 1 279 0
 713 0008 FFF7FEFF 		bl	bn256_shift
 714              	.LVL44:
 715              		.loc 1 280 0
 716 000c 002E     		cmp	r6, #0
 717              		.loc 1 279 0
 718 000e 0546     		mov	r5, r0
 719              	.LVL45:
 720              		.loc 1 280 0
 721 0010 26DB     		blt	.L30
 722              		.loc 1 283 0
 723 0012 1822     		movs	r2, #24
 724 0014 0021     		movs	r1, #0
 725 0016 01A8     		add	r0, sp, #4
 726              	.LVL46:
 727 0018 FFF7FEFF 		bl	memset
 728              	.LVL47:
 729              		.loc 1 286 0
 730 001c 6A46     		mov	r2, sp
 731 001e 2146     		mov	r1, r4
 732 0020 2046     		mov	r0, r4
 733              		.loc 1 284 0
 734 0022 0795     		str	r5, [sp, #28]
 735              		.loc 1 285 0
 736 0024 0095     		str	r5, [sp]
 737              		.loc 1 286 0
 738 0026 FFF7FEFF 		bl	modp256r1_add
 739              	.LVL48:
 740              		.loc 1 288 0
 741 002a 0023     		movs	r3, #0
ARM GAS  /tmp/ccFrTm8K.s 			page 14


 742              		.loc 1 292 0
 743 002c 6A46     		mov	r2, sp
 744 002e 2146     		mov	r1, r4
 745 0030 2046     		mov	r0, r4
 746              		.loc 1 288 0
 747 0032 0793     		str	r3, [sp, #28]
 748              		.loc 1 289 0
 749 0034 0093     		str	r3, [sp]
 750              		.loc 1 290 0
 751 0036 0695     		str	r5, [sp, #24]
 752              		.loc 1 291 0
 753 0038 0395     		str	r5, [sp, #12]
 754              		.loc 1 292 0
 755 003a FFF7FEFF 		bl	modp256r1_sub
 756              	.LVL49:
 757              		.loc 1 294 0
 758 003e 094A     		ldr	r2, .L34
 759 0040 2146     		mov	r1, r4
 760 0042 6846     		mov	r0, sp
 761 0044 FFF7FEFF 		bl	bn256_sub
 762              	.LVL50:
 763              		.loc 1 295 0
 764 0048 50B9     		cbnz	r0, .L30
 765              		.loc 1 298 0
 766 004a 6B46     		mov	r3, sp
 767 004c 08AD     		add	r5, sp, #32
 768              	.LVL51:
 769              	.L32:
 770 004e 1A46     		mov	r2, r3
 771 0050 03CA     		ldmia	r2!, {r0, r1}
 772 0052 AA42     		cmp	r2, r5
 773 0054 2060     		str	r0, [r4]	@ unaligned
 774 0056 6160     		str	r1, [r4, #4]	@ unaligned
 775 0058 1346     		mov	r3, r2
 776 005a 04F10804 		add	r4, r4, #8
 777 005e F6D1     		bne	.L32
 778              	.L30:
 779              		.loc 1 300 0
 780 0060 08B0     		add	sp, sp, #32
 781              		.cfi_def_cfa_offset 16
 782              		@ sp needed
 783 0062 70BD     		pop	{r4, r5, r6, pc}
 784              	.LVL52:
 785              	.L35:
 786              		.align	2
 787              	.L34:
 788 0064 00000000 		.word	.LANCHOR0
 789              		.cfi_endproc
 790              	.LFE5:
 791              		.size	modp256r1_shift, .-modp256r1_shift
 792              		.global	p256r1
 793              		.section	.rodata.p256r1,"a",%progbits
 794              		.align	2
 795              		.set	.LANCHOR0,. + 0
 796              		.type	p256r1, %object
 797              		.size	p256r1, 32
 798              	p256r1:
ARM GAS  /tmp/ccFrTm8K.s 			page 15


 799 0000 FFFFFFFF 		.word	-1
 800 0004 FFFFFFFF 		.word	-1
 801 0008 FFFFFFFF 		.word	-1
 802 000c 00000000 		.word	0
 803 0010 00000000 		.word	0
 804 0014 00000000 		.word	0
 805 0018 01000000 		.word	1
 806 001c FFFFFFFF 		.word	-1
 807              		.text
 808              	.Letext0:
 809              		.file 2 "/usr/arm-none-eabi/include/machine/_default_types.h"
 810              		.file 3 "/usr/arm-none-eabi/include/sys/_stdint.h"
 811              		.file 4 "/usr/arm-none-eabi/include/sys/lock.h"
 812              		.file 5 "/usr/arm-none-eabi/include/sys/_types.h"
 813              		.file 6 "/usr/lib/gcc/arm-none-eabi/7.3.1/include/stddef.h"
 814              		.file 7 "/usr/arm-none-eabi/include/sys/reent.h"
 815              		.file 8 "bn.h"
 816              		.file 9 "modp256r1.h"
 817              		.file 10 "<built-in>"