ARM GAS  /tmp/cc9QhaO4.s 			page 1


   1              		.cpu cortex-m3
   2              		.eabi_attribute 20, 1
   3              		.eabi_attribute 21, 1
   4              		.eabi_attribute 23, 3
   5              		.eabi_attribute 24, 1
   6              		.eabi_attribute 25, 1
   7              		.eabi_attribute 26, 1
   8              		.eabi_attribute 30, 4
   9              		.eabi_attribute 34, 1
  10              		.eabi_attribute 18, 4
  11              		.file	"neug.c"
  12              		.text
  13              	.Ltext0:
  14              		.cfi_sections	.debug_frame
  15              		.section	.text.noise_source_error,"ax",%progbits
  16              		.align	1
  17              		.syntax unified
  18              		.thumb
  19              		.thumb_func
  20              		.fpu softvfp
  21              		.type	noise_source_error, %function
  22              	noise_source_error:
  23              	.LFB23:
  24              		.file 1 "neug.c"
  25              		.loc 1 403 0
  26              		.cfi_startproc
  27              		@ args = 0, pretend = 0, frame = 0
  28              		@ frame_needed = 0, uses_anonymous_args = 0
  29              		@ link register save eliminated.
  30              	.LVL0:
  31              		.loc 1 404 0
  32 0000 0E4A     		ldr	r2, .L14
  33              		.loc 1 407 0
  34 0002 C107     		lsls	r1, r0, #31
  35              		.loc 1 404 0
  36 0004 1378     		ldrb	r3, [r2]	@ zero_extendqisi2
  37 0006 43EA0003 		orr	r3, r3, r0
  38 000a 1370     		strb	r3, [r2]
  39              		.loc 1 405 0
  40 000c 0C4A     		ldr	r2, .L14+4
  41 000e 1388     		ldrh	r3, [r2]
  42 0010 03F10103 		add	r3, r3, #1
  43 0014 1380     		strh	r3, [r2]	@ movhi
  44              		.loc 1 408 0
  45 0016 41BF     		itttt	mi
  46 0018 0A4A     		ldrmi	r2, .L14+8
  47 001a 1388     		ldrhmi	r3, [r2]
  48 001c 0133     		addmi	r3, r3, #1
  49 001e 1380     		strhmi	r3, [r2]	@ movhi
  50              		.loc 1 409 0
  51 0020 8207     		lsls	r2, r0, #30
  52              		.loc 1 410 0
  53 0022 41BF     		itttt	mi
  54 0024 084A     		ldrmi	r2, .L14+12
  55 0026 1388     		ldrhmi	r3, [r2]
  56 0028 0133     		addmi	r3, r3, #1
  57 002a 1380     		strhmi	r3, [r2]	@ movhi
ARM GAS  /tmp/cc9QhaO4.s 			page 2


  58              		.loc 1 411 0
  59 002c 4307     		lsls	r3, r0, #29
  60              	.LVL1:
  61              	.LBB70:
  62              	.LBB71:
  63              		.loc 1 412 0
  64 002e 41BF     		itttt	mi
  65 0030 064A     		ldrmi	r2, .L14+16
  66 0032 1388     		ldrhmi	r3, [r2]
  67 0034 0133     		addmi	r3, r3, #1
  68 0036 1380     		strhmi	r3, [r2]	@ movhi
  69              	.LBE71:
  70              	.LBE70:
  71              		.loc 1 413 0
  72 0038 7047     		bx	lr
  73              	.L15:
  74 003a 00BF     		.align	2
  75              	.L14:
  76 003c 00000000 		.word	.LANCHOR0
  77 0040 00000000 		.word	.LANCHOR1
  78 0044 00000000 		.word	.LANCHOR2
  79 0048 00000000 		.word	.LANCHOR3
  80 004c 00000000 		.word	.LANCHOR4
  81              		.cfi_endproc
  82              	.LFE23:
  83              		.size	noise_source_error, .-noise_source_error
  84              		.section	.text.noise_source_continuous_test,"ax",%progbits
  85              		.align	1
  86              		.syntax unified
  87              		.thumb
  88              		.thumb_func
  89              		.fpu softvfp
  90              		.type	noise_source_continuous_test, %function
  91              	noise_source_continuous_test:
  92              	.LFB30:
  93              		.loc 1 610 0
  94              		.cfi_startproc
  95              		@ args = 0, pretend = 0, frame = 0
  96              		@ frame_needed = 0, uses_anonymous_args = 0
  97              	.LVL2:
  98 0000 38B5     		push	{r3, r4, r5, lr}
  99              		.cfi_def_cfa_offset 16
 100              		.cfi_offset 3, -16
 101              		.cfi_offset 4, -12
 102              		.cfi_offset 5, -8
 103              		.cfi_offset 14, -4
 104              	.LBB78:
 105              	.LBB79:
 106              		.loc 1 434 0
 107 0002 2E4A     		ldr	r2, .L30
 108              	.LBE79:
 109              	.LBE78:
 110              		.loc 1 610 0
 111 0004 0546     		mov	r5, r0
 112              	.LBB82:
 113              	.LBB80:
 114              		.loc 1 434 0
ARM GAS  /tmp/cc9QhaO4.s 			page 3


 115 0006 1378     		ldrb	r3, [r2]	@ zero_extendqisi2
 116 0008 8342     		cmp	r3, r0
 117 000a 2D4B     		ldr	r3, .L30+4
 118 000c 2AD1     		bne	.L17
 119              		.loc 1 436 0
 120 000e 1C78     		ldrb	r4, [r3]	@ zero_extendqisi2
 121 0010 0134     		adds	r4, r4, #1
 122 0012 E4B2     		uxtb	r4, r4
 123              		.loc 1 437 0
 124 0014 082C     		cmp	r4, #8
 125              		.loc 1 436 0
 126 0016 1C70     		strb	r4, [r3]
 127              		.loc 1 437 0
 128 0018 02D9     		bls	.L18
 129              		.loc 1 438 0
 130 001a 0120     		movs	r0, #1
 131              	.LVL3:
 132 001c FFF7FEFF 		bl	noise_source_error
 133              	.LVL4:
 134              	.L18:
 135              		.loc 1 439 0
 136 0020 284B     		ldr	r3, .L30+8
 137 0022 A4B2     		uxth	r4, r4
 138 0024 1A88     		ldrh	r2, [r3]
 139 0026 A242     		cmp	r2, r4
 140 0028 00D2     		bcs	.L19
 141              		.loc 1 440 0
 142 002a 1C80     		strh	r4, [r3]	@ movhi
 143              	.L19:
 144              	.LVL5:
 145              	.LBE80:
 146              	.LBE82:
 147              	.LBB83:
 148              	.LBB84:
 149              		.loc 1 500 0
 150 002c 264B     		ldr	r3, .L30+12
 151 002e 1A78     		ldrb	r2, [r3]	@ zero_extendqisi2
 152 0030 511C     		adds	r1, r2, #1
 153 0032 3F2A     		cmp	r2, #63
 154 0034 1970     		strb	r1, [r3]
 155 0036 254A     		ldr	r2, .L30+16
 156 0038 18D9     		bls	.L20
 157              		.loc 1 502 0
 158 003a 1570     		strb	r5, [r2]
 159              		.loc 1 503 0
 160 003c 0122     		movs	r2, #1
 161 003e 1A70     		strb	r2, [r3]
 162              		.loc 1 504 0
 163 0040 0022     		movs	r2, #0
 164 0042 234B     		ldr	r3, .L30+20
 165 0044 1A70     		strb	r2, [r3]
 166              	.L21:
 167              	.LVL6:
 168              	.LBE84:
 169              	.LBE83:
 170              	.LBB86:
 171              	.LBB87:
ARM GAS  /tmp/cc9QhaO4.s 			page 4


 172              		.loc 1 559 0
 173 0046 234B     		ldr	r3, .L30+24
 174 0048 1A88     		ldrh	r2, [r3]
 175 004a 511C     		adds	r1, r2, #1
 176 004c B2F5805F 		cmp	r2, #4096
 177 0050 1980     		strh	r1, [r3]	@ movhi
 178 0052 214A     		ldr	r2, .L30+28
 179 0054 1ED3     		bcc	.L25
 180              		.loc 1 561 0
 181 0056 1570     		strb	r5, [r2]
 182              		.loc 1 562 0
 183 0058 0122     		movs	r2, #1
 184 005a 1A80     		strh	r2, [r3]	@ movhi
 185              		.loc 1 563 0
 186 005c 0022     		movs	r2, #0
 187 005e 1F4B     		ldr	r3, .L30+32
 188 0060 1A80     		strh	r2, [r3]	@ movhi
 189              	.LVL7:
 190              	.L16:
 191              	.LBE87:
 192              	.LBE86:
 193              		.loc 1 614 0
 194 0062 38BD     		pop	{r3, r4, r5, pc}
 195              	.LVL8:
 196              	.L17:
 197              	.LBB89:
 198              	.LBB81:
 199              		.loc 1 444 0
 200 0064 1070     		strb	r0, [r2]
 201              		.loc 1 445 0
 202 0066 0122     		movs	r2, #1
 203 0068 1A70     		strb	r2, [r3]
 204 006a DFE7     		b	.L19
 205              	.LVL9:
 206              	.L20:
 207              	.LBE81:
 208              	.LBE89:
 209              	.LBB90:
 210              	.LBB85:
 211              		.loc 1 507 0
 212 006c 1378     		ldrb	r3, [r2]	@ zero_extendqisi2
 213 006e AB42     		cmp	r3, r5
 214 0070 E9D1     		bne	.L21
 215              		.loc 1 509 0
 216 0072 174B     		ldr	r3, .L30+20
 217 0074 1C78     		ldrb	r4, [r3]	@ zero_extendqisi2
 218 0076 0134     		adds	r4, r4, #1
 219 0078 E4B2     		uxtb	r4, r4
 220              		.loc 1 510 0
 221 007a 122C     		cmp	r4, #18
 222              		.loc 1 509 0
 223 007c 1C70     		strb	r4, [r3]
 224              		.loc 1 510 0
 225 007e 02D9     		bls	.L23
 226              		.loc 1 511 0
 227 0080 0220     		movs	r0, #2
 228 0082 FFF7FEFF 		bl	noise_source_error
ARM GAS  /tmp/cc9QhaO4.s 			page 5


 229              	.LVL10:
 230              	.L23:
 231              		.loc 1 512 0
 232 0086 164B     		ldr	r3, .L30+36
 233 0088 A4B2     		uxth	r4, r4
 234 008a 1A88     		ldrh	r2, [r3]
 235 008c A242     		cmp	r2, r4
 236              		.loc 1 513 0
 237 008e 38BF     		it	cc
 238 0090 1C80     		strhcc	r4, [r3]	@ movhi
 239 0092 D8E7     		b	.L21
 240              	.LVL11:
 241              	.L25:
 242              	.LBE85:
 243              	.LBE90:
 244              	.LBB91:
 245              	.LBB88:
 246              		.loc 1 566 0
 247 0094 1378     		ldrb	r3, [r2]	@ zero_extendqisi2
 248 0096 AB42     		cmp	r3, r5
 249 0098 E3D1     		bne	.L16
 250              		.loc 1 568 0
 251 009a 104B     		ldr	r3, .L30+32
 252 009c 1C88     		ldrh	r4, [r3]
 253 009e 0134     		adds	r4, r4, #1
 254 00a0 A4B2     		uxth	r4, r4
 255              		.loc 1 569 0
 256 00a2 B4F59E7F 		cmp	r4, #316
 257              		.loc 1 568 0
 258 00a6 1C80     		strh	r4, [r3]	@ movhi
 259              		.loc 1 569 0
 260 00a8 02D3     		bcc	.L28
 261              		.loc 1 570 0
 262 00aa 0420     		movs	r0, #4
 263 00ac FFF7FEFF 		bl	noise_source_error
 264              	.LVL12:
 265              	.L28:
 266              		.loc 1 571 0
 267 00b0 0C4B     		ldr	r3, .L30+40
 268 00b2 1A88     		ldrh	r2, [r3]
 269 00b4 A242     		cmp	r2, r4
 270              		.loc 1 572 0
 271 00b6 38BF     		it	cc
 272 00b8 1C80     		strhcc	r4, [r3]	@ movhi
 273              	.LVL13:
 274              	.LBE88:
 275              	.LBE91:
 276              		.loc 1 614 0
 277 00ba D2E7     		b	.L16
 278              	.L31:
 279              		.align	2
 280              	.L30:
 281 00bc 00000000 		.word	.LANCHOR5
 282 00c0 00000000 		.word	.LANCHOR6
 283 00c4 00000000 		.word	.LANCHOR7
 284 00c8 00000000 		.word	.LANCHOR8
 285 00cc 00000000 		.word	.LANCHOR9
ARM GAS  /tmp/cc9QhaO4.s 			page 6


 286 00d0 00000000 		.word	.LANCHOR10
 287 00d4 00000000 		.word	.LANCHOR12
 288 00d8 00000000 		.word	.LANCHOR13
 289 00dc 00000000 		.word	.LANCHOR14
 290 00e0 00000000 		.word	.LANCHOR11
 291 00e4 00000000 		.word	.LANCHOR15
 292              		.cfi_endproc
 293              	.LFE30:
 294              		.size	noise_source_continuous_test, .-noise_source_continuous_test
 295              		.section	.text.ep_init,"ax",%progbits
 296              		.align	1
 297              		.syntax unified
 298              		.thumb
 299              		.thumb_func
 300              		.fpu softvfp
 301              		.type	ep_init, %function
 302              	ep_init:
 303              	.LFB17:
 304              		.loc 1 230 0
 305              		.cfi_startproc
 306              		@ args = 0, pretend = 0, frame = 0
 307              		@ frame_needed = 0, uses_anonymous_args = 0
 308              	.LVL14:
 309              		.loc 1 231 0
 310 0000 0128     		cmp	r0, #1
 311              		.loc 1 230 0
 312 0002 10B5     		push	{r4, lr}
 313              		.cfi_def_cfa_offset 8
 314              		.cfi_offset 4, -8
 315              		.cfi_offset 14, -4
 316 0004 134B     		ldr	r3, .L37
 317              		.loc 1 231 0
 318 0006 07D1     		bne	.L33
 319              	.LVL15:
 320              	.LBB98:
 321              	.LBB99:
 322              		.loc 1 233 0
 323 0008 0322     		movs	r2, #3
 324              		.loc 1 234 0
 325 000a 2021     		movs	r1, #32
 326              		.loc 1 233 0
 327 000c 1A70     		strb	r2, [r3]
 328              	.LVL16:
 329              	.L36:
 330              	.LBE99:
 331              	.LBE98:
 332              		.loc 1 239 0
 333 000e 0020     		movs	r0, #0
 334              	.LVL17:
 335              	.L35:
 336              		.loc 1 247 0
 337 0010 BDE81040 		pop	{r4, lr}
 338              		.cfi_remember_state
 339              		.cfi_restore 14
 340              		.cfi_restore 4
 341              		.cfi_def_cfa_offset 0
 342              		.loc 1 245 0
ARM GAS  /tmp/cc9QhaO4.s 			page 7


 343 0014 FFF7FEBF 		b	adc_start_conversion
 344              	.LVL18:
 345              	.L33:
 346              		.cfi_restore_state
 347              		.loc 1 236 0
 348 0018 0228     		cmp	r0, #2
 349 001a 03D1     		bne	.L34
 350              		.loc 1 238 0
 351 001c 0422     		movs	r2, #4
 352              		.loc 1 239 0
 353 001e 0821     		movs	r1, #8
 354              		.loc 1 238 0
 355 0020 1A70     		strb	r2, [r3]
 356 0022 F4E7     		b	.L36
 357              	.L34:
 358              		.loc 1 243 0
 359 0024 0022     		movs	r2, #0
 360 0026 1A70     		strb	r2, [r3]
 361              	.LBB100:
 362              	.LBB101:
 363              	.LBB102:
 364              	.LBB103:
 365              		.loc 1 136 0
 366 0028 0B4B     		ldr	r3, .L37+4
 367 002a 1C68     		ldr	r4, [r3]
 368              	.LVL19:
 369              	.LBE103:
 370              	.LBE102:
 371              		.loc 1 221 0
 372 002c C4F30720 		ubfx	r0, r4, #8, #8
 373              	.LVL20:
 374 0030 FFF7FEFF 		bl	noise_source_continuous_test
 375              	.LVL21:
 376              		.loc 1 222 0
 377 0034 C4F30740 		ubfx	r0, r4, #16, #8
 378 0038 FFF7FEFF 		bl	noise_source_continuous_test
 379              	.LVL22:
 380              		.loc 1 223 0
 381 003c 200E     		lsrs	r0, r4, #24
 382 003e FFF7FEFF 		bl	noise_source_continuous_test
 383              	.LVL23:
 384              		.loc 1 225 0
 385 0042 064B     		ldr	r3, .L37+8
 386 0044 064A     		ldr	r2, .L37+12
 387              		.loc 1 226 0
 388 0046 24F0FF04 		bic	r4, r4, #255
 389              	.LVL24:
 390              		.loc 1 225 0
 391 004a 1A60     		str	r2, [r3]
 392              		.loc 1 226 0
 393 004c 5C60     		str	r4, [r3, #4]
 394              	.LBE101:
 395              	.LBE100:
 396              		.loc 1 245 0
 397 004e 3821     		movs	r1, #56
 398 0050 0220     		movs	r0, #2
 399 0052 DDE7     		b	.L35
ARM GAS  /tmp/cc9QhaO4.s 			page 8


 400              	.L38:
 401              		.align	2
 402              	.L37:
 403 0054 00000000 		.word	.LANCHOR16
 404 0058 00300240 		.word	1073885184
 405 005c 00000000 		.word	adc_buf
 406 0060 01000001 		.word	16777217
 407              		.cfi_endproc
 408              	.LFE17:
 409              		.size	ep_init, .-ep_init
 410              		.section	.text.rb_del.constprop.2,"ax",%progbits
 411              		.align	1
 412              		.syntax unified
 413              		.thumb
 414              		.thumb_func
 415              		.fpu softvfp
 416              		.type	rb_del.constprop.2, %function
 417              	rb_del.constprop.2:
 418              	.LFB49:
 419              		.loc 1 660 0
 420              		.cfi_startproc
 421              		@ args = 0, pretend = 0, frame = 0
 422              		@ frame_needed = 0, uses_anonymous_args = 0
 423              		@ link register save eliminated.
 424              	.LVL25:
 425              		.loc 1 662 0
 426 0000 114B     		ldr	r3, .L42
 427 0002 93F82410 		ldrb	r1, [r3, #36]	@ zero_extendqisi2
 428 0006 1868     		ldr	r0, [r3]
 429 0008 4A1C     		adds	r2, r1, #1
 430 000a D2B2     		uxtb	r2, r2
 431 000c 83F82420 		strb	r2, [r3, #36]
 432 0010 50F82100 		ldr	r0, [r0, r1, lsl #2]
 433              	.LVL26:
 434              		.loc 1 664 0
 435 0014 93F82610 		ldrb	r1, [r3, #38]	@ zero_extendqisi2
 436 0018 9142     		cmp	r1, r2
 437              		.loc 1 665 0
 438 001a 04BF     		itt	eq
 439 001c 0022     		moveq	r2, #0
 440 001e 83F82420 		strbeq	r2, [r3, #36]
 441              		.loc 1 666 0
 442 0022 93F82410 		ldrb	r1, [r3, #36]	@ zero_extendqisi2
 443 0026 93F82520 		ldrb	r2, [r3, #37]	@ zero_extendqisi2
 444 002a 9142     		cmp	r1, r2
 445              		.loc 1 667 0
 446 002c 02BF     		ittt	eq
 447 002e 93F82720 		ldrbeq	r2, [r3, #39]	@ zero_extendqisi2
 448 0032 42F00202 		orreq	r2, r2, #2
 449 0036 83F82720 		strbeq	r2, [r3, #39]
 450              		.loc 1 668 0
 451 003a 93F82720 		ldrb	r2, [r3, #39]	@ zero_extendqisi2
 452 003e 6FF30002 		bfc	r2, #0, #1
 453 0042 83F82720 		strb	r2, [r3, #39]
 454              		.loc 1 671 0
 455 0046 7047     		bx	lr
 456              	.L43:
ARM GAS  /tmp/cc9QhaO4.s 			page 9


 457              		.align	2
 458              	.L42:
 459 0048 00000000 		.word	.LANCHOR17
 460              		.cfi_endproc
 461              	.LFE49:
 462              		.size	rb_del.constprop.2, .-rb_del.constprop.2
 463              		.section	.text.ep_fill_wbuf_v.constprop.4,"ax",%progbits
 464              		.align	1
 465              		.syntax unified
 466              		.thumb
 467              		.thumb_func
 468              		.fpu softvfp
 469              		.type	ep_fill_wbuf_v.constprop.4, %function
 470              	ep_fill_wbuf_v.constprop.4:
 471              	.LFB47:
 472              		.loc 1 250 0
 473              		.cfi_startproc
 474              		@ args = 0, pretend = 0, frame = 0
 475              		@ frame_needed = 0, uses_anonymous_args = 0
 476              	.LVL27:
 477 0000 2DE9F047 		push	{r4, r5, r6, r7, r8, r9, r10, lr}
 478              		.cfi_def_cfa_offset 32
 479              		.cfi_offset 4, -32
 480              		.cfi_offset 5, -28
 481              		.cfi_offset 6, -24
 482              		.cfi_offset 7, -20
 483              		.cfi_offset 8, -16
 484              		.cfi_offset 9, -12
 485              		.cfi_offset 10, -8
 486              		.cfi_offset 14, -4
 487              	.LBB113:
 488              	.LBB114:
 489              	.LBB115:
 490              	.LBB116:
 491              		.loc 1 452 0
 492 0004 504A     		ldr	r2, .L75
 493              	.LBE116:
 494              	.LBE115:
 495              	.LBE114:
 496              		.loc 1 259 0
 497 0006 CCB2     		uxtb	r4, r1
 498              	.LBB151:
 499              	.LBB123:
 500              	.LBB117:
 501              		.loc 1 452 0
 502 0008 1378     		ldrb	r3, [r2]	@ zero_extendqisi2
 503              	.LBE117:
 504              	.LBE123:
 505              	.LBE151:
 506              		.loc 1 256 0
 507 000a 4FEA1168 		lsr	r8, r1, #24
 508              	.LVL28:
 509              	.LBB152:
 510              	.LBB124:
 511              	.LBB118:
 512              		.loc 1 452 0
 513 000e A342     		cmp	r3, r4
ARM GAS  /tmp/cc9QhaO4.s 			page 10


 514              	.LBE118:
 515              	.LBE124:
 516              	.LBE152:
 517              		.loc 1 257 0
 518 0010 C1F30749 		ubfx	r9, r1, #16, #8
 519              	.LVL29:
 520              		.loc 1 258 0
 521 0014 C1F3072A 		ubfx	r10, r1, #8, #8
 522              	.LVL30:
 523              	.LBE113:
 524              		.loc 1 250 0
 525 0018 0D46     		mov	r5, r1
 526              	.LBB157:
 527              	.LBB153:
 528              	.LBB125:
 529              	.LBB119:
 530              		.loc 1 457 0
 531 001a 18BF     		it	ne
 532 001c 0121     		movne	r1, #1
 533              	.LVL31:
 534 001e 4B4B     		ldr	r3, .L75+4
 535              		.loc 1 456 0
 536 0020 14BF     		ite	ne
 537 0022 1470     		strbne	r4, [r2]
 538              		.loc 1 453 0
 539 0024 1978     		ldrbeq	r1, [r3]	@ zero_extendqisi2
 540              	.LBE119:
 541              	.LBE125:
 542              	.LBE153:
 543              	.LBE157:
 544              		.loc 1 250 0
 545 0026 0746     		mov	r7, r0
 546              	.LBB158:
 547              	.LBB154:
 548              	.LBB126:
 549              	.LBB120:
 550              		.loc 1 453 0
 551 0028 08BF     		it	eq
 552 002a 0131     		addeq	r1, r1, #1
 553              		.loc 1 457 0
 554 002c 1970     		strb	r1, [r3]
 555              		.loc 1 460 0
 556 002e 1178     		ldrb	r1, [r2]	@ zero_extendqisi2
 557 0030 5145     		cmp	r1, r10
 558              		.loc 1 465 0
 559 0032 15BF     		itete	ne
 560 0034 0121     		movne	r1, #1
 561              		.loc 1 461 0
 562 0036 1978     		ldrbeq	r1, [r3]	@ zero_extendqisi2
 563              		.loc 1 464 0
 564 0038 82F800A0 		strbne	r10, [r2]
 565              		.loc 1 461 0
 566 003c 0131     		addeq	r1, r1, #1
 567              		.loc 1 465 0
 568 003e 1970     		strb	r1, [r3]
 569              		.loc 1 468 0
 570 0040 1178     		ldrb	r1, [r2]	@ zero_extendqisi2
ARM GAS  /tmp/cc9QhaO4.s 			page 11


 571 0042 4945     		cmp	r1, r9
 572              		.loc 1 473 0
 573 0044 15BF     		itete	ne
 574 0046 0121     		movne	r1, #1
 575              		.loc 1 469 0
 576 0048 1978     		ldrbeq	r1, [r3]	@ zero_extendqisi2
 577              		.loc 1 472 0
 578 004a 82F80090 		strbne	r9, [r2]
 579              		.loc 1 469 0
 580 004e 0131     		addeq	r1, r1, #1
 581              		.loc 1 473 0
 582 0050 1970     		strb	r1, [r3]
 583              		.loc 1 476 0
 584 0052 1178     		ldrb	r1, [r2]	@ zero_extendqisi2
 585 0054 4145     		cmp	r1, r8
 586              		.loc 1 480 0
 587 0056 19BF     		ittee	ne
 588 0058 82F80080 		strbne	r8, [r2]
 589              		.loc 1 481 0
 590 005c 0122     		movne	r2, #1
 591              		.loc 1 477 0
 592 005e 1A78     		ldrbeq	r2, [r3]	@ zero_extendqisi2
 593 0060 0132     		addeq	r2, r2, #1
 594              		.loc 1 481 0
 595 0062 1A70     		strb	r2, [r3]
 596              		.loc 1 484 0
 597 0064 1E78     		ldrb	r6, [r3]	@ zero_extendqisi2
 598 0066 082E     		cmp	r6, #8
 599 0068 02D9     		bls	.L53
 600              		.loc 1 485 0
 601 006a 0120     		movs	r0, #1
 602              	.LVL32:
 603 006c FFF7FEFF 		bl	noise_source_error
 604              	.LVL33:
 605              	.L53:
 606              		.loc 1 486 0
 607 0070 374B     		ldr	r3, .L75+8
 608              	.LBE120:
 609              	.LBE126:
 610              	.LBB127:
 611              	.LBB128:
 612              		.loc 1 520 0
 613 0072 3849     		ldr	r1, .L75+12
 614              	.LBE128:
 615              	.LBE127:
 616              	.LBB134:
 617              	.LBB121:
 618              		.loc 1 486 0
 619 0074 1A88     		ldrh	r2, [r3]
 620 0076 B6B2     		uxth	r6, r6
 621 0078 B242     		cmp	r2, r6
 622              	.LBE121:
 623              	.LBE134:
 624              	.LBB135:
 625              	.LBB129:
 626              		.loc 1 520 0
 627 007a 0A78     		ldrb	r2, [r1]	@ zero_extendqisi2
ARM GAS  /tmp/cc9QhaO4.s 			page 12


 628              	.LBE129:
 629              	.LBE135:
 630              	.LBB136:
 631              	.LBB122:
 632              		.loc 1 487 0
 633 007c 38BF     		it	cc
 634 007e 1E80     		strhcc	r6, [r3]	@ movhi
 635              	.LVL34:
 636              	.LBE122:
 637              	.LBE136:
 638              	.LBB137:
 639              	.LBB130:
 640              		.loc 1 520 0
 641 0080 3F2A     		cmp	r2, #63
 642 0082 3548     		ldr	r0, .L75+16
 643 0084 354B     		ldr	r3, .L75+20
 644 0086 4ED9     		bls	.L55
 645              		.loc 1 523 0
 646 0088 0422     		movs	r2, #4
 647 008a 0A70     		strb	r2, [r1]
 648              		.loc 1 524 0
 649 008c 0022     		movs	r2, #0
 650              		.loc 1 522 0
 651 008e 0470     		strb	r4, [r0]
 652              	.L73:
 653              		.loc 1 531 0
 654 0090 1A70     		strb	r2, [r3]
 655              	.L56:
 656              		.loc 1 534 0
 657 0092 0278     		ldrb	r2, [r0]	@ zero_extendqisi2
 658 0094 9245     		cmp	r10, r2
 659              		.loc 1 535 0
 660 0096 02BF     		ittt	eq
 661 0098 1978     		ldrbeq	r1, [r3]	@ zero_extendqisi2
 662 009a 0131     		addeq	r1, r1, #1
 663 009c 1970     		strbeq	r1, [r3]
 664              		.loc 1 537 0
 665 009e 9145     		cmp	r9, r2
 666              		.loc 1 538 0
 667 00a0 02BF     		ittt	eq
 668 00a2 1978     		ldrbeq	r1, [r3]	@ zero_extendqisi2
 669 00a4 0131     		addeq	r1, r1, #1
 670 00a6 1970     		strbeq	r1, [r3]
 671              		.loc 1 540 0
 672 00a8 9045     		cmp	r8, r2
 673              		.loc 1 541 0
 674 00aa 02BF     		ittt	eq
 675 00ac 1A78     		ldrbeq	r2, [r3]	@ zero_extendqisi2
 676 00ae 0132     		addeq	r2, r2, #1
 677 00b0 1A70     		strbeq	r2, [r3]
 678              		.loc 1 543 0
 679 00b2 1E78     		ldrb	r6, [r3]	@ zero_extendqisi2
 680 00b4 122E     		cmp	r6, #18
 681 00b6 02D9     		bls	.L60
 682              		.loc 1 544 0
 683 00b8 0220     		movs	r0, #2
 684 00ba FFF7FEFF 		bl	noise_source_error
ARM GAS  /tmp/cc9QhaO4.s 			page 13


 685              	.LVL35:
 686              	.L60:
 687              		.loc 1 545 0
 688 00be 284B     		ldr	r3, .L75+24
 689              	.LBE130:
 690              	.LBE137:
 691              	.LBB138:
 692              	.LBB139:
 693              		.loc 1 579 0
 694 00c0 2849     		ldr	r1, .L75+28
 695              	.LBE139:
 696              	.LBE138:
 697              	.LBB144:
 698              	.LBB131:
 699              		.loc 1 545 0
 700 00c2 1A88     		ldrh	r2, [r3]
 701 00c4 B6B2     		uxth	r6, r6
 702 00c6 B242     		cmp	r2, r6
 703              	.LBE131:
 704              	.LBE144:
 705              	.LBB145:
 706              	.LBB140:
 707              		.loc 1 579 0
 708 00c8 0A88     		ldrh	r2, [r1]
 709              	.LBE140:
 710              	.LBE145:
 711              	.LBB146:
 712              	.LBB132:
 713              		.loc 1 546 0
 714 00ca 38BF     		it	cc
 715 00cc 1E80     		strhcc	r6, [r3]	@ movhi
 716              	.LVL36:
 717              	.LBE132:
 718              	.LBE146:
 719              	.LBB147:
 720              	.LBB141:
 721              		.loc 1 579 0
 722 00ce B2F5805F 		cmp	r2, #4096
 723 00d2 2548     		ldr	r0, .L75+32
 724 00d4 254B     		ldr	r3, .L75+36
 725 00d6 2ED3     		bcc	.L62
 726              		.loc 1 582 0
 727 00d8 0422     		movs	r2, #4
 728 00da 0A80     		strh	r2, [r1]	@ movhi
 729              		.loc 1 583 0
 730 00dc 0022     		movs	r2, #0
 731              		.loc 1 581 0
 732 00de 0470     		strb	r4, [r0]
 733              	.L74:
 734              		.loc 1 590 0
 735 00e0 1A80     		strh	r2, [r3]	@ movhi
 736              	.L63:
 737              		.loc 1 593 0
 738 00e2 0278     		ldrb	r2, [r0]	@ zero_extendqisi2
 739 00e4 9245     		cmp	r10, r2
 740              		.loc 1 594 0
 741 00e6 02BF     		ittt	eq
ARM GAS  /tmp/cc9QhaO4.s 			page 14


 742 00e8 1988     		ldrheq	r1, [r3]
 743 00ea 0131     		addeq	r1, r1, #1
 744 00ec 1980     		strheq	r1, [r3]	@ movhi
 745              		.loc 1 596 0
 746 00ee 9145     		cmp	r9, r2
 747              		.loc 1 597 0
 748 00f0 02BF     		ittt	eq
 749 00f2 1988     		ldrheq	r1, [r3]
 750 00f4 0131     		addeq	r1, r1, #1
 751 00f6 1980     		strheq	r1, [r3]	@ movhi
 752              		.loc 1 599 0
 753 00f8 9045     		cmp	r8, r2
 754              		.loc 1 600 0
 755 00fa 02BF     		ittt	eq
 756 00fc 1A88     		ldrheq	r2, [r3]
 757 00fe 0132     		addeq	r2, r2, #1
 758 0100 1A80     		strheq	r2, [r3]	@ movhi
 759              		.loc 1 602 0
 760 0102 1C88     		ldrh	r4, [r3]
 761              	.LVL37:
 762 0104 B4F59E7F 		cmp	r4, #316
 763 0108 02D3     		bcc	.L67
 764              		.loc 1 603 0
 765 010a 0420     		movs	r0, #4
 766 010c FFF7FEFF 		bl	noise_source_error
 767              	.LVL38:
 768              	.L67:
 769              		.loc 1 604 0
 770 0110 174B     		ldr	r3, .L75+40
 771              	.LBE141:
 772              	.LBE147:
 773              	.LBE154:
 774              	.LBE158:
 775              		.loc 1 264 0
 776 0112 0A37     		adds	r7, r7, #10
 777              	.LVL39:
 778              	.LBB159:
 779              	.LBB155:
 780              	.LBB148:
 781              	.LBB142:
 782              		.loc 1 604 0
 783 0114 1A88     		ldrh	r2, [r3]
 784 0116 A242     		cmp	r2, r4
 785              		.loc 1 605 0
 786 0118 38BF     		it	cc
 787 011a 1C80     		strhcc	r4, [r3]	@ movhi
 788              	.LVL40:
 789              	.LBE142:
 790              	.LBE148:
 791              	.LBE155:
 792              	.LBE159:
 793              		.loc 1 264 0
 794 011c 154B     		ldr	r3, .L75+44
 795 011e 43F82750 		str	r5, [r3, r7, lsl #2]
 796              		.loc 1 265 0
 797 0122 BDE8F087 		pop	{r4, r5, r6, r7, r8, r9, r10, pc}
 798              	.LVL41:
ARM GAS  /tmp/cc9QhaO4.s 			page 15


 799              	.L55:
 800              	.LBB160:
 801              	.LBB156:
 802              	.LBB149:
 803              	.LBB133:
 804              		.loc 1 528 0
 805 0126 0432     		adds	r2, r2, #4
 806 0128 0A70     		strb	r2, [r1]
 807              		.loc 1 530 0
 808 012a 0278     		ldrb	r2, [r0]	@ zero_extendqisi2
 809 012c A242     		cmp	r2, r4
 810 012e B0D1     		bne	.L56
 811              		.loc 1 531 0
 812 0130 1A78     		ldrb	r2, [r3]	@ zero_extendqisi2
 813 0132 0132     		adds	r2, r2, #1
 814 0134 ACE7     		b	.L73
 815              	.LVL42:
 816              	.L62:
 817              	.LBE133:
 818              	.LBE149:
 819              	.LBB150:
 820              	.LBB143:
 821              		.loc 1 587 0
 822 0136 0432     		adds	r2, r2, #4
 823 0138 0A80     		strh	r2, [r1]	@ movhi
 824              		.loc 1 589 0
 825 013a 0278     		ldrb	r2, [r0]	@ zero_extendqisi2
 826 013c A242     		cmp	r2, r4
 827 013e D0D1     		bne	.L63
 828              		.loc 1 590 0
 829 0140 1A88     		ldrh	r2, [r3]
 830 0142 0132     		adds	r2, r2, #1
 831 0144 CCE7     		b	.L74
 832              	.L76:
 833 0146 00BF     		.align	2
 834              	.L75:
 835 0148 00000000 		.word	.LANCHOR5
 836 014c 00000000 		.word	.LANCHOR6
 837 0150 00000000 		.word	.LANCHOR7
 838 0154 00000000 		.word	.LANCHOR8
 839 0158 00000000 		.word	.LANCHOR9
 840 015c 00000000 		.word	.LANCHOR10
 841 0160 00000000 		.word	.LANCHOR11
 842 0164 00000000 		.word	.LANCHOR12
 843 0168 00000000 		.word	.LANCHOR13
 844 016c 00000000 		.word	.LANCHOR14
 845 0170 00000000 		.word	.LANCHOR15
 846 0174 00000000 		.word	.LANCHOR18
 847              	.LBE143:
 848              	.LBE150:
 849              	.LBE156:
 850              	.LBE160:
 851              		.cfi_endproc
 852              	.LFE47:
 853              		.size	ep_fill_wbuf_v.constprop.4, .-ep_fill_wbuf_v.constprop.4
 854              		.section	.text.rng,"ax",%progbits
 855              		.align	1
ARM GAS  /tmp/cc9QhaO4.s 			page 16


 856              		.syntax unified
 857              		.thumb
 858              		.thumb_func
 859              		.fpu softvfp
 860              		.type	rng, %function
 861              	rng:
 862              	.LFB35:
 863              		.loc 1 683 0
 864              		.cfi_startproc
 865              		@ args = 0, pretend = 0, frame = 8
 866              		@ frame_needed = 0, uses_anonymous_args = 0
 867              	.LVL43:
 868              		.loc 1 687 0
 869 0000 0023     		movs	r3, #0
 870              		.loc 1 683 0
 871 0002 2DE9F74F 		push	{r0, r1, r2, r4, r5, r6, r7, r8, r9, r10, fp, lr}
 872              		.cfi_def_cfa_offset 48
 873              		.cfi_offset 4, -36
 874              		.cfi_offset 5, -32
 875              		.cfi_offset 6, -28
 876              		.cfi_offset 7, -24
 877              		.cfi_offset 8, -20
 878              		.cfi_offset 9, -16
 879              		.cfi_offset 10, -12
 880              		.cfi_offset 11, -8
 881              		.cfi_offset 14, -4
 882              		.loc 1 685 0
 883 0006 B14F     		ldr	r7, .L117
 884              		.loc 1 687 0
 885 0008 B14E     		ldr	r6, .L117+4
 886              		.loc 1 685 0
 887 000a 3D78     		ldrb	r5, [r7]	@ zero_extendqisi2
 888              		.loc 1 683 0
 889 000c 0446     		mov	r4, r0
 890              	.LVL44:
 891              		.loc 1 688 0
 892 000e B148     		ldr	r0, .L117+8
 893              	.LVL45:
 894              		.loc 1 687 0
 895 0010 3360     		str	r3, [r6]
 896              		.loc 1 688 0
 897 0012 FFF7FEFF 		bl	chopstx_mutex_init
 898              	.LVL46:
 899              		.loc 1 689 0
 900 0016 B048     		ldr	r0, .L117+12
 901 0018 FFF7FEFF 		bl	chopstx_cond_init
 902              	.LVL47:
 903              		.loc 1 692 0
 904 001c FFF7FEFF 		bl	adc_start
 905              	.LVL48:
 906              		.loc 1 694 0
 907 0020 2846     		mov	r0, r5
 908 0022 FFF7FEFF 		bl	ep_init
 909              	.LVL49:
 910 0026 B146     		mov	r9, r6
 911              	.LBB225:
 912              		.loc 1 702 0
ARM GAS  /tmp/cc9QhaO4.s 			page 17


 913 0028 DFF8A8A2 		ldr	r10, .L117+8
 914              	.LBB226:
 915              	.LBB227:
 916              		.loc 1 273 0
 917 002c DFF8E082 		ldr	r8, .L117+68
 918              	.L78:
 919              	.LBE227:
 920              	.LBE226:
 921              	.LBE225:
 922              		.loc 1 695 0
 923 0030 D9F80030 		ldr	r3, [r9]
 924 0034 2BB1     		cbz	r3, .L102
 925              		.loc 1 749 0
 926 0036 FFF7FEFF 		bl	adc_stop
 927              	.LVL50:
 928              		.loc 1 752 0
 929 003a 0020     		movs	r0, #0
 930 003c 03B0     		add	sp, sp, #12
 931              		.cfi_remember_state
 932              		.cfi_def_cfa_offset 36
 933              		@ sp needed
 934 003e BDE8F08F 		pop	{r4, r5, r6, r7, r8, r9, r10, fp, pc}
 935              	.LVL51:
 936              	.L102:
 937              		.cfi_restore_state
 938              	.LBB315:
 939              		.loc 1 700 0
 940 0042 FFF7FEFF 		bl	adc_wait_completion
 941              	.LVL52:
 942 0046 0646     		mov	r6, r0
 943              	.LVL53:
 944              		.loc 1 702 0
 945 0048 5046     		mov	r0, r10
 946              	.LVL54:
 947 004a FFF7FEFF 		bl	chopstx_mutex_lock
 948              	.LVL55:
 949              		.loc 1 703 0
 950 004e 16B9     		cbnz	r6, .L79
 951              		.loc 1 703 0 is_stmt 0 discriminator 1
 952 0050 3B78     		ldrb	r3, [r7]	@ zero_extendqisi2
 953 0052 AB42     		cmp	r3, r5
 954 0054 19D0     		beq	.L80
 955              	.L79:
 956              	.LBB294:
 957              	.LBB295:
 958              		.loc 1 393 0 is_stmt 1
 959 0056 0023     		movs	r3, #0
 960 0058 A04A     		ldr	r2, .L117+16
 961              	.LBE295:
 962              	.LBE294:
 963              		.loc 1 705 0
 964 005a 3D78     		ldrb	r5, [r7]	@ zero_extendqisi2
 965              	.LVL56:
 966              	.LBB298:
 967              	.LBB296:
 968              		.loc 1 393 0
 969 005c 1380     		strh	r3, [r2]	@ movhi
ARM GAS  /tmp/cc9QhaO4.s 			page 18


 970 005e A04A     		ldr	r2, .L117+20
 971              	.LBE296:
 972              	.LBE298:
 973              		.loc 1 710 0
 974 0060 2846     		mov	r0, r5
 975              	.LBB299:
 976              	.LBB297:
 977              		.loc 1 393 0
 978 0062 1380     		strh	r3, [r2]	@ movhi
 979 0064 9F4A     		ldr	r2, .L117+24
 980 0066 1380     		strh	r3, [r2]	@ movhi
 981 0068 9F4A     		ldr	r2, .L117+28
 982 006a 1380     		strh	r3, [r2]	@ movhi
 983              		.loc 1 394 0
 984 006c 9F4A     		ldr	r2, .L117+32
 985 006e 1380     		strh	r3, [r2]	@ movhi
 986 0070 9F4A     		ldr	r2, .L117+36
 987 0072 1380     		strh	r3, [r2]	@ movhi
 988 0074 9F4A     		ldr	r2, .L117+40
 989 0076 1380     		strh	r3, [r2]	@ movhi
 990              	.LBE297:
 991              	.LBE299:
 992              		.loc 1 710 0
 993 0078 FFF7FEFF 		bl	ep_init
 994              	.LVL57:
 995              		.loc 1 711 0
 996 007c 9648     		ldr	r0, .L117+12
 997 007e FFF7FEFF 		bl	chopstx_cond_signal
 998              	.LVL58:
 999              		.loc 1 712 0
 1000 0082 5046     		mov	r0, r10
 1001              	.LVL59:
 1002              	.L115:
 1003              	.LBB300:
 1004              		.loc 1 745 0
 1005 0084 FFF7FEFF 		bl	chopstx_mutex_unlock
 1006              	.LVL60:
 1007 0088 D2E7     		b	.L78
 1008              	.LVL61:
 1009              	.L80:
 1010              	.LBE300:
 1011              		.loc 1 716 0
 1012 008a 5046     		mov	r0, r10
 1013 008c FFF7FEFF 		bl	chopstx_mutex_unlock
 1014              	.LVL62:
 1015              	.LBB311:
 1016              	.LBB292:
 1017              		.loc 1 273 0
 1018 0090 98F80030 		ldrb	r3, [r8]	@ zero_extendqisi2
 1019 0094 7BBB     		cbnz	r3, .L82
 1020              		.loc 1 275 0
 1021 0096 DFF868B2 		ldr	fp, .L117+52
 1022              		.loc 1 276 0
 1023 009a 974E     		ldr	r6, .L117+44
 1024              	.LVL63:
 1025              		.loc 1 275 0
 1026 009c 5846     		mov	r0, fp
ARM GAS  /tmp/cc9QhaO4.s 			page 19


 1027 009e FFF7FEFF 		bl	sha256_start
 1028              	.LVL64:
 1029              		.loc 1 276 0
 1030 00a2 3368     		ldr	r3, [r6]
 1031 00a4 CBF82830 		str	r3, [fp, #40]
 1032              		.loc 1 277 0
 1033 00a8 7368     		ldr	r3, [r6, #4]
 1034 00aa CBF82C30 		str	r3, [fp, #44]
 1035              	.LVL65:
 1036 00ae 4FF0020B 		mov	fp, #2
 1037              	.LBB228:
 1038              	.LBB229:
 1039              		.loc 1 130 0
 1040 00b2 924B     		ldr	r3, .L117+48
 1041              	.LVL66:
 1042              	.L83:
 1043              	.LBE229:
 1044              	.LBE228:
 1045              		.loc 1 280 0
 1046 00b4 B268     		ldr	r2, [r6, #8]
 1047              	.LVL67:
 1048              		.loc 1 285 0
 1049 00b6 5846     		mov	r0, fp
 1050              	.LBB231:
 1051              	.LBB230:
 1052              		.loc 1 130 0
 1053 00b8 1A60     		str	r2, [r3]
 1054              	.LVL68:
 1055              	.LBE230:
 1056              	.LBE231:
 1057              		.loc 1 281 0
 1058 00ba F268     		ldr	r2, [r6, #12]
 1059              	.LVL69:
 1060 00bc 0BF1010B 		add	fp, fp, #1
 1061              	.LVL70:
 1062              	.LBB232:
 1063              	.LBB233:
 1064              		.loc 1 130 0
 1065 00c0 1A60     		str	r2, [r3]
 1066              	.LVL71:
 1067              	.LBE233:
 1068              	.LBE232:
 1069              		.loc 1 282 0
 1070 00c2 3269     		ldr	r2, [r6, #16]
 1071              	.LVL72:
 1072 00c4 1036     		adds	r6, r6, #16
 1073              	.LBB234:
 1074              	.LBB235:
 1075              		.loc 1 130 0
 1076 00c6 1A60     		str	r2, [r3]
 1077              	.LVL73:
 1078              	.LBE235:
 1079              	.LBE234:
 1080              		.loc 1 283 0
 1081 00c8 7268     		ldr	r2, [r6, #4]
 1082              	.LVL74:
 1083              	.LBB236:
ARM GAS  /tmp/cc9QhaO4.s 			page 20


 1084              	.LBB237:
 1085              		.loc 1 130 0
 1086 00ca 1A60     		str	r2, [r3]
 1087              	.LVL75:
 1088              	.LBE237:
 1089              	.LBE236:
 1090              	.LBB238:
 1091              	.LBB239:
 1092              		.loc 1 136 0
 1093 00cc 1968     		ldr	r1, [r3]
 1094 00ce 0093     		str	r3, [sp]
 1095              	.LBE239:
 1096              	.LBE238:
 1097              		.loc 1 285 0
 1098 00d0 FFF7FEFF 		bl	ep_fill_wbuf_v.constprop.4
 1099              	.LVL76:
 1100              		.loc 1 278 0
 1101 00d4 BBF1100F 		cmp	fp, #16
 1102 00d8 009B     		ldr	r3, [sp]
 1103 00da EBD1     		bne	.L83
 1104              		.loc 1 288 0
 1105 00dc 4021     		movs	r1, #64
 1106              	.L116:
 1107              		.loc 1 305 0
 1108 00de 0020     		movs	r0, #0
 1109 00e0 FFF7FEFF 		bl	adc_start_conversion
 1110              	.LVL77:
 1111              		.loc 1 306 0
 1112 00e4 8648     		ldr	r0, .L117+52
 1113 00e6 FFF7FEFF 		bl	sha256_process
 1114              	.LVL78:
 1115              		.loc 1 307 0
 1116 00ea 98F80030 		ldrb	r3, [r8]	@ zero_extendqisi2
 1117 00ee 0133     		adds	r3, r3, #1
 1118 00f0 88F80030 		strb	r3, [r8]
 1119              	.LVL79:
 1120 00f4 9CE7     		b	.L78
 1121              	.LVL80:
 1122              	.L82:
 1123              		.loc 1 293 0
 1124 00f6 012B     		cmp	r3, #1
 1125 00f8 1BD1     		bne	.L84
 1126 00fa DFF8FCB1 		ldr	fp, .L117+44
 1127              	.LBB240:
 1128              	.LBB241:
 1129              		.loc 1 130 0
 1130 00fe 7F4B     		ldr	r3, .L117+48
 1131              	.LVL81:
 1132              	.L85:
 1133              	.LBE241:
 1134              	.LBE240:
 1135              		.loc 1 297 0
 1136 0100 DBF80020 		ldr	r2, [fp]
 1137              	.LVL82:
 1138              		.loc 1 302 0
 1139 0104 3046     		mov	r0, r6
 1140              	.LBB243:
ARM GAS  /tmp/cc9QhaO4.s 			page 21


 1141              	.LBB242:
 1142              		.loc 1 130 0
 1143 0106 1A60     		str	r2, [r3]
 1144              	.LVL83:
 1145              	.LBE242:
 1146              	.LBE243:
 1147              		.loc 1 298 0
 1148 0108 DBF80420 		ldr	r2, [fp, #4]
 1149              	.LVL84:
 1150              		.loc 1 295 0
 1151 010c 0136     		adds	r6, r6, #1
 1152              	.LVL85:
 1153              	.LBB244:
 1154              	.LBB245:
 1155              		.loc 1 130 0
 1156 010e 1A60     		str	r2, [r3]
 1157              	.LVL86:
 1158              	.LBE245:
 1159              	.LBE244:
 1160              		.loc 1 299 0
 1161 0110 DBF80820 		ldr	r2, [fp, #8]
 1162              	.LVL87:
 1163 0114 0BF1100B 		add	fp, fp, #16
 1164              	.LBB246:
 1165              	.LBB247:
 1166              		.loc 1 130 0
 1167 0118 1A60     		str	r2, [r3]
 1168              	.LVL88:
 1169              	.LBE247:
 1170              	.LBE246:
 1171              		.loc 1 300 0
 1172 011a 5BF8042C 		ldr	r2, [fp, #-4]
 1173              	.LVL89:
 1174              	.LBB248:
 1175              	.LBB249:
 1176              		.loc 1 130 0
 1177 011e 1A60     		str	r2, [r3]
 1178              	.LVL90:
 1179              	.LBE249:
 1180              	.LBE248:
 1181              	.LBB250:
 1182              	.LBB251:
 1183              		.loc 1 136 0
 1184 0120 1968     		ldr	r1, [r3]
 1185 0122 0093     		str	r3, [sp]
 1186              	.LBE251:
 1187              	.LBE250:
 1188              		.loc 1 302 0
 1189 0124 FFF7FEFF 		bl	ep_fill_wbuf_v.constprop.4
 1190              	.LVL91:
 1191              		.loc 1 295 0
 1192 0128 102E     		cmp	r6, #16
 1193 012a 009B     		ldr	r3, [sp]
 1194 012c E8D1     		bne	.L85
 1195              		.loc 1 305 0
 1196 012e 1421     		movs	r1, #20
 1197 0130 D5E7     		b	.L116
ARM GAS  /tmp/cc9QhaO4.s 			page 22


 1198              	.LVL92:
 1199              	.L84:
 1200              		.loc 1 310 0
 1201 0132 022B     		cmp	r3, #2
 1202 0134 53D1     		bne	.L86
 1203 0136 704B     		ldr	r3, .L117+44
 1204              	.LBB252:
 1205              	.LBB253:
 1206              		.loc 1 130 0
 1207 0138 DFF8C0B1 		ldr	fp, .L117+48
 1208 013c 1A46     		mov	r2, r3
 1209              	.LVL93:
 1210              	.L87:
 1211              	.LBE253:
 1212              	.LBE252:
 1213              		.loc 1 314 0
 1214 013e 1968     		ldr	r1, [r3]
 1215 0140 0192     		str	r2, [sp, #4]
 1216              	.LVL94:
 1217              	.LBB255:
 1218              	.LBB254:
 1219              		.loc 1 130 0
 1220 0142 CBF80010 		str	r1, [fp]
 1221              	.LVL95:
 1222              	.LBE254:
 1223              	.LBE255:
 1224              		.loc 1 315 0
 1225 0146 5968     		ldr	r1, [r3, #4]
 1226              	.LVL96:
 1227              		.loc 1 319 0
 1228 0148 3046     		mov	r0, r6
 1229              	.LBB256:
 1230              	.LBB257:
 1231              		.loc 1 130 0
 1232 014a CBF80010 		str	r1, [fp]
 1233              	.LVL97:
 1234              	.LBE257:
 1235              	.LBE256:
 1236              		.loc 1 316 0
 1237 014e 9968     		ldr	r1, [r3, #8]
 1238              	.LVL98:
 1239              		.loc 1 312 0
 1240 0150 0136     		adds	r6, r6, #1
 1241              	.LVL99:
 1242              	.LBB258:
 1243              	.LBB259:
 1244              		.loc 1 130 0
 1245 0152 CBF80010 		str	r1, [fp]
 1246              	.LVL100:
 1247              	.LBE259:
 1248              	.LBE258:
 1249              		.loc 1 317 0
 1250 0156 D968     		ldr	r1, [r3, #12]
 1251 0158 0093     		str	r3, [sp]
 1252              	.LVL101:
 1253              	.LBB260:
 1254              	.LBB261:
ARM GAS  /tmp/cc9QhaO4.s 			page 23


 1255              		.loc 1 130 0
 1256 015a CBF80010 		str	r1, [fp]
 1257              	.LVL102:
 1258              	.LBE261:
 1259              	.LBE260:
 1260              	.LBB262:
 1261              	.LBB263:
 1262              		.loc 1 136 0
 1263 015e DBF80010 		ldr	r1, [fp]
 1264              	.LBE263:
 1265              	.LBE262:
 1266              		.loc 1 319 0
 1267 0162 FFF7FEFF 		bl	ep_fill_wbuf_v.constprop.4
 1268              	.LVL103:
 1269 0166 009B     		ldr	r3, [sp]
 1270              		.loc 1 312 0
 1271 0168 042E     		cmp	r6, #4
 1272 016a 03F11003 		add	r3, r3, #16
 1273 016e 019A     		ldr	r2, [sp, #4]
 1274 0170 E5D1     		bne	.L87
 1275              		.loc 1 322 0
 1276 0172 136C     		ldr	r3, [r2, #64]
 1277              	.LVL104:
 1278              	.LBB264:
 1279              	.LBB265:
 1280              		.loc 1 130 0
 1281 0174 CBF80030 		str	r3, [fp]
 1282              	.LVL105:
 1283              	.LBE265:
 1284              	.LBE264:
 1285              		.loc 1 323 0
 1286 0178 536C     		ldr	r3, [r2, #68]
 1287              	.LVL106:
 1288              	.LBB266:
 1289              	.LBB267:
 1290              		.loc 1 130 0
 1291 017a CBF80030 		str	r3, [fp]
 1292              	.LVL107:
 1293              	.LBE267:
 1294              	.LBE266:
 1295              		.loc 1 324 0
 1296 017e 936C     		ldr	r3, [r2, #72]
 1297              	.LVL108:
 1298              	.LBB268:
 1299              	.LBB269:
 1300              		.loc 1 130 0
 1301 0180 CBF80030 		str	r3, [fp]
 1302              	.LVL109:
 1303              	.LBE269:
 1304              	.LBE268:
 1305              		.loc 1 325 0
 1306 0184 D36C     		ldr	r3, [r2, #76]
 1307              	.LVL110:
 1308              	.LBB270:
 1309              	.LBB271:
 1310              		.loc 1 130 0
 1311 0186 CBF80030 		str	r3, [fp]
ARM GAS  /tmp/cc9QhaO4.s 			page 24


 1312              	.LVL111:
 1313              	.LBE271:
 1314              	.LBE270:
 1315              	.LBB272:
 1316              	.LBB273:
 1317              		.loc 1 136 0
 1318 018a DBF80060 		ldr	r6, [fp]
 1319              	.LVL112:
 1320              	.LBE273:
 1321              	.LBE272:
 1322              		.loc 1 328 0
 1323 018e DFF870B1 		ldr	fp, .L117+52
 1324              		.loc 1 327 0
 1325 0192 F6B2     		uxtb	r6, r6
 1326              	.LVL113:
 1327 0194 3046     		mov	r0, r6
 1328 0196 FFF7FEFF 		bl	noise_source_continuous_test
 1329              	.LVL114:
 1330              		.loc 1 328 0
 1331 019a CBF83860 		str	r6, [fp, #56]
 1332              		.loc 1 332 0
 1333 019e 594E     		ldr	r6, .L117+56
 1334              		.loc 1 329 0
 1335 01a0 0020     		movs	r0, #0
 1336 01a2 FFF7FEFF 		bl	ep_init
 1337              	.LVL115:
 1338              		.loc 1 332 0
 1339 01a6 0BF13902 		add	r2, fp, #57
 1340 01aa 06F1100C 		add	ip, r6, #16
 1341              	.L88:
 1342 01ae 3346     		mov	r3, r6
 1343 01b0 03CB     		ldmia	r3!, {r0, r1}
 1344 01b2 6345     		cmp	r3, ip
 1345 01b4 1060     		str	r0, [r2]	@ unaligned
 1346 01b6 5160     		str	r1, [r2, #4]	@ unaligned
 1347 01b8 1E46     		mov	r6, r3
 1348 01ba 02F10802 		add	r2, r2, #8
 1349 01be F6D1     		bne	.L88
 1350              		.loc 1 334 0
 1351 01c0 A123     		movs	r3, #161
 1352              		.loc 1 335 0
 1353 01c2 5049     		ldr	r1, .L117+56
 1354 01c4 4E48     		ldr	r0, .L117+52
 1355              		.loc 1 334 0
 1356 01c6 CBF80030 		str	r3, [fp]
 1357              		.loc 1 335 0
 1358 01ca FFF7FEFF 		bl	sha256_finish
 1359              	.LVL116:
 1360              	.L89:
 1361              	.LBE292:
 1362              	.LBE311:
 1363              	.LBB312:
 1364              		.loc 1 723 0
 1365 01ce 4E4B     		ldr	r3, .L117+60
 1366 01d0 1A78     		ldrb	r2, [r3]	@ zero_extendqisi2
 1367 01d2 82B3     		cbz	r2, .L93
 1368              		.loc 1 724 0
ARM GAS  /tmp/cc9QhaO4.s 			page 25


 1369 01d4 012D     		cmp	r5, #1
 1370 01d6 6DDC     		bgt	.L103
 1371              	.LBB301:
 1372              	.LBB302:
 1373              		.loc 1 399 0
 1374 01d8 0022     		movs	r2, #0
 1375 01da 1A70     		strb	r2, [r3]
 1376              	.LBE302:
 1377              	.LBE301:
 1378              		.loc 1 728 0
 1379 01dc 28E7     		b	.L78
 1380              	.LVL117:
 1381              	.L86:
 1382              	.LBE312:
 1383              	.LBB313:
 1384              	.LBB293:
 1385              		.loc 1 338 0
 1386 01de 032B     		cmp	r3, #3
 1387 01e0 1DD1     		bne	.L90
 1388 01e2 DFF814B1 		ldr	fp, .L117+44
 1389              	.LBB274:
 1390              	.LBB275:
 1391              		.loc 1 130 0
 1392 01e6 454B     		ldr	r3, .L117+48
 1393              	.LVL118:
 1394              	.L91:
 1395              	.LBE275:
 1396              	.LBE274:
 1397              		.loc 1 342 0
 1398 01e8 DBF80020 		ldr	r2, [fp]
 1399              	.LVL119:
 1400              		.loc 1 347 0
 1401 01ec 3046     		mov	r0, r6
 1402              	.LBB277:
 1403              	.LBB276:
 1404              		.loc 1 130 0
 1405 01ee 1A60     		str	r2, [r3]
 1406              	.LVL120:
 1407              	.LBE276:
 1408              	.LBE277:
 1409              		.loc 1 343 0
 1410 01f0 DBF80420 		ldr	r2, [fp, #4]
 1411              	.LVL121:
 1412              		.loc 1 340 0
 1413 01f4 0136     		adds	r6, r6, #1
 1414              	.LVL122:
 1415              	.LBB278:
 1416              	.LBB279:
 1417              		.loc 1 130 0
 1418 01f6 1A60     		str	r2, [r3]
 1419              	.LVL123:
 1420              	.LBE279:
 1421              	.LBE278:
 1422              		.loc 1 344 0
 1423 01f8 DBF80820 		ldr	r2, [fp, #8]
 1424              	.LVL124:
 1425 01fc 0BF1100B 		add	fp, fp, #16
ARM GAS  /tmp/cc9QhaO4.s 			page 26


 1426              	.LBB280:
 1427              	.LBB281:
 1428              		.loc 1 130 0
 1429 0200 1A60     		str	r2, [r3]
 1430              	.LVL125:
 1431              	.LBE281:
 1432              	.LBE280:
 1433              		.loc 1 345 0
 1434 0202 5BF8042C 		ldr	r2, [fp, #-4]
 1435              	.LVL126:
 1436              	.LBB282:
 1437              	.LBB283:
 1438              		.loc 1 130 0
 1439 0206 1A60     		str	r2, [r3]
 1440              	.LVL127:
 1441              	.LBE283:
 1442              	.LBE282:
 1443              	.LBB284:
 1444              	.LBB285:
 1445              		.loc 1 136 0
 1446 0208 1968     		ldr	r1, [r3]
 1447 020a 0093     		str	r3, [sp]
 1448              	.LBE285:
 1449              	.LBE284:
 1450              		.loc 1 347 0
 1451 020c FFF7FEFF 		bl	ep_fill_wbuf_v.constprop.4
 1452              	.LVL128:
 1453              		.loc 1 340 0
 1454 0210 082E     		cmp	r6, #8
 1455 0212 009B     		ldr	r3, [sp]
 1456 0214 E8D1     		bne	.L91
 1457              	.LVL129:
 1458              	.L113:
 1459              		.loc 1 361 0
 1460 0216 2846     		mov	r0, r5
 1461 0218 FFF7FEFF 		bl	ep_init
 1462              	.LVL130:
 1463 021c D7E7     		b	.L89
 1464              	.LVL131:
 1465              	.L90:
 1466              		.loc 1 353 0
 1467 021e 042B     		cmp	r3, #4
 1468 0220 7FF406AF 		bne	.L78
 1469              	.LBB286:
 1470              	.LBB287:
 1471              		.loc 1 264 0
 1472 0224 3648     		ldr	r0, .L117+52
 1473              	.LBE287:
 1474              	.LBE286:
 1475              		.loc 1 357 0
 1476 0226 3449     		ldr	r1, .L117+44
 1477              	.LVL132:
 1478              	.L92:
 1479              	.LBB290:
 1480              	.LBB288:
 1481              		.loc 1 264 0
 1482 0228 8319     		adds	r3, r0, r6
ARM GAS  /tmp/cc9QhaO4.s 			page 27


 1483 022a 7258     		ldr	r2, [r6, r1]
 1484 022c 0436     		adds	r6, r6, #4
 1485              	.LVL133:
 1486              	.LBE288:
 1487              	.LBE290:
 1488              		.loc 1 355 0
 1489 022e 202E     		cmp	r6, #32
 1490              	.LBB291:
 1491              	.LBB289:
 1492              		.loc 1 264 0
 1493 0230 9A62     		str	r2, [r3, #40]
 1494              	.LVL134:
 1495              	.LBE289:
 1496              	.LBE291:
 1497              		.loc 1 355 0
 1498 0232 F9D1     		bne	.L92
 1499 0234 EFE7     		b	.L113
 1500              	.LVL135:
 1501              	.L93:
 1502              	.LBE293:
 1503              	.LBE313:
 1504              	.LBB314:
 1505              	.LBB303:
 1506              	.LBB304:
 1507              		.loc 1 372 0
 1508 0236 334E     		ldr	r6, .L117+56
 1509 0238 344B     		ldr	r3, .L117+64
 1510 023a 002D     		cmp	r5, #0
 1511 023c 18BF     		it	ne
 1512 023e 1E46     		movne	r6, r3
 1513              	.LVL136:
 1514              	.L94:
 1515              	.LBE304:
 1516              	.LBE303:
 1517              		.loc 1 733 0
 1518 0240 04F1040B 		add	fp, r4, #4
 1519 0244 5846     		mov	r0, fp
 1520 0246 FFF7FEFF 		bl	chopstx_mutex_lock
 1521              	.LVL137:
 1522              		.loc 1 735 0
 1523 024a 04F11C02 		add	r2, r4, #28
 1524              	.L95:
 1525              		.loc 1 734 0
 1526 024e 94F82730 		ldrb	r3, [r4, #39]	@ zero_extendqisi2
 1527 0252 D907     		lsls	r1, r3, #31
 1528 0254 30D4     		bmi	.L96
 1529              	.LBB306:
 1530              	.LBB307:
 1531              		.loc 1 652 0
 1532 0256 2168     		ldr	r1, [r4]
 1533 0258 94F82530 		ldrb	r3, [r4, #37]	@ zero_extendqisi2
 1534              		.loc 1 653 0
 1535 025c 94F82600 		ldrb	r0, [r4, #38]	@ zero_extendqisi2
 1536              		.loc 1 655 0
 1537 0260 94F824C0 		ldrb	ip, [r4, #36]	@ zero_extendqisi2
 1538 0264 06F1200E 		add	lr, r6, #32
 1539              	.L101:
ARM GAS  /tmp/cc9QhaO4.s 			page 28


 1540              	.LVL138:
 1541              	.LBE307:
 1542              	.LBE306:
 1543              		.loc 1 739 0
 1544 0268 56F8042B 		ldr	r2, [r6], #4
 1545              	.LVL139:
 1546 026c 0192     		str	r2, [sp, #4]
 1547              	.LVL140:
 1548              	.LBB309:
 1549              	.LBB308:
 1550              		.loc 1 652 0
 1551 026e 5A1C     		adds	r2, r3, #1
 1552              	.LVL141:
 1553 0270 D2B2     		uxtb	r2, r2
 1554 0272 0092     		str	r2, [sp]
 1555 0274 019A     		ldr	r2, [sp, #4]
 1556 0276 41F82320 		str	r2, [r1, r3, lsl #2]
 1557              		.loc 1 654 0
 1558 027a 009B     		ldr	r3, [sp]
 1559 027c 1A46     		mov	r2, r3
 1560 027e 8342     		cmp	r3, r0
 1561 0280 08BF     		it	eq
 1562 0282 0023     		moveq	r3, #0
 1563              		.loc 1 655 0
 1564 0284 9C45     		cmp	ip, r3
 1565              		.loc 1 656 0
 1566 0286 02BF     		ittt	eq
 1567 0288 94F82720 		ldrbeq	r2, [r4, #39]	@ zero_extendqisi2
 1568 028c 42F00102 		orreq	r2, r2, #1
 1569 0290 84F82720 		strbeq	r2, [r4, #39]
 1570              		.loc 1 657 0
 1571 0294 94F82720 		ldrb	r2, [r4, #39]	@ zero_extendqisi2
 1572 0298 6FF34102 		bfc	r2, #1, #1
 1573 029c 84F82720 		strb	r2, [r4, #39]
 1574              	.LVL142:
 1575              	.LBE308:
 1576              	.LBE309:
 1577              		.loc 1 740 0
 1578 02a0 D207     		lsls	r2, r2, #31
 1579 02a2 10D5     		bpl	.L99
 1580              	.LVL143:
 1581              	.L114:
 1582              		.loc 1 744 0
 1583 02a4 04F11400 		add	r0, r4, #20
 1584 02a8 84F82530 		strb	r3, [r4, #37]
 1585 02ac FFF7FEFF 		bl	chopstx_cond_signal
 1586              	.LVL144:
 1587              		.loc 1 745 0
 1588 02b0 5846     		mov	r0, fp
 1589 02b2 E7E6     		b	.L115
 1590              	.L103:
 1591              	.LBB310:
 1592              	.LBB305:
 1593              		.loc 1 372 0
 1594 02b4 154E     		ldr	r6, .L117+64
 1595 02b6 C3E7     		b	.L94
 1596              	.L96:
ARM GAS  /tmp/cc9QhaO4.s 			page 29


 1597              	.LBE305:
 1598              	.LBE310:
 1599              		.loc 1 735 0
 1600 02b8 1046     		mov	r0, r2
 1601 02ba 5946     		mov	r1, fp
 1602 02bc 0092     		str	r2, [sp]
 1603 02be FFF7FEFF 		bl	chopstx_cond_wait
 1604              	.LVL145:
 1605 02c2 009A     		ldr	r2, [sp]
 1606 02c4 C3E7     		b	.L95
 1607              	.LVL146:
 1608              	.L99:
 1609              		.loc 1 737 0 discriminator 2
 1610 02c6 7645     		cmp	r6, lr
 1611 02c8 CED1     		bne	.L101
 1612 02ca EBE7     		b	.L114
 1613              	.L118:
 1614              		.align	2
 1615              	.L117:
 1616 02cc 00000000 		.word	.LANCHOR20
 1617 02d0 00000000 		.word	.LANCHOR21
 1618 02d4 00000000 		.word	.LANCHOR22
 1619 02d8 00000000 		.word	.LANCHOR23
 1620 02dc 00000000 		.word	.LANCHOR4
 1621 02e0 00000000 		.word	.LANCHOR3
 1622 02e4 00000000 		.word	.LANCHOR2
 1623 02e8 00000000 		.word	.LANCHOR1
 1624 02ec 00000000 		.word	.LANCHOR15
 1625 02f0 00000000 		.word	.LANCHOR11
 1626 02f4 00000000 		.word	.LANCHOR7
 1627 02f8 00000000 		.word	adc_buf
 1628 02fc 00300240 		.word	1073885184
 1629 0300 00000000 		.word	.LANCHOR18
 1630 0304 00000000 		.word	.LANCHOR19
 1631 0308 00000000 		.word	.LANCHOR0
 1632 030c 28000000 		.word	.LANCHOR18+40
 1633 0310 00000000 		.word	.LANCHOR16
 1634              	.LBE314:
 1635              	.LBE315:
 1636              		.cfi_endproc
 1637              	.LFE35:
 1638              		.size	rng, .-rng
 1639              		.section	.text.crc32_rv_reset,"ax",%progbits
 1640              		.align	1
 1641              		.global	crc32_rv_reset
 1642              		.syntax unified
 1643              		.thumb
 1644              		.thumb_func
 1645              		.fpu softvfp
 1646              		.type	crc32_rv_reset, %function
 1647              	crc32_rv_reset:
 1648              	.LFB12:
 1649              		.loc 1 122 0
 1650              		.cfi_startproc
 1651              		@ args = 0, pretend = 0, frame = 0
 1652              		@ frame_needed = 0, uses_anonymous_args = 0
 1653              		@ link register save eliminated.
ARM GAS  /tmp/cc9QhaO4.s 			page 30


 1654              		.loc 1 123 0
 1655 0000 044A     		ldr	r2, .L120
 1656 0002 5369     		ldr	r3, [r2, #20]
 1657 0004 43F04003 		orr	r3, r3, #64
 1658 0008 5361     		str	r3, [r2, #20]
 1659              		.loc 1 124 0
 1660 000a 0122     		movs	r2, #1
 1661 000c 024B     		ldr	r3, .L120+4
 1662 000e 9A60     		str	r2, [r3, #8]
 1663              		.loc 1 125 0
 1664 0010 7047     		bx	lr
 1665              	.L121:
 1666 0012 00BF     		.align	2
 1667              	.L120:
 1668 0014 00100240 		.word	1073876992
 1669 0018 00300240 		.word	1073885184
 1670              		.cfi_endproc
 1671              	.LFE12:
 1672              		.size	crc32_rv_reset, .-crc32_rv_reset
 1673              		.section	.text.crc32_rv_step,"ax",%progbits
 1674              		.align	1
 1675              		.global	crc32_rv_step
 1676              		.syntax unified
 1677              		.thumb
 1678              		.thumb_func
 1679              		.fpu softvfp
 1680              		.type	crc32_rv_step, %function
 1681              	crc32_rv_step:
 1682              	.LFB13:
 1683              		.loc 1 129 0
 1684              		.cfi_startproc
 1685              		@ args = 0, pretend = 0, frame = 0
 1686              		@ frame_needed = 0, uses_anonymous_args = 0
 1687              		@ link register save eliminated.
 1688              	.LVL147:
 1689              		.loc 1 130 0
 1690 0000 014B     		ldr	r3, .L123
 1691 0002 1860     		str	r0, [r3]
 1692              		.loc 1 131 0
 1693 0004 7047     		bx	lr
 1694              	.L124:
 1695 0006 00BF     		.align	2
 1696              	.L123:
 1697 0008 00300240 		.word	1073885184
 1698              		.cfi_endproc
 1699              	.LFE13:
 1700              		.size	crc32_rv_step, .-crc32_rv_step
 1701              		.section	.text.crc32_rv_get,"ax",%progbits
 1702              		.align	1
 1703              		.global	crc32_rv_get
 1704              		.syntax unified
 1705              		.thumb
 1706              		.thumb_func
 1707              		.fpu softvfp
 1708              		.type	crc32_rv_get, %function
 1709              	crc32_rv_get:
 1710              	.LFB14:
ARM GAS  /tmp/cc9QhaO4.s 			page 31


 1711              		.loc 1 135 0
 1712              		.cfi_startproc
 1713              		@ args = 0, pretend = 0, frame = 0
 1714              		@ frame_needed = 0, uses_anonymous_args = 0
 1715              		@ link register save eliminated.
 1716              		.loc 1 136 0
 1717 0000 014B     		ldr	r3, .L126
 1718 0002 1868     		ldr	r0, [r3]
 1719              		.loc 1 137 0
 1720 0004 7047     		bx	lr
 1721              	.L127:
 1722 0006 00BF     		.align	2
 1723              	.L126:
 1724 0008 00300240 		.word	1073885184
 1725              		.cfi_endproc
 1726              	.LFE14:
 1727              		.size	crc32_rv_get, .-crc32_rv_get
 1728              		.section	.text.rbit,"ax",%progbits
 1729              		.align	1
 1730              		.global	rbit
 1731              		.syntax unified
 1732              		.thumb
 1733              		.thumb_func
 1734              		.fpu softvfp
 1735              		.type	rbit, %function
 1736              	rbit:
 1737              	.LFB15:
 1738              		.loc 1 141 0
 1739              		.cfi_startproc
 1740              		@ args = 0, pretend = 0, frame = 0
 1741              		@ frame_needed = 0, uses_anonymous_args = 0
 1742              		@ link register save eliminated.
 1743              	.LVL148:
 1744              		.loc 1 144 0
 1745              		.syntax unified
 1746              	@ 144 "neug.c" 1
 1747 0000 90FAA0F0 		rbit	r0, r0
 1748              	@ 0 "" 2
 1749              	.LVL149:
 1750              		.loc 1 146 0
 1751              		.thumb
 1752              		.syntax unified
 1753 0004 7047     		bx	lr
 1754              		.cfi_endproc
 1755              	.LFE15:
 1756              		.size	rbit, .-rbit
 1757              		.section	.text.neug_init,"ax",%progbits
 1758              		.align	1
 1759              		.global	neug_init
 1760              		.syntax unified
 1761              		.thumb
 1762              		.thumb_func
 1763              		.fpu softvfp
 1764              		.type	neug_init, %function
 1765              	neug_init:
 1766              	.LFB36:
 1767              		.loc 1 766 0
ARM GAS  /tmp/cc9QhaO4.s 			page 32


 1768              		.cfi_startproc
 1769              		@ args = 0, pretend = 0, frame = 0
 1770              		@ frame_needed = 0, uses_anonymous_args = 0
 1771              	.LVL150:
 1772 0000 37B5     		push	{r0, r1, r2, r4, r5, lr}
 1773              		.cfi_def_cfa_offset 24
 1774              		.cfi_offset 4, -12
 1775              		.cfi_offset 5, -8
 1776              		.cfi_offset 14, -4
 1777              		.loc 1 771 0
 1778 0002 FFF7FEFF 		bl	crc32_rv_reset
 1779              	.LVL151:
 1780              		.loc 1 780 0
 1781 0006 0025     		movs	r5, #0
 1782              		.loc 1 778 0
 1783 0008 164B     		ldr	r3, .L130
 1784 000a 1A68     		ldr	r2, [r3]
 1785              	.LVL152:
 1786              	.LBB320:
 1787              	.LBB321:
 1788              		.loc 1 130 0
 1789 000c 164B     		ldr	r3, .L130+4
 1790 000e 1A60     		str	r2, [r3]
 1791              	.LVL153:
 1792              	.LBE321:
 1793              	.LBE320:
 1794              		.loc 1 778 0
 1795 0010 164A     		ldr	r2, .L130+8
 1796 0012 1468     		ldr	r4, [r2]
 1797              	.LVL154:
 1798              	.LBB324:
 1799              	.LBB322:
 1800              		.loc 1 130 0
 1801 0014 1C60     		str	r4, [r3]
 1802              	.LVL155:
 1803              	.LBE322:
 1804              	.LBE324:
 1805              		.loc 1 778 0
 1806 0016 5268     		ldr	r2, [r2, #4]
 1807              	.LVL156:
 1808              	.LBB325:
 1809              	.LBB326:
 1810              		.loc 1 640 0
 1811 0018 154C     		ldr	r4, .L130+12
 1812              	.LBE326:
 1813              	.LBE325:
 1814              	.LBB329:
 1815              	.LBB323:
 1816              		.loc 1 130 0
 1817 001a 1A60     		str	r2, [r3]
 1818              	.LVL157:
 1819              	.LBE323:
 1820              	.LBE329:
 1821              		.loc 1 780 0
 1822 001c 154B     		ldr	r3, .L130+16
 1823              	.LBB330:
 1824              	.LBB327:
ARM GAS  /tmp/cc9QhaO4.s 			page 33


 1825              		.loc 1 640 0
 1826 001e 2060     		str	r0, [r4]
 1827              		.loc 1 642 0
 1828 0020 201D     		adds	r0, r4, #4
 1829              	.LVL158:
 1830              	.LBE327:
 1831              	.LBE330:
 1832              		.loc 1 780 0
 1833 0022 1D70     		strb	r5, [r3]
 1834              	.LVL159:
 1835              	.LBB331:
 1836              	.LBB328:
 1837              		.loc 1 641 0
 1838 0024 84F82610 		strb	r1, [r4, #38]
 1839              		.loc 1 642 0
 1840 0028 FFF7FEFF 		bl	chopstx_mutex_init
 1841              	.LVL160:
 1842              		.loc 1 643 0
 1843 002c 04F11400 		add	r0, r4, #20
 1844 0030 FFF7FEFF 		bl	chopstx_cond_init
 1845              	.LVL161:
 1846              		.loc 1 644 0
 1847 0034 04F11C00 		add	r0, r4, #28
 1848 0038 FFF7FEFF 		bl	chopstx_cond_init
 1849              	.LVL162:
 1850              		.loc 1 646 0
 1851 003c 94F82730 		ldrb	r3, [r4, #39]	@ zero_extendqisi2
 1852              		.loc 1 645 0
 1853 0040 A584     		strh	r5, [r4, #36]	@ movhi
 1854              		.loc 1 647 0
 1855 0042 03F0FE03 		and	r3, r3, #254
 1856 0046 43F00203 		orr	r3, r3, #2
 1857 004a 84F82730 		strb	r3, [r4, #39]
 1858              	.LVL163:
 1859              	.LBE328:
 1860              	.LBE331:
 1861              		.loc 1 783 0
 1862 004e 0A4A     		ldr	r2, .L130+20
 1863 0050 0094     		str	r4, [sp]
 1864 0052 0A4B     		ldr	r3, .L130+24
 1865 0054 0A49     		ldr	r1, .L130+28
 1866 0056 0220     		movs	r0, #2
 1867 0058 FFF7FEFF 		bl	chopstx_create
 1868              	.LVL164:
 1869 005c 094B     		ldr	r3, .L130+32
 1870 005e 1860     		str	r0, [r3]
 1871              		.loc 1 785 0
 1872 0060 03B0     		add	sp, sp, #12
 1873              		.cfi_def_cfa_offset 12
 1874              		@ sp needed
 1875 0062 30BD     		pop	{r4, r5, pc}
 1876              	.L131:
 1877              		.align	2
 1878              	.L130:
 1879 0064 E8F7FF1F 		.word	536868840
 1880 0068 00300240 		.word	1073885184
 1881 006c ECF7FF1F 		.word	536868844
ARM GAS  /tmp/cc9QhaO4.s 			page 34


 1882 0070 00000000 		.word	.LANCHOR17
 1883 0074 00000000 		.word	.LANCHOR20
 1884 0078 00000000 		.word	__process5_stack_size__
 1885 007c 00000000 		.word	rng
 1886 0080 00000000 		.word	__process5_stack_base__
 1887 0084 00000000 		.word	.LANCHOR24
 1888              		.cfi_endproc
 1889              	.LFE36:
 1890              		.size	neug_init, .-neug_init
 1891              		.section	.text.neug_flush,"ax",%progbits
 1892              		.align	1
 1893              		.global	neug_flush
 1894              		.syntax unified
 1895              		.thumb
 1896              		.thumb_func
 1897              		.fpu softvfp
 1898              		.type	neug_flush, %function
 1899              	neug_flush:
 1900              	.LFB37:
 1901              		.loc 1 792 0
 1902              		.cfi_startproc
 1903              		@ args = 0, pretend = 0, frame = 0
 1904              		@ frame_needed = 0, uses_anonymous_args = 0
 1905              	.LVL165:
 1906 0000 10B5     		push	{r4, lr}
 1907              		.cfi_def_cfa_offset 8
 1908              		.cfi_offset 4, -8
 1909              		.cfi_offset 14, -4
 1910              		.loc 1 795 0
 1911 0002 0948     		ldr	r0, .L135
 1912 0004 FFF7FEFF 		bl	chopstx_mutex_lock
 1913              	.LVL166:
 1914              		.loc 1 796 0
 1915 0008 084C     		ldr	r4, .L135+4
 1916              	.L133:
 1917 000a 94F82730 		ldrb	r3, [r4, #39]	@ zero_extendqisi2
 1918 000e 9B07     		lsls	r3, r3, #30
 1919 0010 07D5     		bpl	.L134
 1920              		.loc 1 798 0
 1921 0012 0748     		ldr	r0, .L135+8
 1922 0014 FFF7FEFF 		bl	chopstx_cond_signal
 1923              	.LVL167:
 1924              		.loc 1 800 0
 1925 0018 BDE81040 		pop	{r4, lr}
 1926              		.cfi_remember_state
 1927              		.cfi_restore 14
 1928              		.cfi_restore 4
 1929              		.cfi_def_cfa_offset 0
 1930              		.loc 1 799 0
 1931 001c 0248     		ldr	r0, .L135
 1932 001e FFF7FEBF 		b	chopstx_mutex_unlock
 1933              	.LVL168:
 1934              	.L134:
 1935              		.cfi_restore_state
 1936              		.loc 1 797 0
 1937 0022 FFF7FEFF 		bl	rb_del.constprop.2
 1938              	.LVL169:
ARM GAS  /tmp/cc9QhaO4.s 			page 35


 1939 0026 F0E7     		b	.L133
 1940              	.L136:
 1941              		.align	2
 1942              	.L135:
 1943 0028 04000000 		.word	.LANCHOR17+4
 1944 002c 00000000 		.word	.LANCHOR17
 1945 0030 1C000000 		.word	.LANCHOR17+28
 1946              		.cfi_endproc
 1947              	.LFE37:
 1948              		.size	neug_flush, .-neug_flush
 1949              		.section	.text.neug_kick_filling,"ax",%progbits
 1950              		.align	1
 1951              		.global	neug_kick_filling
 1952              		.syntax unified
 1953              		.thumb
 1954              		.thumb_func
 1955              		.fpu softvfp
 1956              		.type	neug_kick_filling, %function
 1957              	neug_kick_filling:
 1958              	.LFB38:
 1959              		.loc 1 808 0
 1960              		.cfi_startproc
 1961              		@ args = 0, pretend = 0, frame = 0
 1962              		@ frame_needed = 0, uses_anonymous_args = 0
 1963              	.LVL170:
 1964 0000 10B5     		push	{r4, lr}
 1965              		.cfi_def_cfa_offset 8
 1966              		.cfi_offset 4, -8
 1967              		.cfi_offset 14, -4
 1968              		.loc 1 811 0
 1969 0002 084C     		ldr	r4, .L139
 1970 0004 201D     		adds	r0, r4, #4
 1971 0006 FFF7FEFF 		bl	chopstx_mutex_lock
 1972              	.LVL171:
 1973              		.loc 1 812 0
 1974 000a 94F82730 		ldrb	r3, [r4, #39]	@ zero_extendqisi2
 1975 000e DB07     		lsls	r3, r3, #31
 1976 0010 03D4     		bmi	.L138
 1977              		.loc 1 813 0
 1978 0012 04F11C00 		add	r0, r4, #28
 1979 0016 FFF7FEFF 		bl	chopstx_cond_signal
 1980              	.LVL172:
 1981              	.L138:
 1982              		.loc 1 815 0
 1983 001a BDE81040 		pop	{r4, lr}
 1984              		.cfi_restore 14
 1985              		.cfi_restore 4
 1986              		.cfi_def_cfa_offset 0
 1987              		.loc 1 814 0
 1988 001e 0248     		ldr	r0, .L139+4
 1989 0020 FFF7FEBF 		b	chopstx_mutex_unlock
 1990              	.LVL173:
 1991              	.L140:
 1992              		.align	2
 1993              	.L139:
 1994 0024 00000000 		.word	.LANCHOR17
 1995 0028 04000000 		.word	.LANCHOR17+4
ARM GAS  /tmp/cc9QhaO4.s 			page 36


 1996              		.cfi_endproc
 1997              	.LFE38:
 1998              		.size	neug_kick_filling, .-neug_kick_filling
 1999              		.section	.text.neug_get,"ax",%progbits
 2000              		.align	1
 2001              		.global	neug_get
 2002              		.syntax unified
 2003              		.thumb
 2004              		.thumb_func
 2005              		.fpu softvfp
 2006              		.type	neug_get, %function
 2007              	neug_get:
 2008              	.LFB39:
 2009              		.loc 1 825 0
 2010              		.cfi_startproc
 2011              		@ args = 0, pretend = 0, frame = 0
 2012              		@ frame_needed = 0, uses_anonymous_args = 0
 2013              	.LVL174:
 2014 0000 70B5     		push	{r4, r5, r6, lr}
 2015              		.cfi_def_cfa_offset 16
 2016              		.cfi_offset 4, -16
 2017              		.cfi_offset 5, -12
 2018              		.cfi_offset 6, -8
 2019              		.cfi_offset 14, -4
 2020              		.loc 1 825 0
 2021 0002 0546     		mov	r5, r0
 2022              		.loc 1 829 0
 2023 0004 0C48     		ldr	r0, .L148
 2024              	.LVL175:
 2025 0006 FFF7FEFF 		bl	chopstx_mutex_lock
 2026              	.LVL176:
 2027              		.loc 1 830 0
 2028 000a 0C4C     		ldr	r4, .L148+4
 2029              		.loc 1 831 0
 2030 000c 261D     		adds	r6, r4, #4
 2031              	.L142:
 2032              		.loc 1 830 0
 2033 000e 94F82730 		ldrb	r3, [r4, #39]	@ zero_extendqisi2
 2034 0012 9B07     		lsls	r3, r3, #30
 2035 0014 0BD4     		bmi	.L143
 2036              		.loc 1 832 0
 2037 0016 FFF7FEFF 		bl	rb_del.constprop.2
 2038              	.LVL177:
 2039 001a 0446     		mov	r4, r0
 2040              	.LVL178:
 2041              		.loc 1 833 0
 2042 001c 15B1     		cbz	r5, .L144
 2043              		.loc 1 834 0
 2044 001e 0848     		ldr	r0, .L148+8
 2045              	.LVL179:
 2046 0020 FFF7FEFF 		bl	chopstx_cond_signal
 2047              	.LVL180:
 2048              	.L144:
 2049              		.loc 1 835 0
 2050 0024 0448     		ldr	r0, .L148
 2051 0026 FFF7FEFF 		bl	chopstx_mutex_unlock
 2052              	.LVL181:
ARM GAS  /tmp/cc9QhaO4.s 			page 37


 2053              		.loc 1 838 0
 2054 002a 2046     		mov	r0, r4
 2055 002c 70BD     		pop	{r4, r5, r6, pc}
 2056              	.LVL182:
 2057              	.L143:
 2058              		.loc 1 831 0
 2059 002e 3146     		mov	r1, r6
 2060 0030 0448     		ldr	r0, .L148+12
 2061 0032 FFF7FEFF 		bl	chopstx_cond_wait
 2062              	.LVL183:
 2063 0036 EAE7     		b	.L142
 2064              	.L149:
 2065              		.align	2
 2066              	.L148:
 2067 0038 04000000 		.word	.LANCHOR17+4
 2068 003c 00000000 		.word	.LANCHOR17
 2069 0040 1C000000 		.word	.LANCHOR17+28
 2070 0044 14000000 		.word	.LANCHOR17+20
 2071              		.cfi_endproc
 2072              	.LFE39:
 2073              		.size	neug_get, .-neug_get
 2074              		.section	.text.neug_get_nonblock,"ax",%progbits
 2075              		.align	1
 2076              		.global	neug_get_nonblock
 2077              		.syntax unified
 2078              		.thumb
 2079              		.thumb_func
 2080              		.fpu softvfp
 2081              		.type	neug_get_nonblock, %function
 2082              	neug_get_nonblock:
 2083              	.LFB40:
 2084              		.loc 1 842 0
 2085              		.cfi_startproc
 2086              		@ args = 0, pretend = 0, frame = 0
 2087              		@ frame_needed = 0, uses_anonymous_args = 0
 2088              	.LVL184:
 2089 0000 70B5     		push	{r4, r5, r6, lr}
 2090              		.cfi_def_cfa_offset 16
 2091              		.cfi_offset 4, -16
 2092              		.cfi_offset 5, -12
 2093              		.cfi_offset 6, -8
 2094              		.cfi_offset 14, -4
 2095              		.loc 1 846 0
 2096 0002 0C4D     		ldr	r5, .L153
 2097              		.loc 1 842 0
 2098 0004 0646     		mov	r6, r0
 2099              		.loc 1 846 0
 2100 0006 281D     		adds	r0, r5, #4
 2101              	.LVL185:
 2102 0008 FFF7FEFF 		bl	chopstx_mutex_lock
 2103              	.LVL186:
 2104              		.loc 1 847 0
 2105 000c 95F82740 		ldrb	r4, [r5, #39]	@ zero_extendqisi2
 2106 0010 14F00204 		ands	r4, r4, #2
 2107 0014 0AD0     		beq	.L151
 2108              	.LVL187:
 2109              		.loc 1 850 0
ARM GAS  /tmp/cc9QhaO4.s 			page 38


 2110 0016 05F11C00 		add	r0, r5, #28
 2111 001a FFF7FEFF 		bl	chopstx_cond_signal
 2112              	.LVL188:
 2113              		.loc 1 849 0
 2114 001e 4FF0FF34 		mov	r4, #-1
 2115              	.LVL189:
 2116              	.L152:
 2117              		.loc 1 854 0
 2118 0022 0548     		ldr	r0, .L153+4
 2119 0024 FFF7FEFF 		bl	chopstx_mutex_unlock
 2120              	.LVL190:
 2121              		.loc 1 857 0
 2122 0028 2046     		mov	r0, r4
 2123 002a 70BD     		pop	{r4, r5, r6, pc}
 2124              	.LVL191:
 2125              	.L151:
 2126              		.loc 1 853 0
 2127 002c FFF7FEFF 		bl	rb_del.constprop.2
 2128              	.LVL192:
 2129 0030 3060     		str	r0, [r6]
 2130 0032 F6E7     		b	.L152
 2131              	.L154:
 2132              		.align	2
 2133              	.L153:
 2134 0034 00000000 		.word	.LANCHOR17
 2135 0038 04000000 		.word	.LANCHOR17+4
 2136              		.cfi_endproc
 2137              	.LFE40:
 2138              		.size	neug_get_nonblock, .-neug_get_nonblock
 2139              		.section	.text.neug_consume_random,"ax",%progbits
 2140              		.align	1
 2141              		.global	neug_consume_random
 2142              		.syntax unified
 2143              		.thumb
 2144              		.thumb_func
 2145              		.fpu softvfp
 2146              		.type	neug_consume_random, %function
 2147              	neug_consume_random:
 2148              	.LFB41:
 2149              		.loc 1 860 0
 2150              		.cfi_startproc
 2151              		@ args = 0, pretend = 0, frame = 0
 2152              		@ frame_needed = 0, uses_anonymous_args = 0
 2153              	.LVL193:
 2154 0000 70B5     		push	{r4, r5, r6, lr}
 2155              		.cfi_def_cfa_offset 16
 2156              		.cfi_offset 4, -16
 2157              		.cfi_offset 5, -12
 2158              		.cfi_offset 6, -8
 2159              		.cfi_offset 14, -4
 2160              		.loc 1 860 0
 2161 0002 0646     		mov	r6, r0
 2162              		.loc 1 864 0
 2163 0004 0B48     		ldr	r0, .L158
 2164              	.LVL194:
 2165 0006 FFF7FEFF 		bl	chopstx_mutex_lock
 2166              	.LVL195:
ARM GAS  /tmp/cc9QhaO4.s 			page 39


 2167              		.loc 1 861 0
 2168 000a 0024     		movs	r4, #0
 2169              		.loc 1 865 0
 2170 000c 0A4D     		ldr	r5, .L158+4
 2171              	.LVL196:
 2172              	.L156:
 2173 000e 95F82730 		ldrb	r3, [r5, #39]	@ zero_extendqisi2
 2174 0012 9B07     		lsls	r3, r3, #30
 2175 0014 07D5     		bpl	.L157
 2176              		.loc 1 873 0
 2177 0016 0948     		ldr	r0, .L158+8
 2178 0018 FFF7FEFF 		bl	chopstx_cond_signal
 2179              	.LVL197:
 2180              		.loc 1 874 0
 2181 001c 0548     		ldr	r0, .L158
 2182 001e FFF7FEFF 		bl	chopstx_mutex_unlock
 2183              	.LVL198:
 2184              		.loc 1 877 0
 2185 0022 2046     		mov	r0, r4
 2186 0024 70BD     		pop	{r4, r5, r6, pc}
 2187              	.LVL199:
 2188              	.L157:
 2189              	.LBB332:
 2190              		.loc 1 869 0
 2191 0026 FFF7FEFF 		bl	rb_del.constprop.2
 2192              	.LVL200:
 2193              		.loc 1 870 0
 2194 002a 2146     		mov	r1, r4
 2195 002c B047     		blx	r6
 2196              	.LVL201:
 2197              		.loc 1 871 0
 2198 002e 0134     		adds	r4, r4, #1
 2199              	.LVL202:
 2200 0030 EDE7     		b	.L156
 2201              	.L159:
 2202 0032 00BF     		.align	2
 2203              	.L158:
 2204 0034 04000000 		.word	.LANCHOR17+4
 2205 0038 00000000 		.word	.LANCHOR17
 2206 003c 1C000000 		.word	.LANCHOR17+28
 2207              	.LBE332:
 2208              		.cfi_endproc
 2209              	.LFE41:
 2210              		.size	neug_consume_random, .-neug_consume_random
 2211              		.section	.text.neug_wait_full,"ax",%progbits
 2212              		.align	1
 2213              		.global	neug_wait_full
 2214              		.syntax unified
 2215              		.thumb
 2216              		.thumb_func
 2217              		.fpu softvfp
 2218              		.type	neug_wait_full, %function
 2219              	neug_wait_full:
 2220              	.LFB42:
 2221              		.loc 1 881 0
 2222              		.cfi_startproc
 2223              		@ args = 0, pretend = 0, frame = 0
ARM GAS  /tmp/cc9QhaO4.s 			page 40


 2224              		@ frame_needed = 0, uses_anonymous_args = 0
 2225              	.LVL203:
 2226 0000 38B5     		push	{r3, r4, r5, lr}
 2227              		.cfi_def_cfa_offset 16
 2228              		.cfi_offset 3, -16
 2229              		.cfi_offset 4, -12
 2230              		.cfi_offset 5, -8
 2231              		.cfi_offset 14, -4
 2232              		.loc 1 884 0
 2233 0002 0948     		ldr	r0, .L163
 2234 0004 FFF7FEFF 		bl	chopstx_mutex_lock
 2235              	.LVL204:
 2236              		.loc 1 885 0
 2237 0008 084C     		ldr	r4, .L163+4
 2238              		.loc 1 886 0
 2239 000a 251D     		adds	r5, r4, #4
 2240              	.L161:
 2241              		.loc 1 885 0
 2242 000c 94F82730 		ldrb	r3, [r4, #39]	@ zero_extendqisi2
 2243 0010 DB07     		lsls	r3, r3, #31
 2244 0012 04D5     		bpl	.L162
 2245              		.loc 1 888 0
 2246 0014 BDE83840 		pop	{r3, r4, r5, lr}
 2247              		.cfi_remember_state
 2248              		.cfi_restore 14
 2249              		.cfi_restore 5
 2250              		.cfi_restore 4
 2251              		.cfi_restore 3
 2252              		.cfi_def_cfa_offset 0
 2253              		.loc 1 887 0
 2254 0018 0348     		ldr	r0, .L163
 2255 001a FFF7FEBF 		b	chopstx_mutex_unlock
 2256              	.LVL205:
 2257              	.L162:
 2258              		.cfi_restore_state
 2259              		.loc 1 886 0
 2260 001e 2946     		mov	r1, r5
 2261 0020 0348     		ldr	r0, .L163+8
 2262 0022 FFF7FEFF 		bl	chopstx_cond_wait
 2263              	.LVL206:
 2264 0026 F1E7     		b	.L161
 2265              	.L164:
 2266              		.align	2
 2267              	.L163:
 2268 0028 04000000 		.word	.LANCHOR17+4
 2269 002c 00000000 		.word	.LANCHOR17
 2270 0030 14000000 		.word	.LANCHOR17+20
 2271              		.cfi_endproc
 2272              	.LFE42:
 2273              		.size	neug_wait_full, .-neug_wait_full
 2274              		.section	.text.neug_fini,"ax",%progbits
 2275              		.align	1
 2276              		.global	neug_fini
 2277              		.syntax unified
 2278              		.thumb
 2279              		.thumb_func
 2280              		.fpu softvfp
ARM GAS  /tmp/cc9QhaO4.s 			page 41


 2281              		.type	neug_fini, %function
 2282              	neug_fini:
 2283              	.LFB43:
 2284              		.loc 1 892 0
 2285              		.cfi_startproc
 2286              		@ args = 0, pretend = 0, frame = 0
 2287              		@ frame_needed = 0, uses_anonymous_args = 0
 2288              		.loc 1 893 0
 2289 0000 0120     		movs	r0, #1
 2290              		.loc 1 892 0
 2291 0002 08B5     		push	{r3, lr}
 2292              		.cfi_def_cfa_offset 8
 2293              		.cfi_offset 3, -8
 2294              		.cfi_offset 14, -4
 2295              		.loc 1 893 0
 2296 0004 054B     		ldr	r3, .L166
 2297 0006 1860     		str	r0, [r3]
 2298              		.loc 1 894 0
 2299 0008 FFF7FEFF 		bl	neug_get
 2300              	.LVL207:
 2301              		.loc 1 895 0
 2302 000c 044B     		ldr	r3, .L166+4
 2303 000e 0021     		movs	r1, #0
 2304 0010 1868     		ldr	r0, [r3]
 2305              		.loc 1 896 0
 2306 0012 BDE80840 		pop	{r3, lr}
 2307              		.cfi_restore 14
 2308              		.cfi_restore 3
 2309              		.cfi_def_cfa_offset 0
 2310              		.loc 1 895 0
 2311 0016 FFF7FEBF 		b	chopstx_join
 2312              	.LVL208:
 2313              	.L167:
 2314 001a 00BF     		.align	2
 2315              	.L166:
 2316 001c 00000000 		.word	.LANCHOR21
 2317 0020 00000000 		.word	.LANCHOR24
 2318              		.cfi_endproc
 2319              	.LFE43:
 2320              		.size	neug_fini, .-neug_fini
 2321              		.section	.text.neug_mode_select,"ax",%progbits
 2322              		.align	1
 2323              		.global	neug_mode_select
 2324              		.syntax unified
 2325              		.thumb
 2326              		.thumb_func
 2327              		.fpu softvfp
 2328              		.type	neug_mode_select, %function
 2329              	neug_mode_select:
 2330              	.LFB44:
 2331              		.loc 1 900 0
 2332              		.cfi_startproc
 2333              		@ args = 0, pretend = 0, frame = 0
 2334              		@ frame_needed = 0, uses_anonymous_args = 0
 2335              	.LVL209:
 2336 0000 38B5     		push	{r3, r4, r5, lr}
 2337              		.cfi_def_cfa_offset 16
ARM GAS  /tmp/cc9QhaO4.s 			page 42


 2338              		.cfi_offset 3, -16
 2339              		.cfi_offset 4, -12
 2340              		.cfi_offset 5, -8
 2341              		.cfi_offset 14, -4
 2342              		.loc 1 901 0
 2343 0002 0D4C     		ldr	r4, .L170
 2344              		.loc 1 900 0
 2345 0004 0546     		mov	r5, r0
 2346              		.loc 1 901 0
 2347 0006 2378     		ldrb	r3, [r4]	@ zero_extendqisi2
 2348 0008 8342     		cmp	r3, r0
 2349 000a 14D0     		beq	.L168
 2350              		.loc 1 904 0
 2351 000c FFF7FEFF 		bl	neug_wait_full
 2352              	.LVL210:
 2353              		.loc 1 906 0
 2354 0010 0A48     		ldr	r0, .L170+4
 2355 0012 FFF7FEFF 		bl	chopstx_mutex_lock
 2356              	.LVL211:
 2357              		.loc 1 907 0
 2358 0016 2570     		strb	r5, [r4]
 2359              		.loc 1 908 0
 2360 0018 FFF7FEFF 		bl	neug_flush
 2361              	.LVL212:
 2362              		.loc 1 909 0
 2363 001c 0749     		ldr	r1, .L170+4
 2364 001e 0848     		ldr	r0, .L170+8
 2365 0020 FFF7FEFF 		bl	chopstx_cond_wait
 2366              	.LVL213:
 2367              		.loc 1 910 0
 2368 0024 0548     		ldr	r0, .L170+4
 2369 0026 FFF7FEFF 		bl	chopstx_mutex_unlock
 2370              	.LVL214:
 2371              		.loc 1 912 0
 2372 002a FFF7FEFF 		bl	neug_wait_full
 2373              	.LVL215:
 2374              		.loc 1 914 0
 2375 002e BDE83840 		pop	{r3, r4, r5, lr}
 2376              		.cfi_remember_state
 2377              		.cfi_restore 14
 2378              		.cfi_restore 5
 2379              		.cfi_restore 4
 2380              		.cfi_restore 3
 2381              		.cfi_def_cfa_offset 0
 2382              		.loc 1 913 0
 2383 0032 FFF7FEBF 		b	neug_flush
 2384              	.LVL216:
 2385              	.L168:
 2386              		.cfi_restore_state
 2387              		.loc 1 914 0
 2388 0036 38BD     		pop	{r3, r4, r5, pc}
 2389              	.L171:
 2390              		.align	2
 2391              	.L170:
 2392 0038 00000000 		.word	.LANCHOR20
 2393 003c 00000000 		.word	.LANCHOR22
 2394 0040 00000000 		.word	.LANCHOR23
ARM GAS  /tmp/cc9QhaO4.s 			page 43


 2395              		.cfi_endproc
 2396              	.LFE44:
 2397              		.size	neug_mode_select, .-neug_mode_select
 2398              		.global	neug_mode
 2399              		.global	neug_p4k_max
 2400              		.global	neug_p64_max
 2401              		.global	neug_rc_max
 2402              		.global	neug_err_cnt_p4k
 2403              		.global	neug_err_cnt_p64
 2404              		.global	neug_err_cnt_rc
 2405              		.global	neug_err_cnt
 2406              		.global	neug_err_state
 2407              		.section	.bss.ap4096t_a,"aw",%nobits
 2408              		.set	.LANCHOR13,. + 0
 2409              		.type	ap4096t_a, %object
 2410              		.size	ap4096t_a, 1
 2411              	ap4096t_a:
 2412 0000 00       		.space	1
 2413              		.section	.bss.ap4096t_b,"aw",%nobits
 2414              		.align	1
 2415              		.set	.LANCHOR14,. + 0
 2416              		.type	ap4096t_b, %object
 2417              		.size	ap4096t_b, 2
 2418              	ap4096t_b:
 2419 0000 0000     		.space	2
 2420              		.section	.bss.ap4096t_s,"aw",%nobits
 2421              		.align	1
 2422              		.set	.LANCHOR12,. + 0
 2423              		.type	ap4096t_s, %object
 2424              		.size	ap4096t_s, 2
 2425              	ap4096t_s:
 2426 0000 0000     		.space	2
 2427              		.section	.bss.ap64t_a,"aw",%nobits
 2428              		.set	.LANCHOR9,. + 0
 2429              		.type	ap64t_a, %object
 2430              		.size	ap64t_a, 1
 2431              	ap64t_a:
 2432 0000 00       		.space	1
 2433              		.section	.bss.ap64t_b,"aw",%nobits
 2434              		.set	.LANCHOR10,. + 0
 2435              		.type	ap64t_b, %object
 2436              		.size	ap64t_b, 1
 2437              	ap64t_b:
 2438 0000 00       		.space	1
 2439              		.section	.bss.ap64t_s,"aw",%nobits
 2440              		.set	.LANCHOR8,. + 0
 2441              		.type	ap64t_s, %object
 2442              		.size	ap64t_s, 1
 2443              	ap64t_s:
 2444 0000 00       		.space	1
 2445              		.section	.bss.ep_round,"aw",%nobits
 2446              		.set	.LANCHOR16,. + 0
 2447              		.type	ep_round, %object
 2448              		.size	ep_round, 1
 2449              	ep_round:
 2450 0000 00       		.space	1
 2451              		.section	.bss.mode_cond,"aw",%nobits
ARM GAS  /tmp/cc9QhaO4.s 			page 44


 2452              		.align	2
 2453              		.set	.LANCHOR23,. + 0
 2454              		.type	mode_cond, %object
 2455              		.size	mode_cond, 8
 2456              	mode_cond:
 2457 0000 00000000 		.space	8
 2457      00000000 
 2458              		.section	.bss.mode_mtx,"aw",%nobits
 2459              		.align	2
 2460              		.set	.LANCHOR22,. + 0
 2461              		.type	mode_mtx, %object
 2462              		.size	mode_mtx, 16
 2463              	mode_mtx:
 2464 0000 00000000 		.space	16
 2464      00000000 
 2464      00000000 
 2464      00000000 
 2465              		.section	.bss.neug_err_cnt,"aw",%nobits
 2466              		.align	1
 2467              		.set	.LANCHOR1,. + 0
 2468              		.type	neug_err_cnt, %object
 2469              		.size	neug_err_cnt, 2
 2470              	neug_err_cnt:
 2471 0000 0000     		.space	2
 2472              		.section	.bss.neug_err_cnt_p4k,"aw",%nobits
 2473              		.align	1
 2474              		.set	.LANCHOR4,. + 0
 2475              		.type	neug_err_cnt_p4k, %object
 2476              		.size	neug_err_cnt_p4k, 2
 2477              	neug_err_cnt_p4k:
 2478 0000 0000     		.space	2
 2479              		.section	.bss.neug_err_cnt_p64,"aw",%nobits
 2480              		.align	1
 2481              		.set	.LANCHOR3,. + 0
 2482              		.type	neug_err_cnt_p64, %object
 2483              		.size	neug_err_cnt_p64, 2
 2484              	neug_err_cnt_p64:
 2485 0000 0000     		.space	2
 2486              		.section	.bss.neug_err_cnt_rc,"aw",%nobits
 2487              		.align	1
 2488              		.set	.LANCHOR2,. + 0
 2489              		.type	neug_err_cnt_rc, %object
 2490              		.size	neug_err_cnt_rc, 2
 2491              	neug_err_cnt_rc:
 2492 0000 0000     		.space	2
 2493              		.section	.bss.neug_err_state,"aw",%nobits
 2494              		.set	.LANCHOR0,. + 0
 2495              		.type	neug_err_state, %object
 2496              		.size	neug_err_state, 1
 2497              	neug_err_state:
 2498 0000 00       		.space	1
 2499              		.section	.bss.neug_mode,"aw",%nobits
 2500              		.set	.LANCHOR20,. + 0
 2501              		.type	neug_mode, %object
 2502              		.size	neug_mode, 1
 2503              	neug_mode:
 2504 0000 00       		.space	1
ARM GAS  /tmp/cc9QhaO4.s 			page 45


 2505              		.section	.bss.neug_p4k_max,"aw",%nobits
 2506              		.align	1
 2507              		.set	.LANCHOR15,. + 0
 2508              		.type	neug_p4k_max, %object
 2509              		.size	neug_p4k_max, 2
 2510              	neug_p4k_max:
 2511 0000 0000     		.space	2
 2512              		.section	.bss.neug_p64_max,"aw",%nobits
 2513              		.align	1
 2514              		.set	.LANCHOR11,. + 0
 2515              		.type	neug_p64_max, %object
 2516              		.size	neug_p64_max, 2
 2517              	neug_p64_max:
 2518 0000 0000     		.space	2
 2519              		.section	.bss.neug_rc_max,"aw",%nobits
 2520              		.align	1
 2521              		.set	.LANCHOR7,. + 0
 2522              		.type	neug_rc_max, %object
 2523              		.size	neug_rc_max, 2
 2524              	neug_rc_max:
 2525 0000 0000     		.space	2
 2526              		.section	.bss.rct_a,"aw",%nobits
 2527              		.set	.LANCHOR5,. + 0
 2528              		.type	rct_a, %object
 2529              		.size	rct_a, 1
 2530              	rct_a:
 2531 0000 00       		.space	1
 2532              		.section	.bss.rct_b,"aw",%nobits
 2533              		.set	.LANCHOR6,. + 0
 2534              		.type	rct_b, %object
 2535              		.size	rct_b, 1
 2536              	rct_b:
 2537 0000 00       		.space	1
 2538              		.section	.bss.rng_should_terminate,"aw",%nobits
 2539              		.align	2
 2540              		.set	.LANCHOR21,. + 0
 2541              		.type	rng_should_terminate, %object
 2542              		.size	rng_should_terminate, 4
 2543              	rng_should_terminate:
 2544 0000 00000000 		.space	4
 2545              		.section	.bss.rng_thread,"aw",%nobits
 2546              		.align	2
 2547              		.set	.LANCHOR24,. + 0
 2548              		.type	rng_thread, %object
 2549              		.size	rng_thread, 4
 2550              	rng_thread:
 2551 0000 00000000 		.space	4
 2552              		.section	.bss.sha256_ctx_data,"aw",%nobits
 2553              		.align	2
 2554              		.set	.LANCHOR18,. + 0
 2555              		.type	sha256_ctx_data, %object
 2556              		.size	sha256_ctx_data, 104
 2557              	sha256_ctx_data:
 2558 0000 00000000 		.space	104
 2558      00000000 
 2558      00000000 
 2558      00000000 
ARM GAS  /tmp/cc9QhaO4.s 			page 46


 2558      00000000 
 2559              		.section	.bss.sha256_output,"aw",%nobits
 2560              		.align	2
 2561              		.set	.LANCHOR19,. + 0
 2562              		.type	sha256_output, %object
 2563              		.size	sha256_output, 32
 2564              	sha256_output:
 2565 0000 00000000 		.space	32
 2565      00000000 
 2565      00000000 
 2565      00000000 
 2565      00000000 
 2566              		.section	.bss.the_ring_buffer,"aw",%nobits
 2567              		.align	2
 2568              		.set	.LANCHOR17,. + 0
 2569              		.type	the_ring_buffer, %object
 2570              		.size	the_ring_buffer, 40
 2571              	the_ring_buffer:
 2572 0000 00000000 		.space	40
 2572      00000000 
 2572      00000000 
 2572      00000000 
 2572      00000000 
 2573              		.text
 2574              	.Letext0:
 2575              		.file 2 "/usr/arm-none-eabi/include/machine/_default_types.h"
 2576              		.file 3 "/usr/arm-none-eabi/include/sys/_stdint.h"
 2577              		.file 4 "/usr/arm-none-eabi/include/sys/lock.h"
 2578              		.file 5 "/usr/arm-none-eabi/include/sys/_types.h"
 2579              		.file 6 "/usr/lib/gcc/arm-none-eabi/7.3.1/include/stddef.h"
 2580              		.file 7 "/usr/arm-none-eabi/include/sys/reent.h"
 2581              		.file 8 "../chopstx/chopstx.h"
 2582              		.file 9 "../chopstx/mcu/sys-stm32f103.h"
 2583              		.file 10 "neug.h"
 2584              		.file 11 "../chopstx/mcu/stm32f103.h"
 2585              		.file 12 "../chopstx/adc.h"
 2586              		.file 13 "sha256.h"