ARM GAS  /tmp/ccCMEwBR.s 			page 1


   1              		.cpu cortex-m3
   2              		.eabi_attribute 20, 1
   3              		.eabi_attribute 21, 1
   4              		.eabi_attribute 23, 3
   5              		.eabi_attribute 24, 1
   6              		.eabi_attribute 25, 1
   7              		.eabi_attribute 26, 1
   8              		.eabi_attribute 30, 4
   9              		.eabi_attribute 34, 1
  10              		.eabi_attribute 18, 4
  11              		.file	"sha256.c"
  12              		.text
  13              	.Ltext0:
  14              		.cfi_sections	.debug_frame
  15              		.section	.text.sha256_process,"ax",%progbits
  16              		.align	1
  17              		.global	sha256_process
  18              		.syntax unified
  19              		.thumb
  20              		.thumb_func
  21              		.fpu softvfp
  22              		.type	sha256_process, %function
  23              	sha256_process:
  24              	.LFB1:
  25              		.file 1 "sha256.c"
  26              		.loc 1 119 0
  27              		.cfi_startproc
  28              		@ args = 0, pretend = 0, frame = 104
  29              		@ frame_needed = 0, uses_anonymous_args = 0
  30              	.LVL0:
  31 0000 2DE9F04F 		push	{r4, r5, r6, r7, r8, r9, r10, fp, lr}
  32              		.cfi_def_cfa_offset 36
  33              		.cfi_offset 4, -36
  34              		.cfi_offset 5, -32
  35              		.cfi_offset 6, -28
  36              		.cfi_offset 7, -24
  37              		.cfi_offset 8, -20
  38              		.cfi_offset 9, -16
  39              		.cfi_offset 10, -12
  40              		.cfi_offset 11, -8
  41              		.cfi_offset 14, -4
  42 0004 9BB0     		sub	sp, sp, #108
  43              		.cfi_def_cfa_offset 144
  44              	.LVL1:
  45              		.loc 1 119 0
  46 0006 0190     		str	r0, [sp, #4]
  47              	.LVL2:
  48              		.loc 1 124 0
  49 0008 00F10802 		add	r2, r0, #8
  50 000c 12AD     		add	r5, sp, #72
  51 000e 00F12806 		add	r6, r0, #40
  52              	.LVL3:
  53              	.L2:
  54 0012 2C46     		mov	r4, r5
  55 0014 1068     		ldr	r0, [r2]	@ unaligned
  56 0016 5168     		ldr	r1, [r2, #4]	@ unaligned
  57 0018 0832     		adds	r2, r2, #8
ARM GAS  /tmp/ccCMEwBR.s 			page 2


  58 001a 03C4     		stmia	r4!, {r0, r1}
  59 001c B242     		cmp	r2, r6
  60 001e 2546     		mov	r5, r4
  61 0020 F7D1     		bne	.L2
  62              		.loc 1 126 0
  63 0022 DDE917C4 		ldrd	ip, r4, [sp, #92]
  64 0026 DDE91256 		ldrd	r5, r6, [sp, #72]
  65              	.LVL4:
  66 002a 019B     		ldr	r3, [sp, #4]
  67 002c 1998     		ldr	r0, [sp, #100]
  68 002e 9A6A     		ldr	r2, [r3, #40]
  69 0030 DA49     		ldr	r1, .L6
  70 0032 12BA     		rev	r2, r2
  71 0034 9A62     		str	r2, [r3, #40]
  72 0036 0292     		str	r2, [sp, #8]
  73 0038 169A     		ldr	r2, [sp, #88]
  74 003a 0144     		add	r1, r1, r0
  75 003c 4FEAF227 		ror	r7, r2, #11
  76 0040 87EAB217 		eor	r7, r7, r2, ror #6
  77 0044 87EA7267 		eor	r7, r7, r2, ror #25
  78 0048 0F44     		add	r7, r7, r1
  79 004a 84EA0C01 		eor	r1, r4, ip
  80 004e 1140     		ands	r1, r1, r2
  81 0050 6140     		eors	r1, r1, r4
  82 0052 0F44     		add	r7, r7, r1
  83 0054 0299     		ldr	r1, [sp, #8]
  84 0056 1598     		ldr	r0, [sp, #84]
  85 0058 7918     		adds	r1, r7, r1
  86 005a 4FEA7537 		ror	r7, r5, #13
  87 005e 01EB0009 		add	r9, r1, r0
  88 0062 87EAB507 		eor	r7, r7, r5, ror #2
  89 0066 1498     		ldr	r0, [sp, #80]
  90 0068 87EAB55E 		eor	lr, r7, r5, ror #22
  91 006c 85EA0607 		eor	r7, r5, r6
  92 0070 05EA0608 		and	r8, r5, r6
  93 0074 0740     		ands	r7, r7, r0
  94 0076 47EA0807 		orr	r7, r7, r8
  95 007a 7744     		add	r7, r7, lr
  96 007c 0F44     		add	r7, r7, r1
  97 007e D96A     		ldr	r1, [r3, #44]
  98 0080 82EA0C0E 		eor	lr, r2, ip
  99 0084 09BA     		rev	r1, r1
 100 0086 D962     		str	r1, [r3, #44]
 101 0088 0591     		str	r1, [sp, #20]
 102 008a C549     		ldr	r1, .L6+4
 103 008c 0EEA090E 		and	lr, lr, r9
 104 0090 2144     		add	r1, r1, r4
 105 0092 059C     		ldr	r4, [sp, #20]
 106 0094 8EEA0C0E 		eor	lr, lr, ip
 107 0098 2144     		add	r1, r1, r4
 108 009a 8E44     		add	lr, lr, r1
 109 009c 4FEAF921 		ror	r1, r9, #11
 110 00a0 81EAB911 		eor	r1, r1, r9, ror #6
 111 00a4 81EA7961 		eor	r1, r1, r9, ror #25
 112 00a8 7144     		add	r1, r1, lr
 113 00aa 85EA0704 		eor	r4, r5, r7
 114 00ae 4FEA773E 		ror	lr, r7, #13
ARM GAS  /tmp/ccCMEwBR.s 			page 3


 115 00b2 05EA0708 		and	r8, r5, r7
 116 00b6 8EEAB70E 		eor	lr, lr, r7, ror #2
 117 00ba 3440     		ands	r4, r4, r6
 118 00bc 44EA0804 		orr	r4, r4, r8
 119 00c0 8EEAB75E 		eor	lr, lr, r7, ror #22
 120 00c4 A644     		add	lr, lr, r4
 121 00c6 1C6B     		ldr	r4, [r3, #48]
 122 00c8 0844     		add	r0, r0, r1
 123 00ca 8E44     		add	lr, lr, r1
 124 00cc 21BA     		rev	r1, r4
 125 00ce 0891     		str	r1, [sp, #32]
 126 00d0 B44C     		ldr	r4, .L6+8
 127 00d2 1963     		str	r1, [r3, #48]
 128 00d4 82EA0901 		eor	r1, r2, r9
 129 00d8 089B     		ldr	r3, [sp, #32]
 130 00da 0140     		ands	r1, r1, r0
 131 00dc 6444     		add	r4, r4, ip
 132 00de 1C44     		add	r4, r4, r3
 133 00e0 5140     		eors	r1, r1, r2
 134 00e2 2144     		add	r1, r1, r4
 135 00e4 4FEAF024 		ror	r4, r0, #11
 136 00e8 84EAB014 		eor	r4, r4, r0, ror #6
 137 00ec 84EA7064 		eor	r4, r4, r0, ror #25
 138 00f0 2144     		add	r1, r1, r4
 139 00f2 06EB0108 		add	r8, r6, r1
 140 00f6 87EA0E04 		eor	r4, r7, lr
 141 00fa 4FEA7E36 		ror	r6, lr, #13
 142 00fe 07EA0E0C 		and	ip, r7, lr
 143 0102 019B     		ldr	r3, [sp, #4]
 144 0104 86EABE06 		eor	r6, r6, lr, ror #2
 145 0108 2C40     		ands	r4, r4, r5
 146 010a 44EA0C04 		orr	r4, r4, ip
 147 010e 86EABE56 		eor	r6, r6, lr, ror #22
 148 0112 2644     		add	r6, r6, r4
 149 0114 5C6B     		ldr	r4, [r3, #52]
 150 0116 0E44     		add	r6, r6, r1
 151 0118 0199     		ldr	r1, [sp, #4]
 152 011a 23BA     		rev	r3, r4
 153 011c 4B63     		str	r3, [r1, #52]
 154 011e A249     		ldr	r1, .L6+12
 155 0120 89EA000A 		eor	r10, r9, r0
 156 0124 0AEA080A 		and	r10, r10, r8
 157 0128 1144     		add	r1, r1, r2
 158 012a 4FEAF82C 		ror	ip, r8, #11
 159 012e 1944     		add	r1, r1, r3
 160 0130 8AEA090A 		eor	r10, r10, r9
 161 0134 8CEAB81C 		eor	ip, ip, r8, ror #6
 162 0138 8CEA786C 		eor	ip, ip, r8, ror #25
 163 013c 8A44     		add	r10, r10, r1
 164 013e 0AEB0C01 		add	r1, r10, ip
 165 0142 8EEA0602 		eor	r2, lr, r6
 166 0146 0A93     		str	r3, [sp, #40]
 167 0148 4FEA763C 		ror	ip, r6, #13
 168              		.loc 1 127 0
 169 014c 019B     		ldr	r3, [sp, #4]
 170              		.loc 1 126 0
 171 014e 0EEA0604 		and	r4, lr, r6
ARM GAS  /tmp/ccCMEwBR.s 			page 4


 172 0152 8CEAB60C 		eor	ip, ip, r6, ror #2
 173 0156 3A40     		ands	r2, r2, r7
 174 0158 2243     		orrs	r2, r2, r4
 175 015a 8CEAB65C 		eor	ip, ip, r6, ror #22
 176              		.loc 1 127 0
 177 015e 9C6B     		ldr	r4, [r3, #56]
 178              		.loc 1 126 0
 179 0160 9444     		add	ip, ip, r2
 180              		.loc 1 127 0
 181 0162 019A     		ldr	r2, [sp, #4]
 182 0164 23BA     		rev	r3, r4
 183 0166 9363     		str	r3, [r2, #56]
 184 0168 904A     		ldr	r2, .L6+16
 185              		.loc 1 126 0
 186 016a 0D44     		add	r5, r5, r1
 187 016c 8C44     		add	ip, ip, r1
 188              		.loc 1 127 0
 189 016e 80EA0801 		eor	r1, r0, r8
 190 0172 2940     		ands	r1, r1, r5
 191 0174 1A44     		add	r2, r2, r3
 192 0176 4FEAF52B 		ror	fp, r5, #11
 193 017a 4140     		eors	r1, r1, r0
 194 017c 4A44     		add	r2, r2, r9
 195 017e 8BEAB51B 		eor	fp, fp, r5, ror #6
 196 0182 8BEA756B 		eor	fp, fp, r5, ror #25
 197 0186 0A44     		add	r2, r2, r1
 198 0188 5A44     		add	r2, r2, fp
 199 018a 86EA0C01 		eor	r1, r6, ip
 200 018e 4FEA7C3B 		ror	fp, ip, #13
 201 0192 06EA0C04 		and	r4, r6, ip
 202 0196 0C93     		str	r3, [sp, #48]
 203 0198 8BEABC0B 		eor	fp, fp, ip, ror #2
 204 019c 01EA0E01 		and	r1, r1, lr
 205 01a0 019B     		ldr	r3, [sp, #4]
 206 01a2 2143     		orrs	r1, r1, r4
 207 01a4 8BEABC5B 		eor	fp, fp, ip, ror #22
 208 01a8 8B44     		add	fp, fp, r1
 209 01aa D96B     		ldr	r1, [r3, #60]
 210 01ac 1744     		add	r7, r7, r2
 211 01ae 9344     		add	fp, fp, r2
 212 01b0 019A     		ldr	r2, [sp, #4]
 213 01b2 0BBA     		rev	r3, r1
 214 01b4 D363     		str	r3, [r2, #60]
 215 01b6 7E4A     		ldr	r2, .L6+20
 216 01b8 88EA0501 		eor	r1, r8, r5
 217 01bc 3940     		ands	r1, r1, r7
 218 01be 1A44     		add	r2, r2, r3
 219 01c0 4FEAF72A 		ror	r10, r7, #11
 220 01c4 81EA0801 		eor	r1, r1, r8
 221 01c8 0244     		add	r2, r2, r0
 222 01ca 8AEAB71A 		eor	r10, r10, r7, ror #6
 223 01ce 8AEA776A 		eor	r10, r10, r7, ror #25
 224 01d2 0A44     		add	r2, r2, r1
 225 01d4 5244     		add	r2, r2, r10
 226 01d6 8CEA0B01 		eor	r1, ip, fp
 227 01da 4FEA7B3A 		ror	r10, fp, #13
 228 01de 0CEA0B00 		and	r0, ip, fp
ARM GAS  /tmp/ccCMEwBR.s 			page 5


 229 01e2 0E93     		str	r3, [sp, #56]
 230 01e4 8AEABB0A 		eor	r10, r10, fp, ror #2
 231 01e8 019B     		ldr	r3, [sp, #4]
 232 01ea 3140     		ands	r1, r1, r6
 233 01ec 0143     		orrs	r1, r1, r0
 234 01ee 8AEABB5A 		eor	r10, r10, fp, ror #22
 235 01f2 186C     		ldr	r0, [r3, #64]
 236 01f4 8A44     		add	r10, r10, r1
 237 01f6 9644     		add	lr, lr, r2
 238 01f8 9244     		add	r10, r10, r2
 239 01fa 019A     		ldr	r2, [sp, #4]
 240 01fc 03BA     		rev	r3, r0
 241 01fe 1364     		str	r3, [r2, #64]
 242 0200 6C4A     		ldr	r2, .L6+24
 243 0202 85EA0701 		eor	r1, r5, r7
 244 0206 01EA0E01 		and	r1, r1, lr
 245 020a 1A44     		add	r2, r2, r3
 246 020c 4FEAFE29 		ror	r9, lr, #11
 247 0210 6940     		eors	r1, r1, r5
 248 0212 4244     		add	r2, r2, r8
 249 0214 89EABE19 		eor	r9, r9, lr, ror #6
 250 0218 89EA7E69 		eor	r9, r9, lr, ror #25
 251 021c 0A44     		add	r2, r2, r1
 252 021e 4A44     		add	r2, r2, r9
 253 0220 8BEA0A01 		eor	r1, fp, r10
 254 0224 4FEA7A39 		ror	r9, r10, #13
 255 0228 0BEA0A00 		and	r0, fp, r10
 256 022c 0F93     		str	r3, [sp, #60]
 257 022e 89EABA09 		eor	r9, r9, r10, ror #2
 258 0232 019B     		ldr	r3, [sp, #4]
 259 0234 01EA0C01 		and	r1, r1, ip
 260 0238 0143     		orrs	r1, r1, r0
 261 023a 89EABA59 		eor	r9, r9, r10, ror #22
 262 023e 586C     		ldr	r0, [r3, #68]
 263 0240 8944     		add	r9, r9, r1
 264 0242 1644     		add	r6, r6, r2
 265 0244 9144     		add	r9, r9, r2
 266 0246 019A     		ldr	r2, [sp, #4]
 267 0248 03BA     		rev	r3, r0
 268 024a 5364     		str	r3, [r2, #68]
 269 024c 5A4A     		ldr	r2, .L6+28
 270 024e 87EA0E01 		eor	r1, r7, lr
 271 0252 3140     		ands	r1, r1, r6
 272 0254 1A44     		add	r2, r2, r3
 273 0256 4FEAF628 		ror	r8, r6, #11
 274 025a 7940     		eors	r1, r1, r7
 275 025c 2A44     		add	r2, r2, r5
 276 025e 88EAB618 		eor	r8, r8, r6, ror #6
 277 0262 88EA7668 		eor	r8, r8, r6, ror #25
 278 0266 0A44     		add	r2, r2, r1
 279 0268 4244     		add	r2, r2, r8
 280 026a 8AEA0901 		eor	r1, r10, r9
 281 026e 4FEA7938 		ror	r8, r9, #13
 282 0272 0AEA0900 		and	r0, r10, r9
 283 0276 1093     		str	r3, [sp, #64]
 284 0278 88EAB908 		eor	r8, r8, r9, ror #2
 285              		.loc 1 128 0
ARM GAS  /tmp/ccCMEwBR.s 			page 6


 286 027c 019B     		ldr	r3, [sp, #4]
 287              		.loc 1 127 0
 288 027e 01EA0B01 		and	r1, r1, fp
 289 0282 0143     		orrs	r1, r1, r0
 290 0284 88EAB958 		eor	r8, r8, r9, ror #22
 291              		.loc 1 128 0
 292 0288 9D6C     		ldr	r5, [r3, #72]
 293              		.loc 1 127 0
 294 028a 8844     		add	r8, r8, r1
 295 028c 9444     		add	ip, ip, r2
 296 028e 9044     		add	r8, r8, r2
 297              		.loc 1 128 0
 298 0290 4A4C     		ldr	r4, .L6+32
 299 0292 019A     		ldr	r2, [sp, #4]
 300 0294 2BBA     		rev	r3, r5
 301 0296 8EEA0601 		eor	r1, lr, r6
 302 029a 9364     		str	r3, [r2, #72]
 303 029c 01EA0C01 		and	r1, r1, ip
 304 02a0 1C44     		add	r4, r4, r3
 305 02a2 4FEAFC22 		ror	r2, ip, #11
 306 02a6 81EA0E01 		eor	r1, r1, lr
 307 02aa 3C44     		add	r4, r4, r7
 308 02ac 82EABC12 		eor	r2, r2, ip, ror #6
 309 02b0 82EA7C62 		eor	r2, r2, ip, ror #25
 310 02b4 0C44     		add	r4, r4, r1
 311 02b6 1444     		add	r4, r4, r2
 312 02b8 89EA0801 		eor	r1, r9, r8
 313 02bc 4FEA7832 		ror	r2, r8, #13
 314 02c0 09EA0800 		and	r0, r9, r8
 315 02c4 82EAB802 		eor	r2, r2, r8, ror #2
 316 02c8 01EA0A01 		and	r1, r1, r10
 317 02cc 0143     		orrs	r1, r1, r0
 318 02ce 1193     		str	r3, [sp, #68]
 319 02d0 82EAB852 		eor	r2, r2, r8, ror #22
 320 02d4 019B     		ldr	r3, [sp, #4]
 321 02d6 0A44     		add	r2, r2, r1
 322 02d8 A344     		add	fp, fp, r4
 323 02da 2244     		add	r2, r2, r4
 324 02dc DC6C     		ldr	r4, [r3, #76]
 325 02de 0199     		ldr	r1, [sp, #4]
 326 02e0 23BA     		rev	r3, r4
 327 02e2 CB64     		str	r3, [r1, #76]
 328 02e4 3649     		ldr	r1, .L6+36
 329 02e6 86EA0C00 		eor	r0, r6, ip
 330 02ea 00EA0B00 		and	r0, r0, fp
 331 02ee 1944     		add	r1, r1, r3
 332 02f0 4FEAFB24 		ror	r4, fp, #11
 333 02f4 7040     		eors	r0, r0, r6
 334 02f6 7144     		add	r1, r1, lr
 335 02f8 84EABB14 		eor	r4, r4, fp, ror #6
 336 02fc 84EA7B64 		eor	r4, r4, fp, ror #25
 337 0300 0144     		add	r1, r1, r0
 338 0302 2144     		add	r1, r1, r4
 339 0304 88EA0200 		eor	r0, r8, r2
 340 0308 4FEA7234 		ror	r4, r2, #13
 341 030c 08EA0205 		and	r5, r8, r2
 342 0310 84EAB204 		eor	r4, r4, r2, ror #2
ARM GAS  /tmp/ccCMEwBR.s 			page 7


 343 0314 00EA0900 		and	r0, r0, r9
 344 0318 2843     		orrs	r0, r0, r5
 345 031a 0493     		str	r3, [sp, #16]
 346 031c 84EAB254 		eor	r4, r4, r2, ror #22
 347 0320 019B     		ldr	r3, [sp, #4]
 348 0322 0444     		add	r4, r4, r0
 349 0324 8A44     		add	r10, r10, r1
 350 0326 0C44     		add	r4, r4, r1
 351 0328 196D     		ldr	r1, [r3, #80]
 352 032a 8CEA0B00 		eor	r0, ip, fp
 353 032e 0BBA     		rev	r3, r1
 354 0330 0199     		ldr	r1, [sp, #4]
 355 0332 00EA0A00 		and	r0, r0, r10
 356 0336 0B65     		str	r3, [r1, #80]
 357 0338 2249     		ldr	r1, .L6+40
 358 033a 4FEAFA25 		ror	r5, r10, #11
 359 033e 1944     		add	r1, r1, r3
 360 0340 80EA0C00 		eor	r0, r0, ip
 361 0344 3144     		add	r1, r1, r6
 362 0346 85EABA15 		eor	r5, r5, r10, ror #6
 363 034a 85EA7A65 		eor	r5, r5, r10, ror #25
 364 034e 0144     		add	r1, r1, r0
 365 0350 2944     		add	r1, r1, r5
 366 0352 82EA0400 		eor	r0, r2, r4
 367 0356 4FEA7435 		ror	r5, r4, #13
 368 035a 02EA0406 		and	r6, r2, r4
 369 035e 85EAB405 		eor	r5, r5, r4, ror #2
 370 0362 00EA0800 		and	r0, r0, r8
 371 0366 3043     		orrs	r0, r0, r6
 372 0368 0793     		str	r3, [sp, #28]
 373 036a 85EAB455 		eor	r5, r5, r4, ror #22
 374 036e 019B     		ldr	r3, [sp, #4]
 375 0370 0544     		add	r5, r5, r0
 376 0372 0D44     		add	r5, r5, r1
 377 0374 8944     		add	r9, r9, r1
 378 0376 596D     		ldr	r1, [r3, #84]
 379 0378 8BEA0A00 		eor	r0, fp, r10
 380 037c 0BBA     		rev	r3, r1
 381 037e 0993     		str	r3, [sp, #36]
 382 0380 0199     		ldr	r1, [sp, #4]
 383 0382 00EA0900 		and	r0, r0, r9
 384 0386 4B65     		str	r3, [r1, #84]
 385 0388 0F49     		ldr	r1, .L6+44
 386 038a 4FEAF926 		ror	r6, r9, #11
 387 038e 1944     		add	r1, r1, r3
 388 0390 80EA0B00 		eor	r0, r0, fp
 389 0394 6144     		add	r1, r1, ip
 390 0396 86EAB916 		eor	r6, r6, r9, ror #6
 391 039a 17E0     		b	.L7
 392              	.L8:
 393              		.align	2
 394              	.L6:
 395 039c 982F8A42 		.word	1116352408
 396 03a0 91443771 		.word	1899447441
 397 03a4 CFFBC0B5 		.word	-1245643825
 398 03a8 A5DBB5E9 		.word	-373957723
 399 03ac 5BC25639 		.word	961987163
ARM GAS  /tmp/ccCMEwBR.s 			page 8


 400 03b0 F111F159 		.word	1508970993
 401 03b4 A4823F92 		.word	-1841331548
 402 03b8 D55E1CAB 		.word	-1424204075
 403 03bc 98AA07D8 		.word	-670586216
 404 03c0 015B8312 		.word	310598401
 405 03c4 BE853124 		.word	607225278
 406 03c8 C37D0C55 		.word	1426881987
 407              	.L7:
 408 03cc 86EA7966 		eor	r6, r6, r9, ror #25
 409 03d0 0144     		add	r1, r1, r0
 410 03d2 3144     		add	r1, r1, r6
 411 03d4 84EA0500 		eor	r0, r4, r5
 412 03d8 4FEA7536 		ror	r6, r5, #13
 413 03dc 04EA0507 		and	r7, r4, r5
 414 03e0 86EAB506 		eor	r6, r6, r5, ror #2
 415 03e4 1040     		ands	r0, r0, r2
 416 03e6 3843     		orrs	r0, r0, r7
 417 03e8 86EAB556 		eor	r6, r6, r5, ror #22
 418              		.loc 1 129 0
 419 03ec 019B     		ldr	r3, [sp, #4]
 420              		.loc 1 128 0
 421 03ee 0644     		add	r6, r6, r0
 422 03f0 8844     		add	r8, r8, r1
 423 03f2 0E44     		add	r6, r6, r1
 424              		.loc 1 129 0
 425 03f4 996D     		ldr	r1, [r3, #88]
 426 03f6 5048     		ldr	r0, .L9
 427 03f8 0BBA     		rev	r3, r1
 428 03fa 0199     		ldr	r1, [sp, #4]
 429 03fc 8AEA0907 		eor	r7, r10, r9
 430 0400 8B65     		str	r3, [r1, #88]
 431 0402 07EA0807 		and	r7, r7, r8
 432 0406 1844     		add	r0, r0, r3
 433 0408 4FEAF821 		ror	r1, r8, #11
 434 040c 87EA0A07 		eor	r7, r7, r10
 435 0410 5844     		add	r0, r0, fp
 436 0412 81EAB811 		eor	r1, r1, r8, ror #6
 437 0416 81EA7861 		eor	r1, r1, r8, ror #25
 438 041a 3844     		add	r0, r0, r7
 439 041c 0844     		add	r0, r0, r1
 440 041e 85EA0607 		eor	r7, r5, r6
 441 0422 4FEA7631 		ror	r1, r6, #13
 442 0426 05EA060C 		and	ip, r5, r6
 443 042a 81EAB601 		eor	r1, r1, r6, ror #2
 444 042e 2740     		ands	r7, r7, r4
 445 0430 47EA0C07 		orr	r7, r7, ip
 446 0434 81EAB651 		eor	r1, r1, r6, ror #22
 447 0438 0B93     		str	r3, [sp, #44]
 448 043a 019B     		ldr	r3, [sp, #4]
 449 043c 3944     		add	r1, r1, r7
 450 043e 0144     		add	r1, r1, r0
 451 0440 0244     		add	r2, r2, r0
 452 0442 D86D     		ldr	r0, [r3, #92]
 453 0444 3D4F     		ldr	r7, .L9+4
 454 0446 03BA     		rev	r3, r0
 455 0448 0198     		ldr	r0, [sp, #4]
 456 044a 89EA080C 		eor	ip, r9, r8
ARM GAS  /tmp/ccCMEwBR.s 			page 9


 457 044e C365     		str	r3, [r0, #92]
 458 0450 1F44     		add	r7, r7, r3
 459 0452 0CEA020C 		and	ip, ip, r2
 460 0456 4FEAF220 		ror	r0, r2, #11
 461 045a 8CEA090C 		eor	ip, ip, r9
 462 045e 5744     		add	r7, r7, r10
 463 0460 80EAB210 		eor	r0, r0, r2, ror #6
 464 0464 6744     		add	r7, r7, ip
 465 0466 80EA7260 		eor	r0, r0, r2, ror #25
 466 046a 0744     		add	r7, r7, r0
 467 046c 86EA010C 		eor	ip, r6, r1
 468 0470 4FEA7130 		ror	r0, r1, #13
 469 0474 06EA010E 		and	lr, r6, r1
 470 0478 0CEA050C 		and	ip, ip, r5
 471 047c 0D93     		str	r3, [sp, #52]
 472 047e 80EAB100 		eor	r0, r0, r1, ror #2
 473 0482 019B     		ldr	r3, [sp, #4]
 474 0484 4CEA0E0C 		orr	ip, ip, lr
 475 0488 80EAB150 		eor	r0, r0, r1, ror #22
 476 048c 1B6E     		ldr	r3, [r3, #96]
 477 048e 6044     		add	r0, r0, ip
 478 0490 3844     		add	r0, r0, r7
 479 0492 3C44     		add	r4, r4, r7
 480 0494 019F     		ldr	r7, [sp, #4]
 481 0496 1BBA     		rev	r3, r3
 482 0498 3B66     		str	r3, [r7, #96]
 483 049a 294F     		ldr	r7, .L9+8
 484 049c 88EA020A 		eor	r10, r8, r2
 485 04a0 1F44     		add	r7, r7, r3
 486 04a2 0AEA040A 		and	r10, r10, r4
 487 04a6 4FEAF42C 		ror	ip, r4, #11
 488 04aa B944     		add	r9, r9, r7
 489 04ac 8AEA080A 		eor	r10, r10, r8
 490 04b0 8CEAB41C 		eor	ip, ip, r4, ror #6
 491 04b4 CA44     		add	r10, r10, r9
 492 04b6 8CEA746C 		eor	ip, ip, r4, ror #25
 493 04ba 0AEB0C0E 		add	lr, r10, ip
 494 04be 81EA0007 		eor	r7, r1, r0
 495 04c2 4FEA703C 		ror	ip, r0, #13
 496 04c6 3740     		ands	r7, r7, r6
 497 04c8 01EA0009 		and	r9, r1, r0
 498 04cc 0393     		str	r3, [sp, #12]
 499 04ce 8CEAB00C 		eor	ip, ip, r0, ror #2
 500 04d2 019B     		ldr	r3, [sp, #4]
 501 04d4 47EA0907 		orr	r7, r7, r9
 502 04d8 8CEAB05C 		eor	ip, ip, r0, ror #22
 503 04dc BC44     		add	ip, ip, r7
 504 04de 5F6E     		ldr	r7, [r3, #100]
 505 04e0 7544     		add	r5, r5, lr
 506 04e2 3BBA     		rev	r3, r7
 507 04e4 019F     		ldr	r7, [sp, #4]
 508 04e6 82EA0409 		eor	r9, r2, r4
 509 04ea 7B66     		str	r3, [r7, #100]
 510 04ec 154F     		ldr	r7, .L9+12
 511 04ee F444     		add	ip, ip, lr
 512 04f0 09EA0509 		and	r9, r9, r5
 513 04f4 1F44     		add	r7, r7, r3
ARM GAS  /tmp/ccCMEwBR.s 			page 10


 514 04f6 4FEAF52E 		ror	lr, r5, #11
 515 04fa 89EA0209 		eor	r9, r9, r2
 516 04fe 4744     		add	r7, r7, r8
 517 0500 8EEAB51E 		eor	lr, lr, r5, ror #6
 518 0504 4F44     		add	r7, r7, r9
 519 0506 8EEA756E 		eor	lr, lr, r5, ror #25
 520 050a 7744     		add	r7, r7, lr
 521 050c 80EA0C08 		eor	r8, r0, ip
 522 0510 4FEA7C3E 		ror	lr, ip, #13
 523 0514 8EEABC0E 		eor	lr, lr, ip, ror #2
 524 0518 08EA0108 		and	r8, r8, r1
 525 051c 00EA0C09 		and	r9, r0, ip
 526 0520 8EEABC5E 		eor	lr, lr, ip, ror #22
 527 0524 48EA0908 		orr	r8, r8, r9
 528 0528 C644     		add	lr, lr, r8
 529 052a DFF81CB0 		ldr	fp, .L9+16
 530 052e 0693     		str	r3, [sp, #24]
 531 0530 3E44     		add	r6, r6, r7
 532 0532 BE44     		add	lr, lr, r7
 533 0534 0AE0     		b	.L10
 534              	.L11:
 535 0536 00BF     		.align	2
 536              	.L9:
 537 0538 745DBE72 		.word	1925078388
 538 053c FEB1DE80 		.word	-2132889090
 539 0540 A706DC9B 		.word	-1680079193
 540 0544 74F19BC1 		.word	-1046744716
 541 0548 00000000 		.word	.LANCHOR0
 542              	.L10:
 543              	.LVL5:
 544              	.L3:
 545              		.loc 1 133 0 discriminator 3
 546 054c 039B     		ldr	r3, [sp, #12]
 547 054e 0EEA0C09 		and	r9, lr, ip
 548 0552 4FEAF347 		ror	r7, r3, #19
 549 0556 87EA7347 		eor	r7, r7, r3, ror #17
 550 055a 87EA9327 		eor	r7, r7, r3, lsr #10
 551 055e 059B     		ldr	r3, [sp, #20]
 552 0560 0BF1400B 		add	fp, fp, #64
 553 0564 4FEAB348 		ror	r8, r3, #18
 554 0568 88EAF318 		eor	r8, r8, r3, ror #7
 555 056c 88EAD308 		eor	r8, r8, r3, lsr #3
 556 0570 049B     		ldr	r3, [sp, #16]
 557 0572 4744     		add	r7, r7, r8
 558 0574 1F44     		add	r7, r7, r3
 559 0576 029B     		ldr	r3, [sp, #8]
 560 0578 3B44     		add	r3, r3, r7
 561 057a 4FEAF627 		ror	r7, r6, #11
 562 057e 87EAB617 		eor	r7, r7, r6, ror #6
 563 0582 87EA7668 		eor	r8, r7, r6, ror #25
 564 0586 84EA0507 		eor	r7, r4, r5
 565 058a 3740     		ands	r7, r7, r6
 566 058c 0293     		str	r3, [sp, #8]
 567 058e 6740     		eors	r7, r7, r4
 568 0590 DBF80030 		ldr	r3, [fp]
 569 0594 4744     		add	r7, r7, r8
 570 0596 1F44     		add	r7, r7, r3
ARM GAS  /tmp/ccCMEwBR.s 			page 11


 571 0598 029B     		ldr	r3, [sp, #8]
 572 059a 8EEA0C08 		eor	r8, lr, ip
 573 059e 1F44     		add	r7, r7, r3
 574 05a0 3A44     		add	r2, r2, r7
 575 05a2 4FEA7E37 		ror	r7, lr, #13
 576 05a6 069B     		ldr	r3, [sp, #24]
 577 05a8 87EABE07 		eor	r7, r7, lr, ror #2
 578 05ac 08EA0008 		and	r8, r8, r0
 579 05b0 87EABE57 		eor	r7, r7, lr, ror #22
 580 05b4 48EA0908 		orr	r8, r8, r9
 581 05b8 B844     		add	r8, r8, r7
 582 05ba 4FEAF347 		ror	r7, r3, #19
 583 05be 87EA7347 		eor	r7, r7, r3, ror #17
 584 05c2 87EA9327 		eor	r7, r7, r3, lsr #10
 585 05c6 079B     		ldr	r3, [sp, #28]
 586 05c8 1144     		add	r1, r1, r2
 587 05ca 1F44     		add	r7, r7, r3
 588 05cc 059B     		ldr	r3, [sp, #20]
 589 05ce 4244     		add	r2, r2, r8
 590 05d0 1F44     		add	r7, r7, r3
 591 05d2 089B     		ldr	r3, [sp, #32]
 592 05d4 4FEAF129 		ror	r9, r1, #11
 593 05d8 4FEAB348 		ror	r8, r3, #18
 594 05dc 88EAF318 		eor	r8, r8, r3, ror #7
 595 05e0 88EAD308 		eor	r8, r8, r3, lsr #3
 596 05e4 07EB0803 		add	r3, r7, r8
 597 05e8 DBF80470 		ldr	r7, [fp, #4]
 598 05ec 86EA0508 		eor	r8, r6, r5
 599 05f0 08EA0108 		and	r8, r8, r1
 600 05f4 3C44     		add	r4, r4, r7
 601 05f6 1C44     		add	r4, r4, r3
 602 05f8 88EA0508 		eor	r8, r8, r5
 603 05fc 89EAB119 		eor	r9, r9, r1, ror #6
 604 0600 89EA7169 		eor	r9, r9, r1, ror #25
 605 0604 A044     		add	r8, r8, r4
 606 0606 08EB0904 		add	r4, r8, r9
 607 060a 8EEA0207 		eor	r7, lr, r2
 608 060e 4FEA7239 		ror	r9, r2, #13
 609 0612 0EEA0208 		and	r8, lr, r2
 610 0616 89EAB209 		eor	r9, r9, r2, ror #2
 611 061a 07EA0C07 		and	r7, r7, ip
 612 061e 0593     		str	r3, [sp, #20]
 613 0620 47EA0807 		orr	r7, r7, r8
 614 0624 0A9B     		ldr	r3, [sp, #40]
 615 0626 89EAB259 		eor	r9, r9, r2, ror #22
 616 062a B944     		add	r9, r9, r7
 617 062c A144     		add	r9, r9, r4
 618 062e 2044     		add	r0, r0, r4
 619 0630 4FEAB344 		ror	r4, r3, #18
 620 0634 84EAF314 		eor	r4, r4, r3, ror #7
 621 0638 84EAD304 		eor	r4, r4, r3, lsr #3
 622 063c 099B     		ldr	r3, [sp, #36]
 623 063e 4FEAF028 		ror	r8, r0, #11
 624 0642 1C44     		add	r4, r4, r3
 625 0644 089B     		ldr	r3, [sp, #32]
 626 0646 88EAB018 		eor	r8, r8, r0, ror #6
 627 064a 1C44     		add	r4, r4, r3
ARM GAS  /tmp/ccCMEwBR.s 			page 12


 628 064c 029B     		ldr	r3, [sp, #8]
 629 064e 88EA7068 		eor	r8, r8, r0, ror #25
 630 0652 4FEAF347 		ror	r7, r3, #19
 631 0656 87EA7347 		eor	r7, r7, r3, ror #17
 632 065a 87EA9327 		eor	r7, r7, r3, lsr #10
 633 065e E319     		adds	r3, r4, r7
 634 0660 DBF80840 		ldr	r4, [fp, #8]
 635 0664 86EA0107 		eor	r7, r6, r1
 636 0668 0740     		ands	r7, r7, r0
 637 066a 2C44     		add	r4, r4, r5
 638 066c 1C44     		add	r4, r4, r3
 639 066e 7740     		eors	r7, r7, r6
 640 0670 2744     		add	r7, r7, r4
 641 0672 07EB0804 		add	r4, r7, r8
 642 0676 82EA0905 		eor	r5, r2, r9
 643 067a 4FEA7938 		ror	r8, r9, #13
 644 067e 02EA0907 		and	r7, r2, r9
 645 0682 88EAB908 		eor	r8, r8, r9, ror #2
 646 0686 05EA0E05 		and	r5, r5, lr
 647 068a 0893     		str	r3, [sp, #32]
 648 068c 3D43     		orrs	r5, r5, r7
 649 068e 0C9B     		ldr	r3, [sp, #48]
 650 0690 88EAB958 		eor	r8, r8, r9, ror #22
 651 0694 A844     		add	r8, r8, r5
 652 0696 A044     		add	r8, r8, r4
 653 0698 A444     		add	ip, ip, r4
 654 069a 4FEAB344 		ror	r4, r3, #18
 655 069e 84EAF314 		eor	r4, r4, r3, ror #7
 656 06a2 84EAD304 		eor	r4, r4, r3, lsr #3
 657 06a6 0B9B     		ldr	r3, [sp, #44]
 658 06a8 81EA0007 		eor	r7, r1, r0
 659 06ac 1C44     		add	r4, r4, r3
 660 06ae 0A9B     		ldr	r3, [sp, #40]
 661 06b0 07EA0C07 		and	r7, r7, ip
 662 06b4 1C44     		add	r4, r4, r3
 663 06b6 059B     		ldr	r3, [sp, #20]
 664 06b8 4F40     		eors	r7, r7, r1
 665 06ba 4FEAF345 		ror	r5, r3, #19
 666 06be 85EA7345 		eor	r5, r5, r3, ror #17
 667 06c2 85EA9325 		eor	r5, r5, r3, lsr #10
 668 06c6 6319     		adds	r3, r4, r5
 669 06c8 DBF80C40 		ldr	r4, [fp, #12]
 670 06cc 4FEAFC25 		ror	r5, ip, #11
 671 06d0 3444     		add	r4, r4, r6
 672 06d2 1C44     		add	r4, r4, r3
 673 06d4 85EABC15 		eor	r5, r5, ip, ror #6
 674 06d8 85EA7C65 		eor	r5, r5, ip, ror #25
 675 06dc 2744     		add	r7, r7, r4
 676 06de 7C19     		adds	r4, r7, r5
 677 06e0 89EA0806 		eor	r6, r9, r8
 678 06e4 4FEA7835 		ror	r5, r8, #13
 679 06e8 09EA0807 		and	r7, r9, r8
 680 06ec 85EAB805 		eor	r5, r5, r8, ror #2
 681 06f0 1640     		ands	r6, r6, r2
 682 06f2 3E43     		orrs	r6, r6, r7
 683 06f4 0A93     		str	r3, [sp, #40]
 684 06f6 85EAB855 		eor	r5, r5, r8, ror #22
ARM GAS  /tmp/ccCMEwBR.s 			page 13


 685              		.loc 1 134 0 discriminator 3
 686 06fa 0E9B     		ldr	r3, [sp, #56]
 687              		.loc 1 133 0 discriminator 3
 688 06fc 3544     		add	r5, r5, r6
 689 06fe 2544     		add	r5, r5, r4
 690 0700 A644     		add	lr, lr, r4
 691              		.loc 1 134 0 discriminator 3
 692 0702 4FEAB344 		ror	r4, r3, #18
 693 0706 84EAF314 		eor	r4, r4, r3, ror #7
 694 070a 84EAD304 		eor	r4, r4, r3, lsr #3
 695 070e 0D9B     		ldr	r3, [sp, #52]
 696 0710 80EA0C07 		eor	r7, r0, ip
 697 0714 1C44     		add	r4, r4, r3
 698 0716 0C9B     		ldr	r3, [sp, #48]
 699 0718 07EA0E07 		and	r7, r7, lr
 700 071c 1C44     		add	r4, r4, r3
 701 071e 089B     		ldr	r3, [sp, #32]
 702 0720 4740     		eors	r7, r7, r0
 703 0722 4FEAF346 		ror	r6, r3, #19
 704 0726 86EA7346 		eor	r6, r6, r3, ror #17
 705 072a 86EA9326 		eor	r6, r6, r3, lsr #10
 706 072e A319     		adds	r3, r4, r6
 707 0730 DBF81060 		ldr	r6, [fp, #16]
 708 0734 4FEAFE24 		ror	r4, lr, #11
 709 0738 3144     		add	r1, r1, r6
 710 073a 1944     		add	r1, r1, r3
 711 073c 84EABE14 		eor	r4, r4, lr, ror #6
 712 0740 84EA7E64 		eor	r4, r4, lr, ror #25
 713 0744 0F44     		add	r7, r7, r1
 714 0746 3919     		adds	r1, r7, r4
 715 0748 88EA0506 		eor	r6, r8, r5
 716 074c 4FEA7534 		ror	r4, r5, #13
 717 0750 08EA0507 		and	r7, r8, r5
 718 0754 84EAB504 		eor	r4, r4, r5, ror #2
 719 0758 06EA0906 		and	r6, r6, r9
 720 075c 3E43     		orrs	r6, r6, r7
 721 075e 0C93     		str	r3, [sp, #48]
 722 0760 84EAB554 		eor	r4, r4, r5, ror #22
 723 0764 0F9B     		ldr	r3, [sp, #60]
 724 0766 3444     		add	r4, r4, r6
 725 0768 0C44     		add	r4, r4, r1
 726 076a 0A44     		add	r2, r2, r1
 727 076c 4FEAB341 		ror	r1, r3, #18
 728 0770 81EAF311 		eor	r1, r1, r3, ror #7
 729 0774 81EAD301 		eor	r1, r1, r3, lsr #3
 730 0778 039B     		ldr	r3, [sp, #12]
 731 077a 8CEA0E07 		eor	r7, ip, lr
 732 077e 1944     		add	r1, r1, r3
 733 0780 0E9B     		ldr	r3, [sp, #56]
 734 0782 1740     		ands	r7, r7, r2
 735 0784 1944     		add	r1, r1, r3
 736 0786 0A9B     		ldr	r3, [sp, #40]
 737 0788 87EA0C07 		eor	r7, r7, ip
 738 078c 4FEAF346 		ror	r6, r3, #19
 739 0790 86EA7346 		eor	r6, r6, r3, ror #17
 740 0794 86EA9326 		eor	r6, r6, r3, lsr #10
 741 0798 8B19     		adds	r3, r1, r6
ARM GAS  /tmp/ccCMEwBR.s 			page 14


 742 079a DBF81460 		ldr	r6, [fp, #20]
 743 079e 1844     		add	r0, r0, r3
 744 07a0 3044     		add	r0, r0, r6
 745 07a2 4FEAF226 		ror	r6, r2, #11
 746 07a6 86EAB216 		eor	r6, r6, r2, ror #6
 747 07aa 0744     		add	r7, r7, r0
 748 07ac 86EA726A 		eor	r10, r6, r2, ror #25
 749 07b0 85EA0400 		eor	r0, r5, r4
 750 07b4 4FEA7431 		ror	r1, r4, #13
 751 07b8 07EB0A06 		add	r6, r7, r10
 752 07bc 0E93     		str	r3, [sp, #56]
 753 07be 05EA0407 		and	r7, r5, r4
 754 07c2 109B     		ldr	r3, [sp, #64]
 755 07c4 81EAB401 		eor	r1, r1, r4, ror #2
 756 07c8 00EA0800 		and	r0, r0, r8
 757 07cc 3843     		orrs	r0, r0, r7
 758 07ce 81EAB451 		eor	r1, r1, r4, ror #22
 759 07d2 0144     		add	r1, r1, r0
 760 07d4 4FEAB340 		ror	r0, r3, #18
 761 07d8 80EAF310 		eor	r0, r0, r3, ror #7
 762 07dc 80EAD300 		eor	r0, r0, r3, lsr #3
 763 07e0 069B     		ldr	r3, [sp, #24]
 764 07e2 3144     		add	r1, r1, r6
 765 07e4 1844     		add	r0, r0, r3
 766 07e6 0F9B     		ldr	r3, [sp, #60]
 767 07e8 B144     		add	r9, r9, r6
 768 07ea 1844     		add	r0, r0, r3
 769 07ec 0C9B     		ldr	r3, [sp, #48]
 770 07ee 8EEA020A 		eor	r10, lr, r2
 771 07f2 4FEAF346 		ror	r6, r3, #19
 772 07f6 86EA7346 		eor	r6, r6, r3, ror #17
 773 07fa 86EA9326 		eor	r6, r6, r3, lsr #10
 774 07fe 8319     		adds	r3, r0, r6
 775 0800 DBF81800 		ldr	r0, [fp, #24]
 776 0804 0AEA090A 		and	r10, r10, r9
 777 0808 1844     		add	r0, r0, r3
 778 080a 4FEAF926 		ror	r6, r9, #11
 779 080e 8444     		add	ip, ip, r0
 780 0810 8AEA0E0A 		eor	r10, r10, lr
 781 0814 86EAB916 		eor	r6, r6, r9, ror #6
 782 0818 86EA7966 		eor	r6, r6, r9, ror #25
 783 081c E244     		add	r10, r10, ip
 784 081e 0AEB060C 		add	ip, r10, r6
 785 0822 84EA0100 		eor	r0, r4, r1
 786 0826 4FEA7136 		ror	r6, r1, #13
 787 082a 04EA0107 		and	r7, r4, r1
 788 082e 0F93     		str	r3, [sp, #60]
 789 0830 86EAB106 		eor	r6, r6, r1, ror #2
 790 0834 119B     		ldr	r3, [sp, #68]
 791 0836 2840     		ands	r0, r0, r5
 792 0838 3843     		orrs	r0, r0, r7
 793 083a 86EAB156 		eor	r6, r6, r1, ror #22
 794 083e 0644     		add	r6, r6, r0
 795 0840 4FEAB340 		ror	r0, r3, #18
 796 0844 80EAF310 		eor	r0, r0, r3, ror #7
 797 0848 80EAD300 		eor	r0, r0, r3, lsr #3
 798 084c 029B     		ldr	r3, [sp, #8]
ARM GAS  /tmp/ccCMEwBR.s 			page 15


 799 084e 6644     		add	r6, r6, ip
 800 0850 1844     		add	r0, r0, r3
 801 0852 109B     		ldr	r3, [sp, #64]
 802 0854 E044     		add	r8, r8, ip
 803 0856 1844     		add	r0, r0, r3
 804 0858 0E9B     		ldr	r3, [sp, #56]
 805 085a 82EA090C 		eor	ip, r2, r9
 806 085e 4FEAF347 		ror	r7, r3, #19
 807 0862 87EA7347 		eor	r7, r7, r3, ror #17
 808 0866 87EA9327 		eor	r7, r7, r3, lsr #10
 809 086a C319     		adds	r3, r0, r7
 810 086c DBF81C70 		ldr	r7, [fp, #28]
 811 0870 0CEA080C 		and	ip, ip, r8
 812 0874 1F44     		add	r7, r7, r3
 813 0876 BE44     		add	lr, lr, r7
 814 0878 8CEA020C 		eor	ip, ip, r2
 815 087c F444     		add	ip, ip, lr
 816 087e 4FEAF82E 		ror	lr, r8, #11
 817 0882 8EEAB81E 		eor	lr, lr, r8, ror #6
 818 0886 8EEA786A 		eor	r10, lr, r8, ror #25
 819 088a 0CEB0A0E 		add	lr, ip, r10
 820 088e 05EB0E0C 		add	ip, r5, lr
 821 0892 4FEA7630 		ror	r0, r6, #13
 822 0896 81EA0605 		eor	r5, r1, r6
 823 089a 01EA0607 		and	r7, r1, r6
 824 089e 1093     		str	r3, [sp, #64]
 825 08a0 80EAB600 		eor	r0, r0, r6, ror #2
 826              		.loc 1 135 0 discriminator 3
 827 08a4 049B     		ldr	r3, [sp, #16]
 828              		.loc 1 134 0 discriminator 3
 829 08a6 2540     		ands	r5, r5, r4
 830 08a8 3D43     		orrs	r5, r5, r7
 831 08aa 80EAB650 		eor	r0, r0, r6, ror #22
 832 08ae 2844     		add	r0, r0, r5
 833              		.loc 1 135 0 discriminator 3
 834 08b0 4FEAB345 		ror	r5, r3, #18
 835 08b4 85EAF315 		eor	r5, r5, r3, ror #7
 836 08b8 85EAD305 		eor	r5, r5, r3, lsr #3
 837 08bc 059B     		ldr	r3, [sp, #20]
 838              		.loc 1 134 0 discriminator 3
 839 08be 7044     		add	r0, r0, lr
 840              		.loc 1 135 0 discriminator 3
 841 08c0 1D44     		add	r5, r5, r3
 842 08c2 119B     		ldr	r3, [sp, #68]
 843 08c4 1D44     		add	r5, r5, r3
 844 08c6 0F9B     		ldr	r3, [sp, #60]
 845 08c8 4FEAF347 		ror	r7, r3, #19
 846 08cc 87EA7347 		eor	r7, r7, r3, ror #17
 847 08d0 87EA9327 		eor	r7, r7, r3, lsr #10
 848 08d4 EB19     		adds	r3, r5, r7
 849 08d6 DBF82070 		ldr	r7, [fp, #32]
 850 08da 89EA0805 		eor	r5, r9, r8
 851 08de 1F44     		add	r7, r7, r3
 852 08e0 05EA0C05 		and	r5, r5, ip
 853 08e4 3A44     		add	r2, r2, r7
 854 08e6 4FEAFC27 		ror	r7, ip, #11
 855 08ea 85EA0905 		eor	r5, r5, r9
ARM GAS  /tmp/ccCMEwBR.s 			page 16


 856 08ee 87EABC17 		eor	r7, r7, ip, ror #6
 857 08f2 2A44     		add	r2, r2, r5
 858 08f4 87EA7C6E 		eor	lr, r7, ip, ror #25
 859 08f8 02EB0E07 		add	r7, r2, lr
 860 08fc 04EB070E 		add	lr, r4, r7
 861 0900 4FEA7032 		ror	r2, r0, #13
 862 0904 86EA0004 		eor	r4, r6, r0
 863 0908 06EA0005 		and	r5, r6, r0
 864 090c 1193     		str	r3, [sp, #68]
 865 090e 82EAB002 		eor	r2, r2, r0, ror #2
 866 0912 079B     		ldr	r3, [sp, #28]
 867 0914 0C40     		ands	r4, r4, r1
 868 0916 2C43     		orrs	r4, r4, r5
 869 0918 82EAB052 		eor	r2, r2, r0, ror #22
 870 091c 2244     		add	r2, r2, r4
 871 091e 4FEAB344 		ror	r4, r3, #18
 872 0922 84EAF314 		eor	r4, r4, r3, ror #7
 873 0926 84EAD304 		eor	r4, r4, r3, lsr #3
 874 092a 089B     		ldr	r3, [sp, #32]
 875 092c 3A44     		add	r2, r2, r7
 876 092e 1C44     		add	r4, r4, r3
 877 0930 049B     		ldr	r3, [sp, #16]
 878 0932 DBF82470 		ldr	r7, [fp, #36]
 879 0936 1C44     		add	r4, r4, r3
 880 0938 109B     		ldr	r3, [sp, #64]
 881 093a 4FEAF345 		ror	r5, r3, #19
 882 093e 85EA7345 		eor	r5, r5, r3, ror #17
 883 0942 85EA9325 		eor	r5, r5, r3, lsr #10
 884 0946 6319     		adds	r3, r4, r5
 885 0948 88EA0C05 		eor	r5, r8, ip
 886 094c 1F44     		add	r7, r7, r3
 887 094e 05EA0E05 		and	r5, r5, lr
 888 0952 85EA0805 		eor	r5, r5, r8
 889 0956 B944     		add	r9, r9, r7
 890 0958 05EB0907 		add	r7, r5, r9
 891 095c 4FEAFE29 		ror	r9, lr, #11
 892 0960 89EABE19 		eor	r9, r9, lr, ror #6
 893 0964 89EA7E64 		eor	r4, r9, lr, ror #25
 894 0968 07EB0409 		add	r9, r7, r4
 895 096c 0493     		str	r3, [sp, #16]
 896 096e 80EA0207 		eor	r7, r0, r2
 897 0972 099B     		ldr	r3, [sp, #36]
 898 0974 01EB090A 		add	r10, r1, r9
 899 0978 3740     		ands	r7, r7, r6
 900 097a 00EA0201 		and	r1, r0, r2
 901 097e 0F43     		orrs	r7, r7, r1
 902 0980 4FEAB341 		ror	r1, r3, #18
 903 0984 81EAF311 		eor	r1, r1, r3, ror #7
 904 0988 81EAD301 		eor	r1, r1, r3, lsr #3
 905 098c 0A9B     		ldr	r3, [sp, #40]
 906 098e 4FEA7234 		ror	r4, r2, #13
 907 0992 1944     		add	r1, r1, r3
 908 0994 079B     		ldr	r3, [sp, #28]
 909 0996 84EAB204 		eor	r4, r4, r2, ror #2
 910 099a 1944     		add	r1, r1, r3
 911 099c 119B     		ldr	r3, [sp, #68]
 912 099e 84EAB254 		eor	r4, r4, r2, ror #22
ARM GAS  /tmp/ccCMEwBR.s 			page 17


 913 09a2 2744     		add	r7, r7, r4
 914 09a4 4FEAF344 		ror	r4, r3, #19
 915 09a8 84EA7344 		eor	r4, r4, r3, ror #17
 916 09ac DBF82850 		ldr	r5, [fp, #40]
 917 09b0 84EA9324 		eor	r4, r4, r3, lsr #10
 918 09b4 0B19     		adds	r3, r1, r4
 919 09b6 8CEA0E01 		eor	r1, ip, lr
 920 09ba 1D44     		add	r5, r5, r3
 921 09bc 01EA0A01 		and	r1, r1, r10
 922 09c0 81EA0C01 		eor	r1, r1, ip
 923 09c4 A844     		add	r8, r8, r5
 924 09c6 01EB0805 		add	r5, r1, r8
 925 09ca 4FEAFA28 		ror	r8, r10, #11
 926 09ce 88EABA18 		eor	r8, r8, r10, ror #6
 927 09d2 4F44     		add	r7, r7, r9
 928 09d4 88EA7A64 		eor	r4, r8, r10, ror #25
 929 09d8 05EB0408 		add	r8, r5, r4
 930 09dc 82EA0701 		eor	r1, r2, r7
 931 09e0 4FEA7735 		ror	r5, r7, #13
 932 09e4 02EA0704 		and	r4, r2, r7
 933 09e8 0793     		str	r3, [sp, #28]
 934 09ea 85EAB705 		eor	r5, r5, r7, ror #2
 935 09ee 0B9B     		ldr	r3, [sp, #44]
 936 09f0 0140     		ands	r1, r1, r0
 937 09f2 2143     		orrs	r1, r1, r4
 938 09f4 85EAB755 		eor	r5, r5, r7, ror #22
 939 09f8 0D44     		add	r5, r5, r1
 940 09fa 4FEAB341 		ror	r1, r3, #18
 941 09fe 81EAF311 		eor	r1, r1, r3, ror #7
 942 0a02 81EAD301 		eor	r1, r1, r3, lsr #3
 943 0a06 0C9B     		ldr	r3, [sp, #48]
 944 0a08 06EB0809 		add	r9, r6, r8
 945 0a0c 1944     		add	r1, r1, r3
 946 0a0e 099B     		ldr	r3, [sp, #36]
 947 0a10 DBF82C60 		ldr	r6, [fp, #44]
 948 0a14 1944     		add	r1, r1, r3
 949 0a16 049B     		ldr	r3, [sp, #16]
 950 0a18 4544     		add	r5, r5, r8
 951 0a1a 4FEAF344 		ror	r4, r3, #19
 952 0a1e 84EA7344 		eor	r4, r4, r3, ror #17
 953 0a22 84EA9324 		eor	r4, r4, r3, lsr #10
 954 0a26 0B19     		adds	r3, r1, r4
 955 0a28 8EEA0A01 		eor	r1, lr, r10
 956 0a2c 1E44     		add	r6, r6, r3
 957 0a2e 01EA0901 		and	r1, r1, r9
 958 0a32 81EA0E01 		eor	r1, r1, lr
 959 0a36 B444     		add	ip, ip, r6
 960 0a38 01EB0C06 		add	r6, r1, ip
 961 0a3c 4FEAF92C 		ror	ip, r9, #11
 962 0a40 8CEAB91C 		eor	ip, ip, r9, ror #6
 963 0a44 8CEA7964 		eor	r4, ip, r9, ror #25
 964 0a48 06EB040C 		add	ip, r6, r4
 965 0a4c 87EA0501 		eor	r1, r7, r5
 966 0a50 4FEA7536 		ror	r6, r5, #13
 967 0a54 00EB0C08 		add	r8, r0, ip
 968 0a58 0993     		str	r3, [sp, #36]
 969 0a5a 07EA0500 		and	r0, r7, r5
ARM GAS  /tmp/ccCMEwBR.s 			page 18


 970              		.loc 1 136 0 discriminator 3
 971 0a5e 0D9B     		ldr	r3, [sp, #52]
 972              		.loc 1 135 0 discriminator 3
 973 0a60 86EAB506 		eor	r6, r6, r5, ror #2
 974 0a64 1140     		ands	r1, r1, r2
 975 0a66 0143     		orrs	r1, r1, r0
 976 0a68 86EAB556 		eor	r6, r6, r5, ror #22
 977 0a6c 0E44     		add	r6, r6, r1
 978              		.loc 1 136 0 discriminator 3
 979 0a6e 4FEAB341 		ror	r1, r3, #18
 980 0a72 81EAF311 		eor	r1, r1, r3, ror #7
 981 0a76 81EAD301 		eor	r1, r1, r3, lsr #3
 982 0a7a 0E9B     		ldr	r3, [sp, #56]
 983 0a7c DBF83040 		ldr	r4, [fp, #48]
 984 0a80 1944     		add	r1, r1, r3
 985 0a82 0B9B     		ldr	r3, [sp, #44]
 986              		.loc 1 135 0 discriminator 3
 987 0a84 6644     		add	r6, r6, ip
 988              		.loc 1 136 0 discriminator 3
 989 0a86 1944     		add	r1, r1, r3
 990 0a88 079B     		ldr	r3, [sp, #28]
 991 0a8a 4FEAF340 		ror	r0, r3, #19
 992 0a8e 80EA7340 		eor	r0, r0, r3, ror #17
 993 0a92 80EA9320 		eor	r0, r0, r3, lsr #10
 994 0a96 0B18     		adds	r3, r1, r0
 995 0a98 8AEA0900 		eor	r0, r10, r9
 996 0a9c 00EA0800 		and	r0, r0, r8
 997 0aa0 1C44     		add	r4, r4, r3
 998 0aa2 7444     		add	r4, r4, lr
 999 0aa4 80EA0A00 		eor	r0, r0, r10
 1000 0aa8 2044     		add	r0, r0, r4
 1001 0aaa 4FEAF824 		ror	r4, r8, #11
 1002 0aae 84EAB814 		eor	r4, r4, r8, ror #6
 1003 0ab2 84EA786C 		eor	ip, r4, r8, ror #25
 1004 0ab6 00EB0C04 		add	r4, r0, ip
 1005 0aba 4FEA7631 		ror	r1, r6, #13
 1006 0abe 85EA0600 		eor	r0, r5, r6
 1007 0ac2 05EA060C 		and	ip, r5, r6
 1008 0ac6 0B93     		str	r3, [sp, #44]
 1009 0ac8 81EAB601 		eor	r1, r1, r6, ror #2
 1010 0acc 039B     		ldr	r3, [sp, #12]
 1011 0ace 3840     		ands	r0, r0, r7
 1012 0ad0 40EA0C00 		orr	r0, r0, ip
 1013 0ad4 81EAB651 		eor	r1, r1, r6, ror #22
 1014 0ad8 0144     		add	r1, r1, r0
 1015 0ada 4FEAB340 		ror	r0, r3, #18
 1016 0ade 80EAF310 		eor	r0, r0, r3, ror #7
 1017 0ae2 80EAD300 		eor	r0, r0, r3, lsr #3
 1018 0ae6 0F9B     		ldr	r3, [sp, #60]
 1019 0ae8 2144     		add	r1, r1, r4
 1020 0aea 1844     		add	r0, r0, r3
 1021 0aec 0D9B     		ldr	r3, [sp, #52]
 1022 0aee 2244     		add	r2, r2, r4
 1023 0af0 1844     		add	r0, r0, r3
 1024 0af2 099B     		ldr	r3, [sp, #36]
 1025 0af4 89EA080C 		eor	ip, r9, r8
 1026 0af8 4FEAF344 		ror	r4, r3, #19
ARM GAS  /tmp/ccCMEwBR.s 			page 19


 1027 0afc 84EA7344 		eor	r4, r4, r3, ror #17
 1028 0b00 84EA9324 		eor	r4, r4, r3, lsr #10
 1029 0b04 0319     		adds	r3, r0, r4
 1030 0b06 DBF83440 		ldr	r4, [fp, #52]
 1031 0b0a 0CEA020C 		and	ip, ip, r2
 1032 0b0e 1C44     		add	r4, r4, r3
 1033 0b10 A244     		add	r10, r10, r4
 1034 0b12 8CEA090C 		eor	ip, ip, r9
 1035 0b16 D444     		add	ip, ip, r10
 1036 0b18 4FEAF22A 		ror	r10, r2, #11
 1037 0b1c 8AEAB21A 		eor	r10, r10, r2, ror #6
 1038 0b20 8AEA726E 		eor	lr, r10, r2, ror #25
 1039 0b24 0CEB0E0A 		add	r10, ip, lr
 1040 0b28 07EB0A04 		add	r4, r7, r10
 1041 0b2c 4FEA7130 		ror	r0, r1, #13
 1042 0b30 86EA0107 		eor	r7, r6, r1
 1043 0b34 0D93     		str	r3, [sp, #52]
 1044 0b36 06EA010C 		and	ip, r6, r1
 1045 0b3a 069B     		ldr	r3, [sp, #24]
 1046 0b3c 2F40     		ands	r7, r7, r5
 1047 0b3e 80EAB100 		eor	r0, r0, r1, ror #2
 1048 0b42 47EA0C07 		orr	r7, r7, ip
 1049 0b46 80EAB150 		eor	r0, r0, r1, ror #22
 1050 0b4a 3844     		add	r0, r0, r7
 1051 0b4c 4FEAB347 		ror	r7, r3, #18
 1052 0b50 87EAF317 		eor	r7, r7, r3, ror #7
 1053 0b54 87EAD307 		eor	r7, r7, r3, lsr #3
 1054 0b58 109B     		ldr	r3, [sp, #64]
 1055 0b5a 88EA020E 		eor	lr, r8, r2
 1056 0b5e 1F44     		add	r7, r7, r3
 1057 0b60 039B     		ldr	r3, [sp, #12]
 1058 0b62 0EEA040E 		and	lr, lr, r4
 1059 0b66 1F44     		add	r7, r7, r3
 1060 0b68 0B9B     		ldr	r3, [sp, #44]
 1061 0b6a 8EEA080E 		eor	lr, lr, r8
 1062 0b6e 4FEAF34C 		ror	ip, r3, #19
 1063 0b72 8CEA734C 		eor	ip, ip, r3, ror #17
 1064 0b76 8CEA932C 		eor	ip, ip, r3, lsr #10
 1065 0b7a 07EB0C03 		add	r3, r7, ip
 1066 0b7e DBF83870 		ldr	r7, [fp, #56]
 1067 0b82 5044     		add	r0, r0, r10
 1068 0b84 1F44     		add	r7, r7, r3
 1069 0b86 B944     		add	r9, r9, r7
 1070 0b88 CE44     		add	lr, lr, r9
 1071 0b8a 4FEAF429 		ror	r9, r4, #11
 1072 0b8e 89EAB419 		eor	r9, r9, r4, ror #6
 1073 0b92 89EA746A 		eor	r10, r9, r4, ror #25
 1074 0b96 4FEA703C 		ror	ip, r0, #13
 1075 0b9a 81EA0007 		eor	r7, r1, r0
 1076 0b9e 0EEB0A09 		add	r9, lr, r10
 1077 0ba2 0393     		str	r3, [sp, #12]
 1078 0ba4 3740     		ands	r7, r7, r6
 1079 0ba6 029B     		ldr	r3, [sp, #8]
 1080 0ba8 01EA000E 		and	lr, r1, r0
 1081 0bac 8CEAB00C 		eor	ip, ip, r0, ror #2
 1082 0bb0 47EA0E07 		orr	r7, r7, lr
 1083 0bb4 8CEAB05C 		eor	ip, ip, r0, ror #22
ARM GAS  /tmp/ccCMEwBR.s 			page 20


 1084 0bb8 BC44     		add	ip, ip, r7
 1085 0bba 4FEAB347 		ror	r7, r3, #18
 1086 0bbe 87EAF317 		eor	r7, r7, r3, ror #7
 1087 0bc2 87EAD307 		eor	r7, r7, r3, lsr #3
 1088 0bc6 119B     		ldr	r3, [sp, #68]
 1089 0bc8 CC44     		add	ip, ip, r9
 1090 0bca 1F44     		add	r7, r7, r3
 1091 0bcc 069B     		ldr	r3, [sp, #24]
 1092 0bce 4D44     		add	r5, r5, r9
 1093 0bd0 1F44     		add	r7, r7, r3
 1094 0bd2 0D9B     		ldr	r3, [sp, #52]
 1095 0bd4 82EA0409 		eor	r9, r2, r4
 1096 0bd8 4FEAF34E 		ror	lr, r3, #19
 1097 0bdc 8EEA734E 		eor	lr, lr, r3, ror #17
 1098 0be0 8EEA932E 		eor	lr, lr, r3, lsr #10
 1099 0be4 07EB0E03 		add	r3, r7, lr
 1100 0be8 0693     		str	r3, [sp, #24]
 1101 0bea DBF83C70 		ldr	r7, [fp, #60]
 1102 0bee 09EA0509 		and	r9, r9, r5
 1103 0bf2 1F44     		add	r7, r7, r3
 1104 0bf4 B844     		add	r8, r8, r7
 1105 0bf6 89EA0209 		eor	r9, r9, r2
 1106 0bfa C144     		add	r9, r9, r8
 1107 0bfc 4FEAF528 		ror	r8, r5, #11
 1108 0c00 88EAB518 		eor	r8, r8, r5, ror #6
 1109 0c04 88EA756A 		eor	r10, r8, r5, ror #25
 1110 0c08 4FEA7C3E 		ror	lr, ip, #13
 1111 0c0c 80EA0C07 		eor	r7, r0, ip
 1112 0c10 09EB0A08 		add	r8, r9, r10
 1113 0c14 8EEABC0E 		eor	lr, lr, ip, ror #2
 1114 0c18 0F40     		ands	r7, r7, r1
 1115 0c1a 00EA0C09 		and	r9, r0, ip
 1116              		.loc 1 131 0 discriminator 3
 1117 0c1e 244B     		ldr	r3, .L12
 1118              		.loc 1 136 0 discriminator 3
 1119 0c20 8EEABC5E 		eor	lr, lr, ip, ror #22
 1120 0c24 47EA0907 		orr	r7, r7, r9
 1121 0c28 BE44     		add	lr, lr, r7
 1122              		.loc 1 131 0 discriminator 3
 1123 0c2a 5B45     		cmp	r3, fp
 1124              		.loc 1 136 0 discriminator 3
 1125 0c2c 4644     		add	r6, r6, r8
 1126 0c2e C644     		add	lr, lr, r8
 1127              		.loc 1 131 0 discriminator 3
 1128 0c30 7FF48CAC 		bne	.L3
 1129 0c34 DDE90173 		ldrd	r7, r3, [sp, #4]
 1130 0c38 BB62     		str	r3, [r7, #40]
 1131 0c3a 039B     		ldr	r3, [sp, #12]
 1132 0c3c 3B66     		str	r3, [r7, #96]
 1133 0c3e 049B     		ldr	r3, [sp, #16]
 1134 0c40 FB64     		str	r3, [r7, #76]
 1135 0c42 059B     		ldr	r3, [sp, #20]
 1136 0c44 FB62     		str	r3, [r7, #44]
 1137 0c46 069B     		ldr	r3, [sp, #24]
 1138 0c48 7B66     		str	r3, [r7, #100]
 1139 0c4a 079B     		ldr	r3, [sp, #28]
 1140 0c4c 3B65     		str	r3, [r7, #80]
ARM GAS  /tmp/ccCMEwBR.s 			page 21


 1141 0c4e 089B     		ldr	r3, [sp, #32]
 1142 0c50 3B63     		str	r3, [r7, #48]
 1143 0c52 099B     		ldr	r3, [sp, #36]
 1144 0c54 7B65     		str	r3, [r7, #84]
 1145 0c56 0A9B     		ldr	r3, [sp, #40]
 1146 0c58 7B63     		str	r3, [r7, #52]
 1147 0c5a 0B9B     		ldr	r3, [sp, #44]
 1148 0c5c BB65     		str	r3, [r7, #88]
 1149 0c5e 0C9B     		ldr	r3, [sp, #48]
 1150 0c60 BB63     		str	r3, [r7, #56]
 1151 0c62 0D9B     		ldr	r3, [sp, #52]
 1152 0c64 FB65     		str	r3, [r7, #92]
 1153 0c66 0E9B     		ldr	r3, [sp, #56]
 1154 0c68 FB63     		str	r3, [r7, #60]
 1155 0c6a 0F9B     		ldr	r3, [sp, #60]
 1156 0c6c 3B64     		str	r3, [r7, #64]
 1157 0c6e 109B     		ldr	r3, [sp, #64]
 1158 0c70 7B64     		str	r3, [r7, #68]
 1159 0c72 119B     		ldr	r3, [sp, #68]
 1160 0c74 BB64     		str	r3, [r7, #72]
 1161              		.loc 1 139 0
 1162 0c76 3B46     		mov	r3, r7
 1163 0c78 BF68     		ldr	r7, [r7, #8]
 1164 0c7a 7744     		add	r7, r7, lr
 1165 0c7c 9F60     		str	r7, [r3, #8]
 1166              		.loc 1 140 0
 1167 0c7e DF68     		ldr	r7, [r3, #12]
 1168 0c80 6744     		add	r7, r7, ip
 1169 0c82 DF60     		str	r7, [r3, #12]
 1170              		.loc 1 141 0
 1171 0c84 1F69     		ldr	r7, [r3, #16]
 1172 0c86 3844     		add	r0, r0, r7
 1173 0c88 1861     		str	r0, [r3, #16]
 1174              		.loc 1 142 0
 1175 0c8a 5869     		ldr	r0, [r3, #20]
 1176 0c8c 0144     		add	r1, r1, r0
 1177 0c8e 5961     		str	r1, [r3, #20]
 1178              		.loc 1 143 0
 1179 0c90 9969     		ldr	r1, [r3, #24]
 1180 0c92 0E44     		add	r6, r6, r1
 1181              		.loc 1 144 0
 1182 0c94 D969     		ldr	r1, [r3, #28]
 1183              		.loc 1 143 0
 1184 0c96 9E61     		str	r6, [r3, #24]
 1185              		.loc 1 144 0
 1186 0c98 0D44     		add	r5, r5, r1
 1187              		.loc 1 145 0
 1188 0c9a 196A     		ldr	r1, [r3, #32]
 1189              		.loc 1 144 0
 1190 0c9c DD61     		str	r5, [r3, #28]
 1191              		.loc 1 145 0
 1192 0c9e 0C44     		add	r4, r4, r1
 1193              		.loc 1 146 0
 1194 0ca0 596A     		ldr	r1, [r3, #36]
 1195              		.loc 1 145 0
 1196 0ca2 1C62     		str	r4, [r3, #32]
 1197              		.loc 1 146 0
ARM GAS  /tmp/ccCMEwBR.s 			page 22


 1198 0ca4 0A44     		add	r2, r2, r1
 1199 0ca6 5A62     		str	r2, [r3, #36]
 1200              		.loc 1 147 0
 1201 0ca8 1BB0     		add	sp, sp, #108
 1202              		.cfi_def_cfa_offset 36
 1203              		@ sp needed
 1204 0caa BDE8F08F 		pop	{r4, r5, r6, r7, r8, r9, r10, fp, pc}
 1205              	.L13:
 1206 0cae 00BF     		.align	2
 1207              	.L12:
 1208 0cb0 C0000000 		.word	.LANCHOR0+192
 1209              		.cfi_endproc
 1210              	.LFE1:
 1211              		.size	sha256_process, .-sha256_process
 1212              		.section	.text.sha256_update,"ax",%progbits
 1213              		.align	1
 1214              		.global	sha256_update
 1215              		.syntax unified
 1216              		.thumb
 1217              		.thumb_func
 1218              		.fpu softvfp
 1219              		.type	sha256_update, %function
 1220              	sha256_update:
 1221              	.LFB2:
 1222              		.loc 1 152 0
 1223              		.cfi_startproc
 1224              		@ args = 0, pretend = 0, frame = 0
 1225              		@ frame_needed = 0, uses_anonymous_args = 0
 1226              	.LVL6:
 1227 0000 2DE9F041 		push	{r4, r5, r6, r7, r8, lr}
 1228              		.cfi_def_cfa_offset 24
 1229              		.cfi_offset 4, -24
 1230              		.cfi_offset 5, -20
 1231              		.cfi_offset 6, -16
 1232              		.cfi_offset 7, -12
 1233              		.cfi_offset 8, -8
 1234              		.cfi_offset 14, -4
 1235              		.loc 1 152 0
 1236 0004 0546     		mov	r5, r0
 1237 0006 0F46     		mov	r7, r1
 1238 0008 1446     		mov	r4, r2
 1239              		.loc 1 153 0
 1240 000a 0368     		ldr	r3, [r0]
 1241 000c 05F12808 		add	r8, r5, #40
 1242 0010 03F03F00 		and	r0, r3, #63
 1243              	.LVL7:
 1244 0014 9B18     		adds	r3, r3, r2
 1245              		.loc 1 156 0
 1246 0016 2B60     		str	r3, [r5]
 1247              		.loc 1 158 0
 1248 0018 28BF     		it	cs
 1249 001a 6B68     		ldrcs	r3, [r5, #4]
 1250              		.loc 1 154 0
 1251 001c C0F14006 		rsb	r6, r0, #64
 1252              	.LVL8:
 1253              		.loc 1 158 0
 1254 0020 24BF     		itt	cs
ARM GAS  /tmp/ccCMEwBR.s 			page 23


 1255 0022 0133     		addcs	r3, r3, #1
 1256 0024 6B60     		strcs	r3, [r5, #4]
 1257              	.LVL9:
 1258              	.L18:
 1259              		.loc 1 160 0
 1260 0026 B442     		cmp	r4, r6
 1261 0028 4044     		add	r0, r0, r8
 1262              	.LVL10:
 1263 002a 05D2     		bcs	.L19
 1264              		.loc 1 170 0
 1265 002c 2246     		mov	r2, r4
 1266 002e 3946     		mov	r1, r7
 1267              		.loc 1 171 0
 1268 0030 BDE8F041 		pop	{r4, r5, r6, r7, r8, lr}
 1269              		.cfi_remember_state
 1270              		.cfi_restore 14
 1271              		.cfi_restore 8
 1272              		.cfi_restore 7
 1273              		.cfi_restore 6
 1274              		.cfi_restore 5
 1275              		.cfi_restore 4
 1276              		.cfi_def_cfa_offset 0
 1277              	.LVL11:
 1278              		.loc 1 170 0
 1279 0034 FFF7FEBF 		b	memcpy
 1280              	.LVL12:
 1281              	.L19:
 1282              		.cfi_restore_state
 1283              		.loc 1 162 0
 1284 0038 3246     		mov	r2, r6
 1285 003a 3946     		mov	r1, r7
 1286 003c FFF7FEFF 		bl	memcpy
 1287              	.LVL13:
 1288              		.loc 1 163 0
 1289 0040 2846     		mov	r0, r5
 1290 0042 FFF7FEFF 		bl	sha256_process
 1291              	.LVL14:
 1292              		.loc 1 164 0
 1293 0046 3744     		add	r7, r7, r6
 1294              	.LVL15:
 1295              		.loc 1 165 0
 1296 0048 A41B     		subs	r4, r4, r6
 1297              	.LVL16:
 1298              		.loc 1 166 0
 1299 004a 0020     		movs	r0, #0
 1300              		.loc 1 167 0
 1301 004c 4026     		movs	r6, #64
 1302 004e EAE7     		b	.L18
 1303              		.cfi_endproc
 1304              	.LFE2:
 1305              		.size	sha256_update, .-sha256_update
 1306              		.section	.text.sha256_finish,"ax",%progbits
 1307              		.align	1
 1308              		.global	sha256_finish
 1309              		.syntax unified
 1310              		.thumb
 1311              		.thumb_func
ARM GAS  /tmp/ccCMEwBR.s 			page 24


 1312              		.fpu softvfp
 1313              		.type	sha256_finish, %function
 1314              	sha256_finish:
 1315              	.LFB3:
 1316              		.loc 1 175 0
 1317              		.cfi_startproc
 1318              		@ args = 0, pretend = 0, frame = 0
 1319              		@ frame_needed = 0, uses_anonymous_args = 0
 1320              	.LVL17:
 1321 0000 F8B5     		push	{r3, r4, r5, r6, r7, lr}
 1322              		.cfi_def_cfa_offset 24
 1323              		.cfi_offset 3, -24
 1324              		.cfi_offset 4, -20
 1325              		.cfi_offset 5, -16
 1326              		.cfi_offset 6, -12
 1327              		.cfi_offset 7, -8
 1328              		.cfi_offset 14, -4
 1329              		.loc 1 175 0
 1330 0002 0D46     		mov	r5, r1
 1331              		.loc 1 176 0
 1332 0004 0168     		ldr	r1, [r0]
 1333              	.LVL18:
 1334              		.loc 1 175 0
 1335 0006 0446     		mov	r4, r0
 1336              		.loc 1 176 0
 1337 0008 01F03F01 		and	r1, r1, #63
 1338              	.LVL19:
 1339              		.loc 1 178 0
 1340 000c 8A08     		lsrs	r2, r1, #2
 1341 000e 00EB8206 		add	r6, r0, r2, lsl #2
 1342 0012 B36A     		ldr	r3, [r6, #40]
 1343              		.loc 1 179 0
 1344 0014 C843     		mvns	r0, r1
 1345              	.LVL20:
 1346              		.loc 1 178 0
 1347 0016 1FBA     		rev	r7, r3
 1348              		.loc 1 179 0
 1349 0018 6FF07F03 		mvn	r3, #127
 1350 001c 00F00300 		and	r0, r0, #3
 1351 0020 C000     		lsls	r0, r0, #3
 1352 0022 8340     		lsls	r3, r3, r0
 1353 0024 3B40     		ands	r3, r3, r7
 1354              		.loc 1 180 0
 1355 0026 8027     		movs	r7, #128
 1356 0028 07FA00F0 		lsl	r0, r7, r0
 1357 002c 0343     		orrs	r3, r3, r0
 1358              		.loc 1 181 0
 1359 002e 1BBA     		rev	r3, r3
 1360              		.loc 1 183 0
 1361 0030 3729     		cmp	r1, #55
 1362              		.loc 1 181 0
 1363 0032 B362     		str	r3, [r6, #40]
 1364              		.loc 1 183 0
 1365 0034 33D9     		bls	.L24
 1366              		.loc 1 185 0
 1367 0036 3B29     		cmp	r1, #59
 1368              		.loc 1 186 0
ARM GAS  /tmp/ccCMEwBR.s 			page 25


 1369 0038 98BF     		it	ls
 1370 003a 0023     		movls	r3, #0
 1371              		.loc 1 187 0
 1372 003c 2046     		mov	r0, r4
 1373              		.loc 1 186 0
 1374 003e 98BF     		it	ls
 1375 0040 6366     		strls	r3, [r4, #100]
 1376              		.loc 1 187 0
 1377 0042 FFF7FEFF 		bl	sha256_process
 1378              	.LVL21:
 1379              		.loc 1 188 0
 1380 0046 0023     		movs	r3, #0
 1381              	.LVL22:
 1382              	.L26:
 1383              		.loc 1 194 0
 1384 0048 0022     		movs	r2, #0
 1385              	.L27:
 1386              	.LVL23:
 1387              		.loc 1 193 0
 1388 004a 0D2B     		cmp	r3, #13
 1389 004c 29D9     		bls	.L28
 1390              		.loc 1 196 0
 1391 004e D4E90031 		ldrd	r3, r1, [r4]
 1392              	.LVL24:
 1393 0052 5A0F     		lsrs	r2, r3, #29
 1394 0054 42EAC102 		orr	r2, r2, r1, lsl #3
 1395              		.loc 1 197 0
 1396 0058 DB00     		lsls	r3, r3, #3
 1397 005a 1BBA     		rev	r3, r3
 1398              		.loc 1 196 0
 1399 005c 12BA     		rev	r2, r2
 1400              		.loc 1 197 0
 1401 005e 6366     		str	r3, [r4, #100]
 1402              		.loc 1 198 0
 1403 0060 2046     		mov	r0, r4
 1404              		.loc 1 196 0
 1405 0062 2266     		str	r2, [r4, #96]
 1406              		.loc 1 198 0
 1407 0064 FFF7FEFF 		bl	sha256_process
 1408              	.LVL25:
 1409              	.LBB4:
 1410              	.LBB5:
 1411              		.loc 1 58 0
 1412 0068 0021     		movs	r1, #0
 1413              		.loc 1 60 0
 1414 006a 0B46     		mov	r3, r1
 1415              	.LBE5:
 1416              	.LBE4:
 1417              		.loc 1 200 0
 1418 006c 04F10800 		add	r0, r4, #8
 1419              	.LVL26:
 1420              	.L30:
 1421              	.LBB7:
 1422              	.LBB6:
 1423              		.loc 1 62 0
 1424 0070 13F00302 		ands	r2, r3, #3
 1425              		.loc 1 63 0
ARM GAS  /tmp/ccCMEwBR.s 			page 26


 1426 0074 04BF     		itt	eq
 1427 0076 9910     		asreq	r1, r3, #2
 1428 0078 50F82110 		ldreq	r1, [r0, r1, lsl #2]
 1429              	.LVL27:
 1430              		.loc 1 64 0
 1431 007c 4FEAC202 		lsl	r2, r2, #3
 1432              		.loc 1 63 0
 1433 0080 08BF     		it	eq
 1434 0082 09BA     		reveq	r1, r1
 1435              	.LVL28:
 1436              		.loc 1 64 0
 1437 0084 21FA02F2 		lsr	r2, r1, r2
 1438 0088 EA54     		strb	r2, [r5, r3]
 1439              		.loc 1 60 0
 1440 008a 0133     		adds	r3, r3, #1
 1441              	.LVL29:
 1442 008c 202B     		cmp	r3, #32
 1443 008e EFD1     		bne	.L30
 1444              	.LVL30:
 1445              	.LBE6:
 1446              	.LBE7:
 1447              		.loc 1 201 0
 1448 0090 2046     		mov	r0, r4
 1449              		.loc 1 202 0
 1450 0092 BDE8F840 		pop	{r3, r4, r5, r6, r7, lr}
 1451              		.cfi_remember_state
 1452              		.cfi_restore 14
 1453              		.cfi_restore 7
 1454              		.cfi_restore 6
 1455              		.cfi_restore 5
 1456              		.cfi_restore 4
 1457              		.cfi_restore 3
 1458              		.cfi_def_cfa_offset 0
 1459              	.LVL31:
 1460              		.loc 1 201 0
 1461 0096 6822     		movs	r2, #104
 1462 0098 0021     		movs	r1, #0
 1463 009a FFF7FEBF 		b	memset
 1464              	.LVL32:
 1465              	.L24:
 1466              		.cfi_restore_state
 1467              		.loc 1 191 0
 1468 009e 531C     		adds	r3, r2, #1
 1469              	.LVL33:
 1470 00a0 D2E7     		b	.L26
 1471              	.L28:
 1472              		.loc 1 194 0
 1473 00a2 0133     		adds	r3, r3, #1
 1474              	.LVL34:
 1475 00a4 04EB8301 		add	r1, r4, r3, lsl #2
 1476 00a8 4A62     		str	r2, [r1, #36]
 1477 00aa CEE7     		b	.L27
 1478              		.cfi_endproc
 1479              	.LFE3:
 1480              		.size	sha256_finish, .-sha256_finish
 1481              		.section	.text.sha256_start,"ax",%progbits
 1482              		.align	1
ARM GAS  /tmp/ccCMEwBR.s 			page 27


 1483              		.global	sha256_start
 1484              		.syntax unified
 1485              		.thumb
 1486              		.thumb_func
 1487              		.fpu softvfp
 1488              		.type	sha256_start, %function
 1489              	sha256_start:
 1490              	.LFB4:
 1491              		.loc 1 212 0
 1492              		.cfi_startproc
 1493              		@ args = 0, pretend = 0, frame = 0
 1494              		@ frame_needed = 0, uses_anonymous_args = 0
 1495              	.LVL35:
 1496              		.loc 1 213 0
 1497 0000 0022     		movs	r2, #0
 1498 0002 0346     		mov	r3, r0
 1499              		.loc 1 212 0
 1500 0004 30B5     		push	{r4, r5, lr}
 1501              		.cfi_def_cfa_offset 12
 1502              		.cfi_offset 4, -12
 1503              		.cfi_offset 5, -8
 1504              		.cfi_offset 14, -4
 1505              		.loc 1 214 0
 1506 0006 084C     		ldr	r4, .L35
 1507              		.loc 1 213 0
 1508 0008 4260     		str	r2, [r0, #4]
 1509              		.loc 1 214 0
 1510 000a 04F12005 		add	r5, r4, #32
 1511              		.loc 1 213 0
 1512 000e 43F8082B 		str	r2, [r3], #8
 1513              	.LVL36:
 1514              	.L33:
 1515              		.loc 1 214 0
 1516 0012 2246     		mov	r2, r4
 1517 0014 03CA     		ldmia	r2!, {r0, r1}
 1518 0016 AA42     		cmp	r2, r5
 1519 0018 1860     		str	r0, [r3]	@ unaligned
 1520 001a 5960     		str	r1, [r3, #4]	@ unaligned
 1521 001c 1446     		mov	r4, r2
 1522 001e 03F10803 		add	r3, r3, #8
 1523 0022 F6D1     		bne	.L33
 1524              		.loc 1 215 0
 1525 0024 30BD     		pop	{r4, r5, pc}
 1526              	.L36:
 1527 0026 00BF     		.align	2
 1528              	.L35:
 1529 0028 00000000 		.word	.LANCHOR1
 1530              		.cfi_endproc
 1531              	.LFE4:
 1532              		.size	sha256_start, .-sha256_start
 1533              		.section	.text.sha256,"ax",%progbits
 1534              		.align	1
 1535              		.global	sha256
 1536              		.syntax unified
 1537              		.thumb
 1538              		.thumb_func
 1539              		.fpu softvfp
ARM GAS  /tmp/ccCMEwBR.s 			page 28


 1540              		.type	sha256, %function
 1541              	sha256:
 1542              	.LFB5:
 1543              		.loc 1 220 0
 1544              		.cfi_startproc
 1545              		@ args = 0, pretend = 0, frame = 104
 1546              		@ frame_needed = 0, uses_anonymous_args = 0
 1547              	.LVL37:
 1548 0000 70B5     		push	{r4, r5, r6, lr}
 1549              		.cfi_def_cfa_offset 16
 1550              		.cfi_offset 4, -16
 1551              		.cfi_offset 5, -12
 1552              		.cfi_offset 6, -8
 1553              		.cfi_offset 14, -4
 1554 0002 0E46     		mov	r6, r1
 1555 0004 0546     		mov	r5, r0
 1556 0006 1446     		mov	r4, r2
 1557 0008 9AB0     		sub	sp, sp, #104
 1558              		.cfi_def_cfa_offset 120
 1559              		.loc 1 223 0
 1560 000a 6846     		mov	r0, sp
 1561              	.LVL38:
 1562 000c FFF7FEFF 		bl	sha256_start
 1563              	.LVL39:
 1564              		.loc 1 224 0
 1565 0010 3246     		mov	r2, r6
 1566 0012 2946     		mov	r1, r5
 1567 0014 6846     		mov	r0, sp
 1568 0016 FFF7FEFF 		bl	sha256_update
 1569              	.LVL40:
 1570              		.loc 1 225 0
 1571 001a 2146     		mov	r1, r4
 1572 001c 6846     		mov	r0, sp
 1573 001e FFF7FEFF 		bl	sha256_finish
 1574              	.LVL41:
 1575              		.loc 1 226 0
 1576 0022 1AB0     		add	sp, sp, #104
 1577              		.cfi_def_cfa_offset 16
 1578              		@ sp needed
 1579 0024 70BD     		pop	{r4, r5, r6, pc}
 1580              		.cfi_endproc
 1581              	.LFE5:
 1582              		.size	sha256, .-sha256
 1583              		.section	.rodata.initial_state,"a",%progbits
 1584              		.align	2
 1585              		.set	.LANCHOR1,. + 0
 1586              		.type	initial_state, %object
 1587              		.size	initial_state, 32
 1588              	initial_state:
 1589 0000 67E6096A 		.word	1779033703
 1590 0004 85AE67BB 		.word	-1150833019
 1591 0008 72F36E3C 		.word	1013904242
 1592 000c 3AF54FA5 		.word	-1521486534
 1593 0010 7F520E51 		.word	1359893119
 1594 0014 8C68059B 		.word	-1694144372
 1595 0018 ABD9831F 		.word	528734635
 1596 001c 19CDE05B 		.word	1541459225
ARM GAS  /tmp/ccCMEwBR.s 			page 29


 1597              		.section	.rodata.k256,"a",%progbits
 1598              		.align	2
 1599              		.set	.LANCHOR0,. + 0
 1600              		.type	k256, %object
 1601              		.size	k256, 256
 1602              	k256:
 1603 0000 982F8A42 		.word	1116352408
 1604 0004 91443771 		.word	1899447441
 1605 0008 CFFBC0B5 		.word	-1245643825
 1606 000c A5DBB5E9 		.word	-373957723
 1607 0010 5BC25639 		.word	961987163
 1608 0014 F111F159 		.word	1508970993
 1609 0018 A4823F92 		.word	-1841331548
 1610 001c D55E1CAB 		.word	-1424204075
 1611 0020 98AA07D8 		.word	-670586216
 1612 0024 015B8312 		.word	310598401
 1613 0028 BE853124 		.word	607225278
 1614 002c C37D0C55 		.word	1426881987
 1615 0030 745DBE72 		.word	1925078388
 1616 0034 FEB1DE80 		.word	-2132889090
 1617 0038 A706DC9B 		.word	-1680079193
 1618 003c 74F19BC1 		.word	-1046744716
 1619 0040 C1699BE4 		.word	-459576895
 1620 0044 8647BEEF 		.word	-272742522
 1621 0048 C69DC10F 		.word	264347078
 1622 004c CCA10C24 		.word	604807628
 1623 0050 6F2CE92D 		.word	770255983
 1624 0054 AA84744A 		.word	1249150122
 1625 0058 DCA9B05C 		.word	1555081692
 1626 005c DA88F976 		.word	1996064986
 1627 0060 52513E98 		.word	-1740746414
 1628 0064 6DC631A8 		.word	-1473132947
 1629 0068 C82703B0 		.word	-1341970488
 1630 006c C77F59BF 		.word	-1084653625
 1631 0070 F30BE0C6 		.word	-958395405
 1632 0074 4791A7D5 		.word	-710438585
 1633 0078 5163CA06 		.word	113926993
 1634 007c 67292914 		.word	338241895
 1635 0080 850AB727 		.word	666307205
 1636 0084 38211B2E 		.word	773529912
 1637 0088 FC6D2C4D 		.word	1294757372
 1638 008c 130D3853 		.word	1396182291
 1639 0090 54730A65 		.word	1695183700
 1640 0094 BB0A6A76 		.word	1986661051
 1641 0098 2EC9C281 		.word	-2117940946
 1642 009c 852C7292 		.word	-1838011259
 1643 00a0 A1E8BFA2 		.word	-1564481375
 1644 00a4 4B661AA8 		.word	-1474664885
 1645 00a8 708B4BC2 		.word	-1035236496
 1646 00ac A3516CC7 		.word	-949202525
 1647 00b0 19E892D1 		.word	-778901479
 1648 00b4 240699D6 		.word	-694614492
 1649 00b8 85350EF4 		.word	-200395387
 1650 00bc 70A06A10 		.word	275423344
 1651 00c0 16C1A419 		.word	430227734
 1652 00c4 086C371E 		.word	506948616
 1653 00c8 4C774827 		.word	659060556
ARM GAS  /tmp/ccCMEwBR.s 			page 30


 1654 00cc B5BCB034 		.word	883997877
 1655 00d0 B30C1C39 		.word	958139571
 1656 00d4 4AAAD84E 		.word	1322822218
 1657 00d8 4FCA9C5B 		.word	1537002063
 1658 00dc F36F2E68 		.word	1747873779
 1659 00e0 EE828F74 		.word	1955562222
 1660 00e4 6F63A578 		.word	2024104815
 1661 00e8 1478C884 		.word	-2067236844
 1662 00ec 0802C78C 		.word	-1933114872
 1663 00f0 FAFFBE90 		.word	-1866530822
 1664 00f4 EB6C50A4 		.word	-1538233109
 1665 00f8 F7A3F9BE 		.word	-1090935817
 1666 00fc F27871C6 		.word	-965641998
 1667              		.text
 1668              	.Letext0:
 1669              		.file 2 "/usr/arm-none-eabi/include/machine/_default_types.h"
 1670              		.file 3 "/usr/arm-none-eabi/include/sys/lock.h"
 1671              		.file 4 "/usr/arm-none-eabi/include/sys/_types.h"
 1672              		.file 5 "/usr/lib/gcc/arm-none-eabi/7.3.1/include/stddef.h"
 1673              		.file 6 "/usr/arm-none-eabi/include/sys/reent.h"
 1674              		.file 7 "/usr/arm-none-eabi/include/sys/_stdint.h"
 1675              		.file 8 "/usr/arm-none-eabi/include/stdlib.h"
 1676              		.file 9 "sha256.h"
 1677              		.file 10 "<built-in>"