ARM GAS  /tmp/ccswPMqC.s 			page 1


   1              		.cpu cortex-m3
   2              		.eabi_attribute 20, 1
   3              		.eabi_attribute 21, 1
   4              		.eabi_attribute 23, 3
   5              		.eabi_attribute 24, 1
   6              		.eabi_attribute 25, 1
   7              		.eabi_attribute 26, 1
   8              		.eabi_attribute 30, 4
   9              		.eabi_attribute 34, 1
  10              		.eabi_attribute 18, 4
  11              		.file	"u2f-apdu.c"
  12              		.text
  13              	.Ltext0:
  14              		.cfi_sections	.debug_frame
  15              		.section	.text.flash_erase_page,"ax",%progbits
  16              		.align	1
  17              		.syntax unified
  18              		.thumb
  19              		.thumb_func
  20              		.fpu softvfp
  21              		.type	flash_erase_page, %function
  22              	flash_erase_page:
  23              	.LFB4:
  24              		.file 1 "../chopstx/mcu/sys-stm32f103.h"
  25              		.loc 1 59 0
  26              		.cfi_startproc
  27              		@ args = 0, pretend = 0, frame = 0
  28              		@ frame_needed = 0, uses_anonymous_args = 0
  29              		@ link register save eliminated.
  30              	.LVL0:
  31              		.loc 1 60 0
  32 0000 014B     		ldr	r3, .L2
  33              		.loc 1 62 0
  34 0002 5B69     		ldr	r3, [r3, #20]
  35 0004 1847     		bx	r3
  36              	.LVL1:
  37              	.L3:
  38 0006 00BF     		.align	2
  39              	.L2:
  40 0008 00000000 		.word	vector
  41              		.cfi_endproc
  42              	.LFE4:
  43              		.size	flash_erase_page, .-flash_erase_page
  44              		.section	.text.flash_write,"ax",%progbits
  45              		.align	1
  46              		.syntax unified
  47              		.thumb
  48              		.thumb_func
  49              		.fpu softvfp
  50              		.type	flash_write, %function
  51              	flash_write:
  52              	.LFB6:
  53              		.loc 1 75 0
  54              		.cfi_startproc
  55              		@ args = 0, pretend = 0, frame = 0
  56              		@ frame_needed = 0, uses_anonymous_args = 0
  57              		@ link register save eliminated.
ARM GAS  /tmp/ccswPMqC.s 			page 2


  58              	.LVL2:
  59              		.loc 1 76 0
  60 0000 014B     		ldr	r3, .L5
  61              		.loc 1 79 0
  62 0002 DB69     		ldr	r3, [r3, #28]
  63 0004 1847     		bx	r3
  64              	.LVL3:
  65              	.L6:
  66 0006 00BF     		.align	2
  67              	.L5:
  68 0008 00000000 		.word	vector
  69              		.cfi_endproc
  70              	.LFE6:
  71              		.size	flash_write, .-flash_write
  72              		.section	.text.u2f_read_ctr,"ax",%progbits
  73              		.align	1
  74              		.syntax unified
  75              		.thumb
  76              		.thumb_func
  77              		.fpu softvfp
  78              		.type	u2f_read_ctr, %function
  79              	u2f_read_ctr:
  80              	.LFB21:
  81              		.file 2 "u2f-apdu.c"
  82              		.loc 2 356 0
  83              		.cfi_startproc
  84              		@ args = 0, pretend = 0, frame = 0
  85              		@ frame_needed = 0, uses_anonymous_args = 0
  86              	.LVL4:
  87              		.loc 2 359 0
  88 0000 0020     		movs	r0, #0
  89 0002 0B4A     		ldr	r2, .L22
  90              		.loc 2 356 0
  91 0004 30B5     		push	{r4, r5, lr}
  92              		.cfi_def_cfa_offset 12
  93              		.cfi_offset 4, -12
  94              		.cfi_offset 5, -8
  95              		.cfi_offset 14, -4
  96 0006 1168     		ldr	r1, [r2]
  97 0008 0A4D     		ldr	r5, .L22+4
  98              	.L8:
  99 000a 0B46     		mov	r3, r1
 100              		.loc 2 359 0
 101 000c 1C68     		ldr	r4, [r3]
 102 000e 0431     		adds	r1, r1, #4
 103 0010 0134     		adds	r4, r4, #1
 104 0012 03D0     		beq	.L21
 105              		.loc 2 361 0
 106 0014 5C1B     		subs	r4, r3, r5
 107 0016 B4F5806F 		cmp	r4, #1024
 108 001a 07D1     		bne	.L12
 109              	.L21:
 110 001c 00B1     		cbz	r0, .L9
 111 001e 1360     		str	r3, [r2]
 112              	.L9:
 113              		.loc 2 366 0
 114 0020 AB42     		cmp	r3, r5
ARM GAS  /tmp/ccswPMqC.s 			page 3


 115              		.loc 2 369 0
 116 0022 14BF     		ite	ne
 117 0024 53F8040C 		ldrne	r0, [r3, #-4]
 118              		.loc 2 367 0
 119 0028 0020     		moveq	r0, #0
 120              		.loc 2 370 0
 121 002a 30BD     		pop	{r4, r5, pc}
 122              	.L12:
 123 002c 0120     		movs	r0, #1
 124 002e ECE7     		b	.L8
 125              	.L23:
 126              		.align	2
 127              	.L22:
 128 0030 00000000 		.word	.LANCHOR0
 129 0034 00000000 		.word	.LANCHOR1
 130              		.cfi_endproc
 131              	.LFE21:
 132              		.size	u2f_read_ctr, .-u2f_read_ctr
 133              		.section	.text.append_sw,"ax",%progbits
 134              		.align	1
 135              		.syntax unified
 136              		.thumb
 137              		.thumb_func
 138              		.fpu softvfp
 139              		.type	append_sw, %function
 140              	append_sw:
 141              	.LFB27:
 142              		.loc 2 458 0
 143              		.cfi_startproc
 144              		@ args = 0, pretend = 0, frame = 0
 145              		@ frame_needed = 0, uses_anonymous_args = 0
 146              	.LVL5:
 147              		.loc 2 459 0
 148 0000 0B68     		ldr	r3, [r1]
 149              		.loc 2 458 0
 150 0002 10B5     		push	{r4, lr}
 151              		.cfi_def_cfa_offset 8
 152              		.cfi_offset 4, -8
 153              		.cfi_offset 14, -4
 154              		.loc 2 459 0
 155 0004 5C1C     		adds	r4, r3, #1
 156 0006 0C60     		str	r4, [r1]
 157 0008 140A     		lsrs	r4, r2, #8
 158 000a C454     		strb	r4, [r0, r3]
 159              		.loc 2 460 0
 160 000c 0B68     		ldr	r3, [r1]
 161 000e 5C1C     		adds	r4, r3, #1
 162 0010 0C60     		str	r4, [r1]
 163 0012 C254     		strb	r2, [r0, r3]
 164              		.loc 2 461 0
 165 0014 10BD     		pop	{r4, pc}
 166              		.cfi_endproc
 167              	.LFE27:
 168              		.size	append_sw, .-append_sw
 169              		.section	.text.u2f_apdu_error,"ax",%progbits
 170              		.align	1
 171              		.syntax unified
ARM GAS  /tmp/ccswPMqC.s 			page 4


 172              		.thumb
 173              		.thumb_func
 174              		.fpu softvfp
 175              		.type	u2f_apdu_error, %function
 176              	u2f_apdu_error:
 177              	.LFB28:
 178              		.loc 2 465 0
 179              		.cfi_startproc
 180              		@ args = 0, pretend = 0, frame = 0
 181              		@ frame_needed = 0, uses_anonymous_args = 0
 182              		@ link register save eliminated.
 183              	.LVL6:
 184 0000 10B4     		push	{r4}
 185              		.cfi_def_cfa_offset 4
 186              		.cfi_offset 4, -4
 187              		.loc 2 466 0
 188 0002 0024     		movs	r4, #0
 189 0004 0C60     		str	r4, [r1]
 190              		.loc 2 468 0
 191 0006 10BC     		pop	{r4}
 192              		.cfi_restore 4
 193              		.cfi_def_cfa_offset 0
 194              		.loc 2 467 0
 195 0008 FFF7FEBF 		b	append_sw
 196              	.LVL7:
 197              		.cfi_endproc
 198              	.LFE28:
 199              		.size	u2f_apdu_error, .-u2f_apdu_error
 200              		.section	.text.der_encode_uint.constprop.0,"ax",%progbits
 201              		.align	1
 202              		.syntax unified
 203              		.thumb
 204              		.thumb_func
 205              		.fpu softvfp
 206              		.type	der_encode_uint.constprop.0, %function
 207              	der_encode_uint.constprop.0:
 208              	.LFB32:
 209              		.loc 2 249 0
 210              		.cfi_startproc
 211              		@ args = 0, pretend = 0, frame = 0
 212              		@ frame_needed = 0, uses_anonymous_args = 0
 213              	.LVL8:
 214              		.loc 2 254 0
 215 0000 0223     		movs	r3, #2
 216              		.loc 2 249 0
 217 0002 70B5     		push	{r4, r5, r6, lr}
 218              		.cfi_def_cfa_offset 16
 219              		.cfi_offset 4, -16
 220              		.cfi_offset 5, -12
 221              		.cfi_offset 6, -8
 222              		.cfi_offset 14, -4
 223              		.loc 2 254 0
 224 0004 0370     		strb	r3, [r0]
 225              	.LVL9:
 226              		.loc 2 257 0
 227 0006 0023     		movs	r3, #0
 228              		.loc 2 249 0
ARM GAS  /tmp/ccswPMqC.s 			page 5


 229 0008 0646     		mov	r6, r0
 230              		.loc 2 257 0
 231 000a 2025     		movs	r5, #32
 232 000c 4370     		strb	r3, [r0, #1]
 233              	.LVL10:
 234              	.L27:
 235              		.loc 2 260 0
 236 000e 0A78     		ldrb	r2, [r1]	@ zero_extendqisi2
 237 0010 0B46     		mov	r3, r1
 238              	.LVL11:
 239 0012 0131     		adds	r1, r1, #1
 240 0014 0AB9     		cbnz	r2, .L28
 241 0016 85B9     		cbnz	r5, .L29
 242 0018 2A46     		mov	r2, r5
 243              	.L28:
 244              		.loc 2 267 0
 245 001a 1206     		lsls	r2, r2, #24
 246              	.LVL12:
 247              		.loc 2 268 0
 248 001c 45BF     		ittet	mi
 249 001e 0022     		movmi	r2, #0
 250 0020 0324     		movmi	r4, #3
 251              		.loc 2 257 0
 252 0022 0224     		movpl	r4, #2
 253              	.LVL13:
 254              		.loc 2 268 0
 255 0024 B270     		strbmi	r2, [r6, #2]
 256              		.loc 2 271 0
 257 0026 1946     		mov	r1, r3
 258 0028 2A46     		mov	r2, r5
 259 002a 3019     		adds	r0, r6, r4
 260 002c FFF7FEFF 		bl	memcpy
 261              	.LVL14:
 262              		.loc 2 272 0
 263 0030 6019     		adds	r0, r4, r5
 264 0032 C0B2     		uxtb	r0, r0
 265              	.LVL15:
 266              		.loc 2 275 0
 267 0034 831E     		subs	r3, r0, #2
 268 0036 7370     		strb	r3, [r6, #1]
 269              		.loc 2 278 0
 270 0038 70BD     		pop	{r4, r5, r6, pc}
 271              	.LVL16:
 272              	.L29:
 273              		.loc 2 263 0
 274 003a 681E     		subs	r0, r5, #1
 275 003c C5B2     		uxtb	r5, r0
 276              	.LVL17:
 277 003e E6E7     		b	.L27
 278              		.cfi_endproc
 279              	.LFE32:
 280              		.size	der_encode_uint.constprop.0, .-der_encode_uint.constprop.0
 281              		.section	.text.der_encode_sig,"ax",%progbits
 282              		.align	1
 283              		.syntax unified
 284              		.thumb
 285              		.thumb_func
ARM GAS  /tmp/ccswPMqC.s 			page 6


 286              		.fpu softvfp
 287              		.type	der_encode_sig, %function
 288              	der_encode_sig:
 289              	.LFB18:
 290              		.loc 2 282 0
 291              		.cfi_startproc
 292              		@ args = 0, pretend = 0, frame = 0
 293              		@ frame_needed = 0, uses_anonymous_args = 0
 294              	.LVL18:
 295              		.loc 2 287 0
 296 0000 3023     		movs	r3, #48
 297              		.loc 2 282 0
 298 0002 70B5     		push	{r4, r5, r6, lr}
 299              		.cfi_def_cfa_offset 16
 300              		.cfi_offset 4, -16
 301              		.cfi_offset 5, -12
 302              		.cfi_offset 6, -8
 303              		.cfi_offset 14, -4
 304              		.loc 2 287 0
 305 0004 0370     		strb	r3, [r0]
 306              	.LVL19:
 307              		.loc 2 290 0
 308 0006 0023     		movs	r3, #0
 309              		.loc 2 282 0
 310 0008 0546     		mov	r5, r0
 311              		.loc 2 290 0
 312 000a 4370     		strb	r3, [r0, #1]
 313              		.loc 2 292 0
 314 000c 0230     		adds	r0, r0, #2
 315              	.LVL20:
 316              		.loc 2 282 0
 317 000e 0E46     		mov	r6, r1
 318              		.loc 2 292 0
 319 0010 FFF7FEFF 		bl	der_encode_uint.constprop.0
 320              	.LVL21:
 321 0014 0230     		adds	r0, r0, #2
 322 0016 C4B2     		uxtb	r4, r0
 323              	.LVL22:
 324              		.loc 2 293 0
 325 0018 06F12001 		add	r1, r6, #32
 326 001c 2819     		adds	r0, r5, r4
 327 001e FFF7FEFF 		bl	der_encode_uint.constprop.0
 328              	.LVL23:
 329 0022 2044     		add	r0, r0, r4
 330 0024 C0B2     		uxtb	r0, r0
 331              	.LVL24:
 332              		.loc 2 295 0
 333 0026 831E     		subs	r3, r0, #2
 334 0028 6B70     		strb	r3, [r5, #1]
 335              		.loc 2 298 0
 336 002a 70BD     		pop	{r4, r5, r6, pc}
 337              		.cfi_endproc
 338              	.LFE18:
 339              		.size	der_encode_sig, .-der_encode_sig
 340              		.section	.text.u2f_authenticate,"ax",%progbits
 341              		.align	1
 342              		.syntax unified
ARM GAS  /tmp/ccswPMqC.s 			page 7


 343              		.thumb
 344              		.thumb_func
 345              		.fpu softvfp
 346              		.type	u2f_authenticate, %function
 347              	u2f_authenticate:
 348              	.LFB25:
 349              		.loc 2 417 0
 350              		.cfi_startproc
 351              		@ args = 0, pretend = 0, frame = 352
 352              		@ frame_needed = 0, uses_anonymous_args = 0
 353              	.LVL25:
 354 0000 F0B5     		push	{r4, r5, r6, r7, lr}
 355              		.cfi_def_cfa_offset 20
 356              		.cfi_offset 4, -20
 357              		.cfi_offset 5, -16
 358              		.cfi_offset 6, -12
 359              		.cfi_offset 7, -8
 360              		.cfi_offset 14, -4
 361              		.loc 2 424 0
 362 0002 0127     		movs	r7, #1
 363              		.loc 2 417 0
 364 0004 D9B0     		sub	sp, sp, #356
 365              		.cfi_def_cfa_offset 376
 366              		.loc 2 424 0
 367 0006 0F70     		strb	r7, [r1]
 368              		.loc 2 417 0
 369 0008 0C46     		mov	r4, r1
 370 000a 0546     		mov	r5, r0
 371              		.loc 2 426 0
 372 000c FFF7FEFF 		bl	u2f_read_ctr
 373              	.LVL26:
 374              		.loc 2 428 0
 375 0010 030E     		lsrs	r3, r0, #24
 376 0012 6370     		strb	r3, [r4, #1]
 377              		.loc 2 429 0
 378 0014 030C     		lsrs	r3, r0, #16
 379 0016 A370     		strb	r3, [r4, #2]
 380              		.loc 2 430 0
 381 0018 030A     		lsrs	r3, r0, #8
 382 001a E370     		strb	r3, [r4, #3]
 383              		.loc 2 431 0
 384 001c 2071     		strb	r0, [r4, #4]
 385              	.LVL27:
 386              	.LBB6:
 387              	.LBB7:
 388              		.loc 2 408 0
 389 001e 05F12006 		add	r6, r5, #32
 390              		.loc 2 407 0
 391 0022 18A8     		add	r0, sp, #96
 392              	.LVL28:
 393 0024 FFF7FEFF 		bl	sha256_start
 394              	.LVL29:
 395              		.loc 2 408 0
 396 0028 2022     		movs	r2, #32
 397 002a 3146     		mov	r1, r6
 398 002c 18A8     		add	r0, sp, #96
 399 002e FFF7FEFF 		bl	sha256_update
ARM GAS  /tmp/ccswPMqC.s 			page 8


 400              	.LVL30:
 401              		.loc 2 409 0
 402 0032 3A46     		mov	r2, r7
 403 0034 2146     		mov	r1, r4
 404 0036 18A8     		add	r0, sp, #96
 405 0038 FFF7FEFF 		bl	sha256_update
 406              	.LVL31:
 407              		.loc 2 410 0
 408 003c E119     		adds	r1, r4, r7
 409 003e 0422     		movs	r2, #4
 410 0040 18A8     		add	r0, sp, #96
 411 0042 FFF7FEFF 		bl	sha256_update
 412              	.LVL32:
 413              		.loc 2 411 0
 414 0046 2022     		movs	r2, #32
 415 0048 2946     		mov	r1, r5
 416 004a 18A8     		add	r0, sp, #96
 417 004c FFF7FEFF 		bl	sha256_update
 418              	.LVL33:
 419              		.loc 2 412 0
 420 0050 08A9     		add	r1, sp, #32
 421              	.LVL34:
 422 0052 18A8     		add	r0, sp, #96
 423 0054 FFF7FEFF 		bl	sha256_finish
 424              	.LVL35:
 425              	.LBE7:
 426              	.LBE6:
 427              	.LBB8:
 428              	.LBB9:
 429              		.loc 2 232 0
 430 0058 95F84030 		ldrb	r3, [r5, #64]	@ zero_extendqisi2
 431              	.LBE9:
 432              	.LBE8:
 433              		.loc 2 435 0
 434 005c 05F14107 		add	r7, r5, #65
 435              	.LVL36:
 436              	.LBB12:
 437              	.LBB10:
 438              		.loc 2 232 0
 439 0060 402B     		cmp	r3, #64
 440 0062 03D0     		beq	.L34
 441              	.LVL37:
 442              	.L37:
 443              	.LBE10:
 444              	.LBE12:
 445              		.loc 2 437 0
 446 0064 4FF0FF30 		mov	r0, #-1
 447              	.L33:
 448              		.loc 2 447 0
 449 0068 59B0     		add	sp, sp, #356
 450              		.cfi_remember_state
 451              		.cfi_def_cfa_offset 20
 452              		@ sp needed
 453 006a F0BD     		pop	{r4, r5, r6, r7, pc}
 454              	.LVL38:
 455              	.L34:
 456              		.cfi_restore_state
ARM GAS  /tmp/ccswPMqC.s 			page 9


 457              	.LBB13:
 458              	.LBB11:
 459              		.loc 2 235 0
 460 006c 1D49     		ldr	r1, .L38
 461 006e 18A8     		add	r0, sp, #96
 462 0070 FFF7FEFF 		bl	hmac_sha256_init
 463              	.LVL39:
 464              		.loc 2 236 0
 465 0074 2022     		movs	r2, #32
 466 0076 3146     		mov	r1, r6
 467 0078 18A8     		add	r0, sp, #96
 468 007a FFF7FEFF 		bl	hmac_sha256_update
 469              	.LVL40:
 470              		.loc 2 237 0
 471 007e 2022     		movs	r2, #32
 472 0080 05F16101 		add	r1, r5, #97
 473 0084 18A8     		add	r0, sp, #96
 474 0086 FFF7FEFF 		bl	hmac_sha256_update
 475              	.LVL41:
 476              		.loc 2 238 0
 477 008a 6A46     		mov	r2, sp
 478 008c 1549     		ldr	r1, .L38
 479 008e 18A8     		add	r0, sp, #96
 480 0090 FFF7FEFF 		bl	hmac_sha256_finish
 481              	.LVL42:
 482              		.loc 2 240 0
 483 0094 1349     		ldr	r1, .L38
 484 0096 18A8     		add	r0, sp, #96
 485 0098 FFF7FEFF 		bl	hmac_sha256_init
 486              	.LVL43:
 487              		.loc 2 241 0
 488 009c 2022     		movs	r2, #32
 489 009e 6946     		mov	r1, sp
 490 00a0 18A8     		add	r0, sp, #96
 491 00a2 FFF7FEFF 		bl	hmac_sha256_update
 492              	.LVL44:
 493              		.loc 2 242 0
 494 00a6 2022     		movs	r2, #32
 495 00a8 3146     		mov	r1, r6
 496 00aa 18A8     		add	r0, sp, #96
 497 00ac FFF7FEFF 		bl	hmac_sha256_update
 498              	.LVL45:
 499              		.loc 2 243 0
 500 00b0 10AA     		add	r2, sp, #64
 501 00b2 0C49     		ldr	r1, .L38
 502 00b4 18A8     		add	r0, sp, #96
 503 00b6 FFF7FEFF 		bl	hmac_sha256_finish
 504              	.LVL46:
 505              		.loc 2 245 0
 506 00ba 2022     		movs	r2, #32
 507 00bc 3946     		mov	r1, r7
 508 00be 10A8     		add	r0, sp, #64
 509 00c0 FFF7FEFF 		bl	memcmp
 510              	.LVL47:
 511              	.LBE11:
 512              	.LBE13:
 513              		.loc 2 435 0
ARM GAS  /tmp/ccswPMqC.s 			page 10


 514 00c4 0028     		cmp	r0, #0
 515 00c6 CDD1     		bne	.L37
 516              		.loc 2 439 0
 517 00c8 6A46     		mov	r2, sp
 518 00ca 18A9     		add	r1, sp, #96
 519 00cc 08A8     		add	r0, sp, #32
 520 00ce FFF7FEFF 		bl	ecdsa_sign_p256r1
 521              	.LVL48:
 522 00d2 0028     		cmp	r0, #0
 523 00d4 C6D1     		bne	.L37
 524              		.loc 2 442 0
 525 00d6 18A9     		add	r1, sp, #96
 526 00d8 601D     		adds	r0, r4, #5
 527 00da FFF7FEFF 		bl	der_encode_sig
 528              	.LVL49:
 529              		.loc 2 446 0
 530 00de 0530     		adds	r0, r0, #5
 531              	.LVL50:
 532 00e0 C2E7     		b	.L33
 533              	.L39:
 534 00e2 00BF     		.align	2
 535              	.L38:
 536 00e4 00000000 		.word	.LANCHOR2
 537              		.cfi_endproc
 538              	.LFE25:
 539              		.size	u2f_authenticate, .-u2f_authenticate
 540              		.section	.text.u2f_register,"ax",%progbits
 541              		.align	1
 542              		.syntax unified
 543              		.thumb
 544              		.thumb_func
 545              		.fpu softvfp
 546              		.type	u2f_register, %function
 547              	u2f_register:
 548              	.LFB20:
 549              		.loc 2 318 0
 550              		.cfi_startproc
 551              		@ args = 0, pretend = 0, frame = 360
 552              		@ frame_needed = 0, uses_anonymous_args = 0
 553              	.LVL51:
 554 0000 2DE9F043 		push	{r4, r5, r6, r7, r8, r9, lr}
 555              		.cfi_def_cfa_offset 28
 556              		.cfi_offset 4, -28
 557              		.cfi_offset 5, -24
 558              		.cfi_offset 6, -20
 559              		.cfi_offset 7, -16
 560              		.cfi_offset 8, -12
 561              		.cfi_offset 9, -8
 562              		.cfi_offset 14, -4
 563              	.LBB22:
 564              	.LBB23:
 565              		.loc 2 143 0
 566 0004 0025     		movs	r5, #0
 567              	.LBE23:
 568              	.LBE22:
 569              		.loc 2 318 0
 570 0006 DBB0     		sub	sp, sp, #364
ARM GAS  /tmp/ccswPMqC.s 			page 11


 571              		.cfi_def_cfa_offset 392
 572              	.LVL52:
 573              		.loc 2 318 0
 574 0008 8146     		mov	r9, r0
 575 000a 0C46     		mov	r4, r1
 576              	.LBB25:
 577              	.LBB24:
 578              		.loc 2 146 0
 579 000c 2022     		movs	r2, #32
 580 000e 0AA9     		add	r1, sp, #40
 581              	.LVL53:
 582 0010 1AA8     		add	r0, sp, #104
 583              	.LVL54:
 584              		.loc 2 143 0
 585 0012 8DF86850 		strb	r5, [sp, #104]
 586              		.loc 2 146 0
 587 0016 FFF7FEFF 		bl	random_gen
 588              	.LVL55:
 589 001a 0646     		mov	r6, r0
 590              	.LVL56:
 591              		.loc 2 147 0
 592 001c 2846     		mov	r0, r5
 593              	.LVL57:
 594 001e FFF7FEFF 		bl	random_bytes_free
 595              	.LVL58:
 596              	.LBE24:
 597              	.LBE25:
 598              		.loc 2 325 0
 599 0022 26B1     		cbz	r6, .L41
 600              	.L44:
 601              		.loc 2 326 0
 602 0024 4FF0FF30 		mov	r0, #-1
 603              	.L40:
 604              		.loc 2 352 0
 605 0028 5BB0     		add	sp, sp, #364
 606              		.cfi_remember_state
 607              		.cfi_def_cfa_offset 28
 608              		@ sp needed
 609 002a BDE8F083 		pop	{r4, r5, r6, r7, r8, r9, pc}
 610              	.LVL59:
 611              	.L41:
 612              		.cfi_restore_state
 613              		.loc 2 328 0
 614 002e 09F12007 		add	r7, r9, #32
 615              	.LVL60:
 616              	.LBB26:
 617              	.LBB27:
 618              		.loc 2 205 0
 619 0032 3E49     		ldr	r1, .L46
 620 0034 1AA8     		add	r0, sp, #104
 621 0036 FFF7FEFF 		bl	hmac_sha256_init
 622              	.LVL61:
 623              		.loc 2 206 0
 624 003a 2022     		movs	r2, #32
 625 003c 3946     		mov	r1, r7
 626 003e 1AA8     		add	r0, sp, #104
 627 0040 FFF7FEFF 		bl	hmac_sha256_update
ARM GAS  /tmp/ccswPMqC.s 			page 12


 628              	.LVL62:
 629              		.loc 2 207 0
 630 0044 2022     		movs	r2, #32
 631 0046 0AA9     		add	r1, sp, #40
 632              	.LVL63:
 633 0048 1AA8     		add	r0, sp, #104
 634 004a FFF7FEFF 		bl	hmac_sha256_update
 635              	.LVL64:
 636              		.loc 2 208 0
 637 004e 02AA     		add	r2, sp, #8
 638              	.LVL65:
 639 0050 3649     		ldr	r1, .L46
 640 0052 1AA8     		add	r0, sp, #104
 641 0054 FFF7FEFF 		bl	hmac_sha256_finish
 642              	.LVL66:
 643              	.LBE27:
 644              	.LBE26:
 645              	.LBB28:
 646              	.LBB29:
 647              		.loc 2 217 0
 648 0058 3449     		ldr	r1, .L46
 649 005a 1AA8     		add	r0, sp, #104
 650 005c FFF7FEFF 		bl	hmac_sha256_init
 651              	.LVL67:
 652              		.loc 2 218 0
 653 0060 2022     		movs	r2, #32
 654 0062 02A9     		add	r1, sp, #8
 655 0064 1AA8     		add	r0, sp, #104
 656 0066 FFF7FEFF 		bl	hmac_sha256_update
 657              	.LVL68:
 658              	.LBE29:
 659              	.LBE28:
 660              		.loc 2 329 0
 661 006a 04F14308 		add	r8, r4, #67
 662              	.LVL69:
 663              	.LBB31:
 664              	.LBB30:
 665              		.loc 2 219 0
 666 006e 2022     		movs	r2, #32
 667 0070 3946     		mov	r1, r7
 668 0072 1AA8     		add	r0, sp, #104
 669 0074 FFF7FEFF 		bl	hmac_sha256_update
 670              	.LVL70:
 671              		.loc 2 220 0
 672 0078 4246     		mov	r2, r8
 673 007a 2C49     		ldr	r1, .L46
 674 007c 1AA8     		add	r0, sp, #104
 675 007e FFF7FEFF 		bl	hmac_sha256_finish
 676              	.LVL71:
 677              		.loc 2 222 0
 678 0082 04F16305 		add	r5, r4, #99
 679 0086 0AAB     		add	r3, sp, #40
 680              	.LVL72:
 681 0088 12AE     		add	r6, sp, #72
 682              	.LVL73:
 683              	.L43:
 684 008a 1A46     		mov	r2, r3
ARM GAS  /tmp/ccswPMqC.s 			page 13


 685 008c 03CA     		ldmia	r2!, {r0, r1}
 686 008e B242     		cmp	r2, r6
 687 0090 2860     		str	r0, [r5]	@ unaligned
 688 0092 6960     		str	r1, [r5, #4]	@ unaligned
 689 0094 1346     		mov	r3, r2
 690 0096 05F10805 		add	r5, r5, #8
 691 009a F6D1     		bne	.L43
 692              	.LVL74:
 693              	.LBE30:
 694              	.LBE31:
 695              		.loc 2 331 0
 696 009c A11C     		adds	r1, r4, #2
 697 009e 02A8     		add	r0, sp, #8
 698 00a0 FFF7FEFF 		bl	ecc_compute_public_p256r1
 699              	.LVL75:
 700 00a4 0546     		mov	r5, r0
 701 00a6 0028     		cmp	r0, #0
 702 00a8 BCD1     		bne	.L44
 703              		.loc 2 334 0
 704 00aa 0523     		movs	r3, #5
 705 00ac 2370     		strb	r3, [r4]
 706              		.loc 2 335 0
 707 00ae 0423     		movs	r3, #4
 708 00b0 6370     		strb	r3, [r4, #1]
 709              		.loc 2 336 0
 710 00b2 4023     		movs	r3, #64
 711              		.loc 2 337 0
 712 00b4 40F21B12 		movw	r2, #283
 713              		.loc 2 336 0
 714 00b8 84F84230 		strb	r3, [r4, #66]
 715              		.loc 2 337 0
 716 00bc 1C49     		ldr	r1, .L46+4
 717 00be 04F18300 		add	r0, r4, #131
 718 00c2 FFF7FEFF 		bl	memcpy
 719              	.LVL76:
 720              	.LBB32:
 721              	.LBB33:
 722              		.loc 2 307 0
 723 00c6 1AA8     		add	r0, sp, #104
 724              		.loc 2 305 0
 725 00c8 8DF80750 		strb	r5, [sp, #7]
 726              		.loc 2 307 0
 727 00cc FFF7FEFF 		bl	sha256_start
 728              	.LVL77:
 729              		.loc 2 308 0
 730 00d0 0122     		movs	r2, #1
 731 00d2 0DF10701 		add	r1, sp, #7
 732 00d6 1AA8     		add	r0, sp, #104
 733 00d8 FFF7FEFF 		bl	sha256_update
 734              	.LVL78:
 735              		.loc 2 309 0
 736 00dc 2022     		movs	r2, #32
 737 00de 3946     		mov	r1, r7
 738 00e0 1AA8     		add	r0, sp, #104
 739 00e2 FFF7FEFF 		bl	sha256_update
 740              	.LVL79:
 741              		.loc 2 310 0
ARM GAS  /tmp/ccswPMqC.s 			page 14


 742 00e6 2022     		movs	r2, #32
 743 00e8 4946     		mov	r1, r9
 744 00ea 1AA8     		add	r0, sp, #104
 745 00ec FFF7FEFF 		bl	sha256_update
 746              	.LVL80:
 747              		.loc 2 311 0
 748 00f0 94F84220 		ldrb	r2, [r4, #66]	@ zero_extendqisi2
 749 00f4 4146     		mov	r1, r8
 750 00f6 1AA8     		add	r0, sp, #104
 751 00f8 FFF7FEFF 		bl	sha256_update
 752              	.LVL81:
 753              		.loc 2 312 0
 754 00fc 4122     		movs	r2, #65
 755 00fe 611C     		adds	r1, r4, #1
 756 0100 1AA8     		add	r0, sp, #104
 757 0102 FFF7FEFF 		bl	sha256_update
 758              	.LVL82:
 759              		.loc 2 313 0
 760 0106 3146     		mov	r1, r6
 761 0108 1AA8     		add	r0, sp, #104
 762 010a FFF7FEFF 		bl	sha256_finish
 763              	.LVL83:
 764              	.LBE33:
 765              	.LBE32:
 766              		.loc 2 341 0
 767 010e 094A     		ldr	r2, .L46+8
 768 0110 1AA9     		add	r1, sp, #104
 769 0112 3046     		mov	r0, r6
 770 0114 FFF7FEFF 		bl	ecdsa_sign_p256r1
 771              	.LVL84:
 772 0118 0028     		cmp	r0, #0
 773 011a 83D1     		bne	.L44
 774              		.loc 2 344 0
 775 011c 1AA9     		add	r1, sp, #104
 776 011e 04F5CF70 		add	r0, r4, #414
 777 0122 FFF7FEFF 		bl	der_encode_sig
 778              	.LVL85:
 779              		.loc 2 351 0
 780 0126 00F5CF70 		add	r0, r0, #414
 781              	.LVL86:
 782 012a 7DE7     		b	.L40
 783              	.L47:
 784              		.align	2
 785              	.L46:
 786 012c 00000000 		.word	.LANCHOR2
 787 0130 00000000 		.word	.LANCHOR3
 788 0134 00000000 		.word	.LANCHOR4
 789              		.cfi_endproc
 790              	.LFE20:
 791              		.size	u2f_register, .-u2f_register
 792              		.section	.text.u2f_apdu_init,"ax",%progbits
 793              		.align	1
 794              		.global	u2f_apdu_init
 795              		.syntax unified
 796              		.thumb
 797              		.thumb_func
 798              		.fpu softvfp
ARM GAS  /tmp/ccswPMqC.s 			page 15


 799              		.type	u2f_apdu_init, %function
 800              	u2f_apdu_init:
 801              	.LFB29:
 802              		.loc 2 472 0
 803              		.cfi_startproc
 804              		@ args = 0, pretend = 0, frame = 176
 805              		@ frame_needed = 0, uses_anonymous_args = 0
 806 0000 10B5     		push	{r4, lr}
 807              		.cfi_def_cfa_offset 8
 808              		.cfi_offset 4, -8
 809              		.cfi_offset 14, -4
 810 0002 ACB0     		sub	sp, sp, #176
 811              		.cfi_def_cfa_offset 184
 812              	.LBB38:
 813              	.LBB39:
 814              		.loc 2 176 0
 815 0004 12A8     		add	r0, sp, #72
 816 0006 FFF7FEFF 		bl	sha256_start
 817              	.LVL87:
 818              		.loc 2 177 0
 819 000a 2022     		movs	r2, #32
 820 000c 1C49     		ldr	r1, .L54
 821 000e 12A8     		add	r0, sp, #72
 822 0010 FFF7FEFF 		bl	sha256_update
 823              	.LVL88:
 824              		.loc 2 178 0
 825 0014 0AA9     		add	r1, sp, #40
 826 0016 12A8     		add	r0, sp, #72
 827 0018 FFF7FEFF 		bl	sha256_finish
 828              	.LVL89:
 829              		.loc 2 180 0
 830 001c 2022     		movs	r2, #32
 831 001e 1949     		ldr	r1, .L54+4
 832 0020 0AA8     		add	r0, sp, #40
 833 0022 FFF7FEFF 		bl	memcmp
 834              	.LVL90:
 835 0026 40B3     		cbz	r0, .L48
 836              	.LVL91:
 837              	.LBB40:
 838              	.LBB41:
 839              		.loc 2 143 0
 840 0028 0024     		movs	r4, #0
 841              		.loc 2 146 0
 842 002a 2022     		movs	r2, #32
 843 002c 02A9     		add	r1, sp, #8
 844              	.LVL92:
 845 002e 0DF10700 		add	r0, sp, #7
 846              		.loc 2 143 0
 847 0032 8DF80740 		strb	r4, [sp, #7]
 848              		.loc 2 146 0
 849 0036 FFF7FEFF 		bl	random_gen
 850              	.LVL93:
 851              		.loc 2 147 0
 852 003a 2046     		mov	r0, r4
 853 003c FFF7FEFF 		bl	random_bytes_free
 854              	.LVL94:
 855              	.LBE41:
ARM GAS  /tmp/ccswPMqC.s 			page 16


 856              	.LBE40:
 857              		.loc 2 186 0
 858 0040 12A8     		add	r0, sp, #72
 859 0042 FFF7FEFF 		bl	sha256_start
 860              	.LVL95:
 861              		.loc 2 187 0
 862 0046 2022     		movs	r2, #32
 863 0048 02A9     		add	r1, sp, #8
 864 004a 12A8     		add	r0, sp, #72
 865 004c FFF7FEFF 		bl	sha256_update
 866              	.LVL96:
 867              		.loc 2 188 0
 868 0050 0AA9     		add	r1, sp, #40
 869 0052 12A8     		add	r0, sp, #72
 870 0054 FFF7FEFF 		bl	sha256_finish
 871              	.LVL97:
 872              		.loc 2 191 0
 873 0058 0948     		ldr	r0, .L54
 874 005a FFF7FEFF 		bl	flash_erase_page
 875              	.LVL98:
 876              		.loc 2 192 0
 877 005e 2022     		movs	r2, #32
 878 0060 02A9     		add	r1, sp, #8
 879 0062 0748     		ldr	r0, .L54
 880 0064 FFF7FEFF 		bl	flash_write
 881              	.LVL99:
 882              		.loc 2 193 0
 883 0068 2022     		movs	r2, #32
 884 006a 0AA9     		add	r1, sp, #40
 885 006c 0548     		ldr	r0, .L54+4
 886 006e FFF7FEFF 		bl	flash_write
 887              	.LVL100:
 888              		.loc 2 196 0
 889 0072 054B     		ldr	r3, .L54+8
 890 0074 1868     		ldr	r0, [r3]
 891 0076 FFF7FEFF 		bl	flash_erase_page
 892              	.LVL101:
 893              	.L48:
 894              	.LBE39:
 895              	.LBE38:
 896              		.loc 2 475 0
 897 007a 2CB0     		add	sp, sp, #176
 898              		.cfi_def_cfa_offset 8
 899              		@ sp needed
 900 007c 10BD     		pop	{r4, pc}
 901              	.L55:
 902 007e 00BF     		.align	2
 903              	.L54:
 904 0080 00000000 		.word	.LANCHOR2
 905 0084 20000000 		.word	.LANCHOR2+32
 906 0088 00000000 		.word	.LANCHOR0
 907              		.cfi_endproc
 908              	.LFE29:
 909              		.size	u2f_apdu_init, .-u2f_apdu_init
 910              		.section	.text.u2f_apdu_command_do,"ax",%progbits
 911              		.align	1
 912              		.global	u2f_apdu_command_do
ARM GAS  /tmp/ccswPMqC.s 			page 17


 913              		.syntax unified
 914              		.thumb
 915              		.thumb_func
 916              		.fpu softvfp
 917              		.type	u2f_apdu_command_do, %function
 918              	u2f_apdu_command_do:
 919              	.LFB30:
 920              		.loc 2 480 0
 921              		.cfi_startproc
 922              		@ args = 0, pretend = 0, frame = 8
 923              		@ frame_needed = 0, uses_anonymous_args = 0
 924              	.LVL102:
 925 0000 2DE9F743 		push	{r0, r1, r2, r4, r5, r6, r7, r8, r9, lr}
 926              		.cfi_def_cfa_offset 40
 927              		.cfi_offset 4, -28
 928              		.cfi_offset 5, -24
 929              		.cfi_offset 6, -20
 930              		.cfi_offset 7, -16
 931              		.cfi_offset 8, -12
 932              		.cfi_offset 9, -8
 933              		.cfi_offset 14, -4
 934              		.loc 2 486 0
 935 0004 0778     		ldrb	r7, [r0]	@ zero_extendqisi2
 936              		.loc 2 480 0
 937 0006 0646     		mov	r6, r0
 938 0008 1446     		mov	r4, r2
 939 000a 1D46     		mov	r5, r3
 940              		.loc 2 486 0
 941 000c 37B1     		cbz	r7, .L57
 942              		.loc 2 488 0
 943 000e 4FF4DC42 		mov	r2, #28160
 944              	.LVL103:
 945              	.L86:
 946              		.loc 2 567 0
 947 0012 2946     		mov	r1, r5
 948 0014 2046     		mov	r0, r4
 949 0016 FFF7FEFF 		bl	u2f_apdu_error
 950              	.LVL104:
 951 001a 2AE0     		b	.L58
 952              	.LVL105:
 953              	.L57:
 954              		.loc 2 484 0
 955 001c 4379     		ldrb	r3, [r0, #5]	@ zero_extendqisi2
 956              	.LVL106:
 957 001e 0279     		ldrb	r2, [r0, #4]	@ zero_extendqisi2
 958              	.LVL107:
 959 0020 1B02     		lsls	r3, r3, #8
 960 0022 43EA0243 		orr	r3, r3, r2, lsl #16
 961 0026 8279     		ldrb	r2, [r0, #6]	@ zero_extendqisi2
 962 0028 1343     		orrs	r3, r3, r2
 963              		.loc 2 492 0
 964 002a DA1D     		adds	r2, r3, #7
 965 002c 8A42     		cmp	r2, r1
 966 002e 02D9     		bls	.L59
 967              	.L64:
 968              		.loc 2 494 0
 969 0030 4FF4CE42 		mov	r2, #26368
ARM GAS  /tmp/ccswPMqC.s 			page 18


 970 0034 EDE7     		b	.L86
 971              	.L59:
 972              		.loc 2 498 0
 973 0036 4278     		ldrb	r2, [r0, #1]	@ zero_extendqisi2
 974 0038 022A     		cmp	r2, #2
 975 003a 21D0     		beq	.L61
 976 003c 032A     		cmp	r2, #3
 977 003e 5AD0     		beq	.L62
 978 0040 012A     		cmp	r2, #1
 979 0042 62D1     		bne	.L85
 980              		.loc 2 501 0
 981 0044 402B     		cmp	r3, #64
 982 0046 F3D1     		bne	.L64
 983              		.loc 2 506 0
 984 0048 FFF7FEFF 		bl	user_presence_get
 985              	.LVL108:
 986 004c 10B9     		cbnz	r0, .L65
 987              	.L67:
 988              		.loc 2 508 0
 989 004e 46F68512 		movw	r2, #27013
 990 0052 DEE7     		b	.L86
 991              	.L65:
 992              		.loc 2 511 0
 993 0054 F01D     		adds	r0, r6, #7
 994 0056 2146     		mov	r1, r4
 995 0058 FFF7FEFF 		bl	u2f_register
 996              	.LVL109:
 997              		.loc 2 513 0
 998 005c 061E     		subs	r6, r0, #0
 999              	.LVL110:
 1000 005e 0CDD     		ble	.L66
 1001              		.loc 2 515 0
 1002 0060 FFF7FEFF 		bl	user_presence_reset
 1003              	.LVL111:
 1004              		.loc 2 516 0
 1005 0064 2E60     		str	r6, [r5]
 1006              	.LVL112:
 1007              	.L87:
 1008              		.loc 2 563 0
 1009 0066 4FF41042 		mov	r2, #36864
 1010 006a 2946     		mov	r1, r5
 1011 006c 2046     		mov	r0, r4
 1012 006e FFF7FEFF 		bl	append_sw
 1013              	.LVL113:
 1014              	.L58:
 1015              		.loc 2 571 0
 1016 0072 0020     		movs	r0, #0
 1017              	.LVL114:
 1018 0074 03B0     		add	sp, sp, #12
 1019              		.cfi_remember_state
 1020              		.cfi_def_cfa_offset 28
 1021              		@ sp needed
 1022 0076 BDE8F083 		pop	{r4, r5, r6, r7, r8, r9, pc}
 1023              	.LVL115:
 1024              	.L66:
 1025              		.cfi_restore_state
 1026              		.loc 2 521 0
ARM GAS  /tmp/ccswPMqC.s 			page 19


 1027 007a 4FF4D542 		mov	r2, #27264
 1028 007e C8E7     		b	.L86
 1029              	.LVL116:
 1030              	.L61:
 1031              		.loc 2 525 0
 1032 0080 812B     		cmp	r3, #129
 1033 0082 D5D1     		bne	.L64
 1034              		.loc 2 530 0
 1035 0084 2146     		mov	r1, r4
 1036              	.LVL117:
 1037 0086 0730     		adds	r0, r0, #7
 1038              	.LVL118:
 1039 0088 FFF7FEFF 		bl	u2f_authenticate
 1040              	.LVL119:
 1041              		.loc 2 532 0
 1042 008c B0F10008 		subs	r8, r0, #0
 1043 0090 F3DD     		ble	.L66
 1044              		.loc 2 534 0
 1045 0092 B378     		ldrb	r3, [r6, #2]	@ zero_extendqisi2
 1046 0094 072B     		cmp	r3, #7
 1047 0096 DAD0     		beq	.L67
 1048              		.loc 2 536 0
 1049 0098 FFF7FEFF 		bl	user_presence_get
 1050              	.LVL120:
 1051 009c 0028     		cmp	r0, #0
 1052 009e D6D0     		beq	.L67
 1053              	.LBB48:
 1054              	.LBB49:
 1055              		.loc 2 396 0
 1056 00a0 FFF7FEFF 		bl	u2f_read_ctr
 1057              	.LVL121:
 1058 00a4 1A4E     		ldr	r6, .L88
 1059              	.LVL122:
 1060              		.loc 2 397 0
 1061 00a6 0130     		adds	r0, r0, #1
 1062              	.LVL123:
 1063 00a8 3368     		ldr	r3, [r6]
 1064              	.LBB50:
 1065              	.LBB51:
 1066              		.loc 2 379 0
 1067 00aa DFF86890 		ldr	r9, .L88+4
 1068 00ae 0190     		str	r0, [sp, #4]
 1069              	.LVL124:
 1070              	.L68:
 1071              		.loc 2 377 0
 1072 00b0 1A68     		ldr	r2, [r3]
 1073 00b2 1846     		mov	r0, r3
 1074 00b4 0132     		adds	r2, r2, #1
 1075 00b6 03F10401 		add	r1, r3, #4
 1076 00ba 02D1     		bne	.L71
 1077 00bc 77B1     		cbz	r7, .L70
 1078 00be 3360     		str	r3, [r6]
 1079 00c0 0CE0     		b	.L70
 1080              	.L71:
 1081              		.loc 2 379 0
 1082 00c2 A3EB0902 		sub	r2, r3, r9
 1083 00c6 B2F5806F 		cmp	r2, #1024
ARM GAS  /tmp/ccswPMqC.s 			page 20


 1084 00ca 0B46     		mov	r3, r1
 1085 00cc 11D1     		bne	.L72
 1086 00ce 07B1     		cbz	r7, .L69
 1087 00d0 3060     		str	r0, [r6]
 1088              	.L69:
 1089              		.loc 2 381 0
 1090 00d2 1048     		ldr	r0, .L88+4
 1091 00d4 FFF7FEFF 		bl	flash_erase_page
 1092              	.LVL125:
 1093              		.loc 2 382 0
 1094 00d8 C6F80090 		str	r9, [r6]
 1095              	.L70:
 1096              		.loc 2 388 0
 1097 00dc 0422     		movs	r2, #4
 1098 00de 3068     		ldr	r0, [r6]
 1099 00e0 0DEB0201 		add	r1, sp, r2
 1100 00e4 FFF7FEFF 		bl	flash_write
 1101              	.LVL126:
 1102              	.LBE51:
 1103              	.LBE50:
 1104              	.LBE49:
 1105              	.LBE48:
 1106              		.loc 2 543 0
 1107 00e8 FFF7FEFF 		bl	user_presence_reset
 1108              	.LVL127:
 1109              		.loc 2 544 0
 1110 00ec C5F80080 		str	r8, [r5]
 1111 00f0 B9E7     		b	.L87
 1112              	.LVL128:
 1113              	.L72:
 1114              	.LBB55:
 1115              	.LBB54:
 1116              	.LBB53:
 1117              	.LBB52:
 1118              		.loc 2 379 0
 1119 00f2 0127     		movs	r7, #1
 1120 00f4 DCE7     		b	.L68
 1121              	.LVL129:
 1122              	.L62:
 1123              	.LBE52:
 1124              	.LBE53:
 1125              	.LBE54:
 1126              	.LBE55:
 1127              		.loc 2 554 0
 1128 00f6 002B     		cmp	r3, #0
 1129 00f8 9AD1     		bne	.L64
 1130              	.LVL130:
 1131              	.LBB56:
 1132              	.LBB57:
 1133              		.loc 2 452 0
 1134 00fa 074B     		ldr	r3, .L88+8
 1135 00fc 1A68     		ldr	r2, [r3]	@ unaligned
 1136 00fe 9B88     		ldrh	r3, [r3, #4]	@ unaligned
 1137 0100 2260     		str	r2, [r4]	@ unaligned
 1138              	.LVL131:
 1139 0102 A380     		strh	r3, [r4, #4]	@ unaligned
 1140              	.LVL132:
ARM GAS  /tmp/ccswPMqC.s 			page 21


 1141              	.LBE57:
 1142              	.LBE56:
 1143              		.loc 2 562 0
 1144 0104 0623     		movs	r3, #6
 1145 0106 2B60     		str	r3, [r5]
 1146 0108 ADE7     		b	.L87
 1147              	.LVL133:
 1148              	.L85:
 1149              		.loc 2 567 0
 1150 010a 4FF4DA42 		mov	r2, #27904
 1151 010e 80E7     		b	.L86
 1152              	.L89:
 1153              		.align	2
 1154              	.L88:
 1155 0110 00000000 		.word	.LANCHOR0
 1156 0114 00000000 		.word	.LANCHOR1
 1157 0118 00000000 		.word	.LC0
 1158              		.cfi_endproc
 1159              	.LFE30:
 1160              		.size	u2f_apdu_command_do, .-u2f_apdu_command_do
 1161              		.global	auth_ctr
 1162              		.global	device_key
 1163              		.global	attestation_key
 1164              		.global	attestation_der
 1165              		.section	.auth.ctr,"aw",%progbits
 1166              		.align	2
 1167              		.set	.LANCHOR1,. + 0
 1168              		.type	auth_ctr, %object
 1169              		.size	auth_ctr, 1024
 1170              	auth_ctr:
 1171 0000 00000000 		.space	1024
 1171      00000000 
 1171      00000000 
 1171      00000000 
 1171      00000000 
 1172              		.section	.data.ctr_addr,"aw",%progbits
 1173              		.align	2
 1174              		.set	.LANCHOR0,. + 0
 1175              		.type	ctr_addr, %object
 1176              		.size	ctr_addr, 4
 1177              	ctr_addr:
 1178 0000 00000000 		.word	auth_ctr
 1179              		.section	.device.key,"aw",%progbits
 1180              		.set	.LANCHOR2,. + 0
 1181              		.type	device_key, %object
 1182              		.size	device_key, 1024
 1183              	device_key:
 1184 0000 00000000 		.space	1024
 1184      00000000 
 1184      00000000 
 1184      00000000 
 1184      00000000 
 1185              		.section	.rodata.attestation_der,"a",%progbits
 1186              		.set	.LANCHOR3,. + 0
 1187              		.type	attestation_der, %object
 1188              		.size	attestation_der, 283
 1189              	attestation_der:
ARM GAS  /tmp/ccswPMqC.s 			page 22


 1190 0000 30       		.byte	48
 1191 0001 82       		.byte	-126
 1192 0002 01       		.byte	1
 1193 0003 17       		.byte	23
 1194 0004 30       		.byte	48
 1195 0005 81       		.byte	-127
 1196 0006 BE       		.byte	-66
 1197 0007 02       		.byte	2
 1198 0008 09       		.byte	9
 1199 0009 00       		.byte	0
 1200 000a F1       		.byte	-15
 1201 000b 00       		.byte	0
 1202 000c 75       		.byte	117
 1203 000d C1       		.byte	-63
 1204 000e E4       		.byte	-28
 1205 000f 3B       		.byte	59
 1206 0010 77       		.byte	119
 1207 0011 54       		.byte	84
 1208 0012 30       		.byte	48
 1209 0013 0A       		.byte	10
 1210 0014 06       		.byte	6
 1211 0015 08       		.byte	8
 1212 0016 2A       		.byte	42
 1213 0017 86       		.byte	-122
 1214 0018 48       		.byte	72
 1215 0019 CE       		.byte	-50
 1216 001a 3D       		.byte	61
 1217 001b 04       		.byte	4
 1218 001c 03       		.byte	3
 1219 001d 02       		.byte	2
 1220 001e 30       		.byte	48
 1221 001f 14       		.byte	20
 1222 0020 31       		.byte	49
 1223 0021 12       		.byte	18
 1224 0022 30       		.byte	48
 1225 0023 10       		.byte	16
 1226 0024 06       		.byte	6
 1227 0025 03       		.byte	3
 1228 0026 55       		.byte	85
 1229 0027 04       		.byte	4
 1230 0028 03       		.byte	3
 1231 0029 0C       		.byte	12
 1232 002a 09       		.byte	9
 1233 002b 55       		.byte	85
 1234 002c 32       		.byte	50
 1235 002d 46       		.byte	70
 1236 002e 20       		.byte	32
 1237 002f 54       		.byte	84
 1238 0030 6F       		.byte	111
 1239 0031 6B       		.byte	107
 1240 0032 65       		.byte	101
 1241 0033 6E       		.byte	110
 1242 0034 30       		.byte	48
 1243 0035 1E       		.byte	30
 1244 0036 17       		.byte	23
 1245 0037 0D       		.byte	13
 1246 0038 31       		.byte	49
ARM GAS  /tmp/ccswPMqC.s 			page 23


 1247 0039 38       		.byte	56
 1248 003a 31       		.byte	49
 1249 003b 30       		.byte	48
 1250 003c 32       		.byte	50
 1251 003d 35       		.byte	53
 1252 003e 30       		.byte	48
 1253 003f 38       		.byte	56
 1254 0040 31       		.byte	49
 1255 0041 31       		.byte	49
 1256 0042 31       		.byte	49
 1257 0043 33       		.byte	51
 1258 0044 5A       		.byte	90
 1259 0045 17       		.byte	23
 1260 0046 0D       		.byte	13
 1261 0047 32       		.byte	50
 1262 0048 38       		.byte	56
 1263 0049 31       		.byte	49
 1264 004a 30       		.byte	48
 1265 004b 32       		.byte	50
 1266 004c 32       		.byte	50
 1267 004d 30       		.byte	48
 1268 004e 38       		.byte	56
 1269 004f 31       		.byte	49
 1270 0050 31       		.byte	49
 1271 0051 31       		.byte	49
 1272 0052 33       		.byte	51
 1273 0053 5A       		.byte	90
 1274 0054 30       		.byte	48
 1275 0055 14       		.byte	20
 1276 0056 31       		.byte	49
 1277 0057 12       		.byte	18
 1278 0058 30       		.byte	48
 1279 0059 10       		.byte	16
 1280 005a 06       		.byte	6
 1281 005b 03       		.byte	3
 1282 005c 55       		.byte	85
 1283 005d 04       		.byte	4
 1284 005e 03       		.byte	3
 1285 005f 0C       		.byte	12
 1286 0060 09       		.byte	9
 1287 0061 55       		.byte	85
 1288 0062 32       		.byte	50
 1289 0063 46       		.byte	70
 1290 0064 20       		.byte	32
 1291 0065 54       		.byte	84
 1292 0066 6F       		.byte	111
 1293 0067 6B       		.byte	107
 1294 0068 65       		.byte	101
 1295 0069 6E       		.byte	110
 1296 006a 30       		.byte	48
 1297 006b 59       		.byte	89
 1298 006c 30       		.byte	48
 1299 006d 13       		.byte	19
 1300 006e 06       		.byte	6
 1301 006f 07       		.byte	7
 1302 0070 2A       		.byte	42
 1303 0071 86       		.byte	-122
ARM GAS  /tmp/ccswPMqC.s 			page 24


 1304 0072 48       		.byte	72
 1305 0073 CE       		.byte	-50
 1306 0074 3D       		.byte	61
 1307 0075 02       		.byte	2
 1308 0076 01       		.byte	1
 1309 0077 06       		.byte	6
 1310 0078 08       		.byte	8
 1311 0079 2A       		.byte	42
 1312 007a 86       		.byte	-122
 1313 007b 48       		.byte	72
 1314 007c CE       		.byte	-50
 1315 007d 3D       		.byte	61
 1316 007e 03       		.byte	3
 1317 007f 01       		.byte	1
 1318 0080 07       		.byte	7
 1319 0081 03       		.byte	3
 1320 0082 42       		.byte	66
 1321 0083 00       		.byte	0
 1322 0084 04       		.byte	4
 1323 0085 1B       		.byte	27
 1324 0086 91       		.byte	-111
 1325 0087 EB       		.byte	-21
 1326 0088 BB       		.byte	-69
 1327 0089 6E       		.byte	110
 1328 008a 28       		.byte	40
 1329 008b 41       		.byte	65
 1330 008c 7F       		.byte	127
 1331 008d B0       		.byte	-80
 1332 008e 4F       		.byte	79
 1333 008f E4       		.byte	-28
 1334 0090 12       		.byte	18
 1335 0091 D2       		.byte	-46
 1336 0092 95       		.byte	-107
 1337 0093 5D       		.byte	93
 1338 0094 D9       		.byte	-39
 1339 0095 E2       		.byte	-30
 1340 0096 A0       		.byte	-96
 1341 0097 09       		.byte	9
 1342 0098 E6       		.byte	-26
 1343 0099 63       		.byte	99
 1344 009a 98       		.byte	-104
 1345 009b 4D       		.byte	77
 1346 009c 64       		.byte	100
 1347 009d 6F       		.byte	111
 1348 009e 87       		.byte	-121
 1349 009f 27       		.byte	39
 1350 00a0 B6       		.byte	-74
 1351 00a1 43       		.byte	67
 1352 00a2 31       		.byte	49
 1353 00a3 09       		.byte	9
 1354 00a4 46       		.byte	70
 1355 00a5 77       		.byte	119
 1356 00a6 CD       		.byte	-51
 1357 00a7 2F       		.byte	47
 1358 00a8 73       		.byte	115
 1359 00a9 89       		.byte	-119
 1360 00aa D7       		.byte	-41
ARM GAS  /tmp/ccswPMqC.s 			page 25


 1361 00ab 60       		.byte	96
 1362 00ac BA       		.byte	-70
 1363 00ad 11       		.byte	17
 1364 00ae 32       		.byte	50
 1365 00af AC       		.byte	-84
 1366 00b0 8B       		.byte	-117
 1367 00b1 EF       		.byte	-17
 1368 00b2 A2       		.byte	-94
 1369 00b3 91       		.byte	-111
 1370 00b4 36       		.byte	54
 1371 00b5 CE       		.byte	-50
 1372 00b6 7C       		.byte	124
 1373 00b7 79       		.byte	121
 1374 00b8 CE       		.byte	-50
 1375 00b9 F7       		.byte	-9
 1376 00ba E4       		.byte	-28
 1377 00bb 9D       		.byte	-99
 1378 00bc 92       		.byte	-110
 1379 00bd 36       		.byte	54
 1380 00be FB       		.byte	-5
 1381 00bf 07       		.byte	7
 1382 00c0 49       		.byte	73
 1383 00c1 AF       		.byte	-81
 1384 00c2 BE       		.byte	-66
 1385 00c3 28       		.byte	40
 1386 00c4 27       		.byte	39
 1387 00c5 30       		.byte	48
 1388 00c6 0A       		.byte	10
 1389 00c7 06       		.byte	6
 1390 00c8 08       		.byte	8
 1391 00c9 2A       		.byte	42
 1392 00ca 86       		.byte	-122
 1393 00cb 48       		.byte	72
 1394 00cc CE       		.byte	-50
 1395 00cd 3D       		.byte	61
 1396 00ce 04       		.byte	4
 1397 00cf 03       		.byte	3
 1398 00d0 02       		.byte	2
 1399 00d1 03       		.byte	3
 1400 00d2 48       		.byte	72
 1401 00d3 00       		.byte	0
 1402 00d4 30       		.byte	48
 1403 00d5 45       		.byte	69
 1404 00d6 02       		.byte	2
 1405 00d7 21       		.byte	33
 1406 00d8 00       		.byte	0
 1407 00d9 81       		.byte	-127
 1408 00da CD       		.byte	-51
 1409 00db D5       		.byte	-43
 1410 00dc 42       		.byte	66
 1411 00dd FF       		.byte	-1
 1412 00de 0C       		.byte	12
 1413 00df 7D       		.byte	125
 1414 00e0 6B       		.byte	107
 1415 00e1 37       		.byte	55
 1416 00e2 7A       		.byte	122
 1417 00e3 27       		.byte	39
ARM GAS  /tmp/ccswPMqC.s 			page 26


 1418 00e4 A9       		.byte	-87
 1419 00e5 43       		.byte	67
 1420 00e6 01       		.byte	1
 1421 00e7 64       		.byte	100
 1422 00e8 FA       		.byte	-6
 1423 00e9 1D       		.byte	29
 1424 00ea F4       		.byte	-12
 1425 00eb C6       		.byte	-58
 1426 00ec BC       		.byte	-68
 1427 00ed F8       		.byte	-8
 1428 00ee 8E       		.byte	-114
 1429 00ef 91       		.byte	-111
 1430 00f0 35       		.byte	53
 1431 00f1 3A       		.byte	58
 1432 00f2 CE       		.byte	-50
 1433 00f3 06       		.byte	6
 1434 00f4 84       		.byte	-124
 1435 00f5 2A       		.byte	42
 1436 00f6 22       		.byte	34
 1437 00f7 25       		.byte	37
 1438 00f8 79       		.byte	121
 1439 00f9 02       		.byte	2
 1440 00fa 20       		.byte	32
 1441 00fb 0A       		.byte	10
 1442 00fc C5       		.byte	-59
 1443 00fd C3       		.byte	-61
 1444 00fe E8       		.byte	-24
 1445 00ff DA       		.byte	-38
 1446 0100 AC       		.byte	-84
 1447 0101 2F       		.byte	47
 1448 0102 64       		.byte	100
 1449 0103 BB       		.byte	-69
 1450 0104 26       		.byte	38
 1451 0105 C8       		.byte	-56
 1452 0106 8D       		.byte	-115
 1453 0107 0C       		.byte	12
 1454 0108 FB       		.byte	-5
 1455 0109 9E       		.byte	-98
 1456 010a 1D       		.byte	29
 1457 010b 30       		.byte	48
 1458 010c 21       		.byte	33
 1459 010d E6       		.byte	-26
 1460 010e 8E       		.byte	-114
 1461 010f C1       		.byte	-63
 1462 0110 89       		.byte	-119
 1463 0111 A4       		.byte	-92
 1464 0112 76       		.byte	118
 1465 0113 B0       		.byte	-80
 1466 0114 0A       		.byte	10
 1467 0115 CE       		.byte	-50
 1468 0116 D2       		.byte	-46
 1469 0117 CB       		.byte	-53
 1470 0118 A1       		.byte	-95
 1471 0119 25       		.byte	37
 1472 011a B2       		.byte	-78
 1473              		.section	.rodata.attestation_key,"a",%progbits
 1474              		.set	.LANCHOR4,. + 0
ARM GAS  /tmp/ccswPMqC.s 			page 27


 1475              		.type	attestation_key, %object
 1476              		.size	attestation_key, 32
 1477              	attestation_key:
 1478 0000 83       		.byte	-125
 1479 0001 12       		.byte	18
 1480 0002 9E       		.byte	-98
 1481 0003 FF       		.byte	-1
 1482 0004 58       		.byte	88
 1483 0005 98       		.byte	-104
 1484 0006 D4       		.byte	-44
 1485 0007 09       		.byte	9
 1486 0008 4E       		.byte	78
 1487 0009 5F       		.byte	95
 1488 000a A6       		.byte	-90
 1489 000b 73       		.byte	115
 1490 000c 66       		.byte	102
 1491 000d 3F       		.byte	63
 1492 000e F3       		.byte	-13
 1493 000f AC       		.byte	-84
 1494 0010 DC       		.byte	-36
 1495 0011 10       		.byte	16
 1496 0012 5A       		.byte	90
 1497 0013 FA       		.byte	-6
 1498 0014 78       		.byte	120
 1499 0015 35       		.byte	53
 1500 0016 CC       		.byte	-52
 1501 0017 F3       		.byte	-13
 1502 0018 E6       		.byte	-26
 1503 0019 E3       		.byte	-29
 1504 001a CA       		.byte	-54
 1505 001b B1       		.byte	-79
 1506 001c CE       		.byte	-50
 1507 001d 1C       		.byte	28
 1508 001e D9       		.byte	-39
 1509 001f 08       		.byte	8
 1510              		.section	.rodata.u2f_apdu_command_do.str1.1,"aMS",%progbits,1
 1511              	.LC0:
 1512 0000 5532465F 		.ascii	"U2F_V2\000"
 1512      563200
 1513              		.text
 1514              	.Letext0:
 1515              		.file 3 "/usr/arm-none-eabi/include/machine/_default_types.h"
 1516              		.file 4 "/usr/arm-none-eabi/include/sys/_stdint.h"
 1517              		.file 5 "/usr/lib/gcc/arm-none-eabi/7.3.1/include/stddef.h"
 1518              		.file 6 "/usr/arm-none-eabi/include/sys/lock.h"
 1519              		.file 7 "/usr/arm-none-eabi/include/sys/_types.h"
 1520              		.file 8 "/usr/arm-none-eabi/include/sys/reent.h"
 1521              		.file 9 "sha256.h"
 1522              		.file 10 "hmac.h"
 1523              		.file 11 "cert/certificates.c"
 1524              		.file 12 "pbt.h"
 1525              		.file 13 "random.h"
 1526              		.file 14 "/usr/arm-none-eabi/include/string.h"
 1527              		.file 15 "ecc.h"
 1528              		.file 16 "<built-in>"