ARM GAS  /tmp/ccubVSZc.s 			page 1


   1              		.cpu cortex-m3
   2              		.eabi_attribute 20, 1
   3              		.eabi_attribute 21, 1
   4              		.eabi_attribute 23, 3
   5              		.eabi_attribute 24, 1
   6              		.eabi_attribute 25, 1
   7              		.eabi_attribute 26, 1
   8              		.eabi_attribute 30, 4
   9              		.eabi_attribute 34, 1
  10              		.eabi_attribute 18, 4
  11              		.file	"u2f.c"
  12              		.text
  13              	.Ltext0:
  14              		.cfi_sections	.debug_frame
  15              		.section	.text.blk,"ax",%progbits
  16              		.align	1
  17              		.syntax unified
  18              		.thumb
  19              		.thumb_func
  20              		.fpu softvfp
  21              		.type	blk, %function
  22              	blk:
  23              	.LFB13:
  24              		.file 1 "u2f.c"
  25              		.loc 1 82 0
  26              		.cfi_startproc
  27              		@ args = 0, pretend = 0, frame = 0
  28              		@ frame_needed = 0, uses_anonymous_args = 0
  29              	.LVL0:
  30 0000 2DE9F041 		push	{r4, r5, r6, r7, r8, lr}
  31              		.cfi_def_cfa_offset 24
  32              		.cfi_offset 4, -24
  33              		.cfi_offset 5, -20
  34              		.cfi_offset 6, -16
  35              		.cfi_offset 7, -12
  36              		.cfi_offset 8, -8
  37              		.cfi_offset 14, -4
  38              		.loc 1 87 0
  39 0004 1148     		ldr	r0, .L9
  40              	.LVL1:
  41 0006 FFF7FEFF 		bl	chopstx_mutex_lock
  42              	.LVL2:
  43              		.loc 1 97 0
  44 000a 114E     		ldr	r6, .L9+4
  45              		.loc 1 88 0
  46 000c 0F49     		ldr	r1, .L9
  47 000e 1148     		ldr	r0, .L9+8
  48 0010 FFF7FEFF 		bl	chopstx_cond_wait
  49              	.LVL3:
  50              		.loc 1 89 0
  51 0014 0D48     		ldr	r0, .L9
  52 0016 FFF7FEFF 		bl	chopstx_mutex_unlock
  53              	.LVL4:
  54 001a 3746     		mov	r7, r6
  55              		.loc 1 93 0
  56 001c 0E4D     		ldr	r5, .L9+12
  57              	.L4:
ARM GAS  /tmp/ccubVSZc.s 			page 2


  58              		.loc 1 82 0
  59 001e 0024     		movs	r4, #0
  60              		.loc 1 93 0
  61 0020 A046     		mov	r8, r4
  62              	.LVL5:
  63              	.L3:
  64              		.loc 1 94 0
  65 0022 4CF25030 		movw	r0, #50000
  66              		.loc 1 93 0
  67 0026 85F80080 		strb	r8, [r5]
  68              		.loc 1 94 0
  69 002a FFF7FEFF 		bl	chopstx_usec_wait
  70              	.LVL6:
  71              		.loc 1 95 0
  72 002e 0123     		movs	r3, #1
  73              		.loc 1 96 0
  74 0030 4CF25030 		movw	r0, #50000
  75              		.loc 1 95 0
  76 0034 2B70     		strb	r3, [r5]
  77              		.loc 1 96 0
  78 0036 FFF7FEFF 		bl	chopstx_usec_wait
  79              	.LVL7:
  80              		.loc 1 97 0
  81 003a 3378     		ldrb	r3, [r6]	@ zero_extendqisi2
  82 003c 03B1     		cbz	r3, .L2
  83              		.loc 1 98 0
  84 003e 0134     		adds	r4, r4, #1
  85              	.LVL8:
  86              	.L2:
  87              		.loc 1 99 0
  88 0040 032C     		cmp	r4, #3
  89 0042 EED1     		bne	.L3
  90              	.LVL9:
  91              		.loc 1 102 0
  92 0044 0023     		movs	r3, #0
  93 0046 3B70     		strb	r3, [r7]
  94 0048 E9E7     		b	.L4
  95              	.L10:
  96 004a 00BF     		.align	2
  97              	.L9:
  98 004c 00000000 		.word	.LANCHOR0
  99 0050 00000000 		.word	.LANCHOR3
 100 0054 00000000 		.word	.LANCHOR1
 101 0058 00000000 		.word	.LANCHOR2
 102              		.cfi_endproc
 103              	.LFE13:
 104              		.size	blk, .-blk
 105              		.section	.text.pwm,"ax",%progbits
 106              		.align	1
 107              		.syntax unified
 108              		.thumb
 109              		.thumb_func
 110              		.fpu softvfp
 111              		.type	pwm, %function
 112              	pwm:
 113              	.LFB12:
 114              		.loc 1 64 0
ARM GAS  /tmp/ccubVSZc.s 			page 3


 115              		.cfi_startproc
 116              		@ Volatile: function does not return.
 117              		@ args = 0, pretend = 0, frame = 0
 118              		@ frame_needed = 0, uses_anonymous_args = 0
 119              	.LVL10:
 120 0000 08B5     		push	{r3, lr}
 121              		.cfi_def_cfa_offset 8
 122              		.cfi_offset 3, -8
 123              		.cfi_offset 14, -4
 124              		.loc 1 67 0
 125 0002 0F48     		ldr	r0, .L15
 126              	.LVL11:
 127 0004 FFF7FEFF 		bl	chopstx_mutex_lock
 128              	.LVL12:
 129              		.loc 1 68 0
 130 0008 0D49     		ldr	r1, .L15
 131 000a 0E48     		ldr	r0, .L15+4
 132 000c FFF7FEFF 		bl	chopstx_cond_wait
 133              	.LVL13:
 134              		.loc 1 69 0
 135 0010 0B48     		ldr	r0, .L15
 136 0012 FFF7FEFF 		bl	chopstx_mutex_unlock
 137              	.LVL14:
 138              		.loc 1 73 0
 139 0016 0C4D     		ldr	r5, .L15+8
 140 0018 0C4E     		ldr	r6, .L15+12
 141              	.LBB4:
 142              	.LBB5:
 143              		.file 2 "../chopstx/mcu/sys-stm32f103.h"
 144              		.loc 2 38 0
 145 001a 0D4C     		ldr	r4, .L15+16
 146              	.L13:
 147              	.LBE5:
 148              	.LBE4:
 149              		.loc 1 73 0
 150 001c 2A78     		ldrb	r2, [r5]	@ zero_extendqisi2
 151 001e 3378     		ldrb	r3, [r6]	@ zero_extendqisi2
 152 0020 1A42     		tst	r2, r3
 153 0022 0BD1     		bne	.L14
 154              		.loc 1 73 0 is_stmt 0 discriminator 2
 155 0024 FFF7FEFF 		bl	user_presence_get
 156              	.LVL15:
 157 0028 0030     		adds	r0, r0, #0
 158 002a 18BF     		it	ne
 159 002c 0120     		movne	r0, #1
 160              	.L12:
 161              	.LVL16:
 162              	.LBB7:
 163              	.LBB6:
 164              		.loc 2 40 0 is_stmt 1 discriminator 6
 165 002e A368     		ldr	r3, [r4, #8]
 166 0030 9847     		blx	r3
 167              	.LVL17:
 168              	.LBE6:
 169              	.LBE7:
 170              		.loc 1 74 0 discriminator 6
 171 0032 42F21070 		movw	r0, #10000
ARM GAS  /tmp/ccubVSZc.s 			page 4


 172 0036 FFF7FEFF 		bl	chopstx_usec_wait
 173              	.LVL18:
 174              		.loc 1 73 0 discriminator 6
 175 003a EFE7     		b	.L13
 176              	.L14:
 177              		.loc 1 73 0 is_stmt 0
 178 003c 0120     		movs	r0, #1
 179 003e F6E7     		b	.L12
 180              	.L16:
 181              		.align	2
 182              	.L15:
 183 0040 00000000 		.word	.LANCHOR0
 184 0044 00000000 		.word	.LANCHOR4
 185 0048 00000000 		.word	.LANCHOR3
 186 004c 00000000 		.word	.LANCHOR2
 187 0050 00000000 		.word	vector
 188              		.cfi_endproc
 189              	.LFE12:
 190              		.size	pwm, .-pwm
 191              		.section	.text.startup.main,"ax",%progbits
 192              		.align	1
 193              		.global	main
 194              		.syntax unified
 195              		.thumb
 196              		.thumb_func
 197              		.fpu softvfp
 198              		.type	main, %function
 199              	main:
 200              	.LFB14:
 201              		.loc 1 124 0 is_stmt 1
 202              		.cfi_startproc
 203              		@ args = 0, pretend = 0, frame = 0
 204              		@ frame_needed = 0, uses_anonymous_args = 0
 205              	.LVL19:
 206 0000 13B5     		push	{r0, r1, r4, lr}
 207              		.cfi_def_cfa_offset 16
 208              		.cfi_offset 4, -8
 209              		.cfi_offset 14, -4
 210              		.loc 1 136 0
 211 0002 0024     		movs	r4, #0
 212              		.loc 1 130 0
 213 0004 FFF7FEFF 		bl	platform_init
 214              	.LVL20:
 215              		.loc 1 132 0
 216 0008 1D48     		ldr	r0, .L19
 217 000a FFF7FEFF 		bl	chopstx_mutex_init
 218              	.LVL21:
 219              		.loc 1 133 0
 220 000e 1D48     		ldr	r0, .L19+4
 221 0010 FFF7FEFF 		bl	chopstx_cond_init
 222              	.LVL22:
 223              		.loc 1 134 0
 224 0014 1C48     		ldr	r0, .L19+8
 225 0016 FFF7FEFF 		bl	chopstx_cond_init
 226              	.LVL23:
 227              		.loc 1 136 0
 228 001a 0094     		str	r4, [sp]
ARM GAS  /tmp/ccubVSZc.s 			page 5


 229 001c 1B4B     		ldr	r3, .L19+12
 230 001e 1C4A     		ldr	r2, .L19+16
 231 0020 1C49     		ldr	r1, .L19+20
 232 0022 0720     		movs	r0, #7
 233 0024 FFF7FEFF 		bl	chopstx_create
 234              	.LVL24:
 235              		.loc 1 137 0
 236 0028 1B49     		ldr	r1, .L19+24
 237 002a 1C4B     		ldr	r3, .L19+28
 238 002c 1C4A     		ldr	r2, .L19+32
 239 002e 0094     		str	r4, [sp]
 240 0030 0720     		movs	r0, #7
 241 0032 FFF7FEFF 		bl	chopstx_create
 242              	.LVL25:
 243              		.loc 1 139 0
 244 0036 1248     		ldr	r0, .L19
 245 0038 FFF7FEFF 		bl	chopstx_mutex_lock
 246              	.LVL26:
 247              		.loc 1 140 0
 248 003c 1148     		ldr	r0, .L19+4
 249 003e FFF7FEFF 		bl	chopstx_cond_signal
 250              	.LVL27:
 251              		.loc 1 141 0
 252 0042 1148     		ldr	r0, .L19+8
 253 0044 FFF7FEFF 		bl	chopstx_cond_signal
 254              	.LVL28:
 255              		.loc 1 142 0
 256 0048 0D48     		ldr	r0, .L19
 257 004a FFF7FEFF 		bl	chopstx_mutex_unlock
 258              	.LVL29:
 259              		.loc 1 144 0
 260 004e 0122     		movs	r2, #1
 261 0050 144B     		ldr	r3, .L19+36
 262              		.loc 1 167 0
 263 0052 154C     		ldr	r4, .L19+40
 264              		.loc 1 144 0
 265 0054 1A70     		strb	r2, [r3]
 266              		.loc 1 146 0
 267 0056 FFF7FEFF 		bl	adc_init
 268              	.LVL30:
 269              		.loc 1 148 0
 270 005a FFF7FEFF 		bl	random_init
 271              	.LVL31:
 272              		.loc 1 155 0
 273 005e FFF7FEFF 		bl	uvoid_init
 274              	.LVL32:
 275              	.LBB10:
 276              	.LBB11:
 277              		.loc 2 46 0
 278 0062 124B     		ldr	r3, .L19+44
 279 0064 DB68     		ldr	r3, [r3, #12]
 280 0066 9847     		blx	r3
 281              	.LVL33:
 282              	.LBE11:
 283              	.LBE10:
 284              		.loc 1 160 0
 285 0068 1148     		ldr	r0, .L19+48
ARM GAS  /tmp/ccubVSZc.s 			page 6


 286 006a FFF7FEFF 		bl	chopstx_usec_wait
 287              	.LVL34:
 288              		.loc 1 162 0
 289 006e FFF7FEFF 		bl	hid_open
 290              	.LVL35:
 291              		.loc 1 163 0
 292 0072 FFF7FEFF 		bl	u2f_hid_open
 293              	.LVL36:
 294              	.L18:
 295              		.loc 1 167 0 discriminator 1
 296 0076 2046     		mov	r0, r4
 297 0078 FFF7FEFF 		bl	chopstx_usec_wait
 298              	.LVL37:
 299 007c FBE7     		b	.L18
 300              	.L20:
 301 007e 00BF     		.align	2
 302              	.L19:
 303 0080 00000000 		.word	.LANCHOR0
 304 0084 00000000 		.word	.LANCHOR4
 305 0088 00000000 		.word	.LANCHOR1
 306 008c 00000000 		.word	pwm
 307 0090 00000000 		.word	__process1_stack_size__
 308 0094 00000000 		.word	__process1_stack_base__
 309 0098 00000000 		.word	__process2_stack_base__
 310 009c 00000000 		.word	blk
 311 00a0 00000000 		.word	__process2_stack_size__
 312 00a4 00000000 		.word	.LANCHOR3
 313 00a8 20A10700 		.word	500000
 314 00ac 00000000 		.word	vector
 315 00b0 400D0300 		.word	200000
 316              		.cfi_endproc
 317              	.LFE14:
 318              		.size	main, .-main
 319              		.global	blink_is_on
 320              		.global	v
 321              		.section	.bss.blink_is_on,"aw",%nobits
 322              		.set	.LANCHOR3,. + 0
 323              		.type	blink_is_on, %object
 324              		.size	blink_is_on, 1
 325              	blink_is_on:
 326 0000 00       		.space	1
 327              		.section	.bss.cnd0,"aw",%nobits
 328              		.align	2
 329              		.set	.LANCHOR4,. + 0
 330              		.type	cnd0, %object
 331              		.size	cnd0, 8
 332              	cnd0:
 333 0000 00000000 		.space	8
 333      00000000 
 334              		.section	.bss.cnd1,"aw",%nobits
 335              		.align	2
 336              		.set	.LANCHOR1,. + 0
 337              		.type	cnd1, %object
 338              		.size	cnd1, 8
 339              	cnd1:
 340 0000 00000000 		.space	8
 340      00000000 
ARM GAS  /tmp/ccubVSZc.s 			page 7


 341              		.section	.bss.mtx,"aw",%nobits
 342              		.align	2
 343              		.set	.LANCHOR0,. + 0
 344              		.type	mtx, %object
 345              		.size	mtx, 16
 346              	mtx:
 347 0000 00000000 		.space	16
 347      00000000 
 347      00000000 
 347      00000000 
 348              		.section	.bss.v,"aw",%nobits
 349              		.set	.LANCHOR2,. + 0
 350              		.type	v, %object
 351              		.size	v, 1
 352              	v:
 353 0000 00       		.space	1
 354              		.text
 355              	.Letext0:
 356              		.file 3 "/usr/arm-none-eabi/include/machine/_default_types.h"
 357              		.file 4 "/usr/arm-none-eabi/include/sys/_stdint.h"
 358              		.file 5 "/usr/arm-none-eabi/include/sys/lock.h"
 359              		.file 6 "/usr/arm-none-eabi/include/sys/_types.h"
 360              		.file 7 "/usr/lib/gcc/arm-none-eabi/7.3.1/include/stddef.h"
 361              		.file 8 "/usr/arm-none-eabi/include/sys/reent.h"
 362              		.file 9 "/usr/arm-none-eabi/include/stdlib.h"
 363              		.file 10 "../chopstx/chopstx.h"
 364              		.file 11 "../chopstx/adc.h"
 365              		.file 12 "platform.h"
 366              		.file 13 "random.h"
 367              		.file 14 "uvoid.h"
 368              		.file 15 "usb-hid.h"
 369              		.file 16 "u2f-hid.h"