ARM GAS  /tmp/cceGb33M.s 			page 1


   1              		.cpu cortex-m3
   2              		.eabi_attribute 20, 1
   3              		.eabi_attribute 21, 1
   4              		.eabi_attribute 23, 3
   5              		.eabi_attribute 24, 1
   6              		.eabi_attribute 25, 1
   7              		.eabi_attribute 26, 1
   8              		.eabi_attribute 30, 4
   9              		.eabi_attribute 34, 1
  10              		.eabi_attribute 18, 4
  11              		.file	"usb-stm32f103.c"
  12              		.text
  13              	.Ltext0:
  14              		.cfi_sections	.debug_frame
  15              		.section	.text.st103_ep_set_rx_status,"ax",%progbits
  16              		.align	1
  17              		.syntax unified
  18              		.thumb
  19              		.thumb_func
  20              		.fpu softvfp
  21              		.type	st103_ep_set_rx_status, %function
  22              	st103_ep_set_rx_status:
  23              	.LFB30:
  24              		.file 1 "../chopstx/mcu/usb-stm32f103.c"
  25              		.loc 1 253 0
  26              		.cfi_startproc
  27              		@ args = 0, pretend = 0, frame = 0
  28              		@ frame_needed = 0, uses_anonymous_args = 0
  29              		@ link register save eliminated.
  30              	.LVL0:
  31              	.LBB105:
  32              	.LBB106:
  33              		.loc 1 153 0
  34 0000 8000     		lsls	r0, r0, #2
  35              	.LVL1:
  36 0002 00F18040 		add	r0, r0, #1073741824
  37 0006 00F5B840 		add	r0, r0, #23552
  38              	.LVL2:
  39              	.LBE106:
  40              	.LBE105:
  41              		.loc 1 256 0
  42 000a 0388     		ldrh	r3, [r0]
  43 000c 23F48043 		bic	r3, r3, #16384
  44 0010 23F07003 		bic	r3, r3, #112
  45              	.LVL3:
  46              		.loc 1 258 0
  47 0014 5940     		eors	r1, r1, r3
  48              	.LVL4:
  49              		.loc 1 259 0
  50 0016 41F40041 		orr	r1, r1, #32768
  51              	.LVL5:
  52 001a 41F08001 		orr	r1, r1, #128
  53              	.LBB107:
  54              	.LBB108:
  55              		.loc 1 148 0
  56 001e 0180     		strh	r1, [r0]	@ movhi
  57              	.LVL6:
ARM GAS  /tmp/cceGb33M.s 			page 2


  58              	.LBE108:
  59              	.LBE107:
  60              		.loc 1 261 0
  61 0020 7047     		bx	lr
  62              		.cfi_endproc
  63              	.LFE30:
  64              		.size	st103_ep_set_rx_status, .-st103_ep_set_rx_status
  65              		.section	.text.st103_ep_set_tx_status,"ax",%progbits
  66              		.align	1
  67              		.syntax unified
  68              		.thumb
  69              		.thumb_func
  70              		.fpu softvfp
  71              		.type	st103_ep_set_tx_status, %function
  72              	st103_ep_set_tx_status:
  73              	.LFB32:
  74              		.loc 1 271 0
  75              		.cfi_startproc
  76              		@ args = 0, pretend = 0, frame = 0
  77              		@ frame_needed = 0, uses_anonymous_args = 0
  78              		@ link register save eliminated.
  79              	.LVL7:
  80              	.LBB109:
  81              	.LBB110:
  82              		.loc 1 153 0
  83 0000 8000     		lsls	r0, r0, #2
  84              	.LVL8:
  85 0002 00F18040 		add	r0, r0, #1073741824
  86 0006 00F5B840 		add	r0, r0, #23552
  87              	.LVL9:
  88              	.LBE110:
  89              	.LBE109:
  90              		.loc 1 274 0
  91 000a 0388     		ldrh	r3, [r0]
  92 000c 23F4E043 		bic	r3, r3, #28672
  93 0010 23F04003 		bic	r3, r3, #64
  94              	.LVL10:
  95              		.loc 1 276 0
  96 0014 5940     		eors	r1, r1, r3
  97              	.LVL11:
  98              		.loc 1 277 0
  99 0016 41F40041 		orr	r1, r1, #32768
 100              	.LVL12:
 101 001a 41F08001 		orr	r1, r1, #128
 102              	.LBB111:
 103              	.LBB112:
 104              		.loc 1 148 0
 105 001e 0180     		strh	r1, [r0]	@ movhi
 106              	.LVL13:
 107              	.LBE112:
 108              	.LBE111:
 109              		.loc 1 279 0
 110 0020 7047     		bx	lr
 111              		.cfi_endproc
 112              	.LFE32:
 113              		.size	st103_ep_set_tx_status, .-st103_ep_set_tx_status
 114              		.section	.text.std_none,"ax",%progbits
ARM GAS  /tmp/cceGb33M.s 			page 3


 115              		.align	1
 116              		.syntax unified
 117              		.thumb
 118              		.thumb_func
 119              		.fpu softvfp
 120              		.type	std_none, %function
 121              	std_none:
 122              	.LFB44:
 123              		.loc 1 452 0
 124              		.cfi_startproc
 125              		@ args = 0, pretend = 0, frame = 0
 126              		@ frame_needed = 0, uses_anonymous_args = 0
 127              		@ link register save eliminated.
 128              	.LVL14:
 129              		.loc 1 455 0
 130 0000 4FF0FF30 		mov	r0, #-1
 131              	.LVL15:
 132 0004 7047     		bx	lr
 133              		.cfi_endproc
 134              	.LFE44:
 135              		.size	std_none, .-std_none
 136              		.section	.text.std_get_descriptor,"ax",%progbits
 137              		.align	1
 138              		.syntax unified
 139              		.thumb
 140              		.thumb_func
 141              		.fpu softvfp
 142              		.type	std_get_descriptor, %function
 143              	std_get_descriptor:
 144              	.LFB49:
 145              		.loc 1 643 0
 146              		.cfi_startproc
 147              		@ args = 0, pretend = 0, frame = 0
 148              		@ frame_needed = 0, uses_anonymous_args = 0
 149              		@ link register save eliminated.
 150              	.LVL16:
 151              		.loc 1 645 0
 152 0000 90F90430 		ldrsb	r3, [r0, #4]
 153 0004 002B     		cmp	r3, #0
 154              		.loc 1 649 0
 155 0006 ACBF     		ite	ge
 156 0008 4FF0FF30 		movge	r0, #-1
 157              	.LVL17:
 158 000c 0A20     		movlt	r0, #10
 159 000e 7047     		bx	lr
 160              		.cfi_endproc
 161              	.LFE49:
 162              		.size	std_get_descriptor, .-std_get_descriptor
 163              		.section	.text.std_set_configuration,"ax",%progbits
 164              		.align	1
 165              		.syntax unified
 166              		.thumb
 167              		.thumb_func
 168              		.fpu softvfp
 169              		.type	std_set_configuration, %function
 170              	std_set_configuration:
 171              	.LFB51:
ARM GAS  /tmp/cceGb33M.s 			page 4


 172              		.loc 1 669 0
 173              		.cfi_startproc
 174              		@ args = 0, pretend = 0, frame = 0
 175              		@ frame_needed = 0, uses_anonymous_args = 0
 176              		@ link register save eliminated.
 177              	.LVL18:
 178              		.loc 1 671 0
 179 0000 0379     		ldrb	r3, [r0, #4]	@ zero_extendqisi2
 180 0002 03F01F02 		and	r2, r3, #31
 181              	.LVL19:
 182              		.loc 1 673 0
 183 0006 1B06     		lsls	r3, r3, #24
 184 0008 09D4     		bmi	.L11
 185              		.loc 1 676 0
 186 000a 0389     		ldrh	r3, [r0, #8]
 187 000c 3BB9     		cbnz	r3, .L11
 188              		.loc 1 676 0 is_stmt 0 discriminator 1
 189 000e 4389     		ldrh	r3, [r0, #10]
 190 0010 2BB9     		cbnz	r3, .L11
 191              		.loc 1 679 0 is_stmt 1
 192 0012 002A     		cmp	r2, #0
 193              		.loc 1 680 0
 194 0014 14BF     		ite	ne
 195 0016 4FF0FF30 		movne	r0, #-1
 196              	.LVL20:
 197 001a 0320     		moveq	r0, #3
 198 001c 7047     		bx	lr
 199              	.LVL21:
 200              	.L11:
 201              		.loc 1 682 0
 202 001e 4FF0FF30 		mov	r0, #-1
 203              	.LVL22:
 204              		.loc 1 683 0
 205 0022 7047     		bx	lr
 206              		.cfi_endproc
 207              	.LFE51:
 208              		.size	std_set_configuration, .-std_set_configuration
 209              		.section	.text.std_get_interface,"ax",%progbits
 210              		.align	1
 211              		.syntax unified
 212              		.thumb
 213              		.thumb_func
 214              		.fpu softvfp
 215              		.type	std_get_interface, %function
 216              	std_get_interface:
 217              	.LFB52:
 218              		.loc 1 686 0
 219              		.cfi_startproc
 220              		@ args = 0, pretend = 0, frame = 0
 221              		@ frame_needed = 0, uses_anonymous_args = 0
 222              		@ link register save eliminated.
 223              	.LVL23:
 224              		.loc 1 688 0
 225 0000 0379     		ldrb	r3, [r0, #4]	@ zero_extendqisi2
 226 0002 03F01F02 		and	r2, r3, #31
 227              	.LVL24:
 228              		.loc 1 690 0
ARM GAS  /tmp/cceGb33M.s 			page 5


 229 0006 1B06     		lsls	r3, r3, #24
 230 0008 0FD5     		bpl	.L19
 231              		.loc 1 693 0
 232 000a C388     		ldrh	r3, [r0, #6]
 233 000c 6BB9     		cbnz	r3, .L19
 234              		.loc 1 693 0 is_stmt 0 discriminator 1
 235 000e 0389     		ldrh	r3, [r0, #8]
 236 0010 1B0A     		lsrs	r3, r3, #8
 237 0012 0AD1     		bne	.L19
 238              		.loc 1 693 0 discriminator 2
 239 0014 4389     		ldrh	r3, [r0, #10]
 240 0016 012B     		cmp	r3, #1
 241 0018 07D1     		bne	.L19
 242              		.loc 1 696 0 is_stmt 1
 243 001a 0378     		ldrb	r3, [r0]	@ zero_extendqisi2
 244 001c 2BB1     		cbz	r3, .L19
 245              		.loc 1 699 0
 246 001e 012A     		cmp	r2, #1
 247              		.loc 1 700 0
 248 0020 14BF     		ite	ne
 249 0022 4FF0FF30 		movne	r0, #-1
 250              	.LVL25:
 251 0026 0B20     		moveq	r0, #11
 252 0028 7047     		bx	lr
 253              	.LVL26:
 254              	.L19:
 255              		.loc 1 702 0
 256 002a 4FF0FF30 		mov	r0, #-1
 257              	.LVL27:
 258              		.loc 1 703 0
 259 002e 7047     		bx	lr
 260              		.cfi_endproc
 261              	.LFE52:
 262              		.size	std_get_interface, .-std_get_interface
 263              		.section	.text.std_set_interface,"ax",%progbits
 264              		.align	1
 265              		.syntax unified
 266              		.thumb
 267              		.thumb_func
 268              		.fpu softvfp
 269              		.type	std_set_interface, %function
 270              	std_set_interface:
 271              	.LFB53:
 272              		.loc 1 706 0
 273              		.cfi_startproc
 274              		@ args = 0, pretend = 0, frame = 0
 275              		@ frame_needed = 0, uses_anonymous_args = 0
 276              		@ link register save eliminated.
 277              	.LVL28:
 278              		.loc 1 708 0
 279 0000 0379     		ldrb	r3, [r0, #4]	@ zero_extendqisi2
 280 0002 03F01F02 		and	r2, r3, #31
 281              	.LVL29:
 282              		.loc 1 710 0
 283 0006 1B06     		lsls	r3, r3, #24
 284 0008 10D4     		bmi	.L27
 285              		.loc 1 710 0 is_stmt 0 discriminator 1
ARM GAS  /tmp/cceGb33M.s 			page 6


 286 000a 012A     		cmp	r2, #1
 287 000c 0ED1     		bne	.L27
 288              		.loc 1 711 0 is_stmt 1
 289 000e 4389     		ldrh	r3, [r0, #10]
 290 0010 63B9     		cbnz	r3, .L27
 291              		.loc 1 711 0 is_stmt 0 discriminator 1
 292 0012 0389     		ldrh	r3, [r0, #8]
 293 0014 1B0A     		lsrs	r3, r3, #8
 294 0016 09D1     		bne	.L27
 295              		.loc 1 712 0 is_stmt 1
 296 0018 C388     		ldrh	r3, [r0, #6]
 297 001a 1B0A     		lsrs	r3, r3, #8
 298 001c 06D1     		bne	.L27
 299              		.loc 1 712 0 is_stmt 0 discriminator 1
 300 001e 0378     		ldrb	r3, [r0]	@ zero_extendqisi2
 301 0020 002B     		cmp	r3, #0
 302              		.loc 1 715 0 is_stmt 1 discriminator 1
 303 0022 0CBF     		ite	eq
 304 0024 4FF0FF30 		moveq	r0, #-1
 305              	.LVL30:
 306 0028 0420     		movne	r0, #4
 307 002a 7047     		bx	lr
 308              	.LVL31:
 309              	.L27:
 310              		.loc 1 713 0
 311 002c 4FF0FF30 		mov	r0, #-1
 312              	.LVL32:
 313              		.loc 1 716 0
 314 0030 7047     		bx	lr
 315              		.cfi_endproc
 316              	.LFE53:
 317              		.size	std_set_interface, .-std_set_interface
 318              		.section	.text.st103_ep_set_rxtx_status.constprop.4,"ax",%progbits
 319              		.align	1
 320              		.syntax unified
 321              		.thumb
 322              		.thumb_func
 323              		.fpu softvfp
 324              		.type	st103_ep_set_rxtx_status.constprop.4, %function
 325              	st103_ep_set_rxtx_status.constprop.4:
 326              	.LFB77:
 327              		.loc 1 238 0
 328              		.cfi_startproc
 329              		@ args = 0, pretend = 0, frame = 0
 330              		@ frame_needed = 0, uses_anonymous_args = 0
 331              		@ link register save eliminated.
 332              	.LVL33:
 333              	.LBB113:
 334              	.LBB114:
 335              		.loc 1 155 0
 336 0000 074A     		ldr	r2, .L30
 337              	.LVL34:
 338              	.LBE114:
 339              	.LBE113:
 340              		.loc 1 245 0
 341 0002 00F44050 		and	r0, r0, #12288
 342              	.LVL35:
ARM GAS  /tmp/cceGb33M.s 			page 7


 343              		.loc 1 243 0
 344 0006 1388     		ldrh	r3, [r2]
 345 0008 23F48043 		bic	r3, r3, #16384
 346 000c 23F04003 		bic	r3, r3, #64
 347 0010 5940     		eors	r1, r1, r3
 348              	.LVL36:
 349              		.loc 1 247 0
 350 0012 4140     		eors	r1, r1, r0
 351              	.LVL37:
 352              		.loc 1 248 0
 353 0014 41F40041 		orr	r1, r1, #32768
 354              	.LVL38:
 355 0018 41F08001 		orr	r1, r1, #128
 356              	.LBB115:
 357              	.LBB116:
 358              		.loc 1 148 0
 359 001c 1180     		strh	r1, [r2]	@ movhi
 360              	.LVL39:
 361              	.LBE116:
 362              	.LBE115:
 363              		.loc 1 250 0
 364 001e 7047     		bx	lr
 365              	.L31:
 366              		.align	2
 367              	.L30:
 368 0020 005C0040 		.word	1073765376
 369              		.cfi_endproc
 370              	.LFE77:
 371              		.size	st103_ep_set_rxtx_status.constprop.4, .-st103_ep_set_rxtx_status.constprop.4
 372              		.section	.text.std_clear_feature,"ax",%progbits
 373              		.align	1
 374              		.syntax unified
 375              		.thumb
 376              		.thumb_func
 377              		.fpu softvfp
 378              		.type	std_clear_feature, %function
 379              	std_clear_feature:
 380              	.LFB46:
 381              		.loc 1 528 0
 382              		.cfi_startproc
 383              		@ args = 0, pretend = 0, frame = 0
 384              		@ frame_needed = 0, uses_anonymous_args = 0
 385              		@ link register save eliminated.
 386              	.LVL40:
 387              		.loc 1 530 0
 388 0000 0279     		ldrb	r2, [r0, #4]	@ zero_extendqisi2
 389              		.loc 1 532 0
 390 0002 1106     		lsls	r1, r2, #24
 391              		.loc 1 530 0
 392 0004 02F01F03 		and	r3, r2, #31
 393              	.LVL41:
 394              		.loc 1 532 0
 395 0008 26D4     		bmi	.L49
 396              		.loc 1 535 0
 397 000a 63B9     		cbnz	r3, .L34
 398              		.loc 1 537 0
 399 000c 4389     		ldrh	r3, [r0, #10]
ARM GAS  /tmp/cceGb33M.s 			page 8


 400              	.LVL42:
 401 000e 1BBB     		cbnz	r3, .L49
 402              		.loc 1 537 0 is_stmt 0 discriminator 1
 403 0010 0389     		ldrh	r3, [r0, #8]
 404 0012 0BBB     		cbnz	r3, .L49
 405              		.loc 1 540 0 is_stmt 1
 406 0014 C388     		ldrh	r3, [r0, #6]
 407 0016 012B     		cmp	r3, #1
 408 0018 1ED1     		bne	.L49
 409              		.loc 1 542 0
 410 001a 4378     		ldrb	r3, [r0, #1]	@ zero_extendqisi2
 411 001c 23F02003 		bic	r3, r3, #32
 412 0020 4370     		strb	r3, [r0, #1]
 413              		.loc 1 543 0
 414 0022 0720     		movs	r0, #7
 415              	.LVL43:
 416 0024 7047     		bx	lr
 417              	.LVL44:
 418              	.L34:
 419              		.loc 1 546 0
 420 0026 022B     		cmp	r3, #2
 421 0028 16D1     		bne	.L49
 422              	.LVL45:
 423              	.LBB140:
 424              	.LBB141:
 425              	.LBB142:
 426              		.loc 1 548 0
 427 002a 0289     		ldrh	r2, [r0, #8]
 428              		.loc 1 551 0
 429 002c 0178     		ldrb	r1, [r0]	@ zero_extendqisi2
 430              		.loc 1 548 0
 431 002e 02F00F03 		and	r3, r2, #15
 432              	.LVL46:
 433              		.loc 1 551 0
 434 0032 89B1     		cbz	r1, .L49
 435              		.loc 1 554 0
 436 0034 4189     		ldrh	r1, [r0, #10]
 437 0036 79B9     		cbnz	r1, .L49
 438 0038 110A     		lsrs	r1, r2, #8
 439 003a 0DD1     		bne	.L49
 440              		.loc 1 555 0
 441 003c C188     		ldrh	r1, [r0, #6]
 442 003e 59B9     		cbnz	r1, .L49
 443 0040 53B1     		cbz	r3, .L49
 444 0042 9B00     		lsls	r3, r3, #2
 445              	.LVL47:
 446 0044 03F18043 		add	r3, r3, #1073741824
 447 0048 03F5B843 		add	r3, r3, #23552
 448              		.loc 1 558 0
 449 004c 1206     		lsls	r2, r2, #24
 450              	.LVL48:
 451 004e 1988     		ldrh	r1, [r3]
 452 0050 05D5     		bpl	.L35
 453              	.LVL49:
 454              		.loc 1 563 0
 455 0052 11F0300F 		tst	r1, #48
 456 0056 0FD1     		bne	.L52
ARM GAS  /tmp/cceGb33M.s 			page 9


 457              	.LVL50:
 458              	.L49:
 459              	.LBE142:
 460              	.LBE141:
 461              	.LBE140:
 462              		.loc 1 533 0
 463 0058 4FF0FF30 		mov	r0, #-1
 464              	.LVL51:
 465 005c 7047     		bx	lr
 466              	.LVL52:
 467              	.L35:
 468              	.LBB153:
 469              	.LBB152:
 470              	.LBB151:
 471              		.loc 1 563 0
 472 005e 11F4405F 		tst	r1, #12288
 473 0062 F9D0     		beq	.L49
 474              	.LVL53:
 475              	.LBB143:
 476              	.LBB144:
 477              		.loc 1 292 0
 478 0064 4A04     		lsls	r2, r1, #17
 479 0066 11D5     		bpl	.L51
 480              		.loc 1 294 0
 481 0068 40F60F72 		movw	r2, #3855
 482 006c 0A40     		ands	r2, r2, r1
 483              	.LVL54:
 484              		.loc 1 295 0
 485 006e 42F44042 		orr	r2, r2, #49152
 486 0072 42F08002 		orr	r2, r2, #128
 487 0076 08E0     		b	.L54
 488              	.LVL55:
 489              	.L52:
 490              	.LBE144:
 491              	.LBE143:
 492              	.LBB148:
 493              	.LBB149:
 494              		.loc 1 304 0
 495 0078 4806     		lsls	r0, r1, #25
 496              	.LVL56:
 497 007a 07D5     		bpl	.L51
 498              		.loc 1 306 0
 499 007c 40F60F72 		movw	r2, #3855
 500 0080 0A40     		ands	r2, r2, r1
 501              	.LVL57:
 502              		.loc 1 307 0
 503 0082 42F40042 		orr	r2, r2, #32768
 504 0086 42F0C002 		orr	r2, r2, #192
 505              	.LVL58:
 506              	.L54:
 507              	.LBE149:
 508              	.LBE148:
 509              	.LBB150:
 510              	.LBB147:
 511              	.LBB145:
 512              	.LBB146:
 513              		.loc 1 148 0
ARM GAS  /tmp/cceGb33M.s 			page 10


 514 008a 1A80     		strh	r2, [r3]	@ movhi
 515              	.LVL59:
 516              	.L51:
 517              	.LBE146:
 518              	.LBE145:
 519              	.LBE147:
 520              	.LBE150:
 521              		.loc 1 571 0
 522 008c 0820     		movs	r0, #8
 523              	.LBE151:
 524              	.LBE152:
 525              	.LBE153:
 526              		.loc 1 575 0
 527 008e 7047     		bx	lr
 528              		.cfi_endproc
 529              	.LFE46:
 530              		.size	std_clear_feature, .-std_clear_feature
 531              		.section	.text.std_set_feature,"ax",%progbits
 532              		.align	1
 533              		.syntax unified
 534              		.thumb
 535              		.thumb_func
 536              		.fpu softvfp
 537              		.type	std_set_feature, %function
 538              	std_set_feature:
 539              	.LFB47:
 540              		.loc 1 578 0
 541              		.cfi_startproc
 542              		@ args = 0, pretend = 0, frame = 0
 543              		@ frame_needed = 0, uses_anonymous_args = 0
 544              	.LVL60:
 545 0000 08B5     		push	{r3, lr}
 546              		.cfi_def_cfa_offset 8
 547              		.cfi_offset 3, -8
 548              		.cfi_offset 14, -4
 549              		.loc 1 580 0
 550 0002 0179     		ldrb	r1, [r0, #4]	@ zero_extendqisi2
 551              		.loc 1 578 0
 552 0004 0346     		mov	r3, r0
 553              		.loc 1 580 0
 554 0006 01F01F02 		and	r2, r1, #31
 555              	.LVL61:
 556              		.loc 1 582 0
 557 000a 0906     		lsls	r1, r1, #24
 558 000c 26D4     		bmi	.L72
 559              		.loc 1 585 0
 560 000e 62B9     		cbnz	r2, .L57
 561              		.loc 1 587 0
 562 0010 4289     		ldrh	r2, [r0, #10]
 563              	.LVL62:
 564 0012 1ABB     		cbnz	r2, .L72
 565              		.loc 1 587 0 is_stmt 0 discriminator 1
 566 0014 0289     		ldrh	r2, [r0, #8]
 567 0016 0ABB     		cbnz	r2, .L72
 568              		.loc 1 590 0 is_stmt 1
 569 0018 C288     		ldrh	r2, [r0, #6]
 570 001a 012A     		cmp	r2, #1
ARM GAS  /tmp/cceGb33M.s 			page 11


 571 001c 1ED1     		bne	.L72
 572              		.loc 1 592 0
 573 001e 4278     		ldrb	r2, [r0, #1]	@ zero_extendqisi2
 574 0020 42F02002 		orr	r2, r2, #32
 575 0024 4270     		strb	r2, [r0, #1]
 576              		.loc 1 593 0
 577 0026 0520     		movs	r0, #5
 578              	.LVL63:
 579              	.L55:
 580              		.loc 1 625 0
 581 0028 08BD     		pop	{r3, pc}
 582              	.LVL64:
 583              	.L57:
 584              		.loc 1 596 0
 585 002a 022A     		cmp	r2, #2
 586 002c 16D1     		bne	.L72
 587              	.LVL65:
 588              	.LBB165:
 589              	.LBB166:
 590              	.LBB167:
 591              		.loc 1 598 0
 592 002e 0289     		ldrh	r2, [r0, #8]
 593              	.LVL66:
 594              		.loc 1 601 0
 595 0030 1978     		ldrb	r1, [r3]	@ zero_extendqisi2
 596              		.loc 1 598 0
 597 0032 02F00F00 		and	r0, r2, #15
 598              	.LVL67:
 599              		.loc 1 601 0
 600 0036 89B1     		cbz	r1, .L72
 601              		.loc 1 604 0
 602 0038 5989     		ldrh	r1, [r3, #10]
 603 003a 79B9     		cbnz	r1, .L72
 604 003c 110A     		lsrs	r1, r2, #8
 605 003e 0DD1     		bne	.L72
 606              		.loc 1 605 0
 607 0040 DB88     		ldrh	r3, [r3, #6]
 608              	.LVL68:
 609 0042 5BB9     		cbnz	r3, .L72
 610 0044 50B1     		cbz	r0, .L72
 611 0046 8300     		lsls	r3, r0, #2
 612 0048 03F18043 		add	r3, r3, #1073741824
 613 004c 03F5B843 		add	r3, r3, #23552
 614              		.loc 1 608 0
 615 0050 1206     		lsls	r2, r2, #24
 616 0052 1B88     		ldrh	r3, [r3]
 617 0054 05D5     		bpl	.L58
 618              	.LVL69:
 619              		.loc 1 613 0
 620 0056 13F0300F 		tst	r3, #48
 621 005a 0AD1     		bne	.L73
 622              	.LVL70:
 623              	.L72:
 624              	.LBE167:
 625              	.LBE166:
 626              	.LBE165:
 627              		.loc 1 583 0
ARM GAS  /tmp/cceGb33M.s 			page 12


 628 005c 4FF0FF30 		mov	r0, #-1
 629 0060 E2E7     		b	.L55
 630              	.LVL71:
 631              	.L58:
 632              	.LBB170:
 633              	.LBB169:
 634              	.LBB168:
 635              		.loc 1 613 0
 636 0062 13F4405F 		tst	r3, #12288
 637 0066 F9D0     		beq	.L72
 638              		.loc 1 619 0
 639 0068 4FF48051 		mov	r1, #4096
 640 006c FFF7FEFF 		bl	st103_ep_set_rx_status
 641              	.LVL72:
 642 0070 02E0     		b	.L75
 643              	.LVL73:
 644              	.L73:
 645              		.loc 1 617 0
 646 0072 1021     		movs	r1, #16
 647 0074 FFF7FEFF 		bl	st103_ep_set_tx_status
 648              	.LVL74:
 649              	.L75:
 650              		.loc 1 621 0
 651 0078 0620     		movs	r0, #6
 652 007a D5E7     		b	.L55
 653              	.LBE168:
 654              	.LBE169:
 655              	.LBE170:
 656              		.cfi_endproc
 657              	.LFE47:
 658              		.size	std_set_feature, .-std_set_feature
 659              		.section	.text.usb_lld_ctrl_error,"ax",%progbits
 660              		.align	1
 661              		.global	usb_lld_ctrl_error
 662              		.syntax unified
 663              		.thumb
 664              		.thumb_func
 665              		.fpu softvfp
 666              		.type	usb_lld_ctrl_error, %function
 667              	usb_lld_ctrl_error:
 668              	.LFB36:
 669              		.loc 1 314 0
 670              		.cfi_startproc
 671              		@ args = 0, pretend = 0, frame = 0
 672              		@ frame_needed = 0, uses_anonymous_args = 0
 673              		@ link register save eliminated.
 674              	.LVL75:
 675              		.loc 1 315 0
 676 0000 0623     		movs	r3, #6
 677              		.loc 1 316 0
 678 0002 1021     		movs	r1, #16
 679              		.loc 1 315 0
 680 0004 8370     		strb	r3, [r0, #2]
 681              		.loc 1 316 0
 682 0006 4FF48050 		mov	r0, #4096
 683              	.LVL76:
 684 000a FFF7FEBF 		b	st103_ep_set_rxtx_status.constprop.4
ARM GAS  /tmp/cceGb33M.s 			page 13


 685              	.LVL77:
 686              		.cfi_endproc
 687              	.LFE36:
 688              		.size	usb_lld_ctrl_error, .-usb_lld_ctrl_error
 689              		.section	.text.usb_lld_ctrl_ack,"ax",%progbits
 690              		.align	1
 691              		.global	usb_lld_ctrl_ack
 692              		.syntax unified
 693              		.thumb
 694              		.thumb_func
 695              		.fpu softvfp
 696              		.type	usb_lld_ctrl_ack, %function
 697              	usb_lld_ctrl_ack:
 698              	.LFB37:
 699              		.loc 1 321 0
 700              		.cfi_startproc
 701              		@ args = 0, pretend = 0, frame = 0
 702              		@ frame_needed = 0, uses_anonymous_args = 0
 703              	.LVL78:
 704              		.loc 1 322 0
 705 0000 0423     		movs	r3, #4
 706              		.loc 1 321 0
 707 0002 10B5     		push	{r4, lr}
 708              		.cfi_def_cfa_offset 8
 709              		.cfi_offset 4, -8
 710              		.cfi_offset 14, -4
 711              	.LBB171:
 712              	.LBB172:
 713              		.loc 1 177 0
 714 0004 0024     		movs	r4, #0
 715              	.LBE172:
 716              	.LBE171:
 717              		.loc 1 322 0
 718 0006 8370     		strb	r3, [r0, #2]
 719              	.LVL79:
 720              	.LBB174:
 721              	.LBB173:
 722              		.loc 1 177 0
 723 0008 03F18043 		add	r3, r3, #1073741824
 724 000c 03F5C043 		add	r3, r3, #24576
 725 0010 1C80     		strh	r4, [r3]	@ movhi
 726              	.LVL80:
 727              	.LBE173:
 728              	.LBE174:
 729              		.loc 1 324 0
 730 0012 3021     		movs	r1, #48
 731 0014 4FF40050 		mov	r0, #8192
 732              	.LVL81:
 733 0018 FFF7FEFF 		bl	st103_ep_set_rxtx_status.constprop.4
 734              	.LVL82:
 735              		.loc 1 326 0
 736 001c 2046     		mov	r0, r4
 737 001e 10BD     		pop	{r4, pc}
 738              		.cfi_endproc
 739              	.LFE37:
 740              		.size	usb_lld_ctrl_ack, .-usb_lld_ctrl_ack
 741              		.section	.text.std_set_address,"ax",%progbits
ARM GAS  /tmp/cceGb33M.s 			page 14


 742              		.align	1
 743              		.syntax unified
 744              		.thumb
 745              		.thumb_func
 746              		.fpu softvfp
 747              		.type	std_set_address, %function
 748              	std_set_address:
 749              	.LFB48:
 750              		.loc 1 628 0
 751              		.cfi_startproc
 752              		@ args = 0, pretend = 0, frame = 0
 753              		@ frame_needed = 0, uses_anonymous_args = 0
 754              		@ link register save eliminated.
 755              	.LVL83:
 756              		.loc 1 630 0
 757 0000 0279     		ldrb	r2, [r0, #4]	@ zero_extendqisi2
 758 0002 02F01F01 		and	r1, r2, #31
 759              	.LVL84:
 760              		.loc 1 632 0
 761 0006 1206     		lsls	r2, r2, #24
 762 0008 0BD4     		bmi	.L78
 763              		.loc 1 635 0
 764 000a 51B9     		cbnz	r1, .L78
 765              		.loc 1 635 0 is_stmt 0 discriminator 1
 766 000c 4289     		ldrh	r2, [r0, #10]
 767 000e 42B9     		cbnz	r2, .L78
 768              		.loc 1 635 0 discriminator 2
 769 0010 C288     		ldrh	r2, [r0, #6]
 770 0012 7F2A     		cmp	r2, #127
 771 0014 05D8     		bhi	.L78
 772              		.loc 1 636 0 is_stmt 1
 773 0016 0289     		ldrh	r2, [r0, #8]
 774 0018 1AB9     		cbnz	r2, .L78
 775              		.loc 1 636 0 is_stmt 0 discriminator 1
 776 001a 0378     		ldrb	r3, [r0]	@ zero_extendqisi2
 777 001c 0BB9     		cbnz	r3, .L78
 778              		.loc 1 637 0 is_stmt 1
 779 001e FFF7FEBF 		b	usb_lld_ctrl_ack
 780              	.LVL85:
 781              	.L78:
 782              		.loc 1 640 0
 783 0022 4FF0FF30 		mov	r0, #-1
 784              	.LVL86:
 785 0026 7047     		bx	lr
 786              		.cfi_endproc
 787              	.LFE48:
 788              		.size	std_set_address, .-std_set_address
 789              		.section	.text.usb_lld_init,"ax",%progbits
 790              		.align	1
 791              		.global	usb_lld_init
 792              		.syntax unified
 793              		.thumb
 794              		.thumb_func
 795              		.fpu softvfp
 796              		.type	usb_lld_init, %function
 797              	usb_lld_init:
 798              	.LFB38:
ARM GAS  /tmp/cceGb33M.s 			page 15


 799              		.loc 1 329 0
 800              		.cfi_startproc
 801              		@ args = 0, pretend = 0, frame = 0
 802              		@ frame_needed = 0, uses_anonymous_args = 0
 803              	.LVL87:
 804 0000 38B5     		push	{r3, r4, r5, lr}
 805              		.cfi_def_cfa_offset 16
 806              		.cfi_offset 3, -16
 807              		.cfi_offset 4, -12
 808              		.cfi_offset 5, -8
 809              		.cfi_offset 14, -4
 810              	.LBB185:
 811              	.LBB186:
 812              		.file 2 "../chopstx/mcu/sys-stm32f103.h"
 813              		.loc 2 102 0
 814 0002 094B     		ldr	r3, .L87
 815              	.LBE186:
 816              	.LBE185:
 817              		.loc 1 329 0
 818 0004 0446     		mov	r4, r0
 819              	.LBB189:
 820              	.LBB187:
 821              		.loc 2 102 0
 822 0006 9B6A     		ldr	r3, [r3, #40]
 823              	.LBE187:
 824              	.LBE189:
 825              		.loc 1 329 0
 826 0008 0D46     		mov	r5, r1
 827              	.LBB190:
 828              	.LBB188:
 829              		.loc 2 102 0
 830 000a 9847     		blx	r3
 831              	.LVL88:
 832              	.LBE188:
 833              	.LBE190:
 834              		.loc 1 332 0
 835 000c 0023     		movs	r3, #0
 836              	.LBB191:
 837              	.LBB192:
 838              		.loc 1 136 0
 839 000e 0121     		movs	r1, #1
 840 0010 064A     		ldr	r2, .L87+4
 841              	.LBE192:
 842              	.LBE191:
 843              		.loc 1 332 0
 844 0012 2370     		strb	r3, [r4]
 845              		.loc 1 334 0
 846 0014 A370     		strb	r3, [r4, #2]
 847              	.LVL89:
 848              		.loc 1 333 0
 849 0016 6570     		strb	r5, [r4, #1]
 850              	.LBB194:
 851              	.LBB193:
 852              		.loc 1 136 0
 853 0018 1180     		strh	r1, [r2]	@ movhi
 854              	.LVL90:
 855              	.LBE193:
ARM GAS  /tmp/cceGb33M.s 			page 16


 856              	.LBE194:
 857              	.LBB195:
 858              	.LBB196:
 859              		.loc 1 131 0
 860 001a 0549     		ldr	r1, .L87+8
 861              	.LBE196:
 862              	.LBE195:
 863              	.LBB198:
 864              	.LBB199:
 865              		.loc 1 136 0
 866 001c 1380     		strh	r3, [r2]	@ movhi
 867              	.LVL91:
 868              	.LBE199:
 869              	.LBE198:
 870              	.LBB200:
 871              	.LBB197:
 872              		.loc 1 131 0
 873 001e 0B80     		strh	r3, [r1]	@ movhi
 874              	.LVL92:
 875              	.LBE197:
 876              	.LBE200:
 877              	.LBB201:
 878              	.LBB202:
 879              		.loc 1 136 0
 880 0020 4FF40443 		mov	r3, #33792
 881 0024 1380     		strh	r3, [r2]	@ movhi
 882              	.LVL93:
 883              	.LBE202:
 884              	.LBE201:
 885              		.loc 1 343 0
 886 0026 38BD     		pop	{r3, r4, r5, pc}
 887              	.LVL94:
 888              	.L88:
 889              		.align	2
 890              	.L87:
 891 0028 00000000 		.word	vector
 892 002c 405C0040 		.word	1073765440
 893 0030 445C0040 		.word	1073765444
 894              		.cfi_endproc
 895              	.LFE38:
 896              		.size	usb_lld_init, .-usb_lld_init
 897              		.section	.text.usb_lld_prepare_shutdown,"ax",%progbits
 898              		.align	1
 899              		.global	usb_lld_prepare_shutdown
 900              		.syntax unified
 901              		.thumb
 902              		.thumb_func
 903              		.fpu softvfp
 904              		.type	usb_lld_prepare_shutdown, %function
 905              	usb_lld_prepare_shutdown:
 906              	.LFB39:
 907              		.loc 1 346 0
 908              		.cfi_startproc
 909              		@ args = 0, pretend = 0, frame = 0
 910              		@ frame_needed = 0, uses_anonymous_args = 0
 911              		@ link register save eliminated.
 912              	.LVL95:
ARM GAS  /tmp/cceGb33M.s 			page 17


 913              	.LBB203:
 914              	.LBB204:
 915              		.loc 1 131 0
 916 0000 0023     		movs	r3, #0
 917 0002 024A     		ldr	r2, .L90
 918 0004 1380     		strh	r3, [r2]	@ movhi
 919              	.LVL96:
 920              	.LBE204:
 921              	.LBE203:
 922              	.LBB205:
 923              	.LBB206:
 924              		.loc 1 136 0
 925 0006 22F8043C 		strh	r3, [r2, #-4]	@ movhi
 926              	.LVL97:
 927              	.LBE206:
 928              	.LBE205:
 929              		.loc 1 349 0
 930 000a 7047     		bx	lr
 931              	.L91:
 932              		.align	2
 933              	.L90:
 934 000c 445C0040 		.word	1073765444
 935              		.cfi_endproc
 936              	.LFE39:
 937              		.size	usb_lld_prepare_shutdown, .-usb_lld_prepare_shutdown
 938              		.section	.text.usb_lld_shutdown,"ax",%progbits
 939              		.align	1
 940              		.global	usb_lld_shutdown
 941              		.syntax unified
 942              		.thumb
 943              		.thumb_func
 944              		.fpu softvfp
 945              		.type	usb_lld_shutdown, %function
 946              	usb_lld_shutdown:
 947              	.LFB40:
 948              		.loc 1 352 0
 949              		.cfi_startproc
 950              		@ args = 0, pretend = 0, frame = 0
 951              		@ frame_needed = 0, uses_anonymous_args = 0
 952              		@ link register save eliminated.
 953              	.LVL98:
 954              	.LBB211:
 955              	.LBB212:
 956              		.loc 1 136 0
 957 0000 0222     		movs	r2, #2
 958 0002 024B     		ldr	r3, .L93
 959 0004 1A80     		strh	r2, [r3]	@ movhi
 960              	.LVL99:
 961              	.LBE212:
 962              	.LBE211:
 963              	.LBB213:
 964              	.LBB214:
 965              		.loc 2 108 0
 966 0006 024B     		ldr	r3, .L93+4
 967 0008 DB6A     		ldr	r3, [r3, #44]
 968 000a 1847     		bx	r3	@ indirect register sibling call
 969              	.LVL100:
ARM GAS  /tmp/cceGb33M.s 			page 18


 970              	.L94:
 971              		.align	2
 972              	.L93:
 973 000c 405C0040 		.word	1073765440
 974 0010 00000000 		.word	vector
 975              	.LBE214:
 976              	.LBE213:
 977              		.cfi_endproc
 978              	.LFE40:
 979              		.size	usb_lld_shutdown, .-usb_lld_shutdown
 980              		.section	.text.usb_lld_reset,"ax",%progbits
 981              		.align	1
 982              		.global	usb_lld_reset
 983              		.syntax unified
 984              		.thumb
 985              		.thumb_func
 986              		.fpu softvfp
 987              		.type	usb_lld_reset, %function
 988              	usb_lld_reset:
 989              	.LFB58:
 990              		.loc 1 878 0
 991              		.cfi_startproc
 992              		@ args = 0, pretend = 0, frame = 0
 993              		@ frame_needed = 0, uses_anonymous_args = 0
 994              		@ link register save eliminated.
 995              	.LVL101:
 996              	.LBB215:
 997              	.LBB216:
 998              		.loc 1 969 0
 999 0000 0023     		movs	r3, #0
 1000              	.LBE216:
 1001              	.LBE215:
 1002              	.LBB218:
 1003              	.LBB219:
 1004              		.loc 1 121 0
 1005 0002 044A     		ldr	r2, .L96
 1006              	.LBE219:
 1007              	.LBE218:
 1008              	.LBB221:
 1009              	.LBB217:
 1010              		.loc 1 969 0
 1011 0004 0370     		strb	r3, [r0]
 1012              	.LVL102:
 1013              	.LBE217:
 1014              	.LBE221:
 1015              		.loc 1 880 0
 1016 0006 4170     		strb	r1, [r0, #1]
 1017              	.LBB222:
 1018              	.LBB220:
 1019              		.loc 1 121 0
 1020 0008 1380     		strh	r3, [r2]	@ movhi
 1021              	.LVL103:
 1022              	.LBE220:
 1023              	.LBE222:
 1024              	.LBB223:
 1025              	.LBB224:
 1026              		.loc 1 141 0
ARM GAS  /tmp/cceGb33M.s 			page 19


 1027 000a 8022     		movs	r2, #128
 1028 000c 024B     		ldr	r3, .L96+4
 1029 000e 1A80     		strh	r2, [r3]	@ movhi
 1030              	.LVL104:
 1031              	.LBE224:
 1032              	.LBE223:
 1033              		.loc 1 883 0
 1034 0010 7047     		bx	lr
 1035              	.L97:
 1036 0012 00BF     		.align	2
 1037              	.L96:
 1038 0014 505C0040 		.word	1073765456
 1039 0018 4C5C0040 		.word	1073765452
 1040              		.cfi_endproc
 1041              	.LFE58:
 1042              		.size	usb_lld_reset, .-usb_lld_reset
 1043              		.section	.text.usb_lld_tx_enable,"ax",%progbits
 1044              		.align	1
 1045              		.global	usb_lld_tx_enable
 1046              		.syntax unified
 1047              		.thumb
 1048              		.thumb_func
 1049              		.fpu softvfp
 1050              		.type	usb_lld_tx_enable, %function
 1051              	usb_lld_tx_enable:
 1052              	.LFB62:
 1053              		.loc 1 905 0
 1054              		.cfi_startproc
 1055              		@ args = 0, pretend = 0, frame = 0
 1056              		@ frame_needed = 0, uses_anonymous_args = 0
 1057              		@ link register save eliminated.
 1058              	.LVL105:
 1059              	.LBB227:
 1060              	.LBB228:
 1061              		.loc 1 175 0
 1062 0000 C0B2     		uxtb	r0, r0
 1063              	.LVL106:
 1064              		.loc 1 177 0
 1065 0002 034B     		ldr	r3, .L99
 1066              		.loc 1 175 0
 1067 0004 0201     		lsls	r2, r0, #4
 1068              	.LBE228:
 1069              	.LBE227:
 1070              		.loc 1 906 0
 1071 0006 9952     		strh	r1, [r3, r2]	@ movhi
 1072              	.LVL107:
 1073              		.loc 1 907 0
 1074 0008 3021     		movs	r1, #48
 1075              	.LVL108:
 1076 000a FFF7FEBF 		b	st103_ep_set_tx_status
 1077              	.LVL109:
 1078              	.L100:
 1079 000e 00BF     		.align	2
 1080              	.L99:
 1081 0010 04600040 		.word	1073766404
 1082              		.cfi_endproc
 1083              	.LFE62:
ARM GAS  /tmp/cceGb33M.s 			page 20


 1084              		.size	usb_lld_tx_enable, .-usb_lld_tx_enable
 1085              		.section	.text.usb_lld_stall_tx,"ax",%progbits
 1086              		.align	1
 1087              		.global	usb_lld_stall_tx
 1088              		.syntax unified
 1089              		.thumb
 1090              		.thumb_func
 1091              		.fpu softvfp
 1092              		.type	usb_lld_stall_tx, %function
 1093              	usb_lld_stall_tx:
 1094              	.LFB63:
 1095              		.loc 1 911 0
 1096              		.cfi_startproc
 1097              		@ args = 0, pretend = 0, frame = 0
 1098              		@ frame_needed = 0, uses_anonymous_args = 0
 1099              		@ link register save eliminated.
 1100              	.LVL110:
 1101              		.loc 1 912 0
 1102 0000 1021     		movs	r1, #16
 1103 0002 C0B2     		uxtb	r0, r0
 1104              	.LVL111:
 1105 0004 FFF7FEBF 		b	st103_ep_set_tx_status
 1106              	.LVL112:
 1107              		.cfi_endproc
 1108              	.LFE63:
 1109              		.size	usb_lld_stall_tx, .-usb_lld_stall_tx
 1110              		.section	.text.usb_lld_stall_rx,"ax",%progbits
 1111              		.align	1
 1112              		.global	usb_lld_stall_rx
 1113              		.syntax unified
 1114              		.thumb
 1115              		.thumb_func
 1116              		.fpu softvfp
 1117              		.type	usb_lld_stall_rx, %function
 1118              	usb_lld_stall_rx:
 1119              	.LFB64:
 1120              		.loc 1 916 0
 1121              		.cfi_startproc
 1122              		@ args = 0, pretend = 0, frame = 0
 1123              		@ frame_needed = 0, uses_anonymous_args = 0
 1124              		@ link register save eliminated.
 1125              	.LVL113:
 1126              		.loc 1 917 0
 1127 0000 4FF48051 		mov	r1, #4096
 1128 0004 C0B2     		uxtb	r0, r0
 1129              	.LVL114:
 1130 0006 FFF7FEBF 		b	st103_ep_set_rx_status
 1131              	.LVL115:
 1132              		.cfi_endproc
 1133              	.LFE64:
 1134              		.size	usb_lld_stall_rx, .-usb_lld_stall_rx
 1135              		.section	.text.usb_lld_rx_enable,"ax",%progbits
 1136              		.align	1
 1137              		.global	usb_lld_rx_enable
 1138              		.syntax unified
 1139              		.thumb
 1140              		.thumb_func
ARM GAS  /tmp/cceGb33M.s 			page 21


 1141              		.fpu softvfp
 1142              		.type	usb_lld_rx_enable, %function
 1143              	usb_lld_rx_enable:
 1144              	.LFB65:
 1145              		.loc 1 921 0
 1146              		.cfi_startproc
 1147              		@ args = 0, pretend = 0, frame = 0
 1148              		@ frame_needed = 0, uses_anonymous_args = 0
 1149              		@ link register save eliminated.
 1150              	.LVL116:
 1151              		.loc 1 922 0
 1152 0000 4FF44051 		mov	r1, #12288
 1153 0004 C0B2     		uxtb	r0, r0
 1154              	.LVL117:
 1155 0006 FFF7FEBF 		b	st103_ep_set_rx_status
 1156              	.LVL118:
 1157              		.cfi_endproc
 1158              	.LFE65:
 1159              		.size	usb_lld_rx_enable, .-usb_lld_rx_enable
 1160              		.section	.text.usb_lld_setup_endpoint,"ax",%progbits
 1161              		.align	1
 1162              		.global	usb_lld_setup_endpoint
 1163              		.syntax unified
 1164              		.thumb
 1165              		.thumb_func
 1166              		.fpu softvfp
 1167              		.type	usb_lld_setup_endpoint, %function
 1168              	usb_lld_setup_endpoint:
 1169              	.LFB66:
 1170              		.loc 1 928 0
 1171              		.cfi_startproc
 1172              		@ args = 8, pretend = 0, frame = 0
 1173              		@ frame_needed = 0, uses_anonymous_args = 0
 1174              	.LVL119:
 1175 0000 F0B5     		push	{r4, r5, r6, r7, lr}
 1176              		.cfi_def_cfa_offset 20
 1177              		.cfi_offset 4, -20
 1178              		.cfi_offset 5, -16
 1179              		.cfi_offset 6, -12
 1180              		.cfi_offset 7, -8
 1181              		.cfi_offset 14, -4
 1182 0002 C5B2     		uxtb	r5, r0
 1183              	.LBB239:
 1184              	.LBB240:
 1185              		.loc 1 153 0
 1186 0004 AE00     		lsls	r6, r5, #2
 1187 0006 06F18046 		add	r6, r6, #1073741824
 1188 000a 06F5B846 		add	r6, r6, #23552
 1189              	.LVL120:
 1190              	.LBE240:
 1191              	.LBE239:
 1192              		.loc 1 935 0
 1193 000e B6F800C0 		ldrh	ip, [r6]
 1194              		.loc 1 944 0
 1195 0012 0A43     		orrs	r2, r2, r1
 1196              	.LVL121:
 1197              		.loc 1 935 0
ARM GAS  /tmp/cceGb33M.s 			page 22


 1198 0014 2CF4F16C 		bic	ip, ip, #1928
 1199 0018 2CF0070C 		bic	ip, ip, #7
 1200 001c 4FEA4C4C 		lsl	ip, ip, #17
 1201 0020 4FEA5C4C 		lsr	ip, ip, #17
 1202              		.loc 1 944 0
 1203 0024 0243     		orrs	r2, r2, r0
 1204 0026 4CEA0202 		orr	r2, ip, r2
 1205              		.loc 1 928 0
 1206 002a DDE90574 		ldrd	r7, r4, [sp, #20]
 1207              		.loc 1 944 0
 1208 002e 92B2     		uxth	r2, r2
 1209              	.LVL122:
 1210              		.loc 1 946 0
 1211 0030 D3B1     		cbz	r3, .L105
 1212              	.LVL123:
 1213              	.LBB241:
 1214              	.LBB242:
 1215              		.loc 1 190 0
 1216 0032 2901     		lsls	r1, r5, #4
 1217              	.LVL124:
 1218 0034 0831     		adds	r1, r1, #8
 1219              	.LVL125:
 1220              		.loc 1 192 0
 1221 0036 01F18040 		add	r0, r1, #1073741824
 1222              	.LVL126:
 1223 003a 00F5C040 		add	r0, r0, #24576
 1224              	.LBE242:
 1225              	.LBE241:
 1226              		.loc 1 949 0
 1227 003e 0380     		strh	r3, [r0]	@ movhi
 1228              	.LVL127:
 1229              		.loc 1 950 0
 1230 0040 A3B2     		uxth	r3, r4
 1231              	.LVL128:
 1232              	.LBB243:
 1233              	.LBB244:
 1234              		.loc 1 208 0
 1235 0042 3E2B     		cmp	r3, #62
 1236              		.loc 1 211 0
 1237 0044 81BF     		itttt	hi
 1238 0046 5B09     		lsrhi	r3, r3, #5
 1239              	.LVL129:
 1240 0048 0D4C     		ldrhi	r4, .L113
 1241              	.LVL130:
 1242 004a 03F1FF33 		addhi	r3, r3, #-1
 1243 004e 44EA8324 		orrhi	r4, r4, r3, lsl #10
 1244              	.LBE244:
 1245              	.LBE243:
 1246              		.loc 1 948 0
 1247 0052 4FF40053 		mov	r3, #8192
 1248              	.LBB246:
 1249              	.LBB245:
 1250              		.loc 1 205 0
 1251 0056 0B48     		ldr	r0, .L113+4
 1252              		.loc 1 209 0
 1253 0058 98BF     		it	ls
 1254 005a 6402     		lslls	r4, r4, #9
ARM GAS  /tmp/cceGb33M.s 			page 23


 1255              		.loc 1 205 0
 1256 005c 0844     		add	r0, r0, r1
 1257              	.LVL131:
 1258              		.loc 1 209 0
 1259 005e 94BF     		ite	ls
 1260 0060 04F4F844 		andls	r4, r4, #31744
 1261              		.loc 1 211 0
 1262 0064 A4B2     		uxthhi	r4, r4
 1263              	.LVL132:
 1264              		.loc 1 213 0
 1265 0066 0480     		strh	r4, [r0]	@ movhi
 1266              	.LVL133:
 1267              	.L105:
 1268              	.LBE245:
 1269              	.LBE246:
 1270              		.loc 1 953 0
 1271 0068 3FB1     		cbz	r7, .L108
 1272              	.LBB247:
 1273              	.LBB248:
 1274              		.loc 1 162 0
 1275 006a 2D01     		lsls	r5, r5, #4
 1276 006c 05F18045 		add	r5, r5, #1073741824
 1277 0070 05F5C045 		add	r5, r5, #24576
 1278              	.LBE248:
 1279              	.LBE247:
 1280              		.loc 1 955 0
 1281 0074 43F02003 		orr	r3, r3, #32
 1282              	.LVL134:
 1283              		.loc 1 956 0
 1284 0078 2F80     		strh	r7, [r5]	@ movhi
 1285              	.LVL135:
 1286              	.L108:
 1287              		.loc 1 962 0
 1288 007a 5340     		eors	r3, r3, r2
 1289              	.LVL136:
 1290              	.LBB249:
 1291              	.LBB250:
 1292              		.loc 1 148 0
 1293 007c 3380     		strh	r3, [r6]	@ movhi
 1294              	.LVL137:
 1295              	.LBE250:
 1296              	.LBE249:
 1297              		.loc 1 965 0
 1298 007e F0BD     		pop	{r4, r5, r6, r7, pc}
 1299              	.LVL138:
 1300              	.L114:
 1301              		.align	2
 1302              	.L113:
 1303 0080 0080FFFF 		.word	-32768
 1304 0084 04600040 		.word	1073766404
 1305              		.cfi_endproc
 1306              	.LFE66:
 1307              		.size	usb_lld_setup_endpoint, .-usb_lld_setup_endpoint
 1308              		.section	.text.usb_lld_set_configuration,"ax",%progbits
 1309              		.align	1
 1310              		.global	usb_lld_set_configuration
 1311              		.syntax unified
ARM GAS  /tmp/cceGb33M.s 			page 24


 1312              		.thumb
 1313              		.thumb_func
 1314              		.fpu softvfp
 1315              		.type	usb_lld_set_configuration, %function
 1316              	usb_lld_set_configuration:
 1317              	.LFB67:
 1318              		.loc 1 968 0
 1319              		.cfi_startproc
 1320              		@ args = 0, pretend = 0, frame = 0
 1321              		@ frame_needed = 0, uses_anonymous_args = 0
 1322              		@ link register save eliminated.
 1323              	.LVL139:
 1324              		.loc 1 969 0
 1325 0000 0170     		strb	r1, [r0]
 1326              		.loc 1 970 0
 1327 0002 7047     		bx	lr
 1328              		.cfi_endproc
 1329              	.LFE67:
 1330              		.size	usb_lld_set_configuration, .-usb_lld_set_configuration
 1331              		.section	.text.usb_lld_current_configuration,"ax",%progbits
 1332              		.align	1
 1333              		.global	usb_lld_current_configuration
 1334              		.syntax unified
 1335              		.thumb
 1336              		.thumb_func
 1337              		.fpu softvfp
 1338              		.type	usb_lld_current_configuration, %function
 1339              	usb_lld_current_configuration:
 1340              	.LFB68:
 1341              		.loc 1 973 0
 1342              		.cfi_startproc
 1343              		@ args = 0, pretend = 0, frame = 0
 1344              		@ frame_needed = 0, uses_anonymous_args = 0
 1345              		@ link register save eliminated.
 1346              	.LVL140:
 1347              		.loc 1 975 0
 1348 0000 0078     		ldrb	r0, [r0]	@ zero_extendqisi2
 1349              	.LVL141:
 1350 0002 7047     		bx	lr
 1351              		.cfi_endproc
 1352              	.LFE68:
 1353              		.size	usb_lld_current_configuration, .-usb_lld_current_configuration
 1354              		.section	.text.usb_lld_ctrl_recv,"ax",%progbits
 1355              		.align	1
 1356              		.global	usb_lld_ctrl_recv
 1357              		.syntax unified
 1358              		.thumb
 1359              		.thumb_func
 1360              		.fpu softvfp
 1361              		.type	usb_lld_ctrl_recv, %function
 1362              	usb_lld_ctrl_recv:
 1363              	.LFB69:
 1364              		.loc 1 978 0
 1365              		.cfi_startproc
 1366              		@ args = 0, pretend = 0, frame = 0
 1367              		@ frame_needed = 0, uses_anonymous_args = 0
 1368              	.LVL142:
ARM GAS  /tmp/cceGb33M.s 			page 25


 1369 0000 08B5     		push	{r3, lr}
 1370              		.cfi_def_cfa_offset 8
 1371              		.cfi_offset 3, -8
 1372              		.cfi_offset 14, -4
 1373              		.loc 1 982 0
 1374 0002 0223     		movs	r3, #2
 1375              		.loc 1 980 0
 1376 0004 C160     		str	r1, [r0, #12]
 1377              		.loc 1 981 0
 1378 0006 0282     		strh	r2, [r0, #16]	@ movhi
 1379              		.loc 1 982 0
 1380 0008 8370     		strb	r3, [r0, #2]
 1381              		.loc 1 983 0
 1382 000a 4FF44051 		mov	r1, #12288
 1383              	.LVL143:
 1384 000e 0020     		movs	r0, #0
 1385              	.LVL144:
 1386 0010 FFF7FEFF 		bl	st103_ep_set_rx_status
 1387              	.LVL145:
 1388              		.loc 1 985 0
 1389 0014 0020     		movs	r0, #0
 1390 0016 08BD     		pop	{r3, pc}
 1391              		.cfi_endproc
 1392              	.LFE69:
 1393              		.size	usb_lld_ctrl_recv, .-usb_lld_ctrl_recv
 1394              		.section	.text.usb_lld_to_pmabuf,"ax",%progbits
 1395              		.align	1
 1396              		.global	usb_lld_to_pmabuf
 1397              		.syntax unified
 1398              		.thumb
 1399              		.thumb_func
 1400              		.fpu softvfp
 1401              		.type	usb_lld_to_pmabuf, %function
 1402              	usb_lld_to_pmabuf:
 1403              	.LFB70:
 1404              		.loc 1 988 0
 1405              		.cfi_startproc
 1406              		@ args = 0, pretend = 0, frame = 0
 1407              		@ frame_needed = 0, uses_anonymous_args = 0
 1408              	.LVL146:
 1409 0000 30B5     		push	{r4, r5, lr}
 1410              		.cfi_def_cfa_offset 12
 1411              		.cfi_offset 4, -12
 1412              		.cfi_offset 5, -8
 1413              		.cfi_offset 14, -4
 1414              		.loc 1 993 0
 1415 0002 D2B1     		cbz	r2, .L118
 1416              	.LVL147:
 1417              	.LBB253:
 1418              	.LBB254:
 1419              		.loc 1 996 0
 1420 0004 CB07     		lsls	r3, r1, #31
 1421 0006 19D5     		bpl	.L121
 1422              		.loc 1 998 0
 1423 0008 4B00     		lsls	r3, r1, #1
 1424 000a 1449     		ldr	r1, .L129
 1425              	.LVL148:
ARM GAS  /tmp/cceGb33M.s 			page 26


 1426              		.loc 1 1000 0
 1427 000c 0478     		ldrb	r4, [r0]	@ zero_extendqisi2
 1428              		.loc 1 998 0
 1429 000e 1944     		add	r1, r1, r3
 1430              	.LVL149:
 1431              		.loc 1 1000 0
 1432 0010 0B78     		ldrb	r3, [r1]	@ zero_extendqisi2
 1433              		.loc 1 1003 0
 1434 0012 013A     		subs	r2, r2, #1
 1435              	.LVL150:
 1436              		.loc 1 1000 0
 1437 0014 43EA0423 		orr	r3, r3, r4, lsl #8
 1438              	.LVL151:
 1439              		.loc 1 1001 0
 1440 0018 21F8043B 		strh	r3, [r1], #4	@ movhi
 1441              	.LVL152:
 1442              		.loc 1 1000 0
 1443 001c 0130     		adds	r0, r0, #1
 1444              	.LVL153:
 1445              	.L122:
 1446 001e 0023     		movs	r3, #0
 1447              	.LVL154:
 1448              	.L123:
 1449              		.loc 1 1008 0
 1450 0020 D41A     		subs	r4, r2, r3
 1451              	.LVL155:
 1452 0022 012C     		cmp	r4, #1
 1453 0024 10D8     		bhi	.L124
 1454              		.loc 1 1017 0
 1455 0026 6FF00104 		mvn	r4, #1
 1456              	.LVL156:
 1457 002a 5308     		lsrs	r3, r2, #1
 1458              	.LVL157:
 1459 002c 04FB0322 		mla	r2, r4, r3, r2
 1460 0030 1AB1     		cbz	r2, .L118
 1461              	.LVL158:
 1462              		.loc 1 1019 0
 1463 0032 10F81320 		ldrb	r2, [r0, r3, lsl #1]	@ zero_extendqisi2
 1464 0036 21F82320 		strh	r2, [r1, r3, lsl #2]	@ movhi
 1465              	.LVL159:
 1466              	.L118:
 1467              	.LBE254:
 1468              	.LBE253:
 1469              		.loc 1 1022 0
 1470 003a 30BD     		pop	{r4, r5, pc}
 1471              	.LVL160:
 1472              	.L121:
 1473              	.LBB256:
 1474              	.LBB255:
 1475              		.loc 1 1006 0
 1476 003c 4900     		lsls	r1, r1, #1
 1477              	.LVL161:
 1478 003e 01F18041 		add	r1, r1, #1073741824
 1479 0042 01F5C041 		add	r1, r1, #24576
 1480              	.LVL162:
 1481 0046 EAE7     		b	.L122
 1482              	.LVL163:
ARM GAS  /tmp/cceGb33M.s 			page 27


 1483              	.L124:
 1484              		.loc 1 1011 0
 1485 0048 C418     		adds	r4, r0, r3
 1486              	.LVL164:
 1487 004a 6578     		ldrb	r5, [r4, #1]	@ zero_extendqisi2
 1488 004c C45C     		ldrb	r4, [r0, r3]	@ zero_extendqisi2
 1489              	.LVL165:
 1490 004e 44EA0524 		orr	r4, r4, r5, lsl #8
 1491              		.loc 1 1012 0
 1492 0052 21F81340 		strh	r4, [r1, r3, lsl #1]	@ movhi
 1493              	.LVL166:
 1494 0056 0233     		adds	r3, r3, #2
 1495              	.LVL167:
 1496 0058 E2E7     		b	.L123
 1497              	.L130:
 1498 005a 00BF     		.align	2
 1499              	.L129:
 1500 005c FE5F0040 		.word	1073766398
 1501              	.LBE255:
 1502              	.LBE256:
 1503              		.cfi_endproc
 1504              	.LFE70:
 1505              		.size	usb_lld_to_pmabuf, .-usb_lld_to_pmabuf
 1506              		.section	.text.usb_lld_txcpy,"ax",%progbits
 1507              		.align	1
 1508              		.global	usb_lld_txcpy
 1509              		.syntax unified
 1510              		.thumb
 1511              		.thumb_func
 1512              		.fpu softvfp
 1513              		.type	usb_lld_txcpy, %function
 1514              	usb_lld_txcpy:
 1515              	.LFB59:
 1516              		.loc 1 887 0
 1517              		.cfi_startproc
 1518              		@ args = 0, pretend = 0, frame = 0
 1519              		@ frame_needed = 0, uses_anonymous_args = 0
 1520              		@ link register save eliminated.
 1521              	.LVL168:
 1522              	.LBB257:
 1523              	.LBB258:
 1524              		.loc 1 167 0
 1525 0000 C9B2     		uxtb	r1, r1
 1526              	.LVL169:
 1527              		.loc 1 169 0
 1528 0002 0901     		lsls	r1, r1, #4
 1529 0004 01F18041 		add	r1, r1, #1073741824
 1530 0008 01F5C041 		add	r1, r1, #24576
 1531              	.LBE258:
 1532              	.LBE257:
 1533              		.loc 1 888 0
 1534 000c 0988     		ldrh	r1, [r1]
 1535 000e 1144     		add	r1, r1, r2
 1536 0010 89B2     		uxth	r1, r1
 1537 0012 1A46     		mov	r2, r3
 1538              	.LVL170:
 1539 0014 FFF7FEBF 		b	usb_lld_to_pmabuf
ARM GAS  /tmp/cceGb33M.s 			page 28


 1540              	.LVL171:
 1541              		.cfi_endproc
 1542              	.LFE59:
 1543              		.size	usb_lld_txcpy, .-usb_lld_txcpy
 1544              		.section	.text.usb_lld_write,"ax",%progbits
 1545              		.align	1
 1546              		.global	usb_lld_write
 1547              		.syntax unified
 1548              		.thumb
 1549              		.thumb_func
 1550              		.fpu softvfp
 1551              		.type	usb_lld_write, %function
 1552              	usb_lld_write:
 1553              	.LFB60:
 1554              		.loc 1 892 0
 1555              		.cfi_startproc
 1556              		@ args = 0, pretend = 0, frame = 0
 1557              		@ frame_needed = 0, uses_anonymous_args = 0
 1558              	.LVL172:
 1559 0000 38B5     		push	{r3, r4, r5, lr}
 1560              		.cfi_def_cfa_offset 16
 1561              		.cfi_offset 3, -16
 1562              		.cfi_offset 4, -12
 1563              		.cfi_offset 5, -8
 1564              		.cfi_offset 14, -4
 1565              		.loc 1 892 0
 1566 0002 0446     		mov	r4, r0
 1567 0004 1546     		mov	r5, r2
 1568              	.LBB263:
 1569              	.LBB264:
 1570              		.loc 1 169 0
 1571 0006 2301     		lsls	r3, r4, #4
 1572 0008 03F18043 		add	r3, r3, #1073741824
 1573 000c 03F5C043 		add	r3, r3, #24576
 1574              	.LBE264:
 1575              	.LBE263:
 1576              		.loc 1 892 0
 1577 0010 0846     		mov	r0, r1
 1578              	.LVL173:
 1579              		.loc 1 893 0
 1580 0012 1988     		ldrh	r1, [r3]
 1581              	.LVL174:
 1582 0014 FFF7FEFF 		bl	usb_lld_to_pmabuf
 1583              	.LVL175:
 1584              	.LBB265:
 1585              	.LBB266:
 1586              		.loc 1 177 0
 1587 0018 044B     		ldr	r3, .L133
 1588              		.loc 1 175 0
 1589 001a 2201     		lsls	r2, r4, #4
 1590              	.LBE266:
 1591              	.LBE265:
 1592              		.loc 1 894 0
 1593 001c 9D52     		strh	r5, [r3, r2]	@ movhi
 1594              	.LVL176:
 1595              		.loc 1 895 0
 1596 001e 2046     		mov	r0, r4
ARM GAS  /tmp/cceGb33M.s 			page 29


 1597              		.loc 1 896 0
 1598 0020 BDE83840 		pop	{r3, r4, r5, lr}
 1599              		.cfi_restore 14
 1600              		.cfi_restore 5
 1601              		.cfi_restore 4
 1602              		.cfi_restore 3
 1603              		.cfi_def_cfa_offset 0
 1604              	.LVL177:
 1605              		.loc 1 895 0
 1606 0024 3021     		movs	r1, #48
 1607 0026 FFF7FEBF 		b	st103_ep_set_tx_status
 1608              	.LVL178:
 1609              	.L134:
 1610 002a 00BF     		.align	2
 1611              	.L133:
 1612 002c 04600040 		.word	1073766404
 1613              		.cfi_endproc
 1614              	.LFE60:
 1615              		.size	usb_lld_write, .-usb_lld_write
 1616              		.section	.text.usb_lld_from_pmabuf,"ax",%progbits
 1617              		.align	1
 1618              		.global	usb_lld_from_pmabuf
 1619              		.syntax unified
 1620              		.thumb
 1621              		.thumb_func
 1622              		.fpu softvfp
 1623              		.type	usb_lld_from_pmabuf, %function
 1624              	usb_lld_from_pmabuf:
 1625              	.LFB71:
 1626              		.loc 1 1025 0
 1627              		.cfi_startproc
 1628              		@ args = 0, pretend = 0, frame = 0
 1629              		@ frame_needed = 0, uses_anonymous_args = 0
 1630              	.LVL179:
 1631 0000 30B5     		push	{r4, r5, lr}
 1632              		.cfi_def_cfa_offset 12
 1633              		.cfi_offset 4, -12
 1634              		.cfi_offset 5, -8
 1635              		.cfi_offset 14, -4
 1636              		.loc 1 1030 0
 1637 0002 DAB1     		cbz	r2, .L135
 1638              	.LVL180:
 1639              	.LBB269:
 1640              	.LBB270:
 1641              		.loc 1 1033 0
 1642 0004 11F0010F 		tst	r1, #1
 1643              		.loc 1 1035 0
 1644 0008 4FEA4101 		lsl	r1, r1, #1
 1645              	.LVL181:
 1646              		.loc 1 1033 0
 1647 000c 17D0     		beq	.L138
 1648              	.LVL182:
 1649              		.loc 1 1037 0
 1650 000e 124B     		ldr	r3, .L146
 1651              		.loc 1 1039 0
 1652 0010 013A     		subs	r2, r2, #1
 1653              	.LVL183:
ARM GAS  /tmp/cceGb33M.s 			page 30


 1654              		.loc 1 1037 0
 1655 0012 0B44     		add	r3, r3, r1
 1656              	.LVL184:
 1657 0014 33F8041B 		ldrh	r1, [r3], #4
 1658              	.LVL185:
 1659 0018 0130     		adds	r0, r0, #1
 1660              	.LVL186:
 1661 001a 090A     		lsrs	r1, r1, #8
 1662 001c 00F8011C 		strb	r1, [r0, #-1]
 1663              	.LVL187:
 1664              	.L139:
 1665 0020 0021     		movs	r1, #0
 1666              	.LVL188:
 1667              	.L140:
 1668              		.loc 1 1044 0
 1669 0022 541A     		subs	r4, r2, r1
 1670              	.LVL189:
 1671 0024 012C     		cmp	r4, #1
 1672 0026 0FD8     		bhi	.L141
 1673              		.loc 1 1053 0
 1674 0028 6FF00104 		mvn	r4, #1
 1675              	.LVL190:
 1676 002c 5108     		lsrs	r1, r2, #1
 1677              	.LVL191:
 1678 002e 04FB0122 		mla	r2, r4, r1, r2
 1679 0032 1AB1     		cbz	r2, .L135
 1680              	.LVL192:
 1681              		.loc 1 1056 0
 1682 0034 33F82130 		ldrh	r3, [r3, r1, lsl #2]
 1683              	.LVL193:
 1684 0038 00F81130 		strb	r3, [r0, r1, lsl #1]
 1685              	.LVL194:
 1686              	.L135:
 1687              	.LBE270:
 1688              	.LBE269:
 1689              		.loc 1 1058 0
 1690 003c 30BD     		pop	{r4, r5, pc}
 1691              	.LVL195:
 1692              	.L138:
 1693              	.LBB272:
 1694              	.LBB271:
 1695              		.loc 1 1042 0
 1696 003e 01F18043 		add	r3, r1, #1073741824
 1697 0042 03F5C043 		add	r3, r3, #24576
 1698              	.LVL196:
 1699 0046 EBE7     		b	.L139
 1700              	.LVL197:
 1701              	.L141:
 1702              		.loc 1 1046 0
 1703 0048 33F81140 		ldrh	r4, [r3, r1, lsl #1]
 1704              	.LVL198:
 1705              		.loc 1 1048 0
 1706 004c 4518     		adds	r5, r0, r1
 1707              		.loc 1 1047 0
 1708 004e 4454     		strb	r4, [r0, r1]
 1709              	.LVL199:
 1710              		.loc 1 1048 0
ARM GAS  /tmp/cceGb33M.s 			page 31


 1711 0050 240A     		lsrs	r4, r4, #8
 1712              	.LVL200:
 1713 0052 6C70     		strb	r4, [r5, #1]
 1714              	.LVL201:
 1715 0054 0231     		adds	r1, r1, #2
 1716              	.LVL202:
 1717 0056 E4E7     		b	.L140
 1718              	.L147:
 1719              		.align	2
 1720              	.L146:
 1721 0058 FE5F0040 		.word	1073766398
 1722              	.LBE271:
 1723              	.LBE272:
 1724              		.cfi_endproc
 1725              	.LFE71:
 1726              		.size	usb_lld_from_pmabuf, .-usb_lld_from_pmabuf
 1727              		.section	.text.usb_lld_event_handler,"ax",%progbits
 1728              		.align	1
 1729              		.global	usb_lld_event_handler
 1730              		.syntax unified
 1731              		.thumb
 1732              		.thumb_func
 1733              		.fpu softvfp
 1734              		.type	usb_lld_event_handler, %function
 1735              	usb_lld_event_handler:
 1736              	.LFB41:
 1737              		.loc 1 362 0
 1738              		.cfi_startproc
 1739              		@ args = 0, pretend = 0, frame = 0
 1740              		@ frame_needed = 0, uses_anonymous_args = 0
 1741              	.LVL203:
 1742              	.LBB342:
 1743              	.LBB343:
 1744              		.loc 1 126 0
 1745 0000 884B     		ldr	r3, .L194
 1746              	.LBE343:
 1747              	.LBE342:
 1748              		.loc 1 362 0
 1749 0002 70B5     		push	{r4, r5, r6, lr}
 1750              		.cfi_def_cfa_offset 16
 1751              		.cfi_offset 4, -16
 1752              		.cfi_offset 5, -12
 1753              		.cfi_offset 6, -8
 1754              		.cfi_offset 14, -4
 1755              		.loc 1 362 0
 1756 0004 0446     		mov	r4, r0
 1757              	.LBB345:
 1758              	.LBB344:
 1759              		.loc 1 126 0
 1760 0006 1888     		ldrh	r0, [r3]
 1761              	.LVL204:
 1762 0008 1A46     		mov	r2, r3
 1763 000a 80B2     		uxth	r0, r0
 1764              	.LBE344:
 1765              	.LBE345:
 1766              		.loc 1 365 0
 1767 000c 10F4806F 		tst	r0, #1024
ARM GAS  /tmp/cceGb33M.s 			page 32


 1768 0010 05D0     		beq	.L149
 1769              	.LVL205:
 1770              	.LBB346:
 1771              	.LBB347:
 1772              		.loc 1 131 0
 1773 0012 4FF6FF32 		movw	r2, #64511
 1774              	.LBE347:
 1775              	.LBE346:
 1776              		.loc 1 368 0
 1777 0016 4FF08070 		mov	r0, #16777216
 1778              	.LBB349:
 1779              	.LBB348:
 1780              		.loc 1 131 0
 1781 001a 1A80     		strh	r2, [r3]	@ movhi
 1782              	.LVL206:
 1783              	.L148:
 1784              	.LBE348:
 1785              	.LBE349:
 1786              		.loc 1 383 0
 1787 001c 70BD     		pop	{r4, r5, r6, pc}
 1788              	.LVL207:
 1789              	.L149:
 1790              		.loc 1 372 0
 1791 001e 4504     		lsls	r5, r0, #17
 1792              	.LVL208:
 1793              	.LBB350:
 1794              	.LBB351:
 1795              		.loc 1 131 0
 1796 0020 44BF     		itt	mi
 1797 0022 4BF6FF73 		movwmi	r3, #49151
 1798 0026 1380     		strhmi	r3, [r2]	@ movhi
 1799              	.LBE351:
 1800              	.LBE350:
 1801              		.loc 1 375 0
 1802 0028 8104     		lsls	r1, r0, #18
 1803              	.LVL209:
 1804              	.LBB352:
 1805              	.LBB353:
 1806              		.loc 1 131 0
 1807 002a 44BF     		itt	mi
 1808 002c 4DF6FF73 		movwmi	r3, #57343
 1809 0030 1380     		strhmi	r3, [r2]	@ movhi
 1810              	.LBE353:
 1811              	.LBE352:
 1812              		.loc 1 378 0
 1813 0032 0304     		lsls	r3, r0, #16
 1814 0034 40F1BE80 		bpl	.L170
 1815              	.LVL210:
 1816              	.LBB354:
 1817              	.LBB355:
 1818              		.loc 1 830 0
 1819 0038 00F00F05 		and	r5, r0, #15
 1820              	.LVL211:
 1821              	.LBB356:
 1822              	.LBB357:
 1823              		.loc 1 153 0
 1824 003c AA00     		lsls	r2, r5, #2
ARM GAS  /tmp/cceGb33M.s 			page 33


 1825 003e 02F18042 		add	r2, r2, #1073741824
 1826 0042 02F5B842 		add	r2, r2, #23552
 1827              	.LVL212:
 1828              		.loc 1 155 0
 1829 0046 1388     		ldrh	r3, [r2]
 1830              	.LVL213:
 1831              	.LBE357:
 1832              	.LBE356:
 1833              		.loc 1 834 0
 1834 0048 002D     		cmp	r5, #0
 1835 004a 40F0C980 		bne	.L153
 1836              		.loc 1 836 0
 1837 004e 13F08000 		ands	r0, r3, #128
 1838              	.LVL214:
 1839 0052 54D0     		beq	.L154
 1840              	.LVL215:
 1841              	.LBB358:
 1842              	.LBB359:
 1843              	.LBB360:
 1844              	.LBB361:
 1845              		.loc 1 148 0
 1846 0054 744A     		ldr	r2, .L194+4
 1847              	.LVL216:
 1848              	.LBE361:
 1849              	.LBE360:
 1850              		.loc 1 233 0
 1851 0056 1388     		ldrh	r3, [r2]
 1852 0058 23F4E143 		bic	r3, r3, #28800
 1853 005c 23F07003 		bic	r3, r3, #112
 1854              	.LBB363:
 1855              	.LBB362:
 1856              		.loc 1 148 0
 1857 0060 1380     		strh	r3, [r2]	@ movhi
 1858              	.LVL217:
 1859              	.LBE362:
 1860              	.LBE363:
 1861              	.LBE359:
 1862              	.LBE358:
 1863              	.LBB364:
 1864              	.LBB365:
 1865              		.loc 1 776 0
 1866 0062 A378     		ldrb	r3, [r4, #2]	@ zero_extendqisi2
 1867 0064 03F0FD02 		and	r2, r3, #253
 1868 0068 012A     		cmp	r2, #1
 1869 006a 2ED1     		bne	.L155
 1870              	.LVL218:
 1871              	.LBB366:
 1872              	.LBB367:
 1873              		.loc 1 417 0
 1874 006c 258A     		ldrh	r5, [r4, #16]
 1875              	.LVL219:
 1876 006e ADB9     		cbnz	r5, .L156
 1877 0070 032B     		cmp	r3, #3
 1878 0072 28D1     		bne	.L171
 1879              		.loc 1 419 0
 1880 0074 A27C     		ldrb	r2, [r4, #18]	@ zero_extendqisi2
 1881 0076 3AB1     		cbz	r2, .L158
ARM GAS  /tmp/cceGb33M.s 			page 34


 1882              		.loc 1 421 0
 1883 0078 A574     		strb	r5, [r4, #18]
 1884              	.LVL220:
 1885              	.L192:
 1886              	.LBB368:
 1887              	.LBB369:
 1888              		.loc 1 177 0
 1889 007a 6C4B     		ldr	r3, .L194+8
 1890              	.LBE369:
 1891              	.LBE368:
 1892              		.loc 1 446 0
 1893 007c 3021     		movs	r1, #48
 1894              	.LBB371:
 1895              	.LBB370:
 1896              		.loc 1 177 0
 1897 007e 1D80     		strh	r5, [r3]	@ movhi
 1898              	.LVL221:
 1899              	.LBE370:
 1900              	.LBE371:
 1901              		.loc 1 446 0
 1902 0080 0020     		movs	r0, #0
 1903 0082 FFF7FEFF 		bl	st103_ep_set_tx_status
 1904              	.LVL222:
 1905 0086 06E0     		b	.L193
 1906              	.LVL223:
 1907              	.L158:
 1908              		.loc 1 430 0
 1909 0088 0523     		movs	r3, #5
 1910              		.loc 1 431 0
 1911 008a 4FF44051 		mov	r1, #12288
 1912              		.loc 1 430 0
 1913 008e A370     		strb	r3, [r4, #2]
 1914              		.loc 1 431 0
 1915 0090 1046     		mov	r0, r2
 1916 0092 FFF7FEFF 		bl	st103_ep_set_rx_status
 1917              	.LVL224:
 1918              	.L193:
 1919              	.LBE367:
 1920              	.LBE366:
 1921              		.loc 1 774 0
 1922 0096 0020     		movs	r0, #0
 1923              	.L163:
 1924              	.LBE365:
 1925              	.LBE364:
 1926              		.loc 1 847 0
 1927 0098 0006     		lsls	r0, r0, #24
 1928 009a BFE7     		b	.L148
 1929              	.LVL225:
 1930              	.L156:
 1931              	.LBB377:
 1932              	.LBB376:
 1933              	.LBB373:
 1934              	.LBB372:
 1935              		.loc 1 437 0
 1936 009c 402D     		cmp	r5, #64
 1937 009e 8CBF     		ite	hi
 1938 00a0 0123     		movhi	r3, #1
ARM GAS  /tmp/cceGb33M.s 			page 35


 1939 00a2 0323     		movls	r3, #3
 1940              	.L157:
 1941              		.loc 1 439 0
 1942 00a4 402D     		cmp	r5, #64
 1943 00a6 28BF     		it	cs
 1944 00a8 4025     		movcs	r5, #64
 1945              	.LVL226:
 1946              		.loc 1 437 0
 1947 00aa A370     		strb	r3, [r4, #2]
 1948              		.loc 1 442 0
 1949 00ac 604B     		ldr	r3, .L194+12
 1950 00ae 2A46     		mov	r2, r5
 1951 00b0 1988     		ldrh	r1, [r3]
 1952 00b2 E068     		ldr	r0, [r4, #12]
 1953 00b4 FFF7FEFF 		bl	usb_lld_to_pmabuf
 1954              	.LVL227:
 1955              		.loc 1 443 0
 1956 00b8 238A     		ldrh	r3, [r4, #16]
 1957 00ba 5B1B     		subs	r3, r3, r5
 1958 00bc 2382     		strh	r3, [r4, #16]	@ movhi
 1959              		.loc 1 444 0
 1960 00be E368     		ldr	r3, [r4, #12]
 1961 00c0 2B44     		add	r3, r3, r5
 1962 00c2 E360     		str	r3, [r4, #12]
 1963 00c4 D9E7     		b	.L192
 1964              	.LVL228:
 1965              	.L171:
 1966              		.loc 1 437 0
 1967 00c6 0323     		movs	r3, #3
 1968 00c8 ECE7     		b	.L157
 1969              	.LVL229:
 1970              	.L155:
 1971              	.LBE372:
 1972              	.LBE373:
 1973              		.loc 1 778 0
 1974 00ca 042B     		cmp	r3, #4
 1975 00cc 0DD1     		bne	.L161
 1976              		.loc 1 782 0
 1977 00ce 6379     		ldrb	r3, [r4, #5]	@ zero_extendqisi2
 1978              		.loc 1 780 0
 1979 00d0 A570     		strb	r5, [r4, #2]
 1980              		.loc 1 782 0
 1981 00d2 052B     		cmp	r3, #5
 1982 00d4 11D1     		bne	.L175
 1983 00d6 2379     		ldrb	r3, [r4, #4]	@ zero_extendqisi2
 1984 00d8 5E06     		lsls	r6, r3, #25
 1985 00da 0ED1     		bne	.L175
 1986              	.LVL230:
 1987              	.LBB374:
 1988              	.LBB375:
 1989              		.loc 1 141 0
 1990 00dc E388     		ldrh	r3, [r4, #6]
 1991 00de 554A     		ldr	r2, .L194+16
 1992 00e0 43F08003 		orr	r3, r3, #128
 1993 00e4 1380     		strh	r3, [r2]	@ movhi
 1994              	.LVL231:
 1995              	.LBE375:
ARM GAS  /tmp/cceGb33M.s 			page 36


 1996              	.LBE374:
 1997              		.loc 1 787 0
 1998 00e6 0E20     		movs	r0, #14
 1999 00e8 D6E7     		b	.L163
 2000              	.LVL232:
 2001              	.L161:
 2002              		.loc 1 794 0
 2003 00ea 0623     		movs	r3, #6
 2004              		.loc 1 795 0
 2005 00ec 1021     		movs	r1, #16
 2006              		.loc 1 794 0
 2007 00ee A370     		strb	r3, [r4, #2]
 2008              		.loc 1 795 0
 2009 00f0 4FF48050 		mov	r0, #4096
 2010 00f4 FFF7FEFF 		bl	st103_ep_set_rxtx_status.constprop.4
 2011              	.LVL233:
 2012 00f8 CDE7     		b	.L193
 2013              	.L175:
 2014              		.loc 1 790 0
 2015 00fa 0D20     		movs	r0, #13
 2016              	.LVL234:
 2017 00fc CCE7     		b	.L163
 2018              	.L154:
 2019              	.LBE376:
 2020              	.LBE377:
 2021              		.loc 1 842 0
 2022 00fe 1D04     		lsls	r5, r3, #16
 2023              	.LVL235:
 2024 0100 8CD5     		bpl	.L148
 2025              	.LVL236:
 2026              	.LBB378:
 2027              	.LBB379:
 2028              	.LBB380:
 2029              	.LBB381:
 2030              		.loc 1 148 0
 2031 0102 4949     		ldr	r1, .L194+4
 2032              	.LVL237:
 2033              	.LBE381:
 2034              	.LBE380:
 2035              	.LBE379:
 2036              	.LBE378:
 2037              		.loc 1 846 0
 2038 0104 13F40065 		ands	r5, r3, #2048
 2039              	.LBB385:
 2040              	.LBB384:
 2041              		.loc 1 226 0
 2042 0108 0A88     		ldrh	r2, [r1]
 2043 010a 22F47042 		bic	r2, r2, #61440
 2044 010e 22F07002 		bic	r2, r2, #112
 2045              	.LBB383:
 2046              	.LBB382:
 2047              		.loc 1 148 0
 2048 0112 0A80     		strh	r2, [r1]	@ movhi
 2049              	.LVL238:
 2050              	.LBE382:
 2051              	.LBE383:
 2052              	.LBE384:
ARM GAS  /tmp/cceGb33M.s 			page 37


 2053              	.LBE385:
 2054              		.loc 1 846 0
 2055 0114 28D0     		beq	.L162
 2056              	.LVL239:
 2057              	.LBB386:
 2058              	.LBB387:
 2059              	.LBB388:
 2060              	.LBB389:
 2061              		.loc 1 199 0
 2062 0116 484B     		ldr	r3, .L194+20
 2063              	.LBE389:
 2064              	.LBE388:
 2065              		.loc 1 726 0
 2066 0118 1B88     		ldrh	r3, [r3]
 2067 011a 5B00     		lsls	r3, r3, #1
 2068 011c 03F18043 		add	r3, r3, #1073741824
 2069 0120 03F5C043 		add	r3, r3, #24576
 2070              	.LVL240:
 2071              		.loc 1 727 0
 2072 0124 1A88     		ldrh	r2, [r3]
 2073              	.LVL241:
 2074              		.loc 1 729 0
 2075 0126 D5B2     		uxtb	r5, r2
 2076              		.loc 1 730 0
 2077 0128 120A     		lsrs	r2, r2, #8
 2078              	.LVL242:
 2079 012a D1B2     		uxtb	r1, r2
 2080              	.LVL243:
 2081              		.loc 1 729 0
 2082 012c 2571     		strb	r5, [r4, #4]
 2083              	.LVL244:
 2084              		.loc 1 730 0
 2085 012e 6171     		strb	r1, [r4, #5]
 2086              	.LVL245:
 2087              		.loc 1 732 0
 2088 0130 9E88     		ldrh	r6, [r3, #4]
 2089              		.loc 1 742 0
 2090 0132 15F0600F 		tst	r5, #96
 2091              		.loc 1 732 0
 2092 0136 E680     		strh	r6, [r4, #6]	@ movhi
 2093              	.LVL246:
 2094              		.loc 1 734 0
 2095 0138 1E89     		ldrh	r6, [r3, #8]
 2096 013a 2681     		strh	r6, [r4, #8]	@ movhi
 2097              	.LVL247:
 2098              		.loc 1 736 0
 2099 013c 9B89     		ldrh	r3, [r3, #12]
 2100              	.LVL248:
 2101              		.loc 1 738 0
 2102 013e E060     		str	r0, [r4, #12]
 2103              		.loc 1 736 0
 2104 0140 6381     		strh	r3, [r4, #10]	@ movhi
 2105              		.loc 1 739 0
 2106 0142 2082     		strh	r0, [r4, #16]	@ movhi
 2107              		.loc 1 740 0
 2108 0144 A074     		strb	r0, [r4, #18]
 2109              		.loc 1 742 0
ARM GAS  /tmp/cceGb33M.s 			page 38


 2110 0146 0DD1     		bne	.L177
 2111 0148 0B2A     		cmp	r2, #11
 2112 014a 96BF     		itet	ls
 2113 014c 3B4B     		ldrls	r3, .L194+24
 2114 014e 3C4B     		ldrhi	r3, .L194+28
 2115 0150 53F82130 		ldrls	r3, [r3, r1, lsl #2]
 2116              	.LVL249:
 2117              	.LBB390:
 2118              		.loc 1 760 0
 2119 0154 2046     		mov	r0, r4
 2120 0156 9847     		blx	r3
 2121              	.LVL250:
 2122 0158 0028     		cmp	r0, #0
 2123 015a 9DDA     		bge	.L163
 2124              		.loc 1 762 0
 2125 015c 2046     		mov	r0, r4
 2126              	.LVL251:
 2127 015e FFF7FEFF 		bl	usb_lld_ctrl_error
 2128              	.LVL252:
 2129 0162 98E7     		b	.L193
 2130              	.LVL253:
 2131              	.L177:
 2132              	.LBE390:
 2133              		.loc 1 769 0
 2134 0164 0C20     		movs	r0, #12
 2135 0166 97E7     		b	.L163
 2136              	.LVL254:
 2137              	.L162:
 2138              	.LBE387:
 2139              	.LBE386:
 2140              	.LBB391:
 2141              	.LBB392:
 2142              		.loc 1 803 0
 2143 0168 A378     		ldrb	r3, [r4, #2]	@ zero_extendqisi2
 2144 016a 022B     		cmp	r3, #2
 2145 016c 2CD1     		bne	.L165
 2146              	.LVL255:
 2147              	.LBB393:
 2148              	.LBB394:
 2149              		.loc 1 387 0
 2150 016e E068     		ldr	r0, [r4, #12]
 2151 0170 98B1     		cbz	r0, .L166
 2152 0172 238A     		ldrh	r3, [r4, #16]
 2153 0174 8BB1     		cbz	r3, .L166
 2154              	.LVL256:
 2155              	.LBB395:
 2156              	.LBB396:
 2157              	.LBB397:
 2158              		.loc 1 220 0
 2159 0176 334A     		ldr	r2, .L194+32
 2160              	.LVL257:
 2161 0178 1588     		ldrh	r5, [r2]
 2162 017a C5F30905 		ubfx	r5, r5, #0, #10
 2163 017e 9D42     		cmp	r5, r3
 2164 0180 28BF     		it	cs
 2165 0182 1D46     		movcs	r5, r3
 2166              	.LVL258:
ARM GAS  /tmp/cceGb33M.s 			page 39


 2167              	.LBE397:
 2168              	.LBE396:
 2169              		.loc 1 394 0
 2170 0184 2C4B     		ldr	r3, .L194+20
 2171 0186 2A46     		mov	r2, r5
 2172 0188 1988     		ldrh	r1, [r3]
 2173 018a FFF7FEFF 		bl	usb_lld_from_pmabuf
 2174              	.LVL259:
 2175              		.loc 1 395 0
 2176 018e 238A     		ldrh	r3, [r4, #16]
 2177 0190 5B1B     		subs	r3, r3, r5
 2178 0192 2382     		strh	r3, [r4, #16]	@ movhi
 2179              		.loc 1 396 0
 2180 0194 E368     		ldr	r3, [r4, #12]
 2181 0196 1D44     		add	r5, r5, r3
 2182              	.LVL260:
 2183 0198 E560     		str	r5, [r4, #12]
 2184              	.L166:
 2185              	.LBE395:
 2186              		.loc 1 399 0
 2187 019a 228A     		ldrh	r2, [r4, #16]
 2188 019c 62B9     		cbnz	r2, .L167
 2189              		.loc 1 401 0
 2190 019e 0423     		movs	r3, #4
 2191 01a0 A370     		strb	r3, [r4, #2]
 2192              	.LVL261:
 2193              	.LBB398:
 2194              	.LBB399:
 2195              		.loc 1 177 0
 2196 01a2 03F18043 		add	r3, r3, #1073741824
 2197 01a6 03F5C043 		add	r3, r3, #24576
 2198 01aa 1A80     		strh	r2, [r3]	@ movhi
 2199              	.LVL262:
 2200              	.LBE399:
 2201              	.LBE398:
 2202              		.loc 1 403 0
 2203 01ac 3021     		movs	r1, #48
 2204 01ae 1046     		mov	r0, r2
 2205 01b0 FFF7FEFF 		bl	st103_ep_set_tx_status
 2206              	.LVL263:
 2207              	.L170:
 2208              	.LBE394:
 2209              	.LBE393:
 2210              	.LBE392:
 2211              	.LBE391:
 2212              	.LBE355:
 2213              	.LBE354:
 2214              		.loc 1 382 0
 2215 01b4 0020     		movs	r0, #0
 2216 01b6 31E7     		b	.L148
 2217              	.LVL264:
 2218              	.L167:
 2219              	.LBB428:
 2220              	.LBB427:
 2221              	.LBB403:
 2222              	.LBB402:
 2223              	.LBB401:
ARM GAS  /tmp/cceGb33M.s 			page 40


 2224              	.LBB400:
 2225              		.loc 1 407 0
 2226 01b8 0223     		movs	r3, #2
 2227              		.loc 1 408 0
 2228 01ba 4FF44051 		mov	r1, #12288
 2229              		.loc 1 407 0
 2230 01be A370     		strb	r3, [r4, #2]
 2231              		.loc 1 408 0
 2232 01c0 0020     		movs	r0, #0
 2233 01c2 FFF7FEFF 		bl	st103_ep_set_rx_status
 2234              	.LVL265:
 2235 01c6 F5E7     		b	.L170
 2236              	.LVL266:
 2237              	.L165:
 2238              	.LBE400:
 2239              	.LBE401:
 2240              		.loc 1 806 0
 2241 01c8 052B     		cmp	r3, #5
 2242 01ca 01D1     		bne	.L168
 2243              		.loc 1 811 0
 2244 01cc A570     		strb	r5, [r4, #2]
 2245 01ce F1E7     		b	.L170
 2246              	.L168:
 2247              		.loc 1 820 0
 2248 01d0 0623     		movs	r3, #6
 2249              		.loc 1 821 0
 2250 01d2 1021     		movs	r1, #16
 2251              		.loc 1 820 0
 2252 01d4 A370     		strb	r3, [r4, #2]
 2253              		.loc 1 821 0
 2254 01d6 4FF48050 		mov	r0, #4096
 2255 01da FFF7FEFF 		bl	st103_ep_set_rxtx_status.constprop.4
 2256              	.LVL267:
 2257 01de E9E7     		b	.L170
 2258              	.LVL268:
 2259              	.L153:
 2260              	.LBE402:
 2261              	.LBE403:
 2262              	.LBB404:
 2263              		.loc 1 859 0
 2264 01e0 1904     		lsls	r1, r3, #16
 2265 01e2 0CD5     		bpl	.L169
 2266              	.LVL269:
 2267              	.LBB405:
 2268              	.LBB406:
 2269              		.loc 1 220 0
 2270 01e4 1749     		ldr	r1, .L194+32
 2271              		.loc 1 218 0
 2272 01e6 2801     		lsls	r0, r5, #4
 2273              	.LVL270:
 2274              		.loc 1 220 0
 2275 01e8 085A     		ldrh	r0, [r1, r0]
 2276              	.LBE406:
 2277              	.LBE405:
 2278              	.LBB408:
 2279              	.LBB409:
 2280              		.loc 1 226 0
ARM GAS  /tmp/cceGb33M.s 			page 41


 2281 01ea 23F47043 		bic	r3, r3, #61440
 2282              	.LBE409:
 2283              	.LBE408:
 2284              	.LBB413:
 2285              	.LBB407:
 2286              		.loc 1 220 0
 2287 01ee C0F30900 		ubfx	r0, r0, #0, #10
 2288              	.LVL271:
 2289              	.LBE407:
 2290              	.LBE413:
 2291              	.LBB414:
 2292              	.LBB412:
 2293              		.loc 1 226 0
 2294 01f2 23F07003 		bic	r3, r3, #112
 2295              	.LBB410:
 2296              	.LBB411:
 2297              		.loc 1 148 0
 2298 01f6 1380     		strh	r3, [r2]	@ movhi
 2299              	.LVL272:
 2300              	.LBE411:
 2301              	.LBE410:
 2302              	.LBE412:
 2303              	.LBE414:
 2304              		.loc 1 863 0
 2305 01f8 40EA0540 		orr	r0, r0, r5, lsl #16
 2306 01fc 0EE7     		b	.L148
 2307              	.LVL273:
 2308              	.L169:
 2309              		.loc 1 866 0
 2310 01fe 13F08000 		ands	r0, r3, #128
 2311              	.LVL274:
 2312 0202 3FF40BAF 		beq	.L148
 2313              	.LVL275:
 2314              	.LBB415:
 2315              	.LBB416:
 2316              		.loc 1 184 0
 2317 0206 0949     		ldr	r1, .L194+8
 2318              		.loc 1 182 0
 2319 0208 2801     		lsls	r0, r5, #4
 2320              		.loc 1 184 0
 2321 020a 085A     		ldrh	r0, [r1, r0]
 2322              	.LBE416:
 2323              	.LBE415:
 2324              	.LBB418:
 2325              	.LBB419:
 2326              		.loc 1 233 0
 2327 020c 23F4E143 		bic	r3, r3, #28800
 2328              	.LBE419:
 2329              	.LBE418:
 2330              	.LBB424:
 2331              	.LBB417:
 2332              		.loc 1 184 0
 2333 0210 C0F30900 		ubfx	r0, r0, #0, #10
 2334              	.LVL276:
 2335              	.LBE417:
 2336              	.LBE424:
 2337              	.LBB425:
ARM GAS  /tmp/cceGb33M.s 			page 42


 2338              	.LBB422:
 2339              		.loc 1 233 0
 2340 0214 23F07003 		bic	r3, r3, #112
 2341              	.LBE422:
 2342              	.LBE425:
 2343              		.loc 1 870 0
 2344 0218 40EA0540 		orr	r0, r0, r5, lsl #16
 2345              	.LBB426:
 2346              	.LBB423:
 2347              	.LBB420:
 2348              	.LBB421:
 2349              		.loc 1 148 0
 2350 021c 1380     		strh	r3, [r2]	@ movhi
 2351              	.LVL277:
 2352              	.LBE421:
 2353              	.LBE420:
 2354              	.LBE423:
 2355              	.LBE426:
 2356              		.loc 1 870 0
 2357 021e 40F40000 		orr	r0, r0, #8388608
 2358 0222 FBE6     		b	.L148
 2359              	.L195:
 2360              		.align	2
 2361              	.L194:
 2362 0224 445C0040 		.word	1073765444
 2363 0228 005C0040 		.word	1073765376
 2364 022c 04600040 		.word	1073766404
 2365 0230 00600040 		.word	1073766400
 2366 0234 4C5C0040 		.word	1073765452
 2367 0238 08600040 		.word	1073766408
 2368 023c 00000000 		.word	.LANCHOR0
 2369 0240 00000000 		.word	std_none
 2370 0244 0C600040 		.word	1073766412
 2371              	.LBE404:
 2372              	.LBE427:
 2373              	.LBE428:
 2374              		.cfi_endproc
 2375              	.LFE41:
 2376              		.size	usb_lld_event_handler, .-usb_lld_event_handler
 2377              		.section	.text.usb_lld_rxcpy,"ax",%progbits
 2378              		.align	1
 2379              		.global	usb_lld_rxcpy
 2380              		.syntax unified
 2381              		.thumb
 2382              		.thumb_func
 2383              		.fpu softvfp
 2384              		.type	usb_lld_rxcpy, %function
 2385              	usb_lld_rxcpy:
 2386              	.LFB61:
 2387              		.loc 1 900 0
 2388              		.cfi_startproc
 2389              		@ args = 0, pretend = 0, frame = 0
 2390              		@ frame_needed = 0, uses_anonymous_args = 0
 2391              		@ link register save eliminated.
 2392              	.LVL278:
 2393 0000 10B4     		push	{r4}
 2394              		.cfi_def_cfa_offset 4
ARM GAS  /tmp/cceGb33M.s 			page 43


 2395              		.cfi_offset 4, -4
 2396              	.LBB431:
 2397              	.LBB432:
 2398              		.loc 1 197 0
 2399 0002 C9B2     		uxtb	r1, r1
 2400              	.LVL279:
 2401              		.loc 1 199 0
 2402 0004 044C     		ldr	r4, .L197
 2403              		.loc 1 197 0
 2404 0006 0901     		lsls	r1, r1, #4
 2405              	.LBE432:
 2406              	.LBE431:
 2407              		.loc 1 901 0
 2408 0008 615A     		ldrh	r1, [r4, r1]
 2409              		.loc 1 902 0
 2410 000a 10BC     		pop	{r4}
 2411              		.cfi_restore 4
 2412              		.cfi_def_cfa_offset 0
 2413              		.loc 1 901 0
 2414 000c 1144     		add	r1, r1, r2
 2415 000e 89B2     		uxth	r1, r1
 2416 0010 1A46     		mov	r2, r3
 2417              	.LVL280:
 2418 0012 FFF7FEBF 		b	usb_lld_from_pmabuf
 2419              	.LVL281:
 2420              	.L198:
 2421 0016 00BF     		.align	2
 2422              	.L197:
 2423 0018 08600040 		.word	1073766408
 2424              		.cfi_endproc
 2425              	.LFE61:
 2426              		.size	usb_lld_rxcpy, .-usb_lld_rxcpy
 2427              		.section	.text.usb_lld_ctrl_send,"ax",%progbits
 2428              		.align	1
 2429              		.global	usb_lld_ctrl_send
 2430              		.syntax unified
 2431              		.thumb
 2432              		.thumb_func
 2433              		.fpu softvfp
 2434              		.type	usb_lld_ctrl_send, %function
 2435              	usb_lld_ctrl_send:
 2436              	.LFB72:
 2437              		.loc 1 1069 0
 2438              		.cfi_startproc
 2439              		@ args = 0, pretend = 0, frame = 0
 2440              		@ frame_needed = 0, uses_anonymous_args = 0
 2441              	.LVL282:
 2442 0000 38B5     		push	{r3, r4, r5, lr}
 2443              		.cfi_def_cfa_offset 16
 2444              		.cfi_offset 3, -16
 2445              		.cfi_offset 4, -12
 2446              		.cfi_offset 5, -8
 2447              		.cfi_offset 14, -4
 2448              		.loc 1 1069 0
 2449 0002 0546     		mov	r5, r0
 2450              	.LVL283:
 2451              		.loc 1 1071 0
ARM GAS  /tmp/cceGb33M.s 			page 44


 2452 0004 6B89     		ldrh	r3, [r5, #10]
 2453              	.LVL284:
 2454              		.loc 1 1075 0
 2455 0006 92B2     		uxth	r2, r2
 2456              	.LVL285:
 2457 0008 9A42     		cmp	r2, r3
 2458 000a 28BF     		it	cs
 2459 000c 1A46     		movcs	r2, r3
 2460              		.loc 1 1069 0
 2461 000e 0846     		mov	r0, r1
 2462              	.LVL286:
 2463              		.loc 1 1074 0
 2464 0010 E960     		str	r1, [r5, #12]
 2465              		.loc 1 1075 0
 2466 0012 2A82     		strh	r2, [r5, #16]	@ movhi
 2467              		.loc 1 1081 0
 2468 0014 1446     		mov	r4, r2
 2469 0016 5AB9     		cbnz	r2, .L202
 2470              	.LVL287:
 2471              	.L206:
 2472              		.loc 1 1087 0
 2473 0018 0323     		movs	r3, #3
 2474 001a AB70     		strb	r3, [r5, #2]
 2475              		.loc 1 1095 0
 2476 001c 8CB9     		cbnz	r4, .L208
 2477              	.LVL288:
 2478              	.L204:
 2479              	.LBB433:
 2480              	.LBB434:
 2481              		.loc 1 177 0
 2482 001e 114B     		ldr	r3, .L211
 2483              	.LBE434:
 2484              	.LBE433:
 2485              		.loc 1 1103 0
 2486 0020 3021     		movs	r1, #48
 2487              		.loc 1 1102 0
 2488 0022 1C80     		strh	r4, [r3]	@ movhi
 2489              	.LVL289:
 2490              		.loc 1 1103 0
 2491 0024 4FF40050 		mov	r0, #8192
 2492 0028 FFF7FEFF 		bl	st103_ep_set_rxtx_status.constprop.4
 2493              	.LVL290:
 2494              		.loc 1 1105 0
 2495 002c 0020     		movs	r0, #0
 2496 002e 38BD     		pop	{r3, r4, r5, pc}
 2497              	.LVL291:
 2498              	.L202:
 2499              		.loc 1 1081 0 discriminator 1
 2500 0030 9306     		lsls	r3, r2, #26
 2501              	.LVL292:
 2502 0032 12D1     		bne	.L205
 2503              		.loc 1 1082 0
 2504 0034 0123     		movs	r3, #1
 2505              		.loc 1 1084 0
 2506 0036 3F2A     		cmp	r2, #63
 2507              		.loc 1 1082 0
 2508 0038 AB74     		strb	r3, [r5, #18]
ARM GAS  /tmp/cceGb33M.s 			page 45


 2509              		.loc 1 1084 0
 2510 003a EDD9     		bls	.L206
 2511              	.L207:
 2512              	.LVL293:
 2513              		.loc 1 1092 0
 2514 003c 0123     		movs	r3, #1
 2515              		.loc 1 1091 0
 2516 003e 4024     		movs	r4, #64
 2517              		.loc 1 1092 0
 2518 0040 AB70     		strb	r3, [r5, #2]
 2519              	.LVL294:
 2520              	.L208:
 2521              		.loc 1 1097 0
 2522 0042 094B     		ldr	r3, .L211+4
 2523 0044 2246     		mov	r2, r4
 2524 0046 1988     		ldrh	r1, [r3]
 2525 0048 FFF7FEFF 		bl	usb_lld_to_pmabuf
 2526              	.LVL295:
 2527              		.loc 1 1098 0
 2528 004c 2B8A     		ldrh	r3, [r5, #16]
 2529 004e 1B1B     		subs	r3, r3, r4
 2530 0050 2B82     		strh	r3, [r5, #16]	@ movhi
 2531              		.loc 1 1099 0
 2532 0052 EB68     		ldr	r3, [r5, #12]
 2533 0054 2344     		add	r3, r3, r4
 2534 0056 EB60     		str	r3, [r5, #12]
 2535 0058 E1E7     		b	.L204
 2536              	.LVL296:
 2537              	.L205:
 2538              		.loc 1 1084 0
 2539 005a 3F2A     		cmp	r2, #63
 2540 005c EED8     		bhi	.L207
 2541              	.LVL297:
 2542              		.loc 1 1087 0
 2543 005e 0323     		movs	r3, #3
 2544 0060 AB70     		strb	r3, [r5, #2]
 2545 0062 EEE7     		b	.L208
 2546              	.L212:
 2547              		.align	2
 2548              	.L211:
 2549 0064 04600040 		.word	1073766404
 2550 0068 00600040 		.word	1073766400
 2551              		.cfi_endproc
 2552              	.LFE72:
 2553              		.size	usb_lld_ctrl_send, .-usb_lld_ctrl_send
 2554              		.section	.text.std_get_configuration,"ax",%progbits
 2555              		.align	1
 2556              		.syntax unified
 2557              		.thumb
 2558              		.thumb_func
 2559              		.fpu softvfp
 2560              		.type	std_get_configuration, %function
 2561              	std_get_configuration:
 2562              	.LFB50:
 2563              		.loc 1 652 0
 2564              		.cfi_startproc
 2565              		@ args = 0, pretend = 0, frame = 0
ARM GAS  /tmp/cceGb33M.s 			page 46


 2566              		@ frame_needed = 0, uses_anonymous_args = 0
 2567              		@ link register save eliminated.
 2568              	.LVL298:
 2569 0000 10B4     		push	{r4}
 2570              		.cfi_def_cfa_offset 4
 2571              		.cfi_offset 4, -4
 2572              		.loc 1 654 0
 2573 0002 0379     		ldrb	r3, [r0, #4]	@ zero_extendqisi2
 2574              		.loc 1 652 0
 2575 0004 0146     		mov	r1, r0
 2576              		.loc 1 654 0
 2577 0006 03F01F04 		and	r4, r3, #31
 2578              	.LVL299:
 2579              		.loc 1 656 0
 2580 000a 1B06     		lsls	r3, r3, #24
 2581 000c 0AD5     		bpl	.L213
 2582              		.loc 1 659 0
 2583 000e C388     		ldrh	r3, [r0, #6]
 2584 0010 43B9     		cbnz	r3, .L213
 2585              		.loc 1 659 0 is_stmt 0 discriminator 1
 2586 0012 0389     		ldrh	r3, [r0, #8]
 2587 0014 33B9     		cbnz	r3, .L213
 2588              		.loc 1 659 0 discriminator 2
 2589 0016 4289     		ldrh	r2, [r0, #10]
 2590 0018 012A     		cmp	r2, #1
 2591 001a 03D1     		bne	.L213
 2592              		.loc 1 662 0 is_stmt 1
 2593 001c 14B9     		cbnz	r4, .L213
 2594              		.loc 1 666 0
 2595 001e 10BC     		pop	{r4}
 2596              		.cfi_remember_state
 2597              		.cfi_restore 4
 2598              		.cfi_def_cfa_offset 0
 2599              	.LVL300:
 2600              		.loc 1 663 0
 2601 0020 FFF7FEBF 		b	usb_lld_ctrl_send
 2602              	.LVL301:
 2603              	.L213:
 2604              		.cfi_restore_state
 2605              		.loc 1 666 0
 2606 0024 4FF0FF30 		mov	r0, #-1
 2607              	.LVL302:
 2608 0028 10BC     		pop	{r4}
 2609              		.cfi_restore 4
 2610              		.cfi_def_cfa_offset 0
 2611              	.LVL303:
 2612 002a 7047     		bx	lr
 2613              		.cfi_endproc
 2614              	.LFE50:
 2615              		.size	std_get_configuration, .-std_get_configuration
 2616              		.section	.text.std_get_status,"ax",%progbits
 2617              		.align	1
 2618              		.syntax unified
 2619              		.thumb
 2620              		.thumb_func
 2621              		.fpu softvfp
 2622              		.type	std_get_status, %function
ARM GAS  /tmp/cceGb33M.s 			page 47


 2623              	std_get_status:
 2624              	.LFB45:
 2625              		.loc 1 458 0
 2626              		.cfi_startproc
 2627              		@ args = 0, pretend = 0, frame = 8
 2628              		@ frame_needed = 0, uses_anonymous_args = 0
 2629              	.LVL304:
 2630              		.loc 1 461 0
 2631 0000 0022     		movs	r2, #0
 2632              		.loc 1 458 0
 2633 0002 13B5     		push	{r0, r1, r4, lr}
 2634              		.cfi_def_cfa_offset 16
 2635              		.cfi_offset 4, -8
 2636              		.cfi_offset 14, -4
 2637              		.loc 1 460 0
 2638 0004 0479     		ldrb	r4, [r0, #4]	@ zero_extendqisi2
 2639              		.loc 1 461 0
 2640 0006 ADF80620 		strh	r2, [sp, #6]	@ movhi
 2641              		.loc 1 463 0
 2642 000a C288     		ldrh	r2, [r0, #6]
 2643              		.loc 1 460 0
 2644 000c 04F01F03 		and	r3, r4, #31
 2645              	.LVL305:
 2646              		.loc 1 463 0
 2647 0010 002A     		cmp	r2, #0
 2648 0012 47D1     		bne	.L240
 2649              		.loc 1 463 0 is_stmt 0 discriminator 1
 2650 0014 4189     		ldrh	r1, [r0, #10]
 2651 0016 0229     		cmp	r1, #2
 2652 0018 44D1     		bne	.L240
 2653              		.loc 1 463 0 discriminator 2
 2654 001a 0289     		ldrh	r2, [r0, #8]
 2655 001c 5FEA122C 		lsrs	ip, r2, #8
 2656 0020 40D1     		bne	.L240
 2657              		.loc 1 464 0 is_stmt 1
 2658 0022 2406     		lsls	r4, r4, #24
 2659 0024 3ED5     		bpl	.L240
 2660              		.loc 1 467 0
 2661 0026 B3B9     		cbnz	r3, .L222
 2662              		.loc 1 469 0
 2663 0028 002A     		cmp	r2, #0
 2664 002a 3BD1     		bne	.L240
 2665              	.LBB445:
 2666              		.loc 1 472 0
 2667 002c 4278     		ldrb	r2, [r0, #1]	@ zero_extendqisi2
 2668              	.LVL306:
 2669              		.loc 1 475 0
 2670 002e 9406     		lsls	r4, r2, #26
 2671              		.loc 1 476 0
 2672 0030 48BF     		it	mi
 2673 0032 ADF80610 		strhmi	r1, [sp, #6]	@ movhi
 2674 0036 BDF80630 		ldrh	r3, [sp, #6]
 2675              	.LVL307:
 2676              		.loc 1 481 0
 2677 003a 5106     		lsls	r1, r2, #25
 2678              		.loc 1 482 0
 2679 003c 4CBF     		ite	mi
ARM GAS  /tmp/cceGb33M.s 			page 48


 2680 003e 43F00103 		orrmi	r3, r3, #1
 2681              		.loc 1 484 0
 2682 0042 23F00103 		bicpl	r3, r3, #1
 2683              	.LVL308:
 2684              	.L247:
 2685 0046 ADF80630 		strh	r3, [sp, #6]	@ movhi
 2686              	.L228:
 2687              	.LBE445:
 2688              	.LBB446:
 2689              		.loc 1 521 0
 2690 004a 0222     		movs	r2, #2
 2691 004c 0DF10601 		add	r1, sp, #6
 2692 0050 FFF7FEFF 		bl	usb_lld_ctrl_send
 2693              	.LVL309:
 2694 0054 07E0     		b	.L220
 2695              	.LVL310:
 2696              	.L222:
 2697              	.LBE446:
 2698              		.loc 1 489 0
 2699 0056 012B     		cmp	r3, #1
 2700 0058 07D1     		bne	.L226
 2701              		.loc 1 491 0
 2702 005a 0378     		ldrb	r3, [r0]	@ zero_extendqisi2
 2703              	.LVL311:
 2704              		.loc 1 465 0
 2705 005c 002B     		cmp	r3, #0
 2706 005e 14BF     		ite	ne
 2707 0060 0920     		movne	r0, #9
 2708              	.LVL312:
 2709 0062 4FF0FF30 		moveq	r0, #-1
 2710              	.LVL313:
 2711              	.L220:
 2712              		.loc 1 525 0
 2713 0066 02B0     		add	sp, sp, #8
 2714              		.cfi_remember_state
 2715              		.cfi_def_cfa_offset 8
 2716              		@ sp needed
 2717 0068 10BD     		pop	{r4, pc}
 2718              	.LVL314:
 2719              	.L226:
 2720              		.cfi_restore_state
 2721              		.loc 1 496 0
 2722 006a 022B     		cmp	r3, #2
 2723 006c 1AD1     		bne	.L240
 2724              	.LBB447:
 2725              		.loc 1 501 0
 2726 006e 12F0700F 		tst	r2, #112
 2727              		.loc 1 498 0
 2728 0072 02F00F03 		and	r3, r2, #15
 2729              	.LVL315:
 2730              		.loc 1 501 0
 2731 0076 15D1     		bne	.L240
 2732              		.loc 1 501 0 is_stmt 0 discriminator 1
 2733 0078 A3B1     		cbz	r3, .L240
 2734 007a 9B00     		lsls	r3, r3, #2
 2735              	.LVL316:
 2736 007c 03F18043 		add	r3, r3, #1073741824
ARM GAS  /tmp/cceGb33M.s 			page 49


 2737 0080 03F5B843 		add	r3, r3, #23552
 2738              		.loc 1 504 0 is_stmt 1
 2739 0084 1206     		lsls	r2, r2, #24
 2740              	.LVL317:
 2741 0086 1B88     		ldrh	r3, [r3]
 2742 0088 06D5     		bpl	.L227
 2743              		.loc 1 507 0
 2744 008a 13F03003 		ands	r3, r3, #48
 2745 008e 09D0     		beq	.L240
 2746              		.loc 1 509 0
 2747 0090 102B     		cmp	r3, #16
 2748              	.L248:
 2749 0092 DAD1     		bne	.L228
 2750              		.loc 1 510 0
 2751 0094 0123     		movs	r3, #1
 2752 0096 D6E7     		b	.L247
 2753              	.L227:
 2754              		.loc 1 515 0
 2755 0098 13F44053 		ands	r3, r3, #12288
 2756 009c 02D0     		beq	.L240
 2757              		.loc 1 517 0
 2758 009e B3F5805F 		cmp	r3, #4096
 2759 00a2 F6E7     		b	.L248
 2760              	.LVL318:
 2761              	.L240:
 2762              	.LBE447:
 2763              		.loc 1 465 0
 2764 00a4 4FF0FF30 		mov	r0, #-1
 2765              	.LVL319:
 2766 00a8 DDE7     		b	.L220
 2767              		.cfi_endproc
 2768              	.LFE45:
 2769              		.size	std_get_status, .-std_get_status
 2770              		.section	.rodata.CSWTCH.59,"a",%progbits
 2771              		.align	2
 2772              		.set	.LANCHOR0,. + 0
 2773              		.type	CSWTCH.59, %object
 2774              		.size	CSWTCH.59, 48
 2775              	CSWTCH.59:
 2776 0000 00000000 		.word	std_get_status
 2777 0004 00000000 		.word	std_clear_feature
 2778 0008 00000000 		.word	std_none
 2779 000c 00000000 		.word	std_set_feature
 2780 0010 00000000 		.word	std_none
 2781 0014 00000000 		.word	std_set_address
 2782 0018 00000000 		.word	std_get_descriptor
 2783 001c 00000000 		.word	std_none
 2784 0020 00000000 		.word	std_get_configuration
 2785 0024 00000000 		.word	std_set_configuration
 2786 0028 00000000 		.word	std_get_interface
 2787 002c 00000000 		.word	std_set_interface
 2788              		.text
 2789              	.Letext0:
 2790              		.file 3 "/usr/arm-none-eabi/include/machine/_default_types.h"
 2791              		.file 4 "/usr/arm-none-eabi/include/sys/_stdint.h"
 2792              		.file 5 "/usr/lib/gcc/arm-none-eabi/7.3.1/include/stddef.h"
 2793              		.file 6 "/usr/arm-none-eabi/include/sys/lock.h"
ARM GAS  /tmp/cceGb33M.s 			page 50


 2794              		.file 7 "/usr/arm-none-eabi/include/sys/_types.h"
 2795              		.file 8 "/usr/arm-none-eabi/include/sys/reent.h"
 2796              		.file 9 "/usr/arm-none-eabi/include/stdlib.h"
 2797              		.file 10 "../chopstx/usb_lld.h"
 2798              		.file 11 "../chopstx/usb_lld_driver.h"