ARM GAS  /tmp/ccYBeXsn.s 			page 1


   1              		.cpu cortex-m3
   2              		.eabi_attribute 20, 1
   3              		.eabi_attribute 21, 1
   4              		.eabi_attribute 23, 3
   5              		.eabi_attribute 24, 1
   6              		.eabi_attribute 25, 1
   7              		.eabi_attribute 26, 1
   8              		.eabi_attribute 30, 4
   9              		.eabi_attribute 34, 1
  10              		.eabi_attribute 18, 4
  11              		.file	"usb-hid.c"
  12              		.text
  13              	.Ltext0:
  14              		.cfi_sections	.debug_frame
  15              		.section	.text.hid_setup_endpoints_for_interface.isra.2.part.3,"ax",%progbits
  16              		.align	1
  17              		.syntax unified
  18              		.thumb
  19              		.thumb_func
  20              		.fpu softvfp
  21              		.type	hid_setup_endpoints_for_interface.isra.2.part.3, %function
  22              	hid_setup_endpoints_for_interface.isra.2.part.3:
  23              	.LFB34:
  24              		.file 1 "usb-hid.c"
  25              		.loc 1 339 0
  26              		.cfi_startproc
  27              		@ args = 0, pretend = 0, frame = 0
  28              		@ frame_needed = 0, uses_anonymous_args = 0
  29              	.LVL0:
  30 0000 07B5     		push	{r0, r1, r2, lr}
  31              		.cfi_def_cfa_offset 16
  32              		.cfi_offset 14, -4
  33              		.loc 1 351 0
  34 0002 4FF48073 		mov	r3, #256
  35 0006 4022     		movs	r2, #64
  36 0008 4FF4C061 		mov	r1, #1536
  37 000c CDE90032 		strd	r3, r2, [sp]
  38 0010 0120     		movs	r0, #1
  39 0012 C023     		movs	r3, #192
  40 0014 0022     		movs	r2, #0
  41 0016 FFF7FEFF 		bl	usb_lld_setup_endpoint
  42              	.LVL1:
  43              		.loc 1 360 0
  44 001a 03B0     		add	sp, sp, #12
  45              		.cfi_def_cfa_offset 4
  46              		@ sp needed
  47 001c 5DF804FB 		ldr	pc, [sp], #4
  48              		.cfi_endproc
  49              	.LFE34:
  50              		.size	hid_setup_endpoints_for_interface.isra.2.part.3, .-hid_setup_endpoints_for_interface.isra.2.
  51              		.section	.text.hid_main,"ax",%progbits
  52              		.align	1
  53              		.syntax unified
  54              		.thumb
  55              		.thumb_func
  56              		.fpu softvfp
  57              		.type	hid_main, %function
ARM GAS  /tmp/ccYBeXsn.s 			page 2


  58              	hid_main:
  59              	.LFB27:
  60              		.loc 1 553 0
  61              		.cfi_startproc
  62              		@ args = 0, pretend = 0, frame = 32
  63              		@ frame_needed = 0, uses_anonymous_args = 0
  64              	.LVL2:
  65 0000 2DE9F04F 		push	{r4, r5, r6, r7, r8, r9, r10, fp, lr}
  66              		.cfi_def_cfa_offset 36
  67              		.cfi_offset 4, -36
  68              		.cfi_offset 5, -32
  69              		.cfi_offset 6, -28
  70              		.cfi_offset 7, -24
  71              		.cfi_offset 8, -20
  72              		.cfi_offset 9, -16
  73              		.cfi_offset 10, -12
  74              		.cfi_offset 11, -8
  75              		.cfi_offset 14, -4
  76 0004 0546     		mov	r5, r0
  77              	.LVL3:
  78 0006 8BB0     		sub	sp, sp, #44
  79              		.cfi_def_cfa_offset 80
  80              		.loc 1 559 0
  81 0008 9C22     		movs	r2, #156
  82 000a 0021     		movs	r1, #0
  83              		.loc 1 561 0
  84 000c 05F14806 		add	r6, r5, #72
  85              		.loc 1 559 0
  86 0010 FFF7FEFF 		bl	memset
  87              	.LVL4:
  88              		.loc 1 562 0
  89 0014 05F16407 		add	r7, r5, #100
  90              		.loc 1 561 0
  91 0018 3046     		mov	r0, r6
  92 001a FFF7FEFF 		bl	eventflag_init
  93              	.LVL5:
  94              		.loc 1 563 0
  95 001e 05F18008 		add	r8, r5, #128
  96              		.loc 1 562 0
  97 0022 3846     		mov	r0, r7
  98 0024 FFF7FEFF 		bl	eventflag_init
  99              	.LVL6:
 100              		.loc 1 563 0
 101 0028 4046     		mov	r0, r8
 102 002a FFF7FEFF 		bl	eventflag_init
 103              	.LVL7:
 104              		.loc 1 565 0
 105 002e 1421     		movs	r1, #20
 106 0030 8148     		ldr	r0, .L54
 107 0032 FFF7FEFF 		bl	chopstx_claim_irq
 108              	.LVL8:
 109              		.loc 1 566 0
 110 0036 8021     		movs	r1, #128
 111 0038 8048     		ldr	r0, .L54+4
 112 003a FFF7FEFF 		bl	usb_lld_init
 113              	.LVL9:
 114              	.LBB52:
ARM GAS  /tmp/ccYBeXsn.s 			page 3


 115              		.loc 1 572 0
 116 003e DFF824B2 		ldr	fp, .L54+44
 117              	.LBB53:
 118              	.LBB54:
 119              		.loc 1 540 0
 120 0042 DFF8F491 		ldr	r9, .L54
 121              	.LBE54:
 122              	.LBE53:
 123              	.LBB56:
 124              		.loc 1 590 0
 125 0046 7D4C     		ldr	r4, .L54+4
 126              	.L3:
 127              	.LBE56:
 128              	.LBB98:
 129              	.LBB55:
 130              		.loc 1 540 0
 131 0048 0DF1140A 		add	r10, sp, #20
 132              		.loc 1 545 0
 133 004c 5146     		mov	r1, r10
 134 004e 3046     		mov	r0, r6
 135              		.loc 1 540 0
 136 0050 CDE902B9 		strd	fp, r9, [sp, #8]
 137 0054 CDF810A0 		str	r10, [sp, #16]
 138              		.loc 1 545 0
 139 0058 FFF7FEFF 		bl	eventflag_prepare_poll
 140              	.LVL10:
 141              		.loc 1 546 0
 142 005c 03AA     		add	r2, sp, #12
 143 005e 0221     		movs	r1, #2
 144 0060 02A8     		add	r0, sp, #8
 145 0062 FFF7FEFF 		bl	chopstx_poll
 146              	.LVL11:
 147              	.LBE55:
 148              	.LBE98:
 149              		.loc 1 575 0
 150 0066 B9F80230 		ldrh	r3, [r9, #2]
 151 006a 6BB1     		cbz	r3, .L8
 152              	.LBB99:
 153              		.loc 1 590 0
 154 006c 2046     		mov	r0, r4
 155 006e FFF7FEFF 		bl	usb_lld_event_handler
 156              	.LVL12:
 157              		.loc 1 591 0
 158 0072 C0F30641 		ubfx	r1, r0, #16, #7
 159              	.LVL13:
 160              		.loc 1 593 0
 161 0076 51B3     		cbz	r1, .L6
 162              		.loc 1 595 0
 163 0078 10F40002 		ands	r2, r0, #8388608
 164 007c 17D0     		beq	.L7
 165              	.LVL14:
 166              	.LBB57:
 167              	.LBB58:
 168              		.loc 1 510 0
 169 007e 0129     		cmp	r1, #1
 170 0080 02D1     		bne	.L8
 171              		.loc 1 512 0
ARM GAS  /tmp/ccYBeXsn.s 			page 4


 172 0082 4046     		mov	r0, r8
 173              	.LVL15:
 174              	.L49:
 175              	.LBE58:
 176              	.LBE57:
 177              	.LBB59:
 178              	.LBB60:
 179              	.LBB61:
 180              	.LBB62:
 181              		.loc 1 477 0
 182 0084 FFF7FEFF 		bl	eventflag_signal
 183              	.LVL16:
 184              	.L8:
 185              	.LBE62:
 186              	.LBE61:
 187              	.LBE60:
 188              	.LBE59:
 189              	.LBE99:
 190              		.loc 1 666 0
 191 0088 3046     		mov	r0, r6
 192 008a FFF7FEFF 		bl	eventflag_get
 193              	.LVL17:
 194              		.loc 1 668 0
 195 008e 0128     		cmp	r0, #1
 196              		.loc 1 666 0
 197 0090 8246     		mov	r10, r0
 198              	.LVL18:
 199              		.loc 1 668 0
 200 0092 D9D1     		bne	.L3
 201              	.LVL19:
 202              	.LBB100:
 203              	.LBB101:
 204              	.LBB102:
 205              		.loc 1 491 0
 206 0094 0146     		mov	r1, r0
 207 0096 B5F84430 		ldrh	r3, [r5, #68]
 208 009a 2868     		ldr	r0, [r5]
 209              	.LVL20:
 210 009c 0022     		movs	r2, #0
 211 009e FFF7FEFF 		bl	usb_lld_txcpy
 212              	.LVL21:
 213              		.loc 1 492 0
 214 00a2 B5F84410 		ldrh	r1, [r5, #68]
 215 00a6 5046     		mov	r0, r10
 216 00a8 FFF7FEFF 		bl	usb_lld_tx_enable
 217              	.LVL22:
 218 00ac CCE7     		b	.L3
 219              	.LVL23:
 220              	.L7:
 221              	.LBE102:
 222              	.LBE101:
 223              	.LBE100:
 224              	.LBB103:
 225              	.LBB67:
 226              	.LBB65:
 227              		.loc 1 499 0
 228 00ae 0129     		cmp	r1, #1
ARM GAS  /tmp/ccYBeXsn.s 			page 5


 229 00b0 EAD1     		bne	.L8
 230              	.LBE65:
 231              	.LBE67:
 232              		.loc 1 598 0
 233 00b2 1FFA80FA 		uxth	r10, r0
 234              	.LVL24:
 235              	.LBB68:
 236              	.LBB66:
 237              	.LBB64:
 238              	.LBB63:
 239              		.loc 1 467 0
 240 00b6 BAF1400F 		cmp	r10, #64
 241 00ba 05D8     		bhi	.L9
 242              		.loc 1 472 0
 243 00bc 5346     		mov	r3, r10
 244 00be 281D     		adds	r0, r5, #4
 245              	.LVL25:
 246 00c0 FFF7FEFF 		bl	usb_lld_rxcpy
 247              	.LVL26:
 248              		.loc 1 473 0
 249 00c4 A5F846A0 		strh	r10, [r5, #70]	@ movhi
 250              	.L9:
 251              		.loc 1 477 0
 252 00c8 0121     		movs	r1, #1
 253 00ca 3846     		mov	r0, r7
 254 00cc DAE7     		b	.L49
 255              	.LVL27:
 256              	.L6:
 257              	.LBE63:
 258              	.LBE64:
 259              	.LBE66:
 260              	.LBE68:
 261              		.loc 1 601 0
 262 00ce 0016     		asrs	r0, r0, #24
 263              	.LVL28:
 264 00d0 0138     		subs	r0, r0, #1
 265 00d2 0B28     		cmp	r0, #11
 266 00d4 B8D8     		bhi	.L3
 267 00d6 01A3     		adr	r3, .L11
 268 00d8 53F820F0 		ldr	pc, [r3, r0, lsl #2]
 269              		.p2align 2
 270              	.L11:
 271 00dc 0D010000 		.word	.L10+1
 272 00e0 49000000 		.word	.L3+1
 273 00e4 9B010000 		.word	.L12+1
 274 00e8 D7010000 		.word	.L13+1
 275 00ec CF010000 		.word	.L14+1
 276 00f0 CF010000 		.word	.L14+1
 277 00f4 CF010000 		.word	.L14+1
 278 00f8 CF010000 		.word	.L14+1
 279 00fc 15020000 		.word	.L15+1
 280 0100 2B010000 		.word	.L16+1
 281 0104 27020000 		.word	.L17+1
 282 0108 E9010000 		.word	.L18+1
 283              		.p2align 1
 284              	.L10:
 285              	.LVL29:
ARM GAS  /tmp/ccYBeXsn.s 			page 6


 286              	.LBB69:
 287              	.LBB70:
 288              		.loc 1 210 0
 289 010c 2046     		mov	r0, r4
 290 010e 8021     		movs	r1, #128
 291              	.LVL30:
 292 0110 FFF7FEFF 		bl	usb_lld_reset
 293              	.LVL31:
 294              		.loc 1 216 0
 295 0114 8022     		movs	r2, #128
 296 0116 4023     		movs	r3, #64
 297 0118 CDE90023 		strd	r2, r3, [sp]
 298 011c 0022     		movs	r2, #0
 299 011e 4FF40071 		mov	r1, #512
 300 0122 1046     		mov	r0, r2
 301 0124 FFF7FEFF 		bl	usb_lld_setup_endpoint
 302              	.LVL32:
 303              	.LBE70:
 304              	.LBE69:
 305              		.loc 1 605 0
 306 0128 8EE7     		b	.L3
 307              	.LVL33:
 308              	.L16:
 309              	.LBB71:
 310              	.LBB72:
 311              		.loc 1 281 0
 312 012a 2179     		ldrb	r1, [r4, #4]	@ zero_extendqisi2
 313              	.LVL34:
 314              		.loc 1 282 0
 315 012c E388     		ldrh	r3, [r4, #6]
 316              		.loc 1 281 0
 317 012e 01F01F01 		and	r1, r1, #31
 318              	.LVL35:
 319              		.loc 1 282 0
 320 0132 1A0A     		lsrs	r2, r3, #8
 321              		.loc 1 285 0
 322 0134 0129     		cmp	r1, #1
 323              		.loc 1 282 0
 324 0136 D0B2     		uxtb	r0, r2
 325              	.LVL36:
 326              		.loc 1 285 0
 327 0138 0ED1     		bne	.L19
 328              		.loc 1 287 0
 329 013a 2389     		ldrh	r3, [r4, #8]
 330              	.LVL37:
 331 013c 002B     		cmp	r3, #0
 332 013e 4FD1     		bne	.L40
 333              		.loc 1 289 0
 334 0140 212A     		cmp	r2, #33
 335 0142 05D1     		bne	.L22
 336              		.loc 1 290 0
 337 0144 0922     		movs	r2, #9
 338 0146 3E49     		ldr	r1, .L54+8
 339              	.LVL38:
 340              	.L53:
 341              	.LBE72:
 342              	.LBE71:
ARM GAS  /tmp/ccYBeXsn.s 			page 7


 343              	.LBB75:
 344              	.LBB76:
 345              		.loc 1 422 0
 346 0148 2046     		mov	r0, r4
 347 014a FFF7FEFF 		bl	usb_lld_ctrl_send
 348              	.LVL39:
 349 014e 5AE0     		b	.L51
 350              	.LVL40:
 351              	.L22:
 352              	.LBE76:
 353              	.LBE75:
 354              	.LBB78:
 355              	.LBB74:
 356              		.loc 1 291 0
 357 0150 222A     		cmp	r2, #34
 358 0152 45D1     		bne	.L40
 359              		.loc 1 292 0
 360 0154 3B49     		ldr	r1, .L54+12
 361              	.LVL41:
 362 0156 F7E7     		b	.L53
 363              	.LVL42:
 364              	.L19:
 365              		.loc 1 296 0
 366 0158 0029     		cmp	r1, #0
 367 015a 41D1     		bne	.L40
 368              		.loc 1 298 0
 369 015c 012A     		cmp	r2, #1
 370 015e 02D1     		bne	.L25
 371              		.loc 1 299 0
 372 0160 1222     		movs	r2, #18
 373 0162 3949     		ldr	r1, .L54+16
 374              	.LVL43:
 375 0164 F0E7     		b	.L53
 376              	.LVL44:
 377              	.L25:
 378              		.loc 1 301 0
 379 0166 022A     		cmp	r2, #2
 380 0168 02D1     		bne	.L26
 381              		.loc 1 302 0
 382 016a 2922     		movs	r2, #41
 383 016c 3749     		ldr	r1, .L54+20
 384              	.LVL45:
 385 016e EBE7     		b	.L53
 386              	.LVL46:
 387              	.L26:
 388              		.loc 1 304 0
 389 0170 0328     		cmp	r0, #3
 390 0172 35D1     		bne	.L40
 391              	.LBB73:
 392              		.loc 1 309 0
 393 0174 DBB2     		uxtb	r3, r3
 394 0176 032B     		cmp	r3, #3
 395 0178 32D8     		bhi	.L40
 396 017a DFE803F0 		tbb	[pc, r3]
 397              	.L28:
 398 017e 0B       		.byte	(.L42-.L28)/2
 399 017f 02       		.byte	(.L29-.L28)/2
ARM GAS  /tmp/ccYBeXsn.s 			page 8


 400 0180 05       		.byte	(.L30-.L28)/2
 401 0181 08       		.byte	(.L31-.L28)/2
 402              		.p2align 1
 403              	.L29:
 404              		.loc 1 317 0
 405 0182 1422     		movs	r2, #20
 406              		.loc 1 316 0
 407 0184 3249     		ldr	r1, .L54+24
 408              	.LVL47:
 409 0186 DFE7     		b	.L53
 410              	.LVL48:
 411              	.L30:
 412              		.loc 1 321 0
 413 0188 2422     		movs	r2, #36
 414              		.loc 1 320 0
 415 018a 3249     		ldr	r1, .L54+28
 416              	.LVL49:
 417 018c DCE7     		b	.L53
 418              	.LVL50:
 419              	.L31:
 420              		.loc 1 325 0
 421 018e 1C22     		movs	r2, #28
 422              		.loc 1 324 0
 423 0190 3149     		ldr	r1, .L54+32
 424              	.LVL51:
 425 0192 D9E7     		b	.L53
 426              	.LVL52:
 427              	.L42:
 428              		.loc 1 313 0
 429 0194 0422     		movs	r2, #4
 430              		.loc 1 312 0
 431 0196 3149     		ldr	r1, .L54+36
 432              	.LVL53:
 433 0198 D6E7     		b	.L53
 434              	.LVL54:
 435              	.L12:
 436              	.LBE73:
 437              	.LBE74:
 438              	.LBE78:
 439              	.LBB79:
 440              	.LBB80:
 441              		.loc 1 368 0
 442 019a 2848     		ldr	r0, .L54+4
 443 019c FFF7FEFF 		bl	usb_lld_current_configuration
 444              	.LVL55:
 445 01a0 E188     		ldrh	r1, [r4, #6]
 446              		.loc 1 369 0
 447 01a2 38B9     		cbnz	r0, .L32
 448              		.loc 1 371 0
 449 01a4 0129     		cmp	r1, #1
 450 01a6 1BD1     		bne	.L40
 451              		.loc 1 374 0
 452 01a8 2046     		mov	r0, r4
 453              	.LVL56:
 454 01aa FFF7FEFF 		bl	usb_lld_set_configuration
 455              	.LVL57:
 456              	.L48:
ARM GAS  /tmp/ccYBeXsn.s 			page 9


 457              	.LBE80:
 458              	.LBE79:
 459              	.LBB84:
 460              	.LBB85:
 461              	.LBB86:
 462              	.LBB87:
 463 01ae FFF7FEFF 		bl	hid_setup_endpoints_for_interface.isra.2.part.3
 464              	.LVL58:
 465 01b2 0CE0     		b	.L14
 466              	.LVL59:
 467              	.L32:
 468              	.LBE87:
 469              	.LBE86:
 470              	.LBE85:
 471              	.LBE84:
 472              	.LBB89:
 473              	.LBB83:
 474              		.loc 1 378 0
 475 01b4 80B2     		uxth	r0, r0
 476              	.LVL60:
 477 01b6 8842     		cmp	r0, r1
 478 01b8 09D0     		beq	.L14
 479              		.loc 1 380 0
 480 01ba 89B9     		cbnz	r1, .L40
 481              		.loc 1 383 0
 482 01bc 2046     		mov	r0, r4
 483 01be FFF7FEFF 		bl	usb_lld_set_configuration
 484              	.LVL61:
 485              	.LBB81:
 486              	.LBB82:
 487              		.loc 1 356 0
 488 01c2 0120     		movs	r0, #1
 489 01c4 FFF7FEFF 		bl	usb_lld_stall_tx
 490              	.LVL62:
 491              		.loc 1 357 0
 492 01c8 0120     		movs	r0, #1
 493 01ca FFF7FEFF 		bl	usb_lld_stall_rx
 494              	.LVL63:
 495              	.L14:
 496              	.LBE82:
 497              	.LBE81:
 498              	.LBE83:
 499              	.LBE89:
 500              		.loc 1 651 0
 501 01ce 2046     		mov	r0, r4
 502 01d0 FFF7FEFF 		bl	usb_lld_ctrl_ack
 503              	.LVL64:
 504              		.loc 1 652 0
 505 01d4 38E7     		b	.L3
 506              	.LVL65:
 507              	.L13:
 508              	.LBB90:
 509              	.LBB88:
 510              		.loc 1 399 0
 511 01d6 2289     		ldrh	r2, [r4, #8]
 512              		.loc 1 397 0
 513 01d8 E388     		ldrh	r3, [r4, #6]
ARM GAS  /tmp/ccYBeXsn.s 			page 10


 514              	.LVL66:
 515              		.loc 1 399 0
 516 01da 0AB9     		cbnz	r2, .L40
 517              		.loc 1 402 0
 518 01dc 002B     		cmp	r3, #0
 519 01de E6D0     		beq	.L48
 520              	.LVL67:
 521              	.L40:
 522              	.LBE88:
 523              	.LBE90:
 524              		.loc 1 623 0
 525 01e0 2046     		mov	r0, r4
 526 01e2 FFF7FEFF 		bl	usb_lld_ctrl_error
 527              	.LVL68:
 528 01e6 2FE7     		b	.L3
 529              	.LVL69:
 530              	.L18:
 531              	.LBB91:
 532              	.LBB92:
 533              		.loc 1 246 0
 534 01e8 2389     		ldrh	r3, [r4, #8]
 535 01ea 002B     		cmp	r3, #0
 536 01ec F8D1     		bne	.L40
 537              		.loc 1 248 0
 538 01ee 6379     		ldrb	r3, [r4, #5]	@ zero_extendqisi2
 539 01f0 022B     		cmp	r3, #2
 540 01f2 0CD0     		beq	.L35
 541 01f4 0A2B     		cmp	r3, #10
 542 01f6 F3D1     		bne	.L40
 543              		.loc 1 253 0
 544 01f8 E388     		ldrh	r3, [r4, #6]
 545 01fa 194A     		ldr	r2, .L54+40
 546 01fc 1B0A     		lsrs	r3, r3, #8
 547              		.loc 1 254 0
 548 01fe 2046     		mov	r0, r4
 549              		.loc 1 253 0
 550 0200 1370     		strb	r3, [r2]
 551              		.loc 1 254 0
 552 0202 FFF7FEFF 		bl	usb_lld_ctrl_ack
 553              	.LVL70:
 554              	.L51:
 555              	.LBE92:
 556              	.LBE91:
 557              		.loc 1 643 0
 558 0206 0028     		cmp	r0, #0
 559 0208 BFF61EAF 		bge	.L3
 560 020c E8E7     		b	.L40
 561              	.LVL71:
 562              	.L35:
 563              	.LBB94:
 564              	.LBB93:
 565              		.loc 1 251 0
 566 020e 0122     		movs	r2, #1
 567 0210 1349     		ldr	r1, .L54+40
 568              	.LVL72:
 569 0212 99E7     		b	.L53
 570              	.LVL73:
ARM GAS  /tmp/ccYBeXsn.s 			page 11


 571              	.L15:
 572              	.LBE93:
 573              	.LBE94:
 574              	.LBB95:
 575              	.LBB96:
 576              		.loc 1 428 0
 577 0214 0023     		movs	r3, #0
 578 0216 ADF81430 		strh	r3, [sp, #20]	@ movhi
 579              	.LVL74:
 580              		.loc 1 431 0
 581 021a 2389     		ldrh	r3, [r4, #8]
 582 021c 002B     		cmp	r3, #0
 583 021e DFD1     		bne	.L40
 584              		.loc 1 434 0
 585 0220 0222     		movs	r2, #2
 586              	.LVL75:
 587              	.L47:
 588              	.LBE96:
 589              	.LBE95:
 590              	.LBB97:
 591              	.LBB77:
 592              		.loc 1 422 0
 593 0222 5146     		mov	r1, r10
 594              	.LVL76:
 595 0224 90E7     		b	.L53
 596              	.LVL77:
 597              	.L17:
 598              		.loc 1 415 0
 599 0226 0023     		movs	r3, #0
 600 0228 8DF81430 		strb	r3, [sp, #20]
 601              	.LVL78:
 602              		.loc 1 418 0
 603 022c 2389     		ldrh	r3, [r4, #8]
 604 022e 002B     		cmp	r3, #0
 605 0230 D6D1     		bne	.L40
 606              		.loc 1 422 0
 607 0232 0122     		movs	r2, #1
 608 0234 F5E7     		b	.L47
 609              	.L55:
 610 0236 00BF     		.align	2
 611              	.L54:
 612 0238 00000000 		.word	.LANCHOR4
 613 023c 00000000 		.word	.LANCHOR5
 614 0240 12000000 		.word	.LANCHOR6+18
 615 0244 00000000 		.word	.LANCHOR7
 616 0248 00000000 		.word	.LANCHOR8
 617 024c 00000000 		.word	.LANCHOR6
 618 0250 00000000 		.word	.LANCHOR1
 619 0254 00000000 		.word	.LANCHOR2
 620 0258 00000000 		.word	.LANCHOR3
 621 025c 00000000 		.word	.LANCHOR0
 622 0260 00000000 		.word	.LANCHOR9
 623 0264 30C11D00 		.word	1950000
 624              	.LBE77:
 625              	.LBE97:
 626              	.LBE103:
 627              	.LBE52:
ARM GAS  /tmp/ccYBeXsn.s 			page 12


 628              		.cfi_endproc
 629              	.LFE27:
 630              		.size	hid_main, .-hid_main
 631              		.section	.text.hid_open,"ax",%progbits
 632              		.align	1
 633              		.global	hid_open
 634              		.syntax unified
 635              		.thumb
 636              		.thumb_func
 637              		.fpu softvfp
 638              		.type	hid_open, %function
 639              	hid_open:
 640              	.LFB28:
 641              		.loc 1 682 0
 642              		.cfi_startproc
 643              		@ args = 0, pretend = 0, frame = 0
 644              		@ frame_needed = 0, uses_anonymous_args = 0
 645 0000 13B5     		push	{r0, r1, r4, lr}
 646              		.cfi_def_cfa_offset 16
 647              		.cfi_offset 4, -8
 648              		.cfi_offset 14, -4
 649              		.loc 1 683 0
 650 0002 054C     		ldr	r4, .L57
 651 0004 054B     		ldr	r3, .L57+4
 652 0006 0094     		str	r4, [sp]
 653 0008 054A     		ldr	r2, .L57+8
 654 000a 0649     		ldr	r1, .L57+12
 655 000c 0820     		movs	r0, #8
 656 000e FFF7FEFF 		bl	chopstx_create
 657              	.LVL79:
 658              		.loc 1 685 0
 659 0012 2046     		mov	r0, r4
 660 0014 02B0     		add	sp, sp, #8
 661              		.cfi_def_cfa_offset 8
 662              		@ sp needed
 663 0016 10BD     		pop	{r4, pc}
 664              	.L58:
 665              		.align	2
 666              	.L57:
 667 0018 00000000 		.word	.LANCHOR10
 668 001c 00000000 		.word	hid_main
 669 0020 00000000 		.word	__process3_stack_size__
 670 0024 00000000 		.word	__process3_stack_base__
 671              		.cfi_endproc
 672              	.LFE28:
 673              		.size	hid_open, .-hid_open
 674              		.section	.text.hid_send,"ax",%progbits
 675              		.align	1
 676              		.global	hid_send
 677              		.syntax unified
 678              		.thumb
 679              		.thumb_func
 680              		.fpu softvfp
 681              		.type	hid_send, %function
 682              	hid_send:
 683              	.LFB29:
 684              		.loc 1 689 0
ARM GAS  /tmp/ccYBeXsn.s 			page 13


 685              		.cfi_startproc
 686              		@ args = 0, pretend = 0, frame = 0
 687              		@ frame_needed = 0, uses_anonymous_args = 0
 688              	.LVL80:
 689              		.loc 1 692 0
 690 0000 402A     		cmp	r2, #64
 691              		.loc 1 689 0
 692 0002 38B5     		push	{r3, r4, r5, lr}
 693              		.cfi_def_cfa_offset 16
 694              		.cfi_offset 3, -16
 695              		.cfi_offset 4, -12
 696              		.cfi_offset 5, -8
 697              		.cfi_offset 14, -4
 698              		.loc 1 689 0
 699 0004 0546     		mov	r5, r0
 700 0006 1446     		mov	r4, r2
 701              		.loc 1 692 0
 702 0008 0ED8     		bhi	.L62
 703              		.loc 1 695 0
 704 000a A5F84420 		strh	r2, [r5, #68]	@ movhi
 705              		.loc 1 699 0
 706 000e 40F8481B 		str	r1, [r0], #72
 707              	.LVL81:
 708              		.loc 1 701 0
 709 0012 0121     		movs	r1, #1
 710              	.LVL82:
 711 0014 FFF7FEFF 		bl	eventflag_signal
 712              	.LVL83:
 713              		.loc 1 705 0
 714 0018 8035     		adds	r5, r5, #128
 715              	.LVL84:
 716              	.L61:
 717              		.loc 1 705 0 is_stmt 0 discriminator 1
 718 001a 2846     		mov	r0, r5
 719 001c FFF7FEFF 		bl	eventflag_wait
 720              	.LVL85:
 721              		.loc 1 707 0 is_stmt 1 discriminator 1
 722 0020 0128     		cmp	r0, #1
 723 0022 FAD1     		bne	.L61
 724              		.loc 1 709 0
 725 0024 2046     		mov	r0, r4
 726              	.LVL86:
 727              	.L59:
 728              		.loc 1 710 0
 729 0026 38BD     		pop	{r3, r4, r5, pc}
 730              	.LVL87:
 731              	.L62:
 732              		.loc 1 693 0
 733 0028 4FF0FF30 		mov	r0, #-1
 734              	.LVL88:
 735 002c FBE7     		b	.L59
 736              		.cfi_endproc
 737              	.LFE29:
 738              		.size	hid_send, .-hid_send
 739              		.section	.text.hid_recv,"ax",%progbits
 740              		.align	1
 741              		.global	hid_recv
ARM GAS  /tmp/ccYBeXsn.s 			page 14


 742              		.syntax unified
 743              		.thumb
 744              		.thumb_func
 745              		.fpu softvfp
 746              		.type	hid_recv, %function
 747              	hid_recv:
 748              	.LFB30:
 749              		.loc 1 714 0
 750              		.cfi_startproc
 751              		@ args = 0, pretend = 0, frame = 0
 752              		@ frame_needed = 0, uses_anonymous_args = 0
 753              	.LVL89:
 754 0000 2DE9F041 		push	{r4, r5, r6, r7, r8, lr}
 755              		.cfi_def_cfa_offset 24
 756              		.cfi_offset 4, -24
 757              		.cfi_offset 5, -20
 758              		.cfi_offset 6, -16
 759              		.cfi_offset 7, -12
 760              		.cfi_offset 8, -8
 761              		.cfi_offset 14, -4
 762              		.loc 1 714 0
 763 0004 0446     		mov	r4, r0
 764              		.loc 1 720 0
 765 0006 0120     		movs	r0, #1
 766              	.LVL90:
 767              		.loc 1 714 0
 768 0008 0D46     		mov	r5, r1
 769 000a 1646     		mov	r6, r2
 770 000c 9846     		mov	r8, r3
 771              		.loc 1 720 0
 772 000e FFF7FEFF 		bl	usb_lld_rx_enable
 773              	.LVL91:
 774              		.loc 1 725 0
 775 0012 04F16407 		add	r7, r4, #100
 776              	.L65:
 777              		.loc 1 725 0 is_stmt 0 discriminator 1
 778 0016 4146     		mov	r1, r8
 779 0018 3846     		mov	r0, r7
 780 001a FFF7FEFF 		bl	eventflag_wait_timeout
 781              	.LVL92:
 782              		.loc 1 727 0 is_stmt 1 discriminator 1
 783 001e 0128     		cmp	r0, #1
 784 0020 F9D8     		bhi	.L65
 785              		.loc 1 729 0
 786 0022 58B1     		cbz	r0, .L68
 787              		.loc 1 732 0
 788 0024 B4F84620 		ldrh	r2, [r4, #70]
 789 0028 B242     		cmp	r2, r6
 790 002a 07D8     		bhi	.L68
 791              		.loc 1 734 0
 792 002c 211D     		adds	r1, r4, #4
 793 002e 2846     		mov	r0, r5
 794              	.LVL93:
 795 0030 FFF7FEFF 		bl	memcpy
 796              	.LVL94:
 797              		.loc 1 735 0
 798 0034 B4F84600 		ldrh	r0, [r4, #70]
ARM GAS  /tmp/ccYBeXsn.s 			page 15


 799              	.L64:
 800              		.loc 1 739 0
 801 0038 BDE8F081 		pop	{r4, r5, r6, r7, r8, pc}
 802              	.LVL95:
 803              	.L68:
 804              		.loc 1 730 0
 805 003c 4FF0FF30 		mov	r0, #-1
 806              	.LVL96:
 807 0040 FAE7     		b	.L64
 808              		.cfi_endproc
 809              	.LFE30:
 810              		.size	hid_recv, .-hid_recv
 811              		.section	.bss.dev,"aw",%nobits
 812              		.align	2
 813              		.set	.LANCHOR5,. + 0
 814              		.type	dev, %object
 815              		.size	dev, 20
 816              	dev:
 817 0000 00000000 		.space	20
 817      00000000 
 817      00000000 
 817      00000000 
 817      00000000 
 818              		.section	.bss.hid_idle_rate,"aw",%nobits
 819              		.set	.LANCHOR9,. + 0
 820              		.type	hid_idle_rate, %object
 821              		.size	hid_idle_rate, 1
 822              	hid_idle_rate:
 823 0000 00       		.space	1
 824              		.section	.bss.interrupt,"aw",%nobits
 825              		.align	1
 826              		.set	.LANCHOR4,. + 0
 827              		.type	interrupt, %object
 828              		.size	interrupt, 6
 829              	interrupt:
 830 0000 00000000 		.space	6
 830      0000
 831              		.section	.bss.usb_hid,"aw",%nobits
 832              		.align	2
 833              		.set	.LANCHOR10,. + 0
 834              		.type	usb_hid, %object
 835              		.size	usb_hid, 156
 836              	usb_hid:
 837 0000 00000000 		.space	156
 837      00000000 
 837      00000000 
 837      00000000 
 837      00000000 
 838              		.section	.rodata.hid_report_desc,"a",%progbits
 839              		.set	.LANCHOR7,. + 0
 840              		.type	hid_report_desc, %object
 841              		.size	hid_report_desc, 34
 842              	hid_report_desc:
 843 0000 06       		.byte	6
 844 0001 D0       		.byte	-48
 845 0002 F1       		.byte	-15
 846 0003 09       		.byte	9
ARM GAS  /tmp/ccYBeXsn.s 			page 16


 847 0004 01       		.byte	1
 848 0005 A1       		.byte	-95
 849 0006 01       		.byte	1
 850 0007 09       		.byte	9
 851 0008 20       		.byte	32
 852 0009 15       		.byte	21
 853 000a 00       		.byte	0
 854 000b 26       		.byte	38
 855 000c FF       		.byte	-1
 856 000d 00       		.byte	0
 857 000e 75       		.byte	117
 858 000f 08       		.byte	8
 859 0010 95       		.byte	-107
 860 0011 40       		.byte	64
 861 0012 81       		.byte	-127
 862 0013 02       		.byte	2
 863 0014 09       		.byte	9
 864 0015 21       		.byte	33
 865 0016 15       		.byte	21
 866 0017 00       		.byte	0
 867 0018 26       		.byte	38
 868 0019 FF       		.byte	-1
 869 001a 00       		.byte	0
 870 001b 75       		.byte	117
 871 001c 08       		.byte	8
 872 001d 95       		.byte	-107
 873 001e 40       		.byte	64
 874 001f 91       		.byte	-111
 875 0020 02       		.byte	2
 876 0021 C0       		.byte	-64
 877              		.section	.rodata.u2f_config_desc,"a",%progbits
 878              		.set	.LANCHOR6,. + 0
 879              		.type	u2f_config_desc, %object
 880              		.size	u2f_config_desc, 41
 881              	u2f_config_desc:
 882 0000 09       		.byte	9
 883 0001 02       		.byte	2
 884 0002 29       		.byte	41
 885 0003 00       		.byte	0
 886 0004 01       		.byte	1
 887 0005 01       		.byte	1
 888 0006 00       		.byte	0
 889 0007 80       		.byte	-128
 890 0008 32       		.byte	50
 891 0009 09       		.byte	9
 892 000a 04       		.byte	4
 893 000b 00       		.byte	0
 894 000c 00       		.byte	0
 895 000d 02       		.byte	2
 896 000e 03       		.byte	3
 897 000f 00       		.byte	0
 898 0010 00       		.byte	0
 899 0011 04       		.byte	4
 900 0012 09       		.byte	9
 901 0013 21       		.byte	33
 902 0014 10       		.byte	16
 903 0015 01       		.byte	1
ARM GAS  /tmp/ccYBeXsn.s 			page 17


 904 0016 00       		.byte	0
 905 0017 01       		.byte	1
 906 0018 22       		.byte	34
 907 0019 22       		.byte	34
 908 001a 00       		.byte	0
 909 001b 07       		.byte	7
 910 001c 05       		.byte	5
 911 001d 81       		.byte	-127
 912 001e 03       		.byte	3
 913 001f 40       		.byte	64
 914 0020 00       		.byte	0
 915 0021 05       		.byte	5
 916 0022 07       		.byte	7
 917 0023 05       		.byte	5
 918 0024 01       		.byte	1
 919 0025 03       		.byte	3
 920 0026 40       		.byte	64
 921 0027 00       		.byte	0
 922 0028 05       		.byte	5
 923              		.section	.rodata.u2f_device_desc,"a",%progbits
 924              		.set	.LANCHOR8,. + 0
 925              		.type	u2f_device_desc, %object
 926              		.size	u2f_device_desc, 18
 927              	u2f_device_desc:
 928 0000 12       		.byte	18
 929 0001 01       		.byte	1
 930 0002 10       		.byte	16
 931 0003 01       		.byte	1
 932 0004 00       		.byte	0
 933 0005 00       		.byte	0
 934 0006 00       		.byte	0
 935 0007 40       		.byte	64
 936 0008 83       		.byte	-125
 937 0009 04       		.byte	4
 938 000a AB       		.byte	-85
 939 000b CD       		.byte	-51
 940 000c 00       		.byte	0
 941 000d 01       		.byte	1
 942 000e 01       		.byte	1
 943 000f 02       		.byte	2
 944 0010 03       		.byte	3
 945 0011 01       		.byte	1
 946              		.section	.rodata.usb_string0,"a",%progbits
 947              		.set	.LANCHOR0,. + 0
 948              		.type	usb_string0, %object
 949              		.size	usb_string0, 4
 950              	usb_string0:
 951 0000 04       		.byte	4
 952 0001 03       		.byte	3
 953 0002 09       		.byte	9
 954 0003 04       		.byte	4
 955              		.section	.rodata.usb_string1,"a",%progbits
 956              		.set	.LANCHOR1,. + 0
 957              		.type	usb_string1, %object
 958              		.size	usb_string1, 20
 959              	usb_string1:
 960 0000 14       		.byte	20
ARM GAS  /tmp/ccYBeXsn.s 			page 18


 961 0001 03       		.byte	3
 962 0002 47       		.byte	71
 963 0003 00       		.byte	0
 964 0004 6C       		.byte	108
 965 0005 00       		.byte	0
 966 0006 2E       		.byte	46
 967 0007 00       		.byte	0
 968 0008 53       		.byte	83
 969 0009 00       		.byte	0
 970 000a 65       		.byte	101
 971 000b 00       		.byte	0
 972 000c 72       		.byte	114
 973 000d 00       		.byte	0
 974 000e 67       		.byte	103
 975 000f 00       		.byte	0
 976 0010 65       		.byte	101
 977 0011 00       		.byte	0
 978 0012 69       		.byte	105
 979 0013 00       		.byte	0
 980              		.section	.rodata.usb_string2,"a",%progbits
 981              		.set	.LANCHOR2,. + 0
 982              		.type	usb_string2, %object
 983              		.size	usb_string2, 36
 984              	usb_string2:
 985 0000 24       		.byte	36
 986 0001 03       		.byte	3
 987 0002 55       		.byte	85
 988 0003 00       		.byte	0
 989 0004 32       		.byte	50
 990 0005 00       		.byte	0
 991 0006 46       		.byte	70
 992 0007 00       		.byte	0
 993 0008 2D       		.byte	45
 994 0009 00       		.byte	0
 995 000a 74       		.byte	116
 996 000b 00       		.byte	0
 997 000c 6F       		.byte	111
 998 000d 00       		.byte	0
 999 000e 6B       		.byte	107
 1000 000f 00       		.byte	0
 1001 0010 65       		.byte	101
 1002 0011 00       		.byte	0
 1003 0012 6E       		.byte	110
 1004 0013 00       		.byte	0
 1005 0014 20       		.byte	32
 1006 0015 00       		.byte	0
 1007 0016 28       		.byte	40
 1008 0017 00       		.byte	0
 1009 0018 53       		.byte	83
 1010 0019 00       		.byte	0
 1011 001a 54       		.byte	84
 1012 001b 00       		.byte	0
 1013 001c 4D       		.byte	77
 1014 001d 00       		.byte	0
 1015 001e 33       		.byte	51
 1016 001f 00       		.byte	0
 1017 0020 32       		.byte	50
ARM GAS  /tmp/ccYBeXsn.s 			page 19


 1018 0021 00       		.byte	0
 1019 0022 29       		.byte	41
 1020 0023 00       		.byte	0
 1021              		.section	.rodata.usb_string3,"a",%progbits
 1022              		.set	.LANCHOR3,. + 0
 1023              		.type	usb_string3, %object
 1024              		.size	usb_string3, 28
 1025              	usb_string3:
 1026 0000 1C       		.byte	28
 1027 0001 03       		.byte	3
 1028 0002 30       		.byte	48
 1029 0003 00       		.byte	0
 1030 0004 2E       		.byte	46
 1031 0005 00       		.byte	0
 1032 0006 30       		.byte	48
 1033 0007 00       		.byte	0
 1034 0008 30       		.byte	48
 1035 0009 00       		.byte	0
 1036 000a 00000000 		.space	18
 1036      00000000 
 1036      00000000 
 1036      00000000 
 1036      0000
 1037              		.text
 1038              	.Letext0:
 1039              		.file 2 "/usr/arm-none-eabi/include/machine/_default_types.h"
 1040              		.file 3 "/usr/arm-none-eabi/include/sys/_stdint.h"
 1041              		.file 4 "/usr/arm-none-eabi/include/sys/lock.h"
 1042              		.file 5 "/usr/arm-none-eabi/include/sys/_types.h"
 1043              		.file 6 "/usr/lib/gcc/arm-none-eabi/7.3.1/include/stddef.h"
 1044              		.file 7 "/usr/arm-none-eabi/include/sys/reent.h"
 1045              		.file 8 "/usr/arm-none-eabi/include/stdlib.h"
 1046              		.file 9 "../chopstx/chopstx.h"
 1047              		.file 10 "../chopstx/eventflag.h"
 1048              		.file 11 "../chopstx/mcu/sys-stm32f103.h"
 1049              		.file 12 "../chopstx/usb_lld.h"
 1050              		.file 13 "<built-in>"