ARM GAS  /tmp/ccZZnDVc.s 			page 1


   1              		.cpu cortex-m3
   2              		.eabi_attribute 20, 1
   3              		.eabi_attribute 21, 1
   4              		.eabi_attribute 23, 3
   5              		.eabi_attribute 24, 1
   6              		.eabi_attribute 25, 1
   7              		.eabi_attribute 26, 1
   8              		.eabi_attribute 30, 4
   9              		.eabi_attribute 34, 1
  10              		.eabi_attribute 18, 4
  11              		.file	"uvoid.c"
  12              		.text
  13              	.Ltext0:
  14              		.cfi_sections	.debug_frame
  15              		.section	.text.uvoid,"ax",%progbits
  16              		.align	1
  17              		.syntax unified
  18              		.thumb
  19              		.thumb_func
  20              		.fpu softvfp
  21              		.type	uvoid, %function
  22              	uvoid:
  23              	.LFB0:
  24              		.file 1 "uvoid.c"
  25              		.loc 1 45 0
  26              		.cfi_startproc
  27              		@ args = 0, pretend = 0, frame = 0
  28              		@ frame_needed = 0, uses_anonymous_args = 0
  29              	.LVL0:
  30 0000 38B5     		push	{r3, r4, r5, lr}
  31              		.cfi_def_cfa_offset 16
  32              		.cfi_offset 3, -16
  33              		.cfi_offset 4, -12
  34              		.cfi_offset 5, -8
  35              		.cfi_offset 14, -4
  36              		.loc 1 45 0
  37 0002 6424     		movs	r4, #100
  38              		.loc 1 51 0
  39 0004 064D     		ldr	r5, .L5
  40              	.LVL1:
  41              	.L2:
  42              		.loc 1 51 0 is_stmt 0 discriminator 3
  43 0006 2846     		mov	r0, r5
  44 0008 FFF7FEFF 		bl	chopstx_usec_wait
  45              	.LVL2:
  46              		.loc 1 50 0 is_stmt 1 discriminator 3
  47 000c 013C     		subs	r4, r4, #1
  48              	.LVL3:
  49 000e FAD1     		bne	.L2
  50              		.loc 1 53 0
  51 0010 044B     		ldr	r3, .L5+4
  52 0012 1C60     		str	r4, [r3]
  53              		.loc 1 56 0
  54 0014 024C     		ldr	r4, .L5
  55              	.LVL4:
  56              	.L3:
  57              		.loc 1 56 0 is_stmt 0 discriminator 1
ARM GAS  /tmp/ccZZnDVc.s 			page 2


  58 0016 2046     		mov	r0, r4
  59 0018 FFF7FEFF 		bl	chopstx_usec_wait
  60              	.LVL5:
  61 001c FBE7     		b	.L3
  62              	.L6:
  63 001e 00BF     		.align	2
  64              	.L5:
  65 0020 A0860100 		.word	100000
  66 0024 00000000 		.word	.LANCHOR0
  67              		.cfi_endproc
  68              	.LFE0:
  69              		.size	uvoid, .-uvoid
  70              		.section	.text.user_presence_get,"ax",%progbits
  71              		.align	1
  72              		.global	user_presence_get
  73              		.syntax unified
  74              		.thumb
  75              		.thumb_func
  76              		.fpu softvfp
  77              		.type	user_presence_get, %function
  78              	user_presence_get:
  79              	.LFB1:
  80              		.loc 1 63 0 is_stmt 1
  81              		.cfi_startproc
  82              		@ args = 0, pretend = 0, frame = 0
  83              		@ frame_needed = 0, uses_anonymous_args = 0
  84              		@ link register save eliminated.
  85              		.loc 1 65 0
  86 0000 014B     		ldr	r3, .L8
  87 0002 1868     		ldr	r0, [r3]
  88 0004 7047     		bx	lr
  89              	.L9:
  90 0006 00BF     		.align	2
  91              	.L8:
  92 0008 00000000 		.word	.LANCHOR0
  93              		.cfi_endproc
  94              	.LFE1:
  95              		.size	user_presence_get, .-user_presence_get
  96              		.section	.text.user_presence_reset,"ax",%progbits
  97              		.align	1
  98              		.global	user_presence_reset
  99              		.syntax unified
 100              		.thumb
 101              		.thumb_func
 102              		.fpu softvfp
 103              		.type	user_presence_reset, %function
 104              	user_presence_reset:
 105              	.LFB2:
 106              		.loc 1 69 0
 107              		.cfi_startproc
 108              		@ args = 0, pretend = 0, frame = 0
 109              		@ frame_needed = 0, uses_anonymous_args = 0
 110              		@ link register save eliminated.
 111              		.loc 1 70 0
 112 0000 0022     		movs	r2, #0
 113 0002 014B     		ldr	r3, .L11
 114 0004 1A60     		str	r2, [r3]
ARM GAS  /tmp/ccZZnDVc.s 			page 3


 115              		.loc 1 71 0
 116 0006 7047     		bx	lr
 117              	.L12:
 118              		.align	2
 119              	.L11:
 120 0008 00000000 		.word	.LANCHOR0
 121              		.cfi_endproc
 122              	.LFE2:
 123              		.size	user_presence_reset, .-user_presence_reset
 124              		.section	.text.uvoid_init,"ax",%progbits
 125              		.align	1
 126              		.global	uvoid_init
 127              		.syntax unified
 128              		.thumb
 129              		.thumb_func
 130              		.fpu softvfp
 131              		.type	uvoid_init, %function
 132              	uvoid_init:
 133              	.LFB3:
 134              		.loc 1 75 0
 135              		.cfi_startproc
 136              		@ args = 0, pretend = 0, frame = 0
 137              		@ frame_needed = 0, uses_anonymous_args = 0
 138              		.loc 1 76 0
 139 0000 0023     		movs	r3, #0
 140              		.loc 1 75 0
 141 0002 07B5     		push	{r0, r1, r2, lr}
 142              		.cfi_def_cfa_offset 16
 143              		.cfi_offset 14, -4
 144              		.loc 1 76 0
 145 0004 044A     		ldr	r2, .L14
 146 0006 0093     		str	r3, [sp]
 147 0008 0449     		ldr	r1, .L14+4
 148 000a 054B     		ldr	r3, .L14+8
 149 000c 0220     		movs	r0, #2
 150 000e FFF7FEFF 		bl	chopstx_create
 151              	.LVL6:
 152              		.loc 1 77 0
 153 0012 03B0     		add	sp, sp, #12
 154              		.cfi_def_cfa_offset 4
 155              		@ sp needed
 156 0014 5DF804FB 		ldr	pc, [sp], #4
 157              	.L15:
 158              		.align	2
 159              	.L14:
 160 0018 00000000 		.word	__process6_stack_size__
 161 001c 00000000 		.word	__process6_stack_base__
 162 0020 00000000 		.word	uvoid
 163              		.cfi_endproc
 164              	.LFE3:
 165              		.size	uvoid_init, .-uvoid_init
 166              		.section	.data.touch,"aw",%progbits
 167              		.align	2
 168              		.set	.LANCHOR0,. + 0
 169              		.type	touch, %object
 170              		.size	touch, 4
 171              	touch:
ARM GAS  /tmp/ccZZnDVc.s 			page 4


 172 0000 01000000 		.word	1
 173              		.text
 174              	.Letext0:
 175              		.file 2 "/usr/arm-none-eabi/include/machine/_default_types.h"
 176              		.file 3 "/usr/arm-none-eabi/include/sys/_stdint.h"
 177              		.file 4 "/usr/arm-none-eabi/include/sys/lock.h"
 178              		.file 5 "/usr/arm-none-eabi/include/sys/_types.h"
 179              		.file 6 "/usr/lib/gcc/arm-none-eabi/7.3.1/include/stddef.h"
 180              		.file 7 "/usr/arm-none-eabi/include/sys/reent.h"
 181              		.file 8 "/usr/arm-none-eabi/include/stdlib.h"
 182              		.file 9 "../chopstx/chopstx.h"